
Floating_point.elf:     file format elf32-littlenios2
Floating_point.elf
architecture: nios2:r1, flags 0x00000112:
EXEC_P, HAS_SYMS, D_PAGED
start address 0x00800230

Program Header:
    LOAD off    0x00001000 vaddr 0x00800000 paddr 0x00800000 align 2**12
         filesz 0x00000020 memsz 0x00000020 flags r-x
    LOAD off    0x00001020 vaddr 0x00800020 paddr 0x00800020 align 2**12
         filesz 0x0001507c memsz 0x0001507c flags r-x
    LOAD off    0x0001609c vaddr 0x0081509c paddr 0x00816b8c align 2**12
         filesz 0x00001af0 memsz 0x00001af0 flags rw-
    LOAD off    0x0001867c vaddr 0x0081867c paddr 0x0081867c align 2**12
         filesz 0x00000000 memsz 0x00000160 flags rw-

Sections:
Idx Name          Size      VMA       LMA       File off  Algn
  0 .entry        00000020  00800000  00800000  00001000  2**5
                  CONTENTS, ALLOC, LOAD, READONLY, CODE
  1 .exceptions   00000210  00800020  00800020  00001020  2**2
                  CONTENTS, ALLOC, LOAD, READONLY, CODE
  2 .text         00014768  00800230  00800230  00001230  2**2
                  CONTENTS, ALLOC, LOAD, READONLY, CODE
  3 .rodata       00000704  00814998  00814998  00015998  2**2
                  CONTENTS, ALLOC, LOAD, READONLY, DATA
  4 .rwdata       00001af0  0081509c  00816b8c  0001609c  2**2
                  CONTENTS, ALLOC, LOAD, DATA, SMALL_DATA
  5 .bss          00000160  0081867c  0081867c  0001867c  2**2
                  ALLOC, SMALL_DATA
  6 .sdram        00000000  008187dc  008187dc  00017b8c  2**0
                  CONTENTS
  7 .onchip_ram   00000000  01004000  01004000  00017b8c  2**0
                  CONTENTS
  8 .comment      00000023  00000000  00000000  00017b8c  2**0
                  CONTENTS, READONLY
  9 .debug_aranges 00001190  00000000  00000000  00017bb0  2**3
                  CONTENTS, READONLY, DEBUGGING
 10 .debug_info   0002bf2a  00000000  00000000  00018d40  2**0
                  CONTENTS, READONLY, DEBUGGING
 11 .debug_abbrev 0000b09f  00000000  00000000  00044c6a  2**0
                  CONTENTS, READONLY, DEBUGGING
 12 .debug_line   0000e380  00000000  00000000  0004fd09  2**0
                  CONTENTS, READONLY, DEBUGGING
 13 .debug_frame  000025d4  00000000  00000000  0005e08c  2**2
                  CONTENTS, READONLY, DEBUGGING
 14 .debug_str    0000420b  00000000  00000000  00060660  2**0
                  CONTENTS, READONLY, DEBUGGING
 15 .debug_loc    0001ed61  00000000  00000000  0006486b  2**0
                  CONTENTS, READONLY, DEBUGGING
 16 .debug_alt_sim_info 00000010  00000000  00000000  000835cc  2**2
                  CONTENTS, READONLY, DEBUGGING
 17 .debug_ranges 00001cf8  00000000  00000000  000835e0  2**3
                  CONTENTS, READONLY, DEBUGGING
 18 .thread_model 00000003  00000000  00000000  0008894d  2**0
                  CONTENTS, READONLY
 19 .cpu          00000009  00000000  00000000  00088950  2**0
                  CONTENTS, READONLY
 20 .qsys         00000001  00000000  00000000  00088959  2**0
                  CONTENTS, READONLY
 21 .simulation_enabled 00000001  00000000  00000000  0008895a  2**0
                  CONTENTS, READONLY
 22 .sysid_hash   00000004  00000000  00000000  0008895b  2**0
                  CONTENTS, READONLY
 23 .sysid_base   00000004  00000000  00000000  0008895f  2**0
                  CONTENTS, READONLY
 24 .sysid_time   00000004  00000000  00000000  00088963  2**0
                  CONTENTS, READONLY
 25 .stderr_dev   00000009  00000000  00000000  00088967  2**0
                  CONTENTS, READONLY
 26 .stdin_dev    00000009  00000000  00000000  00088970  2**0
                  CONTENTS, READONLY
 27 .stdout_dev   00000009  00000000  00000000  00088979  2**0
                  CONTENTS, READONLY
 28 .sopc_system_name 00000017  00000000  00000000  00088982  2**0
                  CONTENTS, READONLY
 29 .quartus_project_dir 00000037  00000000  00000000  00088999  2**0
                  CONTENTS, READONLY
 30 .sopcinfo     0005a8d5  00000000  00000000  000889d0  2**0
                  CONTENTS, READONLY
SYMBOL TABLE:
00800000 l    d  .entry	00000000 .entry
00800020 l    d  .exceptions	00000000 .exceptions
00800230 l    d  .text	00000000 .text
00814998 l    d  .rodata	00000000 .rodata
0081509c l    d  .rwdata	00000000 .rwdata
0081867c l    d  .bss	00000000 .bss
008187dc l    d  .sdram	00000000 .sdram
01004000 l    d  .onchip_ram	00000000 .onchip_ram
00000000 l    d  .comment	00000000 .comment
00000000 l    d  .debug_aranges	00000000 .debug_aranges
00000000 l    d  .debug_info	00000000 .debug_info
00000000 l    d  .debug_abbrev	00000000 .debug_abbrev
00000000 l    d  .debug_line	00000000 .debug_line
00000000 l    d  .debug_frame	00000000 .debug_frame
00000000 l    d  .debug_str	00000000 .debug_str
00000000 l    d  .debug_loc	00000000 .debug_loc
00000000 l    d  .debug_alt_sim_info	00000000 .debug_alt_sim_info
00000000 l    d  .debug_ranges	00000000 .debug_ranges
00000000 l    df *ABS*	00000000 ../Floating_point_bsp//obj/HAL/src/crt0.o
00800268 l       .text	00000000 alt_after_alt_main
00000000 l    df *ABS*	00000000 alt_irq_handler.c
00000000 l    df *ABS*	00000000 alt_instruction_exception_entry.c
00000000 l    df *ABS*	00000000 hello_world.c
00000000 l    df *ABS*	00000000 impure.c
0081509c l     O .rwdata	00000424 impure_data
00000000 l    df *ABS*	00000000 putc.c
00000000 l    df *ABS*	00000000 putchar.c
00000000 l    df *ABS*	00000000 scanf.c
00000000 l    df *ABS*	00000000 vfscanf.c
008149a6 l     O .rodata	00000022 basefix.4359
00000000 l    df *ABS*	00000000 wbuf.c
00000000 l    df *ABS*	00000000 wsetup.c
00000000 l    df *ABS*	00000000 ctype_.c
00814ac9 l     O .rodata	00000180 _ctype_b
00000000 l    df *ABS*	00000000 fflush.c
00000000 l    df *ABS*	00000000 findfp.c
0080256c l     F .text	00000008 __fp_unlock
00802580 l     F .text	0000019c __sinit.part.1
0080271c l     F .text	00000008 __fp_lock
00000000 l    df *ABS*	00000000 fread.c
00000000 l    df *ABS*	00000000 mallocr.c
00000000 l    df *ABS*	00000000 fwalk.c
00000000 l    df *ABS*	00000000 iswspace.c
00000000 l    df *ABS*	00000000 locale.c
008154e0 l     O .rwdata	00000020 lc_ctype_charset
008154c0 l     O .rwdata	00000020 lc_message_charset
00815500 l     O .rwdata	00000038 lconv
00000000 l    df *ABS*	00000000 makebuf.c
00000000 l    df *ABS*	00000000 mallocr.c
00000000 l    df *ABS*	00000000 mbrtowc.c
00000000 l    df *ABS*	00000000 mbtowc_r.c
00000000 l    df *ABS*	00000000 memcpy.c
00000000 l    df *ABS*	00000000 memset.c
00000000 l    df *ABS*	00000000 refill.c
008040b0 l     F .text	0000001c lflush
00000000 l    df *ABS*	00000000 s_fpclassify.c
00000000 l    df *ABS*	00000000 sbrkr.c
00000000 l    df *ABS*	00000000 sccl.c
00000000 l    df *ABS*	00000000 sf_nan.c
00000000 l    df *ABS*	00000000 sprintf.c
00000000 l    df *ABS*	00000000 stdio.c
00000000 l    df *ABS*	00000000 strcmp.c
00000000 l    df *ABS*	00000000 strtod.c
0080471c l     F .text	00000064 sulp
00814c68 l     O .rodata	00000014 fpinan.2773
00814c7c l     O .rodata	00000014 fpi.2737
00814c90 l     O .rodata	00000028 tinytens
00000000 l    df *ABS*	00000000 strtol.c
00000000 l    df *ABS*	00000000 strtoll_r.c
00000000 l    df *ABS*	00000000 strtoul.c
00000000 l    df *ABS*	00000000 strtoull_r.c
00000000 l    df *ABS*	00000000 vfprintf.c
00814cfa l     O .rodata	00000010 zeroes.4389
00814d0a l     O .rodata	00000010 blanks.4388
00000000 l    df *ABS*	00000000 ungetc.c
00000000 l    df *ABS*	00000000 writer.c
00000000 l    df *ABS*	00000000 closer.c
00000000 l    df *ABS*	00000000 dtoa.c
00808f98 l     F .text	00000228 quorem
00000000 l    df *ABS*	00000000 fclose.c
00000000 l    df *ABS*	00000000 fstatr.c
00000000 l    df *ABS*	00000000 gdtoa-gethex.c
0080a9a8 l     F .text	00000100 rshift
00000000 l    df *ABS*	00000000 gdtoa-hexnan.c
00000000 l    df *ABS*	00000000 int_errno.c
00000000 l    df *ABS*	00000000 isattyr.c
00000000 l    df *ABS*	00000000 lseekr.c
00000000 l    df *ABS*	00000000 memchr.c
00000000 l    df *ABS*	00000000 mprec.c
00814e2c l     O .rodata	0000000c p05.2768
00000000 l    df *ABS*	00000000 readr.c
00000000 l    df *ABS*	00000000 mallocr.c
00000000 l    df *ABS*	00000000 strlen.c
00000000 l    df *ABS*	00000000 strncmp.c
00000000 l    df *ABS*	00000000 vfprintf.c
00814f50 l     O .rodata	00000010 zeroes.4333
00814f60 l     O .rodata	00000010 blanks.4332
00000000 l    df *ABS*	00000000 mallocr.c
00000000 l    df *ABS*	00000000 memmove.c
00000000 l    df *ABS*	00000000 libgcc2.c
00000000 l    df *ABS*	00000000 libgcc2.c
00000000 l    df *ABS*	00000000 libgcc2.c
00000000 l    df *ABS*	00000000 libgcc2.c
00000000 l    df *ABS*	00000000 lib2-divmod.c
00000000 l    df *ABS*	00000000 lib2-mul.c
00000000 l    df *ABS*	00000000 eqsf2.c
00000000 l    df *ABS*	00000000 gesf2.c
00000000 l    df *ABS*	00000000 lesf2.c
00000000 l    df *ABS*	00000000 adddf3.c
00000000 l    df *ABS*	00000000 divdf3.c
00000000 l    df *ABS*	00000000 eqdf2.c
00000000 l    df *ABS*	00000000 gedf2.c
00000000 l    df *ABS*	00000000 ledf2.c
00000000 l    df *ABS*	00000000 muldf3.c
00000000 l    df *ABS*	00000000 subdf3.c
00000000 l    df *ABS*	00000000 fixdfsi.c
00000000 l    df *ABS*	00000000 floatsidf.c
00000000 l    df *ABS*	00000000 floatunsidf.c
00000000 l    df *ABS*	00000000 truncdfsf2.c
00000000 l    df *ABS*	00000000 libgcc2.c
00000000 l    df *ABS*	00000000 libgcc2.c
00000000 l    df *ABS*	00000000 alt_close.c
008121e0 l     F .text	00000050 alt_get_errno
00000000 l    df *ABS*	00000000 alt_dev.c
00812308 l     F .text	0000002c alt_dev_null_write
00000000 l    df *ABS*	00000000 alt_errno.c
00000000 l    df *ABS*	00000000 alt_fstat.c
00812334 l     F .text	00000050 alt_get_errno
00000000 l    df *ABS*	00000000 alt_isatty.c
0081243c l     F .text	00000050 alt_get_errno
00000000 l    df *ABS*	00000000 alt_load.c
00812538 l     F .text	00000068 alt_load_section
00000000 l    df *ABS*	00000000 alt_lseek.c
00812624 l     F .text	00000050 alt_get_errno
00000000 l    df *ABS*	00000000 alt_main.c
00000000 l    df *ABS*	00000000 alt_malloc_lock.c
00000000 l    df *ABS*	00000000 alt_read.c
00812814 l     F .text	00000050 alt_get_errno
00000000 l    df *ABS*	00000000 alt_release_fd.c
00000000 l    df *ABS*	00000000 alt_sbrk.c
00816b7c l     O .rwdata	00000004 heap_end
00000000 l    df *ABS*	00000000 alt_write.c
00812a9c l     F .text	00000050 alt_get_errno
00000000 l    df *ABS*	00000000 alt_sys_init.c
00812bec l     F .text	00000038 alt_dev_reg
00815ae8 l     O .rwdata	00001060 jtag_uart
00000000 l    df *ABS*	00000000 altera_avalon_jtag_uart_fd.c
00000000 l    df *ABS*	00000000 altera_avalon_jtag_uart_init.c
00812ed4 l     F .text	0000020c altera_avalon_jtag_uart_irq
008130e0 l     F .text	000000a8 altera_avalon_jtag_uart_timeout
00000000 l    df *ABS*	00000000 altera_avalon_jtag_uart_ioctl.c
00000000 l    df *ABS*	00000000 altera_avalon_jtag_uart_read.c
00000000 l    df *ABS*	00000000 altera_avalon_jtag_uart_write.c
00000000 l    df *ABS*	00000000 alt_alarm_start.c
00000000 l    df *ABS*	00000000 alt_dcache_flush_all.c
00000000 l    df *ABS*	00000000 alt_dev_llist_insert.c
00813880 l     F .text	00000050 alt_get_errno
00000000 l    df *ABS*	00000000 alt_do_ctors.c
00000000 l    df *ABS*	00000000 alt_do_dtors.c
00000000 l    df *ABS*	00000000 alt_icache_flush_all.c
00000000 l    df *ABS*	00000000 alt_iic.c
00000000 l    df *ABS*	00000000 alt_iic_isr_register.c
00000000 l    df *ABS*	00000000 alt_io_redirect.c
00813d24 l     F .text	000000e4 alt_open_fd
00000000 l    df *ABS*	00000000 alt_irq_vars.c
00000000 l    df *ABS*	00000000 alt_open.c
00813e84 l     F .text	00000050 alt_get_errno
00813ed4 l     F .text	000000f4 alt_file_locked
00000000 l    df *ABS*	00000000 alt_tick.c
00000000 l    df *ABS*	00000000 altera_nios2_gen2_irq.c
00000000 l    df *ABS*	00000000 alt_find_dev.c
00000000 l    df *ABS*	00000000 alt_find_file.c
00000000 l    df *ABS*	00000000 alt_get_fd.c
00000000 l    df *ABS*	00000000 atexit.c
00000000 l    df *ABS*	00000000 exit.c
00000000 l    df *ABS*	00000000 memcmp.c
00000000 l    df *ABS*	00000000 __atexit.c
00000000 l    df *ABS*	00000000 __call_atexit.c
00000000 l    df *ABS*	00000000 alt_exit.c
008186b0 g     O .bss	00000004 alt_instruction_exception_handler
00800538 g     F .text	00000018 putchar
0080c634 g     F .text	00000074 _mprec_log10
0080c720 g     F .text	0000008c __any_on
0080b55c g     F .text	00000054 _isatty_r
00814e38 g     O .rodata	00000028 __mprec_tinytens
00812750 g     F .text	0000007c alt_main
008186dc g     O .bss	00000100 alt_irq
0080b5b0 g     F .text	00000060 _lseek_r
00816b8c g       *ABS*	00000000 __flash_rwdata_start
00810a14 g     F .text	00000088 .hidden __eqdf2
008187dc g       *ABS*	00000000 __alt_heap_start
008045dc g     F .text	0000005c __sseek
008028cc g     F .text	00000010 __sinit
00802018 g     F .text	00000140 __swbuf_r
00803178 g     F .text	0000007c _setlocale_r
00802724 g     F .text	00000078 __sfmoreglue
00808ecc g     F .text	00000018 ungetc
008127f0 g     F .text	00000024 __malloc_unlock
00804780 g     F .text	000015e4 _strtod_r
0080e524 g     F .text	0000015c memmove
008028b4 g     F .text	00000018 _cleanup
0080b6f4 g     F .text	000000a8 _Balloc
00810a9c g     F .text	000000dc .hidden __gtdf2
008142cc g     F .text	00000024 altera_nios2_gen2_irq_init
00800000 g     F .entry	0000000c __reset
00800020 g       *ABS*	00000000 __flash_exceptions_start
0080a94c g     F .text	0000005c _fstat_r
00818694 g     O .bss	00000004 errno
00801fb0 g     F .text	0000001c __svfscanf
00804558 g     F .text	00000008 __seofread
0080d0a8 g     F .text	000013a0 ___svfiprintf_internal_r
0081869c g     O .bss	00000004 alt_argv
0081eb48 g       *ABS*	00000000 _gp
00815968 g     O .rwdata	00000180 alt_fd_list
00800530 g     F .text	00000008 _putchar_r
008142f0 g     F .text	00000090 alt_find_dev
00803e40 g     F .text	00000148 memcpy
0080b2f8 g     F .text	00000264 __hexnan
00802574 g     F .text	0000000c _cleanup_r
00811e50 g     F .text	000000dc .hidden __floatsidf
00813e08 g     F .text	0000007c alt_io_redirect
00810b78 g     F .text	000000f4 .hidden __ltdf2
00814998 g       *ABS*	00000000 __DTOR_END__
00814568 g     F .text	0000009c alt_exception_cause_generated_bad_addr
00803cc8 g     F .text	000000d8 mbrtowc
008042a0 g     F .text	00000074 __fpclassifyd
00801fcc g     F .text	0000004c _vfscanf_r
0080c590 g     F .text	000000a4 __ratio
008132e0 g     F .text	0000021c altera_avalon_jtag_uart_read
0080f4b8 g     F .text	00000064 .hidden __udivsi3
0081248c g     F .text	000000ac isatty
00803148 g     F .text	00000030 iswspace
00814e88 g     O .rodata	000000c8 __mprec_tens
008031f4 g     F .text	0000000c __locale_charset
0080f6d0 g     F .text	000000c8 .hidden __lesf2
0080e78c g     F .text	00000074 .hidden __fixunsdfsi
00818690 g     O .bss	00000004 __malloc_top_pad
0080666c g     F .text	0000001c strtoul
00816b54 g     O .rwdata	00000004 __mb_cur_max
00803224 g     F .text	0000000c _localeconv_r
00806688 g     F .text	00000320 _strtoull_r
0080bb28 g     F .text	0000003c __i2b
00804314 g     F .text	00000054 _sbrk_r
0080c7ac g     F .text	00000060 _read_r
00816b74 g     O .rwdata	00000004 alt_max_fd
0080a848 g     F .text	000000f0 _fclose_r
0080253c g     F .text	00000030 fflush
0081868c g     O .bss	00000004 __malloc_max_sbrked_mem
0080f798 g     F .text	000008ac .hidden __adddf3
0080f59c g     F .text	00000078 .hidden __nesf2
0080c338 g     F .text	0000010c __b2d
0080edfc g     F .text	000005c4 .hidden __umoddi3
00812674 g     F .text	000000dc lseek
00816b48 g     O .rwdata	00000004 _global_impure_ptr
0080c80c g     F .text	00000564 _realloc_r
008187dc g       *ABS*	00000000 __bss_end
00813c34 g     F .text	000000f0 alt_iic_isr_register
008141c4 g     F .text	00000108 alt_tick
00814d2c g     O .rodata	00000100 __hexdig
0080e800 g     F .text	000005fc .hidden __udivdi3
00814e60 g     O .rodata	00000028 __mprec_bigtens
0080b90c g     F .text	00000104 __s2b
00811f2c g     F .text	000000a8 .hidden __floatunsidf
0080c078 g     F .text	00000060 __mcmp
008028ec g     F .text	00000018 __fp_lock_all
00813be8 g     F .text	0000004c alt_ic_irq_enabled
00814128 g     F .text	0000009c alt_alarm_stop
008060d4 g     F .text	0000001c strtol
008186a4 g     O .bss	00000004 alt_irq_active
008000fc g     F .exceptions	000000d4 alt_irq_handler
00815940 g     O .rwdata	00000028 alt_dev_null
00813860 g     F .text	00000020 alt_dcache_flush_all
0080ba10 g     F .text	00000068 __hi0bits
00811dd0 g     F .text	00000080 .hidden __fixdfsi
00805d64 g     F .text	00000018 strtod
00816b8c g       *ABS*	00000000 __ram_rwdata_end
00816b6c g     O .rwdata	00000008 alt_dev_list
00812aec g     F .text	00000100 write
008003c8 g     F .text	000000a0 _putc_r
0080f614 g     F .text	000000bc .hidden __gtsf2
0081509c g       *ABS*	00000000 __ram_rodata_end
00812384 g     F .text	000000b8 fstat
00810b78 g     F .text	000000f4 .hidden __ledf2
0080bdf0 g     F .text	00000140 __pow5mult
00818684 g     O .bss	00000004 __nlocale_changed
0080f51c g     F .text	00000058 .hidden __umodsi3
0080058c g     F .text	00000030 _scanf_r
008187dc g       *ABS*	00000000 end
00812e0c g     F .text	000000c8 altera_avalon_jtag_uart_init
008001d0 g     F .exceptions	00000060 alt_instruction_exception_entry
00814998 g       *ABS*	00000000 __CTOR_LIST__
01000000 g       *ABS*	00000000 __alt_stack_pointer
0081217c g     F .text	00000064 .hidden __clzsi2
008134fc g     F .text	00000224 altera_avalon_jtag_uart_write
008028dc g     F .text	00000004 __sfp_lock_acquire
0080b610 g     F .text	000000e4 memchr
00804440 g     F .text	00000058 _sprintf_r
00802cb0 g     F .text	00000310 _free_r
00803200 g     F .text	00000010 __locale_mb_cur_max
008147e4 g     F .text	00000180 __call_exitprocs
00818680 g     O .bss	00000004 __mlocale_changed
00816b58 g     O .rwdata	00000004 __malloc_sbrk_base
00800230 g     F .text	0000003c _start
008186a8 g     O .bss	00000004 _alt_tick_rate
008060f0 g     F .text	00000304 _strtoll_r
0080bf30 g     F .text	00000148 __lshift
008186ac g     O .bss	00000004 _alt_nticks
00812864 g     F .text	00000104 read
00812c5c g     F .text	0000004c alt_sys_init
0080ced8 g     F .text	000001d0 __ssprint_r
008146cc g     F .text	00000118 __register_exitproc
0080ce08 g     F .text	000000d0 strncmp
0080bb64 g     F .text	0000028c __multiply
00813188 g     F .text	00000068 altera_avalon_jtag_uart_close
0080f574 g     F .text	00000028 .hidden __mulsi3
0081509c g       *ABS*	00000000 __ram_rwdata_start
00814998 g       *ABS*	00000000 __ram_rodata_start
008186b4 g     O .bss	00000028 __malloc_current_mallinfo
0080f59c g     F .text	00000078 .hidden __eqsf2
0080c444 g     F .text	0000014c __d2b
00812ca8 g     F .text	00000060 altera_avalon_jtag_uart_read_fd
008063f4 g     F .text	00000278 _strtoul_r
00814494 g     F .text	000000d4 alt_get_fd
00808f44 g     F .text	00000054 _close_r
00814650 g     F .text	0000007c memcmp
00812d68 g     F .text	00000050 altera_avalon_jtag_uart_close_fd
008187dc g       *ABS*	00000000 __alt_stack_base
00812db8 g     F .text	00000054 altera_avalon_jtag_uart_ioctl_fd
00802170 g     F .text	00000154 __swsetup_r
00810044 g     F .text	000009d0 .hidden __divdf3
0080279c g     F .text	00000118 __sfp
0080c6a8 g     F .text	00000078 __copybits
00815538 g     O .rwdata	00000408 __malloc_av_
008028e8 g     F .text	00000004 __sinit_lock_release
00810c6c g     F .text	00000868 .hidden __muldf3
00804504 g     F .text	00000054 __sread
00802b58 g     F .text	00000034 fread
00814380 g     F .text	00000114 alt_find_file
008138d0 g     F .text	000000a4 alt_dev_llist_insert
008127cc g     F .text	00000024 __malloc_lock
008129ec g     F .text	000000b0 sbrk
008069a8 g     F .text	000022bc ___svfprintf_internal_r
008024e0 g     F .text	0000005c _fflush_r
0080e448 g     F .text	000000dc _calloc_r
0081867c g       *ABS*	00000000 __bss_start
00803f88 g     F .text	00000128 memset
0080026c g     F .text	0000015c main
008186a0 g     O .bss	00000004 alt_envp
00818688 g     O .bss	00000004 __malloc_max_total_mem
00812d08 g     F .text	00000060 altera_avalon_jtag_uart_write_fd
00802158 g     F .text	00000018 __swbuf
0080f6d0 g     F .text	000000c8 .hidden __ltsf2
0080291c g     F .text	0000023c _fread_r
00804638 g     F .text	00000008 __sclose
01000000 g       *ABS*	00000000 __alt_heap_limit
0080a938 g     F .text	00000014 fclose
00805e7c g     F .text	00000258 _strtol_r
00811fd4 g     F .text	000001a8 .hidden __truncdfsf2
008091c0 g     F .text	00001688 _dtoa_r
00803410 g     F .text	0000080c _malloc_r
00816b78 g     O .rwdata	00000004 alt_errno
00808c64 g     F .text	000000d4 __submore
00802fc0 g     F .text	000000c4 _fwalk
00803de4 g     F .text	0000005c _mbtowc_r
00800468 g     F .text	000000c8 putc
0080f3c0 g     F .text	00000084 .hidden __divsi3
00802b8c g     F .text	00000124 _malloc_trim_r
00814998 g       *ABS*	00000000 __CTOR_END__
00804640 g     F .text	000000dc strcmp
00814998 g       *ABS*	00000000 __flash_rodata_start
00814998 g       *ABS*	00000000 __DTOR_LIST__
00810a14 g     F .text	00000088 .hidden __nedf2
00812c24 g     F .text	00000038 alt_irq_init
00812968 g     F .text	00000084 alt_release_fd
00804498 g     F .text	0000006c sprintf
00814f70 g     O .rodata	00000100 .hidden __clz_tab
0081867c g     O .bss	00000004 _PathLocale
00805d7c g     F .text	00000100 strtof
00814604 g     F .text	00000014 atexit
0080f614 g     F .text	000000bc .hidden __gesf2
00808ee4 g     F .text	00000060 _write_r
00803230 g     F .text	00000018 setlocale
00800550 g     F .text	0000003c scanf
00804438 g     F .text	00000008 nanf
00816b4c g     O .rwdata	00000004 _impure_ptr
00818698 g     O .bss	00000004 alt_argc
008022c4 g     F .text	0000021c __sflush_r
00803c1c g     F .text	000000ac _mbrtowc_r
008139d4 g     F .text	00000060 _do_dtors
0080321c g     F .text	00000008 __locale_cjk_lang
008040cc g     F .text	000001d4 __srefill_r
00800020 g       .exceptions	00000000 alt_irq_entry
00803da0 g     F .text	00000044 __ascii_mbtowc
0080c2d4 g     F .text	00000064 __ulp
00802904 g     F .text	00000018 __fp_unlock_all
00816b64 g     O .rwdata	00000008 alt_fs_list
00800020 g       *ABS*	00000000 __ram_exceptions_start
00803248 g     F .text	0000000c localeconv
00813a54 g     F .text	00000050 alt_ic_isr_register
00816b8c g       *ABS*	00000000 _edata
008187dc g       *ABS*	00000000 _end
00800230 g       *ABS*	00000000 __ram_exceptions_end
00801f48 g     F .text	00000068 vfscanf
008131f0 g     F .text	000000f0 altera_avalon_jtag_uart_ioctl
00813b44 g     F .text	000000a4 alt_ic_irq_disable
00804560 g     F .text	0000007c __swrite
00816b5c g     O .rwdata	00000004 __malloc_trim_threshold
00803210 g     F .text	0000000c __locale_msgcharset
00814618 g     F .text	00000038 exit
00803084 g     F .text	000000c4 _fwalk_reent
0080c0d8 g     F .text	000001fc __mdiff
0080f444 g     F .text	00000074 .hidden __modsi3
00816b50 g     O .rwdata	00000004 __ctype_ptr__
01000000 g       *ABS*	00000000 __alt_data_end
00800020 g     F .exceptions	00000000 alt_exception
008028e0 g     F .text	00000004 __sfp_lock_release
00800000 g       *ABS*	00000000 __alt_mem_sdram
00804368 g     F .text	000000d0 __sccl
008149c8 g     O .rodata	00000101 _ctype_
01004000 g       *ABS*	00000000 __alt_mem_onchip_ram
00816b60 g     O .rwdata	00000004 __mbtowc
00814964 g     F .text	00000034 _exit
00813720 g     F .text	00000140 alt_alarm_start
0080e680 g     F .text	0000010c .hidden __muldi3
00803254 g     F .text	000001bc __smakebuf_r
0080cd70 g     F .text	00000098 strlen
00813fc8 g     F .text	00000160 open
00810a9c g     F .text	000000dc .hidden __gedf2
0080aaa8 g     F .text	00000850 __gethex
00813a34 g     F .text	00000020 alt_icache_flush_all
00816b80 g     O .rwdata	00000004 alt_priority_mask
00813aa4 g     F .text	000000a0 alt_ic_irq_enable
008114d4 g     F .text	000008fc .hidden __subdf3
0080ba78 g     F .text	000000b0 __lo0bits
008005bc g     F .text	0000198c __svfscanf_r
00816b84 g     O .rwdata	00000008 alt_alarm_list
00808d38 g     F .text	00000194 _ungetc_r
00813974 g     F .text	00000060 _do_ctors
00812230 g     F .text	000000d8 close
008125a0 g     F .text	00000084 alt_load
008028e4 g     F .text	00000004 __sinit_lock_acquire
0080b7c4 g     F .text	00000148 __multadd
0080b79c g     F .text	00000028 _Bfree



Disassembly of section .entry:

00800000 <__reset>:
 * Jump to the _start entry point in the .text section if reset code
 * is allowed or if optimizing for RTL simulation.
 */
#if defined(ALT_ALLOW_CODE_AT_RESET) || defined(ALT_SIM_OPTIMIZE)
    /* Jump to the _start entry point in the .text section. */
    movhi r1, %hi(_start)
  800000:	00402034 	movhi	at,128
    ori r1, r1, %lo(_start)
  800004:	08408c14 	ori	at,at,560
    jmp r1
  800008:	0800683a 	jmp	at
	...

Disassembly of section .exceptions:

00800020 <alt_exception>:

#else /* ALT_EXCEPTION_STACK disabled */
        /* 
         * Reserve space on normal stack for registers about to be pushed.
         */
        addi  sp, sp, -76
  800020:	deffed04 	addi	sp,sp,-76
         * documentation for details).
         *
         * Leave a gap in the stack frame at 4(sp) for the muldiv handler to
         * store zero into.
         */
        stw   ra,  0(sp)
  800024:	dfc00015 	stw	ra,0(sp)
        stw   r1,   8(sp)
  800028:	d8400215 	stw	at,8(sp)
        stw   r2,  12(sp)
  80002c:	d8800315 	stw	r2,12(sp)
        stw   r3,  16(sp)
  800030:	d8c00415 	stw	r3,16(sp)
        stw   r4,  20(sp)
  800034:	d9000515 	stw	r4,20(sp)
        stw   r5,  24(sp)
  800038:	d9400615 	stw	r5,24(sp)
        stw   r6,  28(sp)
  80003c:	d9800715 	stw	r6,28(sp)
        stw   r7,  32(sp)
  800040:	d9c00815 	stw	r7,32(sp)
        rdctl r5, estatus   /* Read early to avoid usage stall */
  800044:	000b307a 	rdctl	r5,estatus
        stw   r8,  36(sp)
  800048:	da000915 	stw	r8,36(sp)
        stw   r9,  40(sp)
  80004c:	da400a15 	stw	r9,40(sp)
        stw   r10, 44(sp)
  800050:	da800b15 	stw	r10,44(sp)
        stw   r11, 48(sp)
  800054:	dac00c15 	stw	r11,48(sp)
        stw   r12, 52(sp)
  800058:	db000d15 	stw	r12,52(sp)
        stw   r13, 56(sp)
  80005c:	db400e15 	stw	r13,56(sp)
        stw   r14, 60(sp)
  800060:	db800f15 	stw	r14,60(sp)
        stw   r15, 64(sp)
  800064:	dbc01015 	stw	r15,64(sp)
        /*
         * ea-4 contains the address of the instruction being executed
         * when the exception occured. For interrupt exceptions, we will
         * will be re-issue the isntruction. Store it in 72(sp)
         */
        stw   r5,  68(sp)  /* estatus */
  800068:	d9401115 	stw	r5,68(sp)
        addi  r15, ea, -4  /* instruction that caused exception */
  80006c:	ebffff04 	addi	r15,ea,-4
        stw   r15,  72(sp)
  800070:	dbc01215 	stw	r15,72(sp)
#else
        /*
         * Test to see if the exception was a software exception or caused 
         * by an external interrupt, and vector accordingly.
         */
        rdctl r4, ipending
  800074:	0009313a 	rdctl	r4,ipending
        andi  r2, r5, 1
  800078:	2880004c 	andi	r2,r5,1
        beq   r2, zero, .Lnot_irq
  80007c:	10000326 	beq	r2,zero,80008c <alt_exception+0x6c>
        beq   r4, zero, .Lnot_irq
  800080:	20000226 	beq	r4,zero,80008c <alt_exception+0x6c>
        /*
         * Now that all necessary registers have been preserved, call 
         * alt_irq_handler() to process the interrupts.
         */

        call alt_irq_handler
  800084:	08000fc0 	call	8000fc <alt_irq_handler>

        .section .exceptions.irqreturn, "xa"

        br    .Lexception_exit
  800088:	00000706 	br	8000a8 <alt_exception+0x88>
         * upon completion, so we write ea (address of instruction *after*
         * the one where the exception occured) into 72(sp). The actual
         * instruction that caused the exception is written in r2, which these
         * handlers will utilize.
         */
        stw ea, 72(sp) /* EA is PC+4 so will skip over instruction causing exception */
  80008c:	df401215 	stw	ea,72(sp)
.Lunknown_16bit:
        addi.n r4, r4, 2 /* Need PC+2 to skip over instruction causing exception */
        stw r4, 72(sp)

#else /* CDX is not Enabled and all instructions are 32bits */
        ldw r2, -4(ea) /* Instruction value that caused exception */
  800090:	e8bfff17 	ldw	r2,-4(ea)
         * debugger is present) or go into an infinite loop since the
         * handling behavior is undefined; in that case we will not return here.
         */

        /* Load exception-causing address as first argument (r4) */
        addi   r4, ea, -4
  800094:	e93fff04 	addi	r4,ea,-4

        /* Call the instruction-exception entry */
        call   alt_instruction_exception_entry
  800098:	08001d00 	call	8001d0 <alt_instruction_exception_entry>
         * instruction
         *
         * Return code was 0: Skip. The instruction after the exception is
         * already stored in 72(sp).
         */
        bne   r2, r0, .Lexception_exit
  80009c:	1000021e 	bne	r2,zero,8000a8 <alt_exception+0x88>

        /*
         * Otherwise, modify 72(sp) to re-issue the instruction that caused the
         * exception.
         */
        addi  r15, ea, -4  /* instruction that caused exception */
  8000a0:	ebffff04 	addi	r15,ea,-4
        stw   r15,  72(sp)
  8000a4:	dbc01215 	stw	r15,72(sp)
        /* 
         * Restore the saved registers, so that all general purpose registers 
         * have been restored to their state at the time the interrupt occured.
         */

        ldw   r5,  68(sp)
  8000a8:	d9401117 	ldw	r5,68(sp)
        ldw   ea,  72(sp)  /* This becomes the PC once eret is executed */
  8000ac:	df401217 	ldw	ea,72(sp)
        ldw   ra,   0(sp)
  8000b0:	dfc00017 	ldw	ra,0(sp)

        wrctl estatus, r5
  8000b4:	2801707a 	wrctl	estatus,r5

        ldw   r1,   8(sp)
  8000b8:	d8400217 	ldw	at,8(sp)
        ldw   r2,  12(sp)
  8000bc:	d8800317 	ldw	r2,12(sp)
        ldw   r3,  16(sp)
  8000c0:	d8c00417 	ldw	r3,16(sp)
        ldw   r4,  20(sp)
  8000c4:	d9000517 	ldw	r4,20(sp)
        ldw   r5,  24(sp)
  8000c8:	d9400617 	ldw	r5,24(sp)
        ldw   r6,  28(sp)
  8000cc:	d9800717 	ldw	r6,28(sp)
        ldw   r7,  32(sp)
  8000d0:	d9c00817 	ldw	r7,32(sp)

#if defined(ALT_EXCEPTION_STACK) && defined(ALT_STACK_CHECK)
        ldw   et, %gprel(alt_exception_old_stack_limit)(gp)
#endif

        ldw   r8,  36(sp)
  8000d4:	da000917 	ldw	r8,36(sp)
        ldw   r9,  40(sp)
  8000d8:	da400a17 	ldw	r9,40(sp)
        ldw   r10, 44(sp)
  8000dc:	da800b17 	ldw	r10,44(sp)
        ldw   r11, 48(sp)
  8000e0:	dac00c17 	ldw	r11,48(sp)
        ldw   r12, 52(sp)
  8000e4:	db000d17 	ldw	r12,52(sp)
        ldw   r13, 56(sp)
  8000e8:	db400e17 	ldw	r13,56(sp)
        ldw   r14, 60(sp)
  8000ec:	db800f17 	ldw	r14,60(sp)
        ldw   r15, 64(sp)
  8000f0:	dbc01017 	ldw	r15,64(sp)
        stw   et, %gprel(alt_stack_limit_value)(gp)
        stw   zero, %gprel(alt_exception_old_stack_limit)(gp)
#endif /* ALT_STACK_CHECK */
        ldw   sp,  76(sp)
#else /* ALT_EXCEPTION_STACK disabled */
        addi  sp, sp, 76
  8000f4:	dec01304 	addi	sp,sp,76

        /*
         * Return to the interrupted instruction.
         */

        eret
  8000f8:	ef80083a 	eret

008000fc <alt_irq_handler>:
 * instruction is present if the macro ALT_CI_INTERRUPT_VECTOR defined.
 */

void alt_irq_handler (void) __attribute__ ((section (".exceptions")));
void alt_irq_handler (void)
{
  8000fc:	defff904 	addi	sp,sp,-28
  800100:	dfc00615 	stw	ra,24(sp)
  800104:	df000515 	stw	fp,20(sp)
  800108:	df000504 	addi	fp,sp,20
  
  /*
   * Notify the operating system that we are at interrupt level.
   */ 
  
  ALT_OS_INT_ENTER();
  80010c:	0001883a 	nop
#ifndef NIOS2_EIC_PRESENT
static ALT_INLINE alt_u32 ALT_ALWAYS_INLINE alt_irq_pending (void)
{
  alt_u32 active;

  NIOS2_READ_IPENDING (active);
  800110:	0005313a 	rdctl	r2,ipending
  800114:	e0bffe15 	stw	r2,-8(fp)

  return active;
  800118:	e0bffe17 	ldw	r2,-8(fp)
   * Consider the case where the high priority interupt is asserted during
   * the interrupt entry sequence for a lower priority interrupt to see why
   * this is the case.
   */

  active = alt_irq_pending ();
  80011c:	e0bffb15 	stw	r2,-20(fp)

  do
  {
    i = 0;
  800120:	e03ffd15 	stw	zero,-12(fp)
    mask = 1;
  800124:	00800044 	movi	r2,1
  800128:	e0bffc15 	stw	r2,-16(fp)
     * called to clear the interrupt condition.
     */

    do
    {
      if (active & mask)
  80012c:	e0fffb17 	ldw	r3,-20(fp)
  800130:	e0bffc17 	ldw	r2,-16(fp)
  800134:	1884703a 	and	r2,r3,r2
  800138:	10001426 	beq	r2,zero,80018c <alt_irq_handler+0x90>
      { 
#ifdef ALT_ENHANCED_INTERRUPT_API_PRESENT
        alt_irq[i].handler(alt_irq[i].context); 
  80013c:	008020b4 	movhi	r2,130
  800140:	10a1b704 	addi	r2,r2,-31012
  800144:	e0fffd17 	ldw	r3,-12(fp)
  800148:	180690fa 	slli	r3,r3,3
  80014c:	10c5883a 	add	r2,r2,r3
  800150:	10c00017 	ldw	r3,0(r2)
  800154:	008020b4 	movhi	r2,130
  800158:	10a1b704 	addi	r2,r2,-31012
  80015c:	e13ffd17 	ldw	r4,-12(fp)
  800160:	200890fa 	slli	r4,r4,3
  800164:	1105883a 	add	r2,r2,r4
  800168:	10800104 	addi	r2,r2,4
  80016c:	10800017 	ldw	r2,0(r2)
  800170:	1009883a 	mov	r4,r2
  800174:	183ee83a 	callr	r3
#else
        alt_irq[i].handler(alt_irq[i].context, i); 
#endif
        break;
  800178:	0001883a 	nop
#ifndef NIOS2_EIC_PRESENT
static ALT_INLINE alt_u32 ALT_ALWAYS_INLINE alt_irq_pending (void)
{
  alt_u32 active;

  NIOS2_READ_IPENDING (active);
  80017c:	0005313a 	rdctl	r2,ipending
  800180:	e0bfff15 	stw	r2,-4(fp)

  return active;
  800184:	e0bfff17 	ldw	r2,-4(fp)
  800188:	00000706 	br	8001a8 <alt_irq_handler+0xac>
      }
      mask <<= 1;
  80018c:	e0bffc17 	ldw	r2,-16(fp)
  800190:	1085883a 	add	r2,r2,r2
  800194:	e0bffc15 	stw	r2,-16(fp)
      i++;
  800198:	e0bffd17 	ldw	r2,-12(fp)
  80019c:	10800044 	addi	r2,r2,1
  8001a0:	e0bffd15 	stw	r2,-12(fp)

    } while (1);
  8001a4:	003fe106 	br	80012c <__alt_mem_onchip_ram+0xff7fc12c>

    active = alt_irq_pending ();
  8001a8:	e0bffb15 	stw	r2,-20(fp)
    
  } while (active);
  8001ac:	e0bffb17 	ldw	r2,-20(fp)
  8001b0:	103fdb1e 	bne	r2,zero,800120 <__alt_mem_onchip_ram+0xff7fc120>

  /*
   * Notify the operating system that interrupt processing is complete.
   */ 

  ALT_OS_INT_EXIT();
  8001b4:	0001883a 	nop
}
  8001b8:	0001883a 	nop
  8001bc:	e037883a 	mov	sp,fp
  8001c0:	dfc00117 	ldw	ra,4(sp)
  8001c4:	df000017 	ldw	fp,0(sp)
  8001c8:	dec00204 	addi	sp,sp,8
  8001cc:	f800283a 	ret

008001d0 <alt_instruction_exception_entry>:
 * that handler if it has been registered. Absent a handler, it will
 * break break or hang as discussed below.
 */
int 
alt_instruction_exception_entry (alt_u32 exception_pc)
{
  8001d0:	defffb04 	addi	sp,sp,-20
  8001d4:	dfc00415 	stw	ra,16(sp)
  8001d8:	df000315 	stw	fp,12(sp)
  8001dc:	df000304 	addi	fp,sp,12
  8001e0:	e13fff15 	stw	r4,-4(fp)
  cause = ( (cause & NIOS2_EXCEPTION_REG_CAUSE_MASK) >>
              NIOS2_EXCEPTION_REG_CAUSE_OFST );

  NIOS2_READ_BADADDR(badaddr);
#else
  cause = NIOS2_EXCEPTION_CAUSE_NOT_PRESENT;
  8001e4:	00bfffc4 	movi	r2,-1
  8001e8:	e0bffd15 	stw	r2,-12(fp)
  badaddr = 0;
  8001ec:	e03ffe15 	stw	zero,-8(fp)
#endif /* NIOS2_HAS_EXTRA_EXCEPTION_INFO */

  if(alt_instruction_exception_handler) {
  8001f0:	d0a6da17 	ldw	r2,-25752(gp)
  8001f4:	10000726 	beq	r2,zero,800214 <alt_instruction_exception_entry+0x44>
     * Call handler. Its return value indicates whether the exception-causing
     * instruction should be re-issued. The code that called us,
     * alt_eceptions_entry.S, will look at this value and adjust the ea
     * register as necessary
     */
    return alt_instruction_exception_handler(cause, exception_pc, badaddr);
  8001f8:	d0a6da17 	ldw	r2,-25752(gp)
  8001fc:	e0fffd17 	ldw	r3,-12(fp)
  800200:	e1bffe17 	ldw	r6,-8(fp)
  800204:	e17fff17 	ldw	r5,-4(fp)
  800208:	1809883a 	mov	r4,r3
  80020c:	103ee83a 	callr	r2
  800210:	00000206 	br	80021c <alt_instruction_exception_entry+0x4c>
   *    (a peripheral which negates its interrupt output before its
   *    interrupt handler has been executed will cause spurious interrupts)
   */
  else {
#ifdef NIOS2_HAS_DEBUG_STUB
    NIOS2_BREAK();
  800214:	003da03a 	break	0
      ;
#endif /* NIOS2_HAS_DEBUG_STUB */
  }

  /* We should not get here. Remove compiler warning. */
  return NIOS2_EXCEPTION_RETURN_REISSUE_INST;
  800218:	0005883a 	mov	r2,zero
}
  80021c:	e037883a 	mov	sp,fp
  800220:	dfc00117 	ldw	ra,4(sp)
  800224:	df000017 	ldw	fp,0(sp)
  800228:	dec00204 	addi	sp,sp,8
  80022c:	f800283a 	ret

Disassembly of section .text:

00800230 <_start>:

    /*
     * Now that the caches are initialized, set up the stack pointer and global pointer.
     * The values provided by the linker are assumed to be correctly aligned.
     */
    movhi sp, %hi(__alt_stack_pointer)
  800230:	06c04034 	movhi	sp,256
    ori sp, sp, %lo(__alt_stack_pointer)
  800234:	dec00014 	ori	sp,sp,0
    movhi gp, %hi(_gp)
  800238:	06802074 	movhi	gp,129
    ori gp, gp, %lo(_gp)
  80023c:	d6bad214 	ori	gp,gp,60232
 */
#ifndef ALT_SIM_OPTIMIZE
    /* Log that the BSS is about to be cleared. */
    ALT_LOG_PUTS(alt_log_msg_bss)

    movhi r2, %hi(__bss_start)
  800240:	00802074 	movhi	r2,129
    ori r2, r2, %lo(__bss_start)
  800244:	10a19f14 	ori	r2,r2,34428

    movhi r3, %hi(__bss_end)
  800248:	00c02074 	movhi	r3,129
    ori r3, r3, %lo(__bss_end)
  80024c:	18e1f714 	ori	r3,r3,34780

    beq r2, r3, 1f
  800250:	10c00326 	beq	r2,r3,800260 <_start+0x30>

0:
    stw zero, (r2)
  800254:	10000015 	stw	zero,0(r2)
    addi r2, r2, 4
  800258:	10800104 	addi	r2,r2,4
    bltu r2, r3, 0b
  80025c:	10fffd36 	bltu	r2,r3,800254 <__alt_mem_onchip_ram+0xff7fc254>
     * section aren't defined until alt_load() has been called).
     */
    mov   et, zero
#endif

    call alt_load
  800260:	08125a00 	call	8125a0 <alt_load>

    /* Log that alt_main is about to be called. */
    ALT_LOG_PUTS(alt_log_msg_alt_main)

    /* Call the C entry point. It should never return. */
    call alt_main
  800264:	08127500 	call	812750 <alt_main>

00800268 <alt_after_alt_main>:

    /* Wait in infinite loop in case alt_main does return. */
alt_after_alt_main:
    br alt_after_alt_main
  800268:	003fff06 	br	800268 <__alt_mem_onchip_ram+0xff7fc268>

0080026c <main>:
 */

#include <stdio.h>

int main()
{
  80026c:	defffa04 	addi	sp,sp,-24
  800270:	dfc00515 	stw	ra,20(sp)
  800274:	df000415 	stw	fp,16(sp)
  800278:	df000404 	addi	fp,sp,16

		float f;
      int n,i;
      unsigned int mask;
      scanf("%f",&f);
  80027c:	e0bfff04 	addi	r2,fp,-4
  800280:	100b883a 	mov	r5,r2
  800284:	01002074 	movhi	r4,129
  800288:	21126604 	addi	r4,r4,18840
  80028c:	08005500 	call	800550 <scanf>
      i = *(int *)&f;
  800290:	e0bfff04 	addi	r2,fp,-4
  800294:	10800017 	ldw	r2,0(r2)
  800298:	e0bffe15 	stw	r2,-8(fp)
      n = 0;
  80029c:	e03ffc15 	stw	zero,-16(fp)

      for (mask = 0x80000000; mask != 0; mask >>= 1)
  8002a0:	00a00034 	movhi	r2,32768
  8002a4:	e0bffd15 	stw	r2,-12(fp)
  8002a8:	00003d06 	br	8003a0 <main+0x134>
      {
          if((n==1) || (n==9))
  8002ac:	e0bffc17 	ldw	r2,-16(fp)
  8002b0:	10800060 	cmpeqi	r2,r2,1
  8002b4:	1000031e 	bne	r2,zero,8002c4 <main+0x58>
  8002b8:	e0bffc17 	ldw	r2,-16(fp)
  8002bc:	10800258 	cmpnei	r2,r2,9
  8002c0:	1000071e 	bne	r2,zero,8002e0 <main+0x74>
              putchar(' ');
  8002c4:	00802074 	movhi	r2,129
  8002c8:	109ad304 	addi	r2,r2,27468
  8002cc:	10800017 	ldw	r2,0(r2)
  8002d0:	10800217 	ldw	r2,8(r2)
  8002d4:	100b883a 	mov	r5,r2
  8002d8:	01000804 	movi	r4,32
  8002dc:	08004680 	call	800468 <putc>
          if((n==4) || (n==8)|| (n == 12)|| n== 16 ||n==20|| n==24 ||n==28)
  8002e0:	e0bffc17 	ldw	r2,-16(fp)
  8002e4:	10800120 	cmpeqi	r2,r2,4
  8002e8:	1000121e 	bne	r2,zero,800334 <main+0xc8>
  8002ec:	e0bffc17 	ldw	r2,-16(fp)
  8002f0:	10800220 	cmpeqi	r2,r2,8
  8002f4:	10000f1e 	bne	r2,zero,800334 <main+0xc8>
  8002f8:	e0bffc17 	ldw	r2,-16(fp)
  8002fc:	10800320 	cmpeqi	r2,r2,12
  800300:	10000c1e 	bne	r2,zero,800334 <main+0xc8>
  800304:	e0bffc17 	ldw	r2,-16(fp)
  800308:	10800420 	cmpeqi	r2,r2,16
  80030c:	1000091e 	bne	r2,zero,800334 <main+0xc8>
  800310:	e0bffc17 	ldw	r2,-16(fp)
  800314:	10800520 	cmpeqi	r2,r2,20
  800318:	1000061e 	bne	r2,zero,800334 <main+0xc8>
  80031c:	e0bffc17 	ldw	r2,-16(fp)
  800320:	10800620 	cmpeqi	r2,r2,24
  800324:	1000031e 	bne	r2,zero,800334 <main+0xc8>
  800328:	e0bffc17 	ldw	r2,-16(fp)
  80032c:	10800718 	cmpnei	r2,r2,28
  800330:	1000071e 	bne	r2,zero,800350 <main+0xe4>
                  putchar(' ');
  800334:	00802074 	movhi	r2,129
  800338:	109ad304 	addi	r2,r2,27468
  80033c:	10800017 	ldw	r2,0(r2)
  800340:	10800217 	ldw	r2,8(r2)
  800344:	100b883a 	mov	r5,r2
  800348:	01000804 	movi	r4,32
  80034c:	08004680 	call	800468 <putc>
          putchar((i & mask)? '1':'0');
  800350:	e0fffe17 	ldw	r3,-8(fp)
  800354:	e0bffd17 	ldw	r2,-12(fp)
  800358:	1884703a 	and	r2,r3,r2
  80035c:	10000226 	beq	r2,zero,800368 <main+0xfc>
  800360:	00c00c44 	movi	r3,49
  800364:	00000106 	br	80036c <main+0x100>
  800368:	00c00c04 	movi	r3,48
  80036c:	00802074 	movhi	r2,129
  800370:	109ad304 	addi	r2,r2,27468
  800374:	10800017 	ldw	r2,0(r2)
  800378:	10800217 	ldw	r2,8(r2)
  80037c:	100b883a 	mov	r5,r2
  800380:	1809883a 	mov	r4,r3
  800384:	08004680 	call	800468 <putc>
          n++;
  800388:	e0bffc17 	ldw	r2,-16(fp)
  80038c:	10800044 	addi	r2,r2,1
  800390:	e0bffc15 	stw	r2,-16(fp)
      unsigned int mask;
      scanf("%f",&f);
      i = *(int *)&f;
      n = 0;

      for (mask = 0x80000000; mask != 0; mask >>= 1)
  800394:	e0bffd17 	ldw	r2,-12(fp)
  800398:	1004d07a 	srli	r2,r2,1
  80039c:	e0bffd15 	stw	r2,-12(fp)
  8003a0:	e0bffd17 	ldw	r2,-12(fp)
  8003a4:	103fc11e 	bne	r2,zero,8002ac <__alt_mem_onchip_ram+0xff7fc2ac>
          if((n==4) || (n==8)|| (n == 12)|| n== 16 ||n==20|| n==24 ||n==28)
                  putchar(' ');
          putchar((i & mask)? '1':'0');
          n++;
      }
      printf("\n");
  8003a8:	01000284 	movi	r4,10
  8003ac:	08005380 	call	800538 <putchar>

  return 0;
  8003b0:	0005883a 	mov	r2,zero
}
  8003b4:	e037883a 	mov	sp,fp
  8003b8:	dfc00117 	ldw	ra,4(sp)
  8003bc:	df000017 	ldw	fp,0(sp)
  8003c0:	dec00204 	addi	sp,sp,8
  8003c4:	f800283a 	ret

008003c8 <_putc_r>:
  8003c8:	defffc04 	addi	sp,sp,-16
  8003cc:	dc000215 	stw	r16,8(sp)
  8003d0:	dfc00315 	stw	ra,12(sp)
  8003d4:	2021883a 	mov	r16,r4
  8003d8:	20000226 	beq	r4,zero,8003e4 <_putc_r+0x1c>
  8003dc:	20800e17 	ldw	r2,56(r4)
  8003e0:	10001b26 	beq	r2,zero,800450 <_putc_r+0x88>
  8003e4:	30800217 	ldw	r2,8(r6)
  8003e8:	10bfffc4 	addi	r2,r2,-1
  8003ec:	30800215 	stw	r2,8(r6)
  8003f0:	10000a16 	blt	r2,zero,80041c <_putc_r+0x54>
  8003f4:	30800017 	ldw	r2,0(r6)
  8003f8:	11400005 	stb	r5,0(r2)
  8003fc:	30800017 	ldw	r2,0(r6)
  800400:	10c00044 	addi	r3,r2,1
  800404:	30c00015 	stw	r3,0(r6)
  800408:	10800003 	ldbu	r2,0(r2)
  80040c:	dfc00317 	ldw	ra,12(sp)
  800410:	dc000217 	ldw	r16,8(sp)
  800414:	dec00404 	addi	sp,sp,16
  800418:	f800283a 	ret
  80041c:	30c00617 	ldw	r3,24(r6)
  800420:	10c00616 	blt	r2,r3,80043c <_putc_r+0x74>
  800424:	30800017 	ldw	r2,0(r6)
  800428:	00c00284 	movi	r3,10
  80042c:	11400005 	stb	r5,0(r2)
  800430:	30800017 	ldw	r2,0(r6)
  800434:	11400003 	ldbu	r5,0(r2)
  800438:	28fff11e 	bne	r5,r3,800400 <__alt_mem_onchip_ram+0xff7fc400>
  80043c:	8009883a 	mov	r4,r16
  800440:	dfc00317 	ldw	ra,12(sp)
  800444:	dc000217 	ldw	r16,8(sp)
  800448:	dec00404 	addi	sp,sp,16
  80044c:	08020181 	jmpi	802018 <__swbuf_r>
  800450:	d9400015 	stw	r5,0(sp)
  800454:	d9800115 	stw	r6,4(sp)
  800458:	08028cc0 	call	8028cc <__sinit>
  80045c:	d9800117 	ldw	r6,4(sp)
  800460:	d9400017 	ldw	r5,0(sp)
  800464:	003fdf06 	br	8003e4 <__alt_mem_onchip_ram+0xff7fc3e4>

00800468 <putc>:
  800468:	00802074 	movhi	r2,129
  80046c:	defffc04 	addi	sp,sp,-16
  800470:	109ad304 	addi	r2,r2,27468
  800474:	dc000115 	stw	r16,4(sp)
  800478:	14000017 	ldw	r16,0(r2)
  80047c:	dc400215 	stw	r17,8(sp)
  800480:	dfc00315 	stw	ra,12(sp)
  800484:	2023883a 	mov	r17,r4
  800488:	80000226 	beq	r16,zero,800494 <putc+0x2c>
  80048c:	80800e17 	ldw	r2,56(r16)
  800490:	10001a26 	beq	r2,zero,8004fc <putc+0x94>
  800494:	28800217 	ldw	r2,8(r5)
  800498:	10bfffc4 	addi	r2,r2,-1
  80049c:	28800215 	stw	r2,8(r5)
  8004a0:	10000b16 	blt	r2,zero,8004d0 <putc+0x68>
  8004a4:	28800017 	ldw	r2,0(r5)
  8004a8:	14400005 	stb	r17,0(r2)
  8004ac:	28800017 	ldw	r2,0(r5)
  8004b0:	10c00044 	addi	r3,r2,1
  8004b4:	28c00015 	stw	r3,0(r5)
  8004b8:	10800003 	ldbu	r2,0(r2)
  8004bc:	dfc00317 	ldw	ra,12(sp)
  8004c0:	dc400217 	ldw	r17,8(sp)
  8004c4:	dc000117 	ldw	r16,4(sp)
  8004c8:	dec00404 	addi	sp,sp,16
  8004cc:	f800283a 	ret
  8004d0:	28c00617 	ldw	r3,24(r5)
  8004d4:	10c00e16 	blt	r2,r3,800510 <putc+0xa8>
  8004d8:	28800017 	ldw	r2,0(r5)
  8004dc:	01000284 	movi	r4,10
  8004e0:	14400005 	stb	r17,0(r2)
  8004e4:	28800017 	ldw	r2,0(r5)
  8004e8:	10c00003 	ldbu	r3,0(r2)
  8004ec:	193ff01e 	bne	r3,r4,8004b0 <__alt_mem_onchip_ram+0xff7fc4b0>
  8004f0:	280d883a 	mov	r6,r5
  8004f4:	180b883a 	mov	r5,r3
  8004f8:	00000706 	br	800518 <putc+0xb0>
  8004fc:	8009883a 	mov	r4,r16
  800500:	d9400015 	stw	r5,0(sp)
  800504:	08028cc0 	call	8028cc <__sinit>
  800508:	d9400017 	ldw	r5,0(sp)
  80050c:	003fe106 	br	800494 <__alt_mem_onchip_ram+0xff7fc494>
  800510:	280d883a 	mov	r6,r5
  800514:	880b883a 	mov	r5,r17
  800518:	8009883a 	mov	r4,r16
  80051c:	dfc00317 	ldw	ra,12(sp)
  800520:	dc400217 	ldw	r17,8(sp)
  800524:	dc000117 	ldw	r16,4(sp)
  800528:	dec00404 	addi	sp,sp,16
  80052c:	08020181 	jmpi	802018 <__swbuf_r>

00800530 <_putchar_r>:
  800530:	21800217 	ldw	r6,8(r4)
  800534:	08003c81 	jmpi	8003c8 <_putc_r>

00800538 <putchar>:
  800538:	00802074 	movhi	r2,129
  80053c:	109ad304 	addi	r2,r2,27468
  800540:	200b883a 	mov	r5,r4
  800544:	11000017 	ldw	r4,0(r2)
  800548:	21800217 	ldw	r6,8(r4)
  80054c:	08003c81 	jmpi	8003c8 <_putc_r>

00800550 <scanf>:
  800550:	defffc04 	addi	sp,sp,-16
  800554:	dfc00015 	stw	ra,0(sp)
  800558:	d9400115 	stw	r5,4(sp)
  80055c:	d9800215 	stw	r6,8(sp)
  800560:	d9c00315 	stw	r7,12(sp)
  800564:	00802074 	movhi	r2,129
  800568:	109ad304 	addi	r2,r2,27468
  80056c:	200d883a 	mov	r6,r4
  800570:	11000017 	ldw	r4,0(r2)
  800574:	d9c00104 	addi	r7,sp,4
  800578:	21400117 	ldw	r5,4(r4)
  80057c:	0801fcc0 	call	801fcc <_vfscanf_r>
  800580:	dfc00017 	ldw	ra,0(sp)
  800584:	dec00404 	addi	sp,sp,16
  800588:	f800283a 	ret

0080058c <_scanf_r>:
  80058c:	defffd04 	addi	sp,sp,-12
  800590:	2805883a 	mov	r2,r5
  800594:	dfc00015 	stw	ra,0(sp)
  800598:	d9800115 	stw	r6,4(sp)
  80059c:	d9c00215 	stw	r7,8(sp)
  8005a0:	21400117 	ldw	r5,4(r4)
  8005a4:	d9c00104 	addi	r7,sp,4
  8005a8:	100d883a 	mov	r6,r2
  8005ac:	0801fcc0 	call	801fcc <_vfscanf_r>
  8005b0:	dfc00017 	ldw	ra,0(sp)
  8005b4:	dec00304 	addi	sp,sp,12
  8005b8:	f800283a 	ret

008005bc <__svfscanf_r>:
  8005bc:	2880030b 	ldhu	r2,12(r5)
  8005c0:	deff4b04 	addi	sp,sp,-724
  8005c4:	df00b315 	stw	fp,716(sp)
  8005c8:	ddc0b215 	stw	r23,712(sp)
  8005cc:	dfc0b415 	stw	ra,720(sp)
  8005d0:	dd80b115 	stw	r22,708(sp)
  8005d4:	dd40b015 	stw	r21,704(sp)
  8005d8:	dd00af15 	stw	r20,700(sp)
  8005dc:	dcc0ae15 	stw	r19,696(sp)
  8005e0:	dc80ad15 	stw	r18,692(sp)
  8005e4:	dc40ac15 	stw	r17,688(sp)
  8005e8:	dc00ab15 	stw	r16,684(sp)
  8005ec:	10c8000c 	andi	r3,r2,8192
  8005f0:	d9c09c15 	stw	r7,624(sp)
  8005f4:	2839883a 	mov	fp,r5
  8005f8:	202f883a 	mov	r23,r4
  8005fc:	1800061e 	bne	r3,zero,800618 <__svfscanf_r+0x5c>
  800600:	29001917 	ldw	r4,100(r5)
  800604:	00f7ffc4 	movi	r3,-8193
  800608:	10880014 	ori	r2,r2,8192
  80060c:	20c6703a 	and	r3,r4,r3
  800610:	2880030d 	sth	r2,12(r5)
  800614:	28c01915 	stw	r3,100(r5)
  800618:	30800003 	ldbu	r2,0(r6)
  80061c:	0021883a 	mov	r16,zero
  800620:	05802074 	movhi	r22,129
  800624:	d800a115 	stw	zero,644(sp)
  800628:	d8009e15 	stw	zero,632(sp)
  80062c:	d800a015 	stw	zero,640(sp)
  800630:	d8809b15 	stw	r2,620(sp)
  800634:	b59ad404 	addi	r22,r22,27472
  800638:	8025883a 	mov	r18,r16
  80063c:	e027883a 	mov	r19,fp
  800640:	35000044 	addi	r20,r6,1
  800644:	10001e26 	beq	r2,zero,8006c0 <__svfscanf_r+0x104>
  800648:	b4000017 	ldw	r16,0(r22)
  80064c:	8087883a 	add	r3,r16,r2
  800650:	18c00043 	ldbu	r3,1(r3)
  800654:	18c0020c 	andi	r3,r3,8
  800658:	18001b26 	beq	r3,zero,8006c8 <__svfscanf_r+0x10c>
  80065c:	98800117 	ldw	r2,4(r19)
  800660:	00800e0e 	bge	zero,r2,80069c <__svfscanf_r+0xe0>
  800664:	98c00017 	ldw	r3,0(r19)
  800668:	b1000017 	ldw	r4,0(r22)
  80066c:	18800003 	ldbu	r2,0(r3)
  800670:	2085883a 	add	r2,r4,r2
  800674:	10800043 	ldbu	r2,1(r2)
  800678:	1080020c 	andi	r2,r2,8
  80067c:	10000b26 	beq	r2,zero,8006ac <__svfscanf_r+0xf0>
  800680:	98800117 	ldw	r2,4(r19)
  800684:	18c00044 	addi	r3,r3,1
  800688:	98c00015 	stw	r3,0(r19)
  80068c:	10bfffc4 	addi	r2,r2,-1
  800690:	98800115 	stw	r2,4(r19)
  800694:	94800044 	addi	r18,r18,1
  800698:	00bff216 	blt	zero,r2,800664 <__alt_mem_onchip_ram+0xff7fc664>
  80069c:	980b883a 	mov	r5,r19
  8006a0:	b809883a 	mov	r4,r23
  8006a4:	08040cc0 	call	8040cc <__srefill_r>
  8006a8:	103fee26 	beq	r2,zero,800664 <__alt_mem_onchip_ram+0xff7fc664>
  8006ac:	a00d883a 	mov	r6,r20
  8006b0:	30800003 	ldbu	r2,0(r6)
  8006b4:	35000044 	addi	r20,r6,1
  8006b8:	d8809b15 	stw	r2,620(sp)
  8006bc:	103fe21e 	bne	r2,zero,800648 <__alt_mem_onchip_ram+0xff7fc648>
  8006c0:	d880a017 	ldw	r2,640(sp)
  8006c4:	00009a06 	br	800930 <__svfscanf_r+0x374>
  8006c8:	00c00944 	movi	r3,37
  8006cc:	10c0891e 	bne	r2,r3,8008f4 <__svfscanf_r+0x338>
  8006d0:	0039883a 	mov	fp,zero
  8006d4:	35400043 	ldbu	r21,1(r6)
  8006d8:	0023883a 	mov	r17,zero
  8006dc:	01801e04 	movi	r6,120
  8006e0:	00c01b04 	movi	r3,108
  8006e4:	e009883a 	mov	r4,fp
  8006e8:	a1c00044 	addi	r7,r20,1
  8006ec:	3540a236 	bltu	r6,r21,800978 <__svfscanf_r+0x3bc>
  8006f0:	a80490ba 	slli	r2,r21,2
  8006f4:	01402034 	movhi	r5,128
  8006f8:	2941c204 	addi	r5,r5,1800
  8006fc:	1145883a 	add	r2,r2,r5
  800700:	10800017 	ldw	r2,0(r2)
  800704:	1000683a 	jmp	r2
  800708:	0080092c 	andhi	r2,zero,36
  80070c:	00800978 	rdprs	r2,zero,37
  800710:	00800978 	rdprs	r2,zero,37
  800714:	00800978 	rdprs	r2,zero,37
  800718:	00800978 	rdprs	r2,zero,37
  80071c:	00800978 	rdprs	r2,zero,37
  800720:	00800978 	rdprs	r2,zero,37
  800724:	00800978 	rdprs	r2,zero,37
  800728:	00800978 	rdprs	r2,zero,37
  80072c:	00800978 	rdprs	r2,zero,37
  800730:	00800978 	rdprs	r2,zero,37
  800734:	00800978 	rdprs	r2,zero,37
  800738:	00800978 	rdprs	r2,zero,37
  80073c:	00800978 	rdprs	r2,zero,37
  800740:	00800978 	rdprs	r2,zero,37
  800744:	00800978 	rdprs	r2,zero,37
  800748:	00800978 	rdprs	r2,zero,37
  80074c:	00800978 	rdprs	r2,zero,37
  800750:	00800978 	rdprs	r2,zero,37
  800754:	00800978 	rdprs	r2,zero,37
  800758:	00800978 	rdprs	r2,zero,37
  80075c:	00800978 	rdprs	r2,zero,37
  800760:	00800978 	rdprs	r2,zero,37
  800764:	00800978 	rdprs	r2,zero,37
  800768:	00800978 	rdprs	r2,zero,37
  80076c:	00800978 	rdprs	r2,zero,37
  800770:	00800978 	rdprs	r2,zero,37
  800774:	00800978 	rdprs	r2,zero,37
  800778:	00800978 	rdprs	r2,zero,37
  80077c:	00800978 	rdprs	r2,zero,37
  800780:	00800978 	rdprs	r2,zero,37
  800784:	00800978 	rdprs	r2,zero,37
  800788:	00800978 	rdprs	r2,zero,37
  80078c:	00800978 	rdprs	r2,zero,37
  800790:	00800978 	rdprs	r2,zero,37
  800794:	00800978 	rdprs	r2,zero,37
  800798:	00800978 	rdprs	r2,zero,37
  80079c:	008008ec 	andhi	r2,zero,35
  8007a0:	00800978 	rdprs	r2,zero,37
  8007a4:	00800978 	rdprs	r2,zero,37
  8007a8:	00800978 	rdprs	r2,zero,37
  8007ac:	00800978 	rdprs	r2,zero,37
  8007b0:	00800960 	cmpeqi	r2,zero,37
  8007b4:	00800978 	rdprs	r2,zero,37
  8007b8:	00800978 	rdprs	r2,zero,37
  8007bc:	00800978 	rdprs	r2,zero,37
  8007c0:	00800978 	rdprs	r2,zero,37
  8007c4:	00800978 	rdprs	r2,zero,37
  8007c8:	00800ac0 	call	800ac <__reset-0x77ff54>
  8007cc:	00800ac0 	call	800ac <__reset-0x77ff54>
  8007d0:	00800ac0 	call	800ac <__reset-0x77ff54>
  8007d4:	00800ac0 	call	800ac <__reset-0x77ff54>
  8007d8:	00800ac0 	call	800ac <__reset-0x77ff54>
  8007dc:	00800ac0 	call	800ac <__reset-0x77ff54>
  8007e0:	00800ac0 	call	800ac <__reset-0x77ff54>
  8007e4:	00800ac0 	call	800ac <__reset-0x77ff54>
  8007e8:	00800ac0 	call	800ac <__reset-0x77ff54>
  8007ec:	00800ac0 	call	800ac <__reset-0x77ff54>
  8007f0:	00800978 	rdprs	r2,zero,37
  8007f4:	00800978 	rdprs	r2,zero,37
  8007f8:	00800978 	rdprs	r2,zero,37
  8007fc:	00800978 	rdprs	r2,zero,37
  800800:	00800978 	rdprs	r2,zero,37
  800804:	00800978 	rdprs	r2,zero,37
  800808:	00800978 	rdprs	r2,zero,37
  80080c:	00800978 	rdprs	r2,zero,37
  800810:	00800978 	rdprs	r2,zero,37
  800814:	00800978 	rdprs	r2,zero,37
  800818:	00800a90 	cmplti	r2,zero,42
  80081c:	00800b6c 	andhi	r2,zero,45
  800820:	00800978 	rdprs	r2,zero,37
  800824:	00800b6c 	andhi	r2,zero,45
  800828:	00800978 	rdprs	r2,zero,37
  80082c:	00800978 	rdprs	r2,zero,37
  800830:	00800978 	rdprs	r2,zero,37
  800834:	00800978 	rdprs	r2,zero,37
  800838:	00800b58 	cmpnei	r2,zero,45
  80083c:	00800978 	rdprs	r2,zero,37
  800840:	00800978 	rdprs	r2,zero,37
  800844:	00800b28 	cmpgeui	r2,zero,44
  800848:	00800978 	rdprs	r2,zero,37
  80084c:	00800978 	rdprs	r2,zero,37
  800850:	00800978 	rdprs	r2,zero,37
  800854:	00800978 	rdprs	r2,zero,37
  800858:	00800978 	rdprs	r2,zero,37
  80085c:	00800978 	rdprs	r2,zero,37
  800860:	00800978 	rdprs	r2,zero,37
  800864:	00800978 	rdprs	r2,zero,37
  800868:	00800af8 	rdprs	r2,zero,43
  80086c:	00800978 	rdprs	r2,zero,37
  800870:	00800978 	rdprs	r2,zero,37
  800874:	00800cb4 	movhi	r2,50
  800878:	00800978 	rdprs	r2,zero,37
  80087c:	00800978 	rdprs	r2,zero,37
  800880:	00800978 	rdprs	r2,zero,37
  800884:	00800978 	rdprs	r2,zero,37
  800888:	00800978 	rdprs	r2,zero,37
  80088c:	00800978 	rdprs	r2,zero,37
  800890:	00800978 	rdprs	r2,zero,37
  800894:	00800c34 	movhi	r2,48
  800898:	00800c08 	cmpgei	r2,zero,48
  80089c:	00800b6c 	andhi	r2,zero,45
  8008a0:	00800b6c 	andhi	r2,zero,45
  8008a4:	00800b6c 	andhi	r2,zero,45
  8008a8:	00800bf4 	movhi	r2,47
  8008ac:	00800d44 	movi	r2,53
  8008b0:	00800978 	rdprs	r2,zero,37
  8008b4:	00800978 	rdprs	r2,zero,37
  8008b8:	00800be0 	cmpeqi	r2,zero,47
  8008bc:	00800978 	rdprs	r2,zero,37
  8008c0:	00800bb0 	cmpltui	r2,zero,46
  8008c4:	00800b84 	movi	r2,46
  8008c8:	00800a60 	cmpeqi	r2,zero,41
  8008cc:	00800978 	rdprs	r2,zero,37
  8008d0:	00800978 	rdprs	r2,zero,37
  8008d4:	00800a48 	cmpgei	r2,zero,41
  8008d8:	00800978 	rdprs	r2,zero,37
  8008dc:	008009cc 	andi	r2,zero,39
  8008e0:	00800978 	rdprs	r2,zero,37
  8008e4:	00800978 	rdprs	r2,zero,37
  8008e8:	00800af8 	rdprs	r2,zero,43
  8008ec:	d9c09d15 	stw	r7,628(sp)
  8008f0:	3829883a 	mov	r20,r7
  8008f4:	98800117 	ldw	r2,4(r19)
  8008f8:	0081c60e 	bge	zero,r2,801014 <__svfscanf_r+0xa58>
  8008fc:	98800017 	ldw	r2,0(r19)
  800900:	a0ffffc3 	ldbu	r3,-1(r20)
  800904:	11000003 	ldbu	r4,0(r2)
  800908:	20ff6d1e 	bne	r4,r3,8006c0 <__alt_mem_onchip_ram+0xff7fc6c0>
  80090c:	98c00117 	ldw	r3,4(r19)
  800910:	10800044 	addi	r2,r2,1
  800914:	98800015 	stw	r2,0(r19)
  800918:	18bfffc4 	addi	r2,r3,-1
  80091c:	98800115 	stw	r2,4(r19)
  800920:	94800044 	addi	r18,r18,1
  800924:	a00d883a 	mov	r6,r20
  800928:	003f6106 	br	8006b0 <__alt_mem_onchip_ram+0xff7fc6b0>
  80092c:	00bfffc4 	movi	r2,-1
  800930:	dfc0b417 	ldw	ra,720(sp)
  800934:	df00b317 	ldw	fp,716(sp)
  800938:	ddc0b217 	ldw	r23,712(sp)
  80093c:	dd80b117 	ldw	r22,708(sp)
  800940:	dd40b017 	ldw	r21,704(sp)
  800944:	dd00af17 	ldw	r20,700(sp)
  800948:	dcc0ae17 	ldw	r19,696(sp)
  80094c:	dc80ad17 	ldw	r18,692(sp)
  800950:	dc40ac17 	ldw	r17,688(sp)
  800954:	dc00ab17 	ldw	r16,684(sp)
  800958:	dec0b504 	addi	sp,sp,724
  80095c:	f800283a 	ret
  800960:	a1400043 	ldbu	r5,1(r20)
  800964:	3829883a 	mov	r20,r7
  800968:	8c400414 	ori	r17,r17,16
  80096c:	2d403fcc 	andi	r21,r5,255
  800970:	a1c00044 	addi	r7,r20,1
  800974:	357f5e2e 	bgeu	r6,r21,8006f0 <__alt_mem_onchip_ram+0xff7fc6f0>
  800978:	856b883a 	add	r21,r16,r21
  80097c:	a8800043 	ldbu	r2,1(r21)
  800980:	d9c09d15 	stw	r7,628(sp)
  800984:	00c00044 	movi	r3,1
  800988:	108000cc 	andi	r2,r2,3
  80098c:	2039883a 	mov	fp,r4
  800990:	10c1a526 	beq	r2,r3,801028 <__svfscanf_r+0xa6c>
  800994:	98800117 	ldw	r2,4(r19)
  800998:	00804216 	blt	zero,r2,800aa4 <__svfscanf_r+0x4e8>
  80099c:	980b883a 	mov	r5,r19
  8009a0:	b809883a 	mov	r4,r23
  8009a4:	08040cc0 	call	8040cc <__srefill_r>
  8009a8:	10015e1e 	bne	r2,zero,800f24 <__svfscanf_r+0x968>
  8009ac:	01002034 	movhi	r4,128
  8009b0:	21179f04 	addi	r4,r4,24188
  8009b4:	01400284 	movi	r5,10
  8009b8:	b4000017 	ldw	r16,0(r22)
  8009bc:	d900a115 	stw	r4,644(sp)
  8009c0:	d9409e15 	stw	r5,632(sp)
  8009c4:	050000c4 	movi	r20,3
  8009c8:	00000a06 	br	8009f4 <__svfscanf_r+0x438>
  8009cc:	98800117 	ldw	r2,4(r19)
  8009d0:	d9c09d15 	stw	r7,628(sp)
  8009d4:	2039883a 	mov	fp,r4
  8009d8:	0081e20e 	bge	zero,r2,801164 <__svfscanf_r+0xba8>
  8009dc:	00c02034 	movhi	r3,128
  8009e0:	18d8fd04 	addi	r3,r3,25588
  8009e4:	01000284 	movi	r4,10
  8009e8:	d8c0a115 	stw	r3,644(sp)
  8009ec:	d9009e15 	stw	r4,632(sp)
  8009f0:	050000c4 	movi	r20,3
  8009f4:	98c00017 	ldw	r3,0(r19)
  8009f8:	00000206 	br	800a04 <__svfscanf_r+0x448>
  8009fc:	18c00044 	addi	r3,r3,1
  800a00:	98c00015 	stw	r3,0(r19)
  800a04:	19000003 	ldbu	r4,0(r3)
  800a08:	20803fcc 	andi	r2,r4,255
  800a0c:	8085883a 	add	r2,r16,r2
  800a10:	10800043 	ldbu	r2,1(r2)
  800a14:	1140020c 	andi	r5,r2,8
  800a18:	28020126 	beq	r5,zero,801220 <__svfscanf_r+0xc64>
  800a1c:	98800117 	ldw	r2,4(r19)
  800a20:	94800044 	addi	r18,r18,1
  800a24:	10bfffc4 	addi	r2,r2,-1
  800a28:	98800115 	stw	r2,4(r19)
  800a2c:	00bff316 	blt	zero,r2,8009fc <__alt_mem_onchip_ram+0xff7fc9fc>
  800a30:	980b883a 	mov	r5,r19
  800a34:	b809883a 	mov	r4,r23
  800a38:	08040cc0 	call	8040cc <__srefill_r>
  800a3c:	1001391e 	bne	r2,zero,800f24 <__svfscanf_r+0x968>
  800a40:	b4000017 	ldw	r16,0(r22)
  800a44:	003feb06 	br	8009f4 <__alt_mem_onchip_ram+0xff7fc9f4>
  800a48:	98800117 	ldw	r2,4(r19)
  800a4c:	d9c09d15 	stw	r7,628(sp)
  800a50:	2039883a 	mov	fp,r4
  800a54:	0081aa0e 	bge	zero,r2,801100 <__svfscanf_r+0xb44>
  800a58:	05000084 	movi	r20,2
  800a5c:	003fe506 	br	8009f4 <__alt_mem_onchip_ram+0xff7fc9f4>
  800a60:	98800117 	ldw	r2,4(r19)
  800a64:	d9c09d15 	stw	r7,628(sp)
  800a68:	2039883a 	mov	fp,r4
  800a6c:	8c408814 	ori	r17,r17,544
  800a70:	0081df0e 	bge	zero,r2,8011f0 <__svfscanf_r+0xc34>
  800a74:	00c02034 	movhi	r3,128
  800a78:	18d8fd04 	addi	r3,r3,25588
  800a7c:	01000404 	movi	r4,16
  800a80:	d8c0a115 	stw	r3,644(sp)
  800a84:	d9009e15 	stw	r4,632(sp)
  800a88:	050000c4 	movi	r20,3
  800a8c:	003fd906 	br	8009f4 <__alt_mem_onchip_ram+0xff7fc9f4>
  800a90:	98800117 	ldw	r2,4(r19)
  800a94:	d9c09d15 	stw	r7,628(sp)
  800a98:	2039883a 	mov	fp,r4
  800a9c:	8c400054 	ori	r17,r17,1
  800aa0:	0081850e 	bge	zero,r2,8010b8 <__svfscanf_r+0xafc>
  800aa4:	00c02034 	movhi	r3,128
  800aa8:	18d79f04 	addi	r3,r3,24188
  800aac:	01000284 	movi	r4,10
  800ab0:	d8c0a115 	stw	r3,644(sp)
  800ab4:	d9009e15 	stw	r4,632(sp)
  800ab8:	050000c4 	movi	r20,3
  800abc:	003fcd06 	br	8009f4 <__alt_mem_onchip_ram+0xff7fc9f4>
  800ac0:	01400284 	movi	r5,10
  800ac4:	d8c0a615 	stw	r3,664(sp)
  800ac8:	d980a915 	stw	r6,676(sp)
  800acc:	d9c0aa15 	stw	r7,680(sp)
  800ad0:	080f5740 	call	80f574 <__mulsi3>
  800ad4:	a1400043 	ldbu	r5,1(r20)
  800ad8:	d9c0aa17 	ldw	r7,680(sp)
  800adc:	1545883a 	add	r2,r2,r21
  800ae0:	113ff404 	addi	r4,r2,-48
  800ae4:	3829883a 	mov	r20,r7
  800ae8:	2d403fcc 	andi	r21,r5,255
  800aec:	d8c0a617 	ldw	r3,664(sp)
  800af0:	d980a917 	ldw	r6,676(sp)
  800af4:	003efc06 	br	8006e8 <__alt_mem_onchip_ram+0xff7fc6e8>
  800af8:	98800117 	ldw	r2,4(r19)
  800afc:	d9c09d15 	stw	r7,628(sp)
  800b00:	2039883a 	mov	fp,r4
  800b04:	8c408014 	ori	r17,r17,512
  800b08:	0081710e 	bge	zero,r2,8010d0 <__svfscanf_r+0xb14>
  800b0c:	01402034 	movhi	r5,128
  800b10:	2958fd04 	addi	r5,r5,25588
  800b14:	00800404 	movi	r2,16
  800b18:	d940a115 	stw	r5,644(sp)
  800b1c:	d8809e15 	stw	r2,632(sp)
  800b20:	050000c4 	movi	r20,3
  800b24:	003fb306 	br	8009f4 <__alt_mem_onchip_ram+0xff7fc9f4>
  800b28:	98800117 	ldw	r2,4(r19)
  800b2c:	d9c09d15 	stw	r7,628(sp)
  800b30:	2039883a 	mov	fp,r4
  800b34:	8c400054 	ori	r17,r17,1
  800b38:	0081840e 	bge	zero,r2,80114c <__svfscanf_r+0xb90>
  800b3c:	01402034 	movhi	r5,128
  800b40:	2958fd04 	addi	r5,r5,25588
  800b44:	00800204 	movi	r2,8
  800b48:	d940a115 	stw	r5,644(sp)
  800b4c:	d8809e15 	stw	r2,632(sp)
  800b50:	050000c4 	movi	r20,3
  800b54:	003fa706 	br	8009f4 <__alt_mem_onchip_ram+0xff7fc9f4>
  800b58:	a1400043 	ldbu	r5,1(r20)
  800b5c:	8c400094 	ori	r17,r17,2
  800b60:	3829883a 	mov	r20,r7
  800b64:	2d403fcc 	andi	r21,r5,255
  800b68:	003edf06 	br	8006e8 <__alt_mem_onchip_ram+0xff7fc6e8>
  800b6c:	98800117 	ldw	r2,4(r19)
  800b70:	d9c09d15 	stw	r7,628(sp)
  800b74:	2039883a 	mov	fp,r4
  800b78:	00816d0e 	bge	zero,r2,801130 <__svfscanf_r+0xb74>
  800b7c:	05000104 	movi	r20,4
  800b80:	003f9c06 	br	8009f4 <__alt_mem_onchip_ram+0xff7fc9f4>
  800b84:	98800117 	ldw	r2,4(r19)
  800b88:	d9c09d15 	stw	r7,628(sp)
  800b8c:	2039883a 	mov	fp,r4
  800b90:	0081800e 	bge	zero,r2,801194 <__svfscanf_r+0xbd8>
  800b94:	01002034 	movhi	r4,128
  800b98:	2118fd04 	addi	r4,r4,25588
  800b9c:	01400204 	movi	r5,8
  800ba0:	d900a115 	stw	r4,644(sp)
  800ba4:	d9409e15 	stw	r5,632(sp)
  800ba8:	050000c4 	movi	r20,3
  800bac:	003f9106 	br	8009f4 <__alt_mem_onchip_ram+0xff7fc9f4>
  800bb0:	d9c09d15 	stw	r7,628(sp)
  800bb4:	8880040c 	andi	r2,r17,16
  800bb8:	1000a01e 	bne	r2,zero,800e3c <__svfscanf_r+0x880>
  800bbc:	8880010c 	andi	r2,r17,4
  800bc0:	10012826 	beq	r2,zero,801064 <__svfscanf_r+0xaa8>
  800bc4:	d9009c17 	ldw	r4,624(sp)
  800bc8:	3829883a 	mov	r20,r7
  800bcc:	20800017 	ldw	r2,0(r4)
  800bd0:	21000104 	addi	r4,r4,4
  800bd4:	d9009c15 	stw	r4,624(sp)
  800bd8:	1480000d 	sth	r18,0(r2)
  800bdc:	003eb306 	br	8006ac <__alt_mem_onchip_ram+0xff7fc6ac>
  800be0:	a5400043 	ldbu	r21,1(r20)
  800be4:	a8c11a26 	beq	r21,r3,801050 <__svfscanf_r+0xa94>
  800be8:	8c400054 	ori	r17,r17,1
  800bec:	3829883a 	mov	r20,r7
  800bf0:	003ebd06 	br	8006e8 <__alt_mem_onchip_ram+0xff7fc6e8>
  800bf4:	a1400043 	ldbu	r5,1(r20)
  800bf8:	8c400114 	ori	r17,r17,4
  800bfc:	3829883a 	mov	r20,r7
  800c00:	2d403fcc 	andi	r21,r5,255
  800c04:	003eb806 	br	8006e8 <__alt_mem_onchip_ram+0xff7fc6e8>
  800c08:	98800117 	ldw	r2,4(r19)
  800c0c:	d9c09d15 	stw	r7,628(sp)
  800c10:	2039883a 	mov	fp,r4
  800c14:	00bf610e 	bge	zero,r2,80099c <__alt_mem_onchip_ram+0xff7fc99c>
  800c18:	00802034 	movhi	r2,128
  800c1c:	10979f04 	addi	r2,r2,24188
  800c20:	00c00284 	movi	r3,10
  800c24:	d880a115 	stw	r2,644(sp)
  800c28:	d8c09e15 	stw	r3,632(sp)
  800c2c:	050000c4 	movi	r20,3
  800c30:	003f7006 	br	8009f4 <__alt_mem_onchip_ram+0xff7fc9f4>
  800c34:	98800117 	ldw	r2,4(r19)
  800c38:	d9c09d15 	stw	r7,628(sp)
  800c3c:	2039883a 	mov	fp,r4
  800c40:	0080c60e 	bge	zero,r2,800f5c <__svfscanf_r+0x9a0>
  800c44:	e000011e 	bne	fp,zero,800c4c <__svfscanf_r+0x690>
  800c48:	07000044 	movi	fp,1
  800c4c:	8880004c 	andi	r2,r17,1
  800c50:	1000461e 	bne	r2,zero,800d6c <__svfscanf_r+0x7b0>
  800c54:	8c40040c 	andi	r17,r17,16
  800c58:	8800dc26 	beq	r17,zero,800fcc <__svfscanf_r+0xa10>
  800c5c:	0021883a 	mov	r16,zero
  800c60:	00000806 	br	800c84 <__svfscanf_r+0x6c8>
  800c64:	1887883a 	add	r3,r3,r2
  800c68:	980b883a 	mov	r5,r19
  800c6c:	b809883a 	mov	r4,r23
  800c70:	98c00015 	stw	r3,0(r19)
  800c74:	80a1883a 	add	r16,r16,r2
  800c78:	e0b9c83a 	sub	fp,fp,r2
  800c7c:	08040cc0 	call	8040cc <__srefill_r>
  800c80:	1000cc1e 	bne	r2,zero,800fb4 <__svfscanf_r+0x9f8>
  800c84:	98800117 	ldw	r2,4(r19)
  800c88:	98c00017 	ldw	r3,0(r19)
  800c8c:	173ff516 	blt	r2,fp,800c64 <__alt_mem_onchip_ram+0xff7fcc64>
  800c90:	1705c83a 	sub	r2,r2,fp
  800c94:	1f15883a 	add	r10,r3,fp
  800c98:	8721883a 	add	r16,r16,fp
  800c9c:	98800115 	stw	r2,4(r19)
  800ca0:	9a800015 	stw	r10,0(r19)
  800ca4:	dd009d17 	ldw	r20,628(sp)
  800ca8:	9425883a 	add	r18,r18,r16
  800cac:	a00d883a 	mov	r6,r20
  800cb0:	003e7f06 	br	8006b0 <__alt_mem_onchip_ram+0xff7fc6b0>
  800cb4:	2039883a 	mov	fp,r4
  800cb8:	380b883a 	mov	r5,r7
  800cbc:	d9005884 	addi	r4,sp,354
  800cc0:	d9c09d15 	stw	r7,628(sp)
  800cc4:	08043680 	call	804368 <__sccl>
  800cc8:	1029883a 	mov	r20,r2
  800ccc:	98800117 	ldw	r2,4(r19)
  800cd0:	0081120e 	bge	zero,r2,80111c <__svfscanf_r+0xb60>
  800cd4:	99000017 	ldw	r4,0(r19)
  800cd8:	20800003 	ldbu	r2,0(r4)
  800cdc:	e0005a26 	beq	fp,zero,800e48 <__svfscanf_r+0x88c>
  800ce0:	8c40040c 	andi	r17,r17,16
  800ce4:	88005b26 	beq	r17,zero,800e54 <__svfscanf_r+0x898>
  800ce8:	e023883a 	mov	r17,fp
  800cec:	0021883a 	mov	r16,zero
  800cf0:	00000106 	br	800cf8 <__svfscanf_r+0x73c>
  800cf4:	20800003 	ldbu	r2,0(r4)
  800cf8:	10803fcc 	andi	r2,r2,255
  800cfc:	d8c05884 	addi	r3,sp,354
  800d00:	1885883a 	add	r2,r3,r2
  800d04:	10800007 	ldb	r2,0(r2)
  800d08:	1000ae26 	beq	r2,zero,800fc4 <__svfscanf_r+0xa08>
  800d0c:	98800117 	ldw	r2,4(r19)
  800d10:	21000044 	addi	r4,r4,1
  800d14:	84000044 	addi	r16,r16,1
  800d18:	10bfffc4 	addi	r2,r2,-1
  800d1c:	98800115 	stw	r2,4(r19)
  800d20:	99000015 	stw	r4,0(r19)
  800d24:	8700a126 	beq	r16,fp,800fac <__svfscanf_r+0x9f0>
  800d28:	00bff216 	blt	zero,r2,800cf4 <__alt_mem_onchip_ram+0xff7fccf4>
  800d2c:	980b883a 	mov	r5,r19
  800d30:	b809883a 	mov	r4,r23
  800d34:	08040cc0 	call	8040cc <__srefill_r>
  800d38:	10009b1e 	bne	r2,zero,800fa8 <__svfscanf_r+0x9ec>
  800d3c:	99000017 	ldw	r4,0(r19)
  800d40:	003fec06 	br	800cf4 <__alt_mem_onchip_ram+0xff7fccf4>
  800d44:	98800117 	ldw	r2,4(r19)
  800d48:	d9c09d15 	stw	r7,628(sp)
  800d4c:	2039883a 	mov	fp,r4
  800d50:	00811c0e 	bge	zero,r2,8011c4 <__svfscanf_r+0xc08>
  800d54:	01402034 	movhi	r5,128
  800d58:	29579f04 	addi	r5,r5,24188
  800d5c:	d940a115 	stw	r5,644(sp)
  800d60:	d8009e15 	stw	zero,632(sp)
  800d64:	050000c4 	movi	r20,3
  800d68:	003f2206 	br	8009f4 <__alt_mem_onchip_ram+0xff7fc9f4>
  800d6c:	dd409904 	addi	r21,sp,612
  800d70:	8c40040c 	andi	r17,r17,16
  800d74:	01800204 	movi	r6,8
  800d78:	000b883a 	mov	r5,zero
  800d7c:	a809883a 	mov	r4,r21
  800d80:	dc409f15 	stw	r17,636(sp)
  800d84:	0803f880 	call	803f88 <memset>
  800d88:	dc409f17 	ldw	r17,636(sp)
  800d8c:	88006e26 	beq	r17,zero,800f48 <__svfscanf_r+0x98c>
  800d90:	0029883a 	mov	r20,zero
  800d94:	0023883a 	mov	r17,zero
  800d98:	08032000 	call	803200 <__locale_mb_cur_max>
  800d9c:	14406126 	beq	r2,r17,800f24 <__svfscanf_r+0x968>
  800da0:	98800017 	ldw	r2,0(r19)
  800da4:	98c00117 	ldw	r3,4(r19)
  800da8:	d9000104 	addi	r4,sp,4
  800dac:	12000003 	ldbu	r8,0(r2)
  800db0:	18ffffc4 	addi	r3,r3,-1
  800db4:	10800044 	addi	r2,r2,1
  800db8:	98c00115 	stw	r3,4(r19)
  800dbc:	98800015 	stw	r2,0(r19)
  800dc0:	8c000044 	addi	r16,r17,1
  800dc4:	dd400015 	stw	r21,0(sp)
  800dc8:	2463883a 	add	r17,r4,r17
  800dcc:	200d883a 	mov	r6,r4
  800dd0:	a00b883a 	mov	r5,r20
  800dd4:	800f883a 	mov	r7,r16
  800dd8:	b809883a 	mov	r4,r23
  800ddc:	8a000005 	stb	r8,0(r17)
  800de0:	0803c1c0 	call	803c1c <_mbrtowc_r>
  800de4:	017fffc4 	movi	r5,-1
  800de8:	11404e26 	beq	r2,r5,800f24 <__svfscanf_r+0x968>
  800dec:	1000601e 	bne	r2,zero,800f70 <__svfscanf_r+0x9b4>
  800df0:	d8c09f17 	ldw	r3,636(sp)
  800df4:	1800641e 	bne	r3,zero,800f88 <__svfscanf_r+0x9cc>
  800df8:	a0000015 	stw	zero,0(r20)
  800dfc:	9425883a 	add	r18,r18,r16
  800e00:	e179883a 	add	fp,fp,r5
  800e04:	a5000104 	addi	r20,r20,4
  800e08:	98800117 	ldw	r2,4(r19)
  800e0c:	0023883a 	mov	r17,zero
  800e10:	00804b16 	blt	zero,r2,800f40 <__svfscanf_r+0x984>
  800e14:	980b883a 	mov	r5,r19
  800e18:	b809883a 	mov	r4,r23
  800e1c:	08040cc0 	call	8040cc <__srefill_r>
  800e20:	10004726 	beq	r2,zero,800f40 <__svfscanf_r+0x984>
  800e24:	88003f1e 	bne	r17,zero,800f24 <__svfscanf_r+0x968>
  800e28:	d8c09f17 	ldw	r3,636(sp)
  800e2c:	1800031e 	bne	r3,zero,800e3c <__svfscanf_r+0x880>
  800e30:	d900a017 	ldw	r4,640(sp)
  800e34:	21000044 	addi	r4,r4,1
  800e38:	d900a015 	stw	r4,640(sp)
  800e3c:	dd009d17 	ldw	r20,628(sp)
  800e40:	a00d883a 	mov	r6,r20
  800e44:	003e1a06 	br	8006b0 <__alt_mem_onchip_ram+0xff7fc6b0>
  800e48:	8c40040c 	andi	r17,r17,16
  800e4c:	073fffc4 	movi	fp,-1
  800e50:	883fa51e 	bne	r17,zero,800ce8 <__alt_mem_onchip_ram+0xff7fcce8>
  800e54:	d9409c17 	ldw	r5,624(sp)
  800e58:	e2bfffc4 	addi	r10,fp,-1
  800e5c:	2c000017 	ldw	r16,0(r5)
  800e60:	2c400104 	addi	r17,r5,4
  800e64:	8007883a 	mov	r3,r16
  800e68:	82ab883a 	add	r21,r16,r10
  800e6c:	00000306 	br	800e7c <__svfscanf_r+0x8c0>
  800e70:	99000017 	ldw	r4,0(r19)
  800e74:	e007883a 	mov	r3,fp
  800e78:	20800003 	ldbu	r2,0(r4)
  800e7c:	10803fcc 	andi	r2,r2,255
  800e80:	d9405884 	addi	r5,sp,354
  800e84:	2885883a 	add	r2,r5,r2
  800e88:	10800007 	ldb	r2,0(r2)
  800e8c:	10004b26 	beq	r2,zero,800fbc <__svfscanf_r+0xa00>
  800e90:	98800117 	ldw	r2,4(r19)
  800e94:	21400044 	addi	r5,r4,1
  800e98:	99400015 	stw	r5,0(r19)
  800e9c:	10bfffc4 	addi	r2,r2,-1
  800ea0:	98800115 	stw	r2,4(r19)
  800ea4:	20800003 	ldbu	r2,0(r4)
  800ea8:	1f000044 	addi	fp,r3,1
  800eac:	18800005 	stb	r2,0(r3)
  800eb0:	1d400726 	beq	r3,r21,800ed0 <__svfscanf_r+0x914>
  800eb4:	98800117 	ldw	r2,4(r19)
  800eb8:	00bfed16 	blt	zero,r2,800e70 <__alt_mem_onchip_ram+0xff7fce70>
  800ebc:	980b883a 	mov	r5,r19
  800ec0:	b809883a 	mov	r4,r23
  800ec4:	08040cc0 	call	8040cc <__srefill_r>
  800ec8:	103fe926 	beq	r2,zero,800e70 <__alt_mem_onchip_ram+0xff7fce70>
  800ecc:	87001526 	beq	r16,fp,800f24 <__svfscanf_r+0x968>
  800ed0:	e421c83a 	sub	r16,fp,r16
  800ed4:	803dfa26 	beq	r16,zero,8006c0 <__alt_mem_onchip_ram+0xff7fc6c0>
  800ed8:	d880a017 	ldw	r2,640(sp)
  800edc:	e0000005 	stb	zero,0(fp)
  800ee0:	dc409c15 	stw	r17,624(sp)
  800ee4:	10800044 	addi	r2,r2,1
  800ee8:	d880a015 	stw	r2,640(sp)
  800eec:	9425883a 	add	r18,r18,r16
  800ef0:	a00d883a 	mov	r6,r20
  800ef4:	003dee06 	br	8006b0 <__alt_mem_onchip_ram+0xff7fc6b0>
  800ef8:	013fff84 	movi	r4,-2
  800efc:	1103ed1e 	bne	r2,r4,801eb4 <__svfscanf_r+0x18f8>
  800f00:	8821883a 	mov	r16,r17
  800f04:	98800117 	ldw	r2,4(r19)
  800f08:	00834116 	blt	zero,r2,801c10 <__svfscanf_r+0x1654>
  800f0c:	980b883a 	mov	r5,r19
  800f10:	b809883a 	mov	r4,r23
  800f14:	08040cc0 	call	8040cc <__srefill_r>
  800f18:	10033d26 	beq	r2,zero,801c10 <__svfscanf_r+0x1654>
  800f1c:	dc409f17 	ldw	r17,636(sp)
  800f20:	80034426 	beq	r16,zero,801c34 <__svfscanf_r+0x1678>
  800f24:	d900a017 	ldw	r4,640(sp)
  800f28:	203e8026 	beq	r4,zero,80092c <__alt_mem_onchip_ram+0xff7fc92c>
  800f2c:	9880030b 	ldhu	r2,12(r19)
  800f30:	1080100c 	andi	r2,r2,64
  800f34:	103e7d1e 	bne	r2,zero,80092c <__alt_mem_onchip_ram+0xff7fc92c>
  800f38:	2005883a 	mov	r2,r4
  800f3c:	003e7c06 	br	800930 <__alt_mem_onchip_ram+0xff7fc930>
  800f40:	e03f951e 	bne	fp,zero,800d98 <__alt_mem_onchip_ram+0xff7fcd98>
  800f44:	003fb806 	br	800e28 <__alt_mem_onchip_ram+0xff7fce28>
  800f48:	d8809c17 	ldw	r2,624(sp)
  800f4c:	15000017 	ldw	r20,0(r2)
  800f50:	10800104 	addi	r2,r2,4
  800f54:	d8809c15 	stw	r2,624(sp)
  800f58:	003f8e06 	br	800d94 <__alt_mem_onchip_ram+0xff7fcd94>
  800f5c:	980b883a 	mov	r5,r19
  800f60:	b809883a 	mov	r4,r23
  800f64:	08040cc0 	call	8040cc <__srefill_r>
  800f68:	103f3626 	beq	r2,zero,800c44 <__alt_mem_onchip_ram+0xff7fcc44>
  800f6c:	003fed06 	br	800f24 <__alt_mem_onchip_ram+0xff7fcf24>
  800f70:	013fff84 	movi	r4,-2
  800f74:	1100071e 	bne	r2,r4,800f94 <__svfscanf_r+0x9d8>
  800f78:	98800117 	ldw	r2,4(r19)
  800f7c:	8023883a 	mov	r17,r16
  800f80:	00bf8516 	blt	zero,r2,800d98 <__alt_mem_onchip_ram+0xff7fcd98>
  800f84:	003fa306 	br	800e14 <__alt_mem_onchip_ram+0xff7fce14>
  800f88:	9425883a 	add	r18,r18,r16
  800f8c:	e73fffc4 	addi	fp,fp,-1
  800f90:	003f9d06 	br	800e08 <__alt_mem_onchip_ram+0xff7fce08>
  800f94:	d8c09f17 	ldw	r3,636(sp)
  800f98:	9425883a 	add	r18,r18,r16
  800f9c:	e73fffc4 	addi	fp,fp,-1
  800fa0:	183f9826 	beq	r3,zero,800e04 <__alt_mem_onchip_ram+0xff7fce04>
  800fa4:	003f9806 	br	800e08 <__alt_mem_onchip_ram+0xff7fce08>
  800fa8:	8023883a 	mov	r17,r16
  800fac:	8821883a 	mov	r16,r17
  800fb0:	003fce06 	br	800eec <__alt_mem_onchip_ram+0xff7fceec>
  800fb4:	803f3b1e 	bne	r16,zero,800ca4 <__alt_mem_onchip_ram+0xff7fcca4>
  800fb8:	003fda06 	br	800f24 <__alt_mem_onchip_ram+0xff7fcf24>
  800fbc:	1839883a 	mov	fp,r3
  800fc0:	003fc306 	br	800ed0 <__alt_mem_onchip_ram+0xff7fced0>
  800fc4:	803fc91e 	bne	r16,zero,800eec <__alt_mem_onchip_ram+0xff7fceec>
  800fc8:	003dbd06 	br	8006c0 <__alt_mem_onchip_ram+0xff7fc6c0>
  800fcc:	d8809c17 	ldw	r2,624(sp)
  800fd0:	dcc00015 	stw	r19,0(sp)
  800fd4:	b809883a 	mov	r4,r23
  800fd8:	11400017 	ldw	r5,0(r2)
  800fdc:	e00f883a 	mov	r7,fp
  800fe0:	01800044 	movi	r6,1
  800fe4:	080291c0 	call	80291c <_fread_r>
  800fe8:	d9009c17 	ldw	r4,624(sp)
  800fec:	20c00104 	addi	r3,r4,4
  800ff0:	103fcc26 	beq	r2,zero,800f24 <__alt_mem_onchip_ram+0xff7fcf24>
  800ff4:	d940a017 	ldw	r5,640(sp)
  800ff8:	dd009d17 	ldw	r20,628(sp)
  800ffc:	90a5883a 	add	r18,r18,r2
  801000:	29400044 	addi	r5,r5,1
  801004:	d940a015 	stw	r5,640(sp)
  801008:	d8c09c15 	stw	r3,624(sp)
  80100c:	a00d883a 	mov	r6,r20
  801010:	003da706 	br	8006b0 <__alt_mem_onchip_ram+0xff7fc6b0>
  801014:	980b883a 	mov	r5,r19
  801018:	b809883a 	mov	r4,r23
  80101c:	08040cc0 	call	8040cc <__srefill_r>
  801020:	103e3626 	beq	r2,zero,8008fc <__alt_mem_onchip_ram+0xff7fc8fc>
  801024:	003fbf06 	br	800f24 <__alt_mem_onchip_ram+0xff7fcf24>
  801028:	98800117 	ldw	r2,4(r19)
  80102c:	88e2b03a 	or	r17,r17,r3
  801030:	0080210e 	bge	zero,r2,8010b8 <__svfscanf_r+0xafc>
  801034:	01402034 	movhi	r5,128
  801038:	29579f04 	addi	r5,r5,24188
  80103c:	00800284 	movi	r2,10
  801040:	d940a115 	stw	r5,644(sp)
  801044:	d8809e15 	stw	r2,632(sp)
  801048:	050000c4 	movi	r20,3
  80104c:	003e6906 	br	8009f4 <__alt_mem_onchip_ram+0xff7fc9f4>
  801050:	a1400083 	ldbu	r5,2(r20)
  801054:	8c400094 	ori	r17,r17,2
  801058:	a5000084 	addi	r20,r20,2
  80105c:	2d403fcc 	andi	r21,r5,255
  801060:	003da106 	br	8006e8 <__alt_mem_onchip_ram+0xff7fc6e8>
  801064:	8880004c 	andi	r2,r17,1
  801068:	10000c1e 	bne	r2,zero,80109c <__svfscanf_r+0xae0>
  80106c:	8c40008c 	andi	r17,r17,2
  801070:	88000a26 	beq	r17,zero,80109c <__svfscanf_r+0xae0>
  801074:	d8c09c17 	ldw	r3,624(sp)
  801078:	d9009c17 	ldw	r4,624(sp)
  80107c:	dd009d17 	ldw	r20,628(sp)
  801080:	18800017 	ldw	r2,0(r3)
  801084:	9007d7fa 	srai	r3,r18,31
  801088:	21000104 	addi	r4,r4,4
  80108c:	14800015 	stw	r18,0(r2)
  801090:	10c00115 	stw	r3,4(r2)
  801094:	d9009c15 	stw	r4,624(sp)
  801098:	003d8406 	br	8006ac <__alt_mem_onchip_ram+0xff7fc6ac>
  80109c:	d9409c17 	ldw	r5,624(sp)
  8010a0:	dd009d17 	ldw	r20,628(sp)
  8010a4:	28800017 	ldw	r2,0(r5)
  8010a8:	29400104 	addi	r5,r5,4
  8010ac:	d9409c15 	stw	r5,624(sp)
  8010b0:	14800015 	stw	r18,0(r2)
  8010b4:	003d7d06 	br	8006ac <__alt_mem_onchip_ram+0xff7fc6ac>
  8010b8:	980b883a 	mov	r5,r19
  8010bc:	b809883a 	mov	r4,r23
  8010c0:	08040cc0 	call	8040cc <__srefill_r>
  8010c4:	103f971e 	bne	r2,zero,800f24 <__alt_mem_onchip_ram+0xff7fcf24>
  8010c8:	b4000017 	ldw	r16,0(r22)
  8010cc:	003ed206 	br	800c18 <__alt_mem_onchip_ram+0xff7fcc18>
  8010d0:	980b883a 	mov	r5,r19
  8010d4:	b809883a 	mov	r4,r23
  8010d8:	08040cc0 	call	8040cc <__srefill_r>
  8010dc:	103f911e 	bne	r2,zero,800f24 <__alt_mem_onchip_ram+0xff7fcf24>
  8010e0:	01002034 	movhi	r4,128
  8010e4:	2118fd04 	addi	r4,r4,25588
  8010e8:	01400404 	movi	r5,16
  8010ec:	b4000017 	ldw	r16,0(r22)
  8010f0:	d900a115 	stw	r4,644(sp)
  8010f4:	d9409e15 	stw	r5,632(sp)
  8010f8:	050000c4 	movi	r20,3
  8010fc:	003e3d06 	br	8009f4 <__alt_mem_onchip_ram+0xff7fc9f4>
  801100:	980b883a 	mov	r5,r19
  801104:	b809883a 	mov	r4,r23
  801108:	08040cc0 	call	8040cc <__srefill_r>
  80110c:	103f851e 	bne	r2,zero,800f24 <__alt_mem_onchip_ram+0xff7fcf24>
  801110:	b4000017 	ldw	r16,0(r22)
  801114:	05000084 	movi	r20,2
  801118:	003e3606 	br	8009f4 <__alt_mem_onchip_ram+0xff7fc9f4>
  80111c:	980b883a 	mov	r5,r19
  801120:	b809883a 	mov	r4,r23
  801124:	08040cc0 	call	8040cc <__srefill_r>
  801128:	103eea26 	beq	r2,zero,800cd4 <__alt_mem_onchip_ram+0xff7fccd4>
  80112c:	003f7d06 	br	800f24 <__alt_mem_onchip_ram+0xff7fcf24>
  801130:	980b883a 	mov	r5,r19
  801134:	b809883a 	mov	r4,r23
  801138:	08040cc0 	call	8040cc <__srefill_r>
  80113c:	103f791e 	bne	r2,zero,800f24 <__alt_mem_onchip_ram+0xff7fcf24>
  801140:	b4000017 	ldw	r16,0(r22)
  801144:	05000104 	movi	r20,4
  801148:	003e2a06 	br	8009f4 <__alt_mem_onchip_ram+0xff7fc9f4>
  80114c:	980b883a 	mov	r5,r19
  801150:	b809883a 	mov	r4,r23
  801154:	08040cc0 	call	8040cc <__srefill_r>
  801158:	103f721e 	bne	r2,zero,800f24 <__alt_mem_onchip_ram+0xff7fcf24>
  80115c:	b4000017 	ldw	r16,0(r22)
  801160:	003e8c06 	br	800b94 <__alt_mem_onchip_ram+0xff7fcb94>
  801164:	980b883a 	mov	r5,r19
  801168:	b809883a 	mov	r4,r23
  80116c:	08040cc0 	call	8040cc <__srefill_r>
  801170:	103f6c1e 	bne	r2,zero,800f24 <__alt_mem_onchip_ram+0xff7fcf24>
  801174:	00802034 	movhi	r2,128
  801178:	1098fd04 	addi	r2,r2,25588
  80117c:	00c00284 	movi	r3,10
  801180:	b4000017 	ldw	r16,0(r22)
  801184:	d880a115 	stw	r2,644(sp)
  801188:	d8c09e15 	stw	r3,632(sp)
  80118c:	050000c4 	movi	r20,3
  801190:	003e1806 	br	8009f4 <__alt_mem_onchip_ram+0xff7fc9f4>
  801194:	980b883a 	mov	r5,r19
  801198:	b809883a 	mov	r4,r23
  80119c:	08040cc0 	call	8040cc <__srefill_r>
  8011a0:	103f601e 	bne	r2,zero,800f24 <__alt_mem_onchip_ram+0xff7fcf24>
  8011a4:	00802034 	movhi	r2,128
  8011a8:	1098fd04 	addi	r2,r2,25588
  8011ac:	00c00204 	movi	r3,8
  8011b0:	b4000017 	ldw	r16,0(r22)
  8011b4:	d880a115 	stw	r2,644(sp)
  8011b8:	d8c09e15 	stw	r3,632(sp)
  8011bc:	050000c4 	movi	r20,3
  8011c0:	003e0c06 	br	8009f4 <__alt_mem_onchip_ram+0xff7fc9f4>
  8011c4:	980b883a 	mov	r5,r19
  8011c8:	b809883a 	mov	r4,r23
  8011cc:	08040cc0 	call	8040cc <__srefill_r>
  8011d0:	103f541e 	bne	r2,zero,800f24 <__alt_mem_onchip_ram+0xff7fcf24>
  8011d4:	00802034 	movhi	r2,128
  8011d8:	10979f04 	addi	r2,r2,24188
  8011dc:	b4000017 	ldw	r16,0(r22)
  8011e0:	d880a115 	stw	r2,644(sp)
  8011e4:	d8009e15 	stw	zero,632(sp)
  8011e8:	050000c4 	movi	r20,3
  8011ec:	003e0106 	br	8009f4 <__alt_mem_onchip_ram+0xff7fc9f4>
  8011f0:	980b883a 	mov	r5,r19
  8011f4:	b809883a 	mov	r4,r23
  8011f8:	08040cc0 	call	8040cc <__srefill_r>
  8011fc:	103f491e 	bne	r2,zero,800f24 <__alt_mem_onchip_ram+0xff7fcf24>
  801200:	00802034 	movhi	r2,128
  801204:	1098fd04 	addi	r2,r2,25588
  801208:	00c00404 	movi	r3,16
  80120c:	b4000017 	ldw	r16,0(r22)
  801210:	d880a115 	stw	r2,644(sp)
  801214:	d8c09e15 	stw	r3,632(sp)
  801218:	050000c4 	movi	r20,3
  80121c:	003df506 	br	8009f4 <__alt_mem_onchip_ram+0xff7fc9f4>
  801220:	014000c4 	movi	r5,3
  801224:	a1416726 	beq	r20,r5,8017c4 <__svfscanf_r+0x1208>
  801228:	01000104 	movi	r4,4
  80122c:	a101491e 	bne	r20,r4,801754 <__svfscanf_r+0x1198>
  801230:	b809883a 	mov	r4,r23
  801234:	08032240 	call	803224 <_localeconv_r>
  801238:	10800017 	ldw	r2,0(r2)
  80123c:	e0ffffc4 	addi	r3,fp,-1
  801240:	d880a315 	stw	r2,652(sp)
  801244:	00805704 	movi	r2,348
  801248:	10c21e2e 	bgeu	r2,r3,801ac4 <__svfscanf_r+0x1508>
  80124c:	e73fa8c4 	addi	fp,fp,-349
  801250:	df00a215 	stw	fp,648(sp)
  801254:	07005744 	movi	fp,349
  801258:	8d01e014 	ori	r20,r17,1920
  80125c:	0023883a 	mov	r17,zero
  801260:	dc000104 	addi	r16,sp,4
  801264:	002b883a 	mov	r21,zero
  801268:	8805883a 	mov	r2,r17
  80126c:	0007883a 	mov	r3,zero
  801270:	8023883a 	mov	r17,r16
  801274:	b80d883a 	mov	r6,r23
  801278:	e021883a 	mov	r16,fp
  80127c:	a82f883a 	mov	r23,r21
  801280:	d800a515 	stw	zero,660(sp)
  801284:	d800a415 	stw	zero,656(sp)
  801288:	d8009f15 	stw	zero,636(sp)
  80128c:	01c01384 	movi	r7,78
  801290:	182b883a 	mov	r21,r3
  801294:	1039883a 	mov	fp,r2
  801298:	99000017 	ldw	r4,0(r19)
  80129c:	21400003 	ldbu	r5,0(r4)
  8012a0:	28bff544 	addi	r2,r5,-43
  8012a4:	10803fcc 	andi	r2,r2,255
  8012a8:	38810e36 	bltu	r7,r2,8016e4 <__svfscanf_r+0x1128>
  8012ac:	100490ba 	slli	r2,r2,2
  8012b0:	00c02034 	movhi	r3,128
  8012b4:	18c4b104 	addi	r3,r3,4804
  8012b8:	10c5883a 	add	r2,r2,r3
  8012bc:	10800017 	ldw	r2,0(r2)
  8012c0:	1000683a 	jmp	r2
  8012c4:	008015b8 	rdprs	r2,zero,86
  8012c8:	008016e4 	muli	r2,zero,91
  8012cc:	008015b8 	rdprs	r2,zero,86
  8012d0:	008016e4 	muli	r2,zero,91
  8012d4:	008016e4 	muli	r2,zero,91
  8012d8:	0080158c 	andi	r2,zero,86
  8012dc:	00801400 	call	80140 <__reset-0x77fec0>
  8012e0:	00801400 	call	80140 <__reset-0x77fec0>
  8012e4:	00801400 	call	80140 <__reset-0x77fec0>
  8012e8:	00801400 	call	80140 <__reset-0x77fec0>
  8012ec:	00801400 	call	80140 <__reset-0x77fec0>
  8012f0:	00801400 	call	80140 <__reset-0x77fec0>
  8012f4:	00801400 	call	80140 <__reset-0x77fec0>
  8012f8:	00801400 	call	80140 <__reset-0x77fec0>
  8012fc:	00801400 	call	80140 <__reset-0x77fec0>
  801300:	008016e4 	muli	r2,zero,91
  801304:	008016e4 	muli	r2,zero,91
  801308:	008016e4 	muli	r2,zero,91
  80130c:	008016e4 	muli	r2,zero,91
  801310:	008016e4 	muli	r2,zero,91
  801314:	008016e4 	muli	r2,zero,91
  801318:	008016e4 	muli	r2,zero,91
  80131c:	008016d4 	movui	r2,91
  801320:	008016e4 	muli	r2,zero,91
  801324:	008016e4 	muli	r2,zero,91
  801328:	008016e4 	muli	r2,zero,91
  80132c:	00801690 	cmplti	r2,zero,90
  801330:	00801674 	movhi	r2,89
  801334:	008016e4 	muli	r2,zero,91
  801338:	008016e4 	muli	r2,zero,91
  80133c:	0080163c 	xorhi	r2,zero,88
  801340:	008016e4 	muli	r2,zero,91
  801344:	008016e4 	muli	r2,zero,91
  801348:	008016e4 	muli	r2,zero,91
  80134c:	008016e4 	muli	r2,zero,91
  801350:	00801604 	movi	r2,88
  801354:	008016e4 	muli	r2,zero,91
  801358:	008016e4 	muli	r2,zero,91
  80135c:	008016e4 	muli	r2,zero,91
  801360:	008016e4 	muli	r2,zero,91
  801364:	008016e4 	muli	r2,zero,91
  801368:	008015e8 	cmpgeui	r2,zero,87
  80136c:	008016e4 	muli	r2,zero,91
  801370:	008016e4 	muli	r2,zero,91
  801374:	008016e4 	muli	r2,zero,91
  801378:	008016e4 	muli	r2,zero,91
  80137c:	008015cc 	andi	r2,zero,87
  801380:	008016e4 	muli	r2,zero,91
  801384:	008016e4 	muli	r2,zero,91
  801388:	008016e4 	muli	r2,zero,91
  80138c:	008016e4 	muli	r2,zero,91
  801390:	008016e4 	muli	r2,zero,91
  801394:	008016e4 	muli	r2,zero,91
  801398:	008016e4 	muli	r2,zero,91
  80139c:	008016d4 	movui	r2,91
  8013a0:	008016e4 	muli	r2,zero,91
  8013a4:	008016e4 	muli	r2,zero,91
  8013a8:	008016e4 	muli	r2,zero,91
  8013ac:	00801690 	cmplti	r2,zero,90
  8013b0:	00801674 	movhi	r2,89
  8013b4:	008016e4 	muli	r2,zero,91
  8013b8:	008016e4 	muli	r2,zero,91
  8013bc:	0080163c 	xorhi	r2,zero,88
  8013c0:	008016e4 	muli	r2,zero,91
  8013c4:	008016e4 	muli	r2,zero,91
  8013c8:	008016e4 	muli	r2,zero,91
  8013cc:	008016e4 	muli	r2,zero,91
  8013d0:	00801604 	movi	r2,88
  8013d4:	008016e4 	muli	r2,zero,91
  8013d8:	008016e4 	muli	r2,zero,91
  8013dc:	008016e4 	muli	r2,zero,91
  8013e0:	008016e4 	muli	r2,zero,91
  8013e4:	008016e4 	muli	r2,zero,91
  8013e8:	008015e8 	cmpgeui	r2,zero,87
  8013ec:	008016e4 	muli	r2,zero,91
  8013f0:	008016e4 	muli	r2,zero,91
  8013f4:	008016e4 	muli	r2,zero,91
  8013f8:	008016e4 	muli	r2,zero,91
  8013fc:	008015cc 	andi	r2,zero,87
  801400:	a8803fcc 	andi	r2,r21,255
  801404:	1080201c 	xori	r2,r2,128
  801408:	10bfe004 	addi	r2,r2,-128
  80140c:	b885883a 	add	r2,r23,r2
  801410:	10000d1e 	bne	r2,zero,801448 <__svfscanf_r+0xe8c>
  801414:	00bf9fc4 	movi	r2,-385
  801418:	a0a8703a 	and	r20,r20,r2
  80141c:	89400005 	stb	r5,0(r17)
  801420:	8c400044 	addi	r17,r17,1
  801424:	98800117 	ldw	r2,4(r19)
  801428:	843fffc4 	addi	r16,r16,-1
  80142c:	94800044 	addi	r18,r18,1
  801430:	10bfffc4 	addi	r2,r2,-1
  801434:	98800115 	stw	r2,4(r19)
  801438:	0080b40e 	bge	zero,r2,80170c <__svfscanf_r+0x1150>
  80143c:	21000044 	addi	r4,r4,1
  801440:	99000015 	stw	r4,0(r19)
  801444:	803f941e 	bne	r16,zero,801298 <__alt_mem_onchip_ram+0xff7fd298>
  801448:	8821883a 	mov	r16,r17
  80144c:	a807883a 	mov	r3,r21
  801450:	e023883a 	mov	r17,fp
  801454:	b82b883a 	mov	r21,r23
  801458:	302f883a 	mov	r23,r6
  80145c:	e001961e 	bne	fp,zero,801ab8 <__svfscanf_r+0x14fc>
  801460:	ab3fffc4 	addi	r12,r21,-1
  801464:	00800044 	movi	r2,1
  801468:	1302a22e 	bgeu	r2,r12,801ef4 <__svfscanf_r+0x1938>
  80146c:	18803fcc 	andi	r2,r3,255
  801470:	1080201c 	xori	r2,r2,128
  801474:	10bfe004 	addi	r2,r2,-128
  801478:	113fffc4 	addi	r4,r2,-1
  80147c:	01400184 	movi	r5,6
  801480:	29001136 	bltu	r5,r4,8014c8 <__svfscanf_r+0xf0c>
  801484:	01000084 	movi	r4,2
  801488:	2082770e 	bge	r4,r2,801e68 <__svfscanf_r+0x18ac>
  80148c:	054000c4 	movi	r21,3
  801490:	1839883a 	mov	fp,r3
  801494:	15400c26 	beq	r2,r21,8014c8 <__svfscanf_r+0xf0c>
  801498:	9425c83a 	sub	r18,r18,r16
  80149c:	843fffc4 	addi	r16,r16,-1
  8014a0:	81400007 	ldb	r5,0(r16)
  8014a4:	980d883a 	mov	r6,r19
  8014a8:	b809883a 	mov	r4,r23
  8014ac:	0808d380 	call	808d38 <_ungetc_r>
  8014b0:	e0bfffc4 	addi	r2,fp,-1
  8014b4:	10c03fcc 	andi	r3,r2,255
  8014b8:	8493883a 	add	r9,r16,r18
  8014bc:	1039883a 	mov	fp,r2
  8014c0:	a8fff636 	bltu	r21,r3,80149c <__alt_mem_onchip_ram+0xff7fd49c>
  8014c4:	4825883a 	mov	r18,r9
  8014c8:	a080400c 	andi	r2,r20,256
  8014cc:	10001426 	beq	r2,zero,801520 <__svfscanf_r+0xf64>
  8014d0:	a081000c 	andi	r2,r20,1024
  8014d4:	10027b1e 	bne	r2,zero,801ec4 <__svfscanf_r+0x1908>
  8014d8:	817fffc7 	ldb	r5,-1(r16)
  8014dc:	00801944 	movi	r2,101
  8014e0:	873fffc4 	addi	fp,r16,-1
  8014e4:	957fffc4 	addi	r21,r18,-1
  8014e8:	28800826 	beq	r5,r2,80150c <__svfscanf_r+0xf50>
  8014ec:	00801144 	movi	r2,69
  8014f0:	28800626 	beq	r5,r2,80150c <__svfscanf_r+0xf50>
  8014f4:	980d883a 	mov	r6,r19
  8014f8:	b809883a 	mov	r4,r23
  8014fc:	0808d380 	call	808d38 <_ungetc_r>
  801500:	817fff87 	ldb	r5,-2(r16)
  801504:	873fff84 	addi	fp,r16,-2
  801508:	957fff84 	addi	r21,r18,-2
  80150c:	980d883a 	mov	r6,r19
  801510:	b809883a 	mov	r4,r23
  801514:	0808d380 	call	808d38 <_ungetc_r>
  801518:	a825883a 	mov	r18,r21
  80151c:	e021883a 	mov	r16,fp
  801520:	a080040c 	andi	r2,r20,16
  801524:	103e451e 	bne	r2,zero,800e3c <__alt_mem_onchip_ram+0xff7fce3c>
  801528:	80000005 	stb	zero,0(r16)
  80152c:	a081800c 	andi	r2,r20,1536
  801530:	01010004 	movi	r4,1024
  801534:	1101ea26 	beq	r2,r4,801ce0 <__svfscanf_r+0x1724>
  801538:	d8c0a417 	ldw	r3,656(sp)
  80153c:	1801f41e 	bne	r3,zero,801d10 <__svfscanf_r+0x1754>
  801540:	000d883a 	mov	r6,zero
  801544:	d9400104 	addi	r5,sp,4
  801548:	b809883a 	mov	r4,r23
  80154c:	08047800 	call	804780 <_strtod_r>
  801550:	1021883a 	mov	r16,r2
  801554:	a080004c 	andi	r2,r20,1
  801558:	1001b926 	beq	r2,zero,801c40 <__svfscanf_r+0x1684>
  80155c:	d9009c17 	ldw	r4,624(sp)
  801560:	20800017 	ldw	r2,0(r4)
  801564:	21000104 	addi	r4,r4,4
  801568:	d9009c15 	stw	r4,624(sp)
  80156c:	14000015 	stw	r16,0(r2)
  801570:	10c00115 	stw	r3,4(r2)
  801574:	d8c0a017 	ldw	r3,640(sp)
  801578:	dd009d17 	ldw	r20,628(sp)
  80157c:	18c00044 	addi	r3,r3,1
  801580:	d8c0a015 	stw	r3,640(sp)
  801584:	a00d883a 	mov	r6,r20
  801588:	003c4906 	br	8006b0 <__alt_mem_onchip_ram+0xff7fc6b0>
  80158c:	a080400c 	andi	r2,r20,256
  801590:	103f9b26 	beq	r2,zero,801400 <__alt_mem_onchip_ram+0xff7fd400>
  801594:	d8c0a217 	ldw	r3,648(sp)
  801598:	00bfdfc4 	movi	r2,-129
  80159c:	a0a8703a 	and	r20,r20,r2
  8015a0:	e7000044 	addi	fp,fp,1
  8015a4:	183f9f26 	beq	r3,zero,801424 <__alt_mem_onchip_ram+0xff7fd424>
  8015a8:	18ffffc4 	addi	r3,r3,-1
  8015ac:	d8c0a215 	stw	r3,648(sp)
  8015b0:	84000044 	addi	r16,r16,1
  8015b4:	003f9b06 	br	801424 <__alt_mem_onchip_ram+0xff7fd424>
  8015b8:	a080200c 	andi	r2,r20,128
  8015bc:	103fa226 	beq	r2,zero,801448 <__alt_mem_onchip_ram+0xff7fd448>
  8015c0:	00bfdfc4 	movi	r2,-129
  8015c4:	a0a8703a 	and	r20,r20,r2
  8015c8:	003f9406 	br	80141c <__alt_mem_onchip_ram+0xff7fd41c>
  8015cc:	a8803fcc 	andi	r2,r21,255
  8015d0:	1080201c 	xori	r2,r2,128
  8015d4:	10bfe004 	addi	r2,r2,-128
  8015d8:	00c001c4 	movi	r3,7
  8015dc:	10ff9a1e 	bne	r2,r3,801448 <__alt_mem_onchip_ram+0xff7fd448>
  8015e0:	05400204 	movi	r21,8
  8015e4:	003f8d06 	br	80141c <__alt_mem_onchip_ram+0xff7fd41c>
  8015e8:	a8803fcc 	andi	r2,r21,255
  8015ec:	1080201c 	xori	r2,r2,128
  8015f0:	10bfe004 	addi	r2,r2,-128
  8015f4:	02000184 	movi	r8,6
  8015f8:	123f931e 	bne	r2,r8,801448 <__alt_mem_onchip_ram+0xff7fd448>
  8015fc:	054001c4 	movi	r21,7
  801600:	003f8606 	br	80141c <__alt_mem_onchip_ram+0xff7fd41c>
  801604:	b8004f1e 	bne	r23,zero,801744 <__svfscanf_r+0x1188>
  801608:	e000031e 	bne	fp,zero,801618 <__svfscanf_r+0x105c>
  80160c:	a081c00c 	andi	r2,r20,1792
  801610:	0201c004 	movi	r8,1792
  801614:	1201a226 	beq	r2,r8,801ca0 <__svfscanf_r+0x16e4>
  801618:	a8803fcc 	andi	r2,r21,255
  80161c:	1080201c 	xori	r2,r2,128
  801620:	10bfe004 	addi	r2,r2,-128
  801624:	02000044 	movi	r8,1
  801628:	12000226 	beq	r2,r8,801634 <__svfscanf_r+0x1078>
  80162c:	02000104 	movi	r8,4
  801630:	123f851e 	bne	r2,r8,801448 <__alt_mem_onchip_ram+0xff7fd448>
  801634:	ad400044 	addi	r21,r21,1
  801638:	003f7806 	br	80141c <__alt_mem_onchip_ram+0xff7fd41c>
  80163c:	a8803fcc 	andi	r2,r21,255
  801640:	1080201c 	xori	r2,r2,128
  801644:	10bfe004 	addi	r2,r2,-128
  801648:	1000391e 	bne	r2,zero,801730 <__svfscanf_r+0x1174>
  80164c:	e001151e 	bne	fp,zero,801aa4 <__svfscanf_r+0x14e8>
  801650:	a081c00c 	andi	r2,r20,1792
  801654:	0201c004 	movi	r8,1792
  801658:	12019b26 	beq	r2,r8,801cc8 <__svfscanf_r+0x170c>
  80165c:	8821883a 	mov	r16,r17
  801660:	a807883a 	mov	r3,r21
  801664:	e023883a 	mov	r17,fp
  801668:	b82b883a 	mov	r21,r23
  80166c:	302f883a 	mov	r23,r6
  801670:	003f7b06 	br	801460 <__alt_mem_onchip_ram+0xff7fd460>
  801674:	a8803fcc 	andi	r2,r21,255
  801678:	1080201c 	xori	r2,r2,128
  80167c:	10bfe004 	addi	r2,r2,-128
  801680:	02000084 	movi	r8,2
  801684:	123f701e 	bne	r2,r8,801448 <__alt_mem_onchip_ram+0xff7fd448>
  801688:	054000c4 	movi	r21,3
  80168c:	003f6306 	br	80141c <__alt_mem_onchip_ram+0xff7fd41c>
  801690:	a081400c 	andi	r2,r20,1280
  801694:	00c10004 	movi	r3,1024
  801698:	10c00326 	beq	r2,r3,8016a8 <__svfscanf_r+0x10ec>
  80169c:	a0c4703a 	and	r2,r20,r3
  8016a0:	103f6926 	beq	r2,zero,801448 <__alt_mem_onchip_ram+0xff7fd448>
  8016a4:	e03fed26 	beq	fp,zero,80165c <__alt_mem_onchip_ram+0xff7fd65c>
  8016a8:	a080800c 	andi	r2,r20,512
  8016ac:	1000041e 	bne	r2,zero,8016c0 <__svfscanf_r+0x1104>
  8016b0:	d8c09f17 	ldw	r3,636(sp)
  8016b4:	dc40a515 	stw	r17,660(sp)
  8016b8:	e0f9c83a 	sub	fp,fp,r3
  8016bc:	df00a415 	stw	fp,656(sp)
  8016c0:	00be1fc4 	movi	r2,-1921
  8016c4:	a0a8703a 	and	r20,r20,r2
  8016c8:	a5006014 	ori	r20,r20,384
  8016cc:	0039883a 	mov	fp,zero
  8016d0:	003f5206 	br	80141c <__alt_mem_onchip_ram+0xff7fd41c>
  8016d4:	00800044 	movi	r2,1
  8016d8:	b8bf5b1e 	bne	r23,r2,801448 <__alt_mem_onchip_ram+0xff7fd448>
  8016dc:	05c00084 	movi	r23,2
  8016e0:	003f4e06 	br	80141c <__alt_mem_onchip_ram+0xff7fd41c>
  8016e4:	d8c0a317 	ldw	r3,652(sp)
  8016e8:	2a003fcc 	andi	r8,r5,255
  8016ec:	18800003 	ldbu	r2,0(r3)
  8016f0:	40bf551e 	bne	r8,r2,801448 <__alt_mem_onchip_ram+0xff7fd448>
  8016f4:	a080800c 	andi	r2,r20,512
  8016f8:	103f5326 	beq	r2,zero,801448 <__alt_mem_onchip_ram+0xff7fd448>
  8016fc:	00bf5fc4 	movi	r2,-641
  801700:	a0a8703a 	and	r20,r20,r2
  801704:	df009f15 	stw	fp,636(sp)
  801708:	003f4406 	br	80141c <__alt_mem_onchip_ram+0xff7fd41c>
  80170c:	3009883a 	mov	r4,r6
  801710:	980b883a 	mov	r5,r19
  801714:	d980a915 	stw	r6,676(sp)
  801718:	d9c0aa15 	stw	r7,680(sp)
  80171c:	08040cc0 	call	8040cc <__srefill_r>
  801720:	d980a917 	ldw	r6,676(sp)
  801724:	d9c0aa17 	ldw	r7,680(sp)
  801728:	103f4626 	beq	r2,zero,801444 <__alt_mem_onchip_ram+0xff7fd444>
  80172c:	003f4606 	br	801448 <__alt_mem_onchip_ram+0xff7fd448>
  801730:	020000c4 	movi	r8,3
  801734:	123fbf26 	beq	r2,r8,801634 <__alt_mem_onchip_ram+0xff7fd634>
  801738:	02000144 	movi	r8,5
  80173c:	123fbd26 	beq	r2,r8,801634 <__alt_mem_onchip_ram+0xff7fd634>
  801740:	003f4106 	br	801448 <__alt_mem_onchip_ram+0xff7fd448>
  801744:	00800084 	movi	r2,2
  801748:	b8bfb31e 	bne	r23,r2,801618 <__alt_mem_onchip_ram+0xff7fd618>
  80174c:	05c000c4 	movi	r23,3
  801750:	003f3206 	br	80141c <__alt_mem_onchip_ram+0xff7fd41c>
  801754:	e000011e 	bne	fp,zero,80175c <__svfscanf_r+0x11a0>
  801758:	073fffc4 	movi	fp,-1
  80175c:	8900004c 	andi	r4,r17,1
  801760:	20011d1e 	bne	r4,zero,801bd8 <__svfscanf_r+0x161c>
  801764:	8c40040c 	andi	r17,r17,16
  801768:	8800da26 	beq	r17,zero,801ad4 <__svfscanf_r+0x1518>
  80176c:	0023883a 	mov	r17,zero
  801770:	00000306 	br	801780 <__svfscanf_r+0x11c4>
  801774:	18800003 	ldbu	r2,0(r3)
  801778:	8085883a 	add	r2,r16,r2
  80177c:	10800043 	ldbu	r2,1(r2)
  801780:	1080020c 	andi	r2,r2,8
  801784:	1000fc1e 	bne	r2,zero,801b78 <__svfscanf_r+0x15bc>
  801788:	98800117 	ldw	r2,4(r19)
  80178c:	18c00044 	addi	r3,r3,1
  801790:	8c400044 	addi	r17,r17,1
  801794:	10bfffc4 	addi	r2,r2,-1
  801798:	98800115 	stw	r2,4(r19)
  80179c:	98c00015 	stw	r3,0(r19)
  8017a0:	8f00f526 	beq	r17,fp,801b78 <__svfscanf_r+0x15bc>
  8017a4:	00bff316 	blt	zero,r2,801774 <__alt_mem_onchip_ram+0xff7fd774>
  8017a8:	980b883a 	mov	r5,r19
  8017ac:	b809883a 	mov	r4,r23
  8017b0:	08040cc0 	call	8040cc <__srefill_r>
  8017b4:	1000f01e 	bne	r2,zero,801b78 <__svfscanf_r+0x15bc>
  8017b8:	b4000017 	ldw	r16,0(r22)
  8017bc:	98c00017 	ldw	r3,0(r19)
  8017c0:	003fec06 	br	801774 <__alt_mem_onchip_ram+0xff7fd774>
  8017c4:	e0bfffc4 	addi	r2,fp,-1
  8017c8:	01405704 	movi	r5,348
  8017cc:	2880bf2e 	bgeu	r5,r2,801acc <__svfscanf_r+0x1510>
  8017d0:	e1ffa8c4 	addi	r7,fp,-349
  8017d4:	07005744 	movi	fp,349
  8017d8:	8c436014 	ori	r17,r17,3456
  8017dc:	9013883a 	mov	r9,r18
  8017e0:	8825883a 	mov	r18,r17
  8017e4:	dc409e17 	ldw	r17,632(sp)
  8017e8:	0029883a 	mov	r20,zero
  8017ec:	dc000104 	addi	r16,sp,4
  8017f0:	05401344 	movi	r21,77
  8017f4:	02c08004 	movi	r11,512
  8017f8:	01bf7fc4 	movi	r6,-513
  8017fc:	023fdfc4 	movi	r8,-129
  801800:	20bff544 	addi	r2,r4,-43
  801804:	10803fcc 	andi	r2,r2,255
  801808:	a8807236 	bltu	r21,r2,8019d4 <__svfscanf_r+0x1418>
  80180c:	100490ba 	slli	r2,r2,2
  801810:	01402034 	movhi	r5,128
  801814:	29460904 	addi	r5,r5,6180
  801818:	1145883a 	add	r2,r2,r5
  80181c:	10800017 	ldw	r2,0(r2)
  801820:	1000683a 	jmp	r2
  801824:	00801a58 	cmpnei	r2,zero,105
  801828:	008019d4 	movui	r2,103
  80182c:	00801a58 	cmpnei	r2,zero,105
  801830:	008019d4 	movui	r2,103
  801834:	008019d4 	movui	r2,103
  801838:	00801a30 	cmpltui	r2,zero,104
  80183c:	00801a10 	cmplti	r2,zero,104
  801840:	00801a10 	cmplti	r2,zero,104
  801844:	00801a10 	cmplti	r2,zero,104
  801848:	00801a10 	cmplti	r2,zero,104
  80184c:	00801a10 	cmplti	r2,zero,104
  801850:	00801a10 	cmplti	r2,zero,104
  801854:	00801a10 	cmplti	r2,zero,104
  801858:	008019b8 	rdprs	r2,zero,102
  80185c:	008019b8 	rdprs	r2,zero,102
  801860:	008019d4 	movui	r2,103
  801864:	008019d4 	movui	r2,103
  801868:	008019d4 	movui	r2,103
  80186c:	008019d4 	movui	r2,103
  801870:	008019d4 	movui	r2,103
  801874:	008019d4 	movui	r2,103
  801878:	008019d4 	movui	r2,103
  80187c:	008019a4 	muli	r2,zero,102
  801880:	008019a4 	muli	r2,zero,102
  801884:	008019a4 	muli	r2,zero,102
  801888:	008019a4 	muli	r2,zero,102
  80188c:	008019a4 	muli	r2,zero,102
  801890:	008019a4 	muli	r2,zero,102
  801894:	008019d4 	movui	r2,103
  801898:	008019d4 	movui	r2,103
  80189c:	008019d4 	movui	r2,103
  8018a0:	008019d4 	movui	r2,103
  8018a4:	008019d4 	movui	r2,103
  8018a8:	008019d4 	movui	r2,103
  8018ac:	008019d4 	movui	r2,103
  8018b0:	008019d4 	movui	r2,103
  8018b4:	008019d4 	movui	r2,103
  8018b8:	008019d4 	movui	r2,103
  8018bc:	008019d4 	movui	r2,103
  8018c0:	008019d4 	movui	r2,103
  8018c4:	008019d4 	movui	r2,103
  8018c8:	008019d4 	movui	r2,103
  8018cc:	008019d4 	movui	r2,103
  8018d0:	008019d4 	movui	r2,103
  8018d4:	008019d4 	movui	r2,103
  8018d8:	0080195c 	xori	r2,zero,101
  8018dc:	008019d4 	movui	r2,103
  8018e0:	008019d4 	movui	r2,103
  8018e4:	008019d4 	movui	r2,103
  8018e8:	008019d4 	movui	r2,103
  8018ec:	008019d4 	movui	r2,103
  8018f0:	008019d4 	movui	r2,103
  8018f4:	008019d4 	movui	r2,103
  8018f8:	008019d4 	movui	r2,103
  8018fc:	008019a4 	muli	r2,zero,102
  801900:	008019a4 	muli	r2,zero,102
  801904:	008019a4 	muli	r2,zero,102
  801908:	008019a4 	muli	r2,zero,102
  80190c:	008019a4 	muli	r2,zero,102
  801910:	008019a4 	muli	r2,zero,102
  801914:	008019d4 	movui	r2,103
  801918:	008019d4 	movui	r2,103
  80191c:	008019d4 	movui	r2,103
  801920:	008019d4 	movui	r2,103
  801924:	008019d4 	movui	r2,103
  801928:	008019d4 	movui	r2,103
  80192c:	008019d4 	movui	r2,103
  801930:	008019d4 	movui	r2,103
  801934:	008019d4 	movui	r2,103
  801938:	008019d4 	movui	r2,103
  80193c:	008019d4 	movui	r2,103
  801940:	008019d4 	movui	r2,103
  801944:	008019d4 	movui	r2,103
  801948:	008019d4 	movui	r2,103
  80194c:	008019d4 	movui	r2,103
  801950:	008019d4 	movui	r2,103
  801954:	008019d4 	movui	r2,103
  801958:	0080195c 	xori	r2,zero,101
  80195c:	9081800c 	andi	r2,r18,1536
  801960:	12c01c1e 	bne	r2,r11,8019d4 <__svfscanf_r+0x1418>
  801964:	91a4703a 	and	r18,r18,r6
  801968:	94814014 	ori	r18,r18,1280
  80196c:	04400404 	movi	r17,16
  801970:	81000005 	stb	r4,0(r16)
  801974:	84000044 	addi	r16,r16,1
  801978:	98800117 	ldw	r2,4(r19)
  80197c:	10bfffc4 	addi	r2,r2,-1
  801980:	98800115 	stw	r2,4(r19)
  801984:	0080380e 	bge	zero,r2,801a68 <__svfscanf_r+0x14ac>
  801988:	18c00044 	addi	r3,r3,1
  80198c:	98c00015 	stw	r3,0(r19)
  801990:	e73fffc4 	addi	fp,fp,-1
  801994:	e0000f26 	beq	fp,zero,8019d4 <__svfscanf_r+0x1418>
  801998:	98c00017 	ldw	r3,0(r19)
  80199c:	19000003 	ldbu	r4,0(r3)
  8019a0:	003f9706 	br	801800 <__alt_mem_onchip_ram+0xff7fd800>
  8019a4:	00800284 	movi	r2,10
  8019a8:	14400a0e 	bge	r2,r17,8019d4 <__svfscanf_r+0x1418>
  8019ac:	00bd1fc4 	movi	r2,-2945
  8019b0:	90a4703a 	and	r18,r18,r2
  8019b4:	003fee06 	br	801970 <__alt_mem_onchip_ram+0xff7fd970>
  8019b8:	01402074 	movhi	r5,129
  8019bc:	8c63883a 	add	r17,r17,r17
  8019c0:	29526984 	addi	r5,r5,18854
  8019c4:	2c45883a 	add	r2,r5,r17
  8019c8:	1440000f 	ldh	r17,0(r2)
  8019cc:	00800204 	movi	r2,8
  8019d0:	147ff616 	blt	r2,r17,8019ac <__alt_mem_onchip_ram+0xff7fd9ac>
  8019d4:	dc409e15 	stw	r17,632(sp)
  8019d8:	9023883a 	mov	r17,r18
  8019dc:	8880400c 	andi	r2,r17,256
  8019e0:	4825883a 	mov	r18,r9
  8019e4:	10000426 	beq	r2,zero,8019f8 <__svfscanf_r+0x143c>
  8019e8:	d8800104 	addi	r2,sp,4
  8019ec:	1400b036 	bltu	r2,r16,801cb0 <__svfscanf_r+0x16f4>
  8019f0:	d8c00104 	addi	r3,sp,4
  8019f4:	1c3b3226 	beq	r3,r16,8006c0 <__alt_mem_onchip_ram+0xff7fc6c0>
  8019f8:	8880040c 	andi	r2,r17,16
  8019fc:	10006226 	beq	r2,zero,801b88 <__svfscanf_r+0x15cc>
  801a00:	d8800104 	addi	r2,sp,4
  801a04:	80a1c83a 	sub	r16,r16,r2
  801a08:	8521883a 	add	r16,r16,r20
  801a0c:	003ca506 	br	800ca4 <__alt_mem_onchip_ram+0xff7fcca4>
  801a10:	01402074 	movhi	r5,129
  801a14:	8c63883a 	add	r17,r17,r17
  801a18:	29526984 	addi	r5,r5,18854
  801a1c:	2c45883a 	add	r2,r5,r17
  801a20:	1440000f 	ldh	r17,0(r2)
  801a24:	00bd1fc4 	movi	r2,-2945
  801a28:	90a4703a 	and	r18,r18,r2
  801a2c:	003fd006 	br	801970 <__alt_mem_onchip_ram+0xff7fd970>
  801a30:	9082000c 	andi	r2,r18,2048
  801a34:	103fce26 	beq	r2,zero,801970 <__alt_mem_onchip_ram+0xff7fd970>
  801a38:	8800021e 	bne	r17,zero,801a44 <__svfscanf_r+0x1488>
  801a3c:	94808014 	ori	r18,r18,512
  801a40:	04400204 	movi	r17,8
  801a44:	9081000c 	andi	r2,r18,1024
  801a48:	10008626 	beq	r2,zero,801c64 <__svfscanf_r+0x16a8>
  801a4c:	00be9fc4 	movi	r2,-1409
  801a50:	90a4703a 	and	r18,r18,r2
  801a54:	003fc606 	br	801970 <__alt_mem_onchip_ram+0xff7fd970>
  801a58:	9080200c 	andi	r2,r18,128
  801a5c:	103fdd26 	beq	r2,zero,8019d4 <__alt_mem_onchip_ram+0xff7fd9d4>
  801a60:	9224703a 	and	r18,r18,r8
  801a64:	003fc206 	br	801970 <__alt_mem_onchip_ram+0xff7fd970>
  801a68:	980b883a 	mov	r5,r19
  801a6c:	b809883a 	mov	r4,r23
  801a70:	d980a915 	stw	r6,676(sp)
  801a74:	d9c0aa15 	stw	r7,680(sp)
  801a78:	da00a715 	stw	r8,668(sp)
  801a7c:	da40a815 	stw	r9,672(sp)
  801a80:	dac0a615 	stw	r11,664(sp)
  801a84:	08040cc0 	call	8040cc <__srefill_r>
  801a88:	d980a917 	ldw	r6,676(sp)
  801a8c:	d9c0aa17 	ldw	r7,680(sp)
  801a90:	da00a717 	ldw	r8,668(sp)
  801a94:	da40a817 	ldw	r9,672(sp)
  801a98:	dac0a617 	ldw	r11,664(sp)
  801a9c:	103fbc26 	beq	r2,zero,801990 <__alt_mem_onchip_ram+0xff7fd990>
  801aa0:	003fcc06 	br	8019d4 <__alt_mem_onchip_ram+0xff7fd9d4>
  801aa4:	8821883a 	mov	r16,r17
  801aa8:	a807883a 	mov	r3,r21
  801aac:	e023883a 	mov	r17,fp
  801ab0:	b82b883a 	mov	r21,r23
  801ab4:	302f883a 	mov	r23,r6
  801ab8:	00bfbfc4 	movi	r2,-257
  801abc:	a0a8703a 	and	r20,r20,r2
  801ac0:	003e6706 	br	801460 <__alt_mem_onchip_ram+0xff7fd460>
  801ac4:	d800a215 	stw	zero,648(sp)
  801ac8:	003de306 	br	801258 <__alt_mem_onchip_ram+0xff7fd258>
  801acc:	000f883a 	mov	r7,zero
  801ad0:	003f4106 	br	8017d8 <__alt_mem_onchip_ram+0xff7fd7d8>
  801ad4:	d9409c17 	ldw	r5,624(sp)
  801ad8:	e2bfffc4 	addi	r10,fp,-1
  801adc:	2c400017 	ldw	r17,0(r5)
  801ae0:	2c000104 	addi	r16,r5,4
  801ae4:	8aa9883a 	add	r20,r17,r10
  801ae8:	880b883a 	mov	r5,r17
  801aec:	00000606 	br	801b08 <__svfscanf_r+0x154c>
  801af0:	98c00017 	ldw	r3,0(r19)
  801af4:	b1000017 	ldw	r4,0(r22)
  801af8:	a80b883a 	mov	r5,r21
  801afc:	18800003 	ldbu	r2,0(r3)
  801b00:	2085883a 	add	r2,r4,r2
  801b04:	10800043 	ldbu	r2,1(r2)
  801b08:	1080020c 	andi	r2,r2,8
  801b0c:	1000621e 	bne	r2,zero,801c98 <__svfscanf_r+0x16dc>
  801b10:	98800117 	ldw	r2,4(r19)
  801b14:	19000044 	addi	r4,r3,1
  801b18:	99000015 	stw	r4,0(r19)
  801b1c:	10bfffc4 	addi	r2,r2,-1
  801b20:	98800115 	stw	r2,4(r19)
  801b24:	18800003 	ldbu	r2,0(r3)
  801b28:	2d400044 	addi	r21,r5,1
  801b2c:	a839883a 	mov	fp,r21
  801b30:	28800005 	stb	r2,0(r5)
  801b34:	2d000626 	beq	r5,r20,801b50 <__svfscanf_r+0x1594>
  801b38:	98800117 	ldw	r2,4(r19)
  801b3c:	00bfec16 	blt	zero,r2,801af0 <__alt_mem_onchip_ram+0xff7fdaf0>
  801b40:	980b883a 	mov	r5,r19
  801b44:	b809883a 	mov	r4,r23
  801b48:	08040cc0 	call	8040cc <__srefill_r>
  801b4c:	103fe826 	beq	r2,zero,801af0 <__alt_mem_onchip_ram+0xff7fdaf0>
  801b50:	d880a017 	ldw	r2,640(sp)
  801b54:	dd009d17 	ldw	r20,628(sp)
  801b58:	e463c83a 	sub	r17,fp,r17
  801b5c:	10800044 	addi	r2,r2,1
  801b60:	e0000005 	stb	zero,0(fp)
  801b64:	9465883a 	add	r18,r18,r17
  801b68:	d880a015 	stw	r2,640(sp)
  801b6c:	dc009c15 	stw	r16,624(sp)
  801b70:	a00d883a 	mov	r6,r20
  801b74:	003ace06 	br	8006b0 <__alt_mem_onchip_ram+0xff7fc6b0>
  801b78:	dd009d17 	ldw	r20,628(sp)
  801b7c:	9465883a 	add	r18,r18,r17
  801b80:	a00d883a 	mov	r6,r20
  801b84:	003aca06 	br	8006b0 <__alt_mem_onchip_ram+0xff7fc6b0>
  801b88:	d8c0a117 	ldw	r3,644(sp)
  801b8c:	d9c09e17 	ldw	r7,632(sp)
  801b90:	000d883a 	mov	r6,zero
  801b94:	d9400104 	addi	r5,sp,4
  801b98:	b809883a 	mov	r4,r23
  801b9c:	80000005 	stb	zero,0(r16)
  801ba0:	183ee83a 	callr	r3
  801ba4:	88c0080c 	andi	r3,r17,32
  801ba8:	1800351e 	bne	r3,zero,801c80 <__svfscanf_r+0x16c4>
  801bac:	88c0010c 	andi	r3,r17,4
  801bb0:	18007026 	beq	r3,zero,801d74 <__svfscanf_r+0x17b8>
  801bb4:	d9409c17 	ldw	r5,624(sp)
  801bb8:	28c00017 	ldw	r3,0(r5)
  801bbc:	29400104 	addi	r5,r5,4
  801bc0:	d9409c15 	stw	r5,624(sp)
  801bc4:	1880000d 	sth	r2,0(r3)
  801bc8:	d940a017 	ldw	r5,640(sp)
  801bcc:	29400044 	addi	r5,r5,1
  801bd0:	d940a015 	stw	r5,640(sp)
  801bd4:	003f8a06 	br	801a00 <__alt_mem_onchip_ram+0xff7fda00>
  801bd8:	dd409904 	addi	r21,sp,612
  801bdc:	8c40040c 	andi	r17,r17,16
  801be0:	01800204 	movi	r6,8
  801be4:	000b883a 	mov	r5,zero
  801be8:	a809883a 	mov	r4,r21
  801bec:	0803f880 	call	803f88 <memset>
  801bf0:	8800391e 	bne	r17,zero,801cd8 <__svfscanf_r+0x171c>
  801bf4:	d8c09c17 	ldw	r3,624(sp)
  801bf8:	1d000017 	ldw	r20,0(r3)
  801bfc:	18c00104 	addi	r3,r3,4
  801c00:	d8c09c15 	stw	r3,624(sp)
  801c04:	000d883a 	mov	r6,zero
  801c08:	3021883a 	mov	r16,r6
  801c0c:	dc409f15 	stw	r17,636(sp)
  801c10:	98800017 	ldw	r2,0(r19)
  801c14:	b0c00017 	ldw	r3,0(r22)
  801c18:	10800003 	ldbu	r2,0(r2)
  801c1c:	1885883a 	add	r2,r3,r2
  801c20:	10800043 	ldbu	r2,1(r2)
  801c24:	1080020c 	andi	r2,r2,8
  801c28:	1000011e 	bne	r2,zero,801c30 <__svfscanf_r+0x1674>
  801c2c:	e000651e 	bne	fp,zero,801dc4 <__svfscanf_r+0x1808>
  801c30:	dc409f17 	ldw	r17,636(sp)
  801c34:	883c811e 	bne	r17,zero,800e3c <__alt_mem_onchip_ram+0xff7fce3c>
  801c38:	a0000015 	stw	zero,0(r20)
  801c3c:	003c7c06 	br	800e30 <__alt_mem_onchip_ram+0xff7fce30>
  801c40:	a2c0008c 	andi	r11,r20,2
  801c44:	58003c26 	beq	r11,zero,801d38 <__svfscanf_r+0x177c>
  801c48:	d9409c17 	ldw	r5,624(sp)
  801c4c:	28800017 	ldw	r2,0(r5)
  801c50:	29400104 	addi	r5,r5,4
  801c54:	d9409c15 	stw	r5,624(sp)
  801c58:	14000015 	stw	r16,0(r2)
  801c5c:	10c00115 	stw	r3,4(r2)
  801c60:	003e4406 	br	801574 <__alt_mem_onchip_ram+0xff7fd574>
  801c64:	00bf1fc4 	movi	r2,-897
  801c68:	90a4703a 	and	r18,r18,r2
  801c6c:	38000226 	beq	r7,zero,801c78 <__svfscanf_r+0x16bc>
  801c70:	39ffffc4 	addi	r7,r7,-1
  801c74:	e7000044 	addi	fp,fp,1
  801c78:	a5000044 	addi	r20,r20,1
  801c7c:	003f3e06 	br	801978 <__alt_mem_onchip_ram+0xff7fd978>
  801c80:	d9009c17 	ldw	r4,624(sp)
  801c84:	20c00017 	ldw	r3,0(r4)
  801c88:	21000104 	addi	r4,r4,4
  801c8c:	d9009c15 	stw	r4,624(sp)
  801c90:	18800015 	stw	r2,0(r3)
  801c94:	003fcc06 	br	801bc8 <__alt_mem_onchip_ram+0xff7fdbc8>
  801c98:	2839883a 	mov	fp,r5
  801c9c:	003fac06 	br	801b50 <__alt_mem_onchip_ram+0xff7fdb50>
  801ca0:	00be1fc4 	movi	r2,-1921
  801ca4:	a0a8703a 	and	r20,r20,r2
  801ca8:	05c00044 	movi	r23,1
  801cac:	003ddb06 	br	80141c <__alt_mem_onchip_ram+0xff7fd41c>
  801cb0:	817fffc7 	ldb	r5,-1(r16)
  801cb4:	980d883a 	mov	r6,r19
  801cb8:	b809883a 	mov	r4,r23
  801cbc:	843fffc4 	addi	r16,r16,-1
  801cc0:	0808d380 	call	808d38 <_ungetc_r>
  801cc4:	003f4a06 	br	8019f0 <__alt_mem_onchip_ram+0xff7fd9f0>
  801cc8:	00fe1fc4 	movi	r3,-1921
  801ccc:	a0e8703a 	and	r20,r20,r3
  801cd0:	05400044 	movi	r21,1
  801cd4:	003dd106 	br	80141c <__alt_mem_onchip_ram+0xff7fd41c>
  801cd8:	dd009b04 	addi	r20,sp,620
  801cdc:	003fc906 	br	801c04 <__alt_mem_onchip_ram+0xff7fdc04>
  801ce0:	d8c09f17 	ldw	r3,636(sp)
  801ce4:	88e3c83a 	sub	r17,r17,r3
  801ce8:	044dc83a 	sub	r6,zero,r17
  801cec:	883e1426 	beq	r17,zero,801540 <__alt_mem_onchip_ram+0xff7fd540>
  801cf0:	d88055c4 	addi	r2,sp,343
  801cf4:	80800136 	bltu	r16,r2,801cfc <__svfscanf_r+0x1740>
  801cf8:	dc005584 	addi	r16,sp,342
  801cfc:	01402074 	movhi	r5,129
  801d00:	29526804 	addi	r5,r5,18848
  801d04:	8009883a 	mov	r4,r16
  801d08:	08044980 	call	804498 <sprintf>
  801d0c:	003e0c06 	br	801540 <__alt_mem_onchip_ram+0xff7fd540>
  801d10:	d8c0a517 	ldw	r3,660(sp)
  801d14:	000d883a 	mov	r6,zero
  801d18:	01c00284 	movi	r7,10
  801d1c:	19400044 	addi	r5,r3,1
  801d20:	b809883a 	mov	r4,r23
  801d24:	0805e7c0 	call	805e7c <_strtol_r>
  801d28:	d8c0a417 	ldw	r3,656(sp)
  801d2c:	dc00a517 	ldw	r16,660(sp)
  801d30:	10cdc83a 	sub	r6,r2,r3
  801d34:	003fee06 	br	801cf0 <__alt_mem_onchip_ram+0xff7fdcf0>
  801d38:	d8809c17 	ldw	r2,624(sp)
  801d3c:	180b883a 	mov	r5,r3
  801d40:	8009883a 	mov	r4,r16
  801d44:	15000017 	ldw	r20,0(r2)
  801d48:	14400104 	addi	r17,r2,4
  801d4c:	d8c0a615 	stw	r3,664(sp)
  801d50:	08042a00 	call	8042a0 <__fpclassifyd>
  801d54:	d8c0a617 	ldw	r3,664(sp)
  801d58:	10007226 	beq	r2,zero,801f24 <__svfscanf_r+0x1968>
  801d5c:	8009883a 	mov	r4,r16
  801d60:	180b883a 	mov	r5,r3
  801d64:	0811fd40 	call	811fd4 <__truncdfsf2>
  801d68:	a0800015 	stw	r2,0(r20)
  801d6c:	dc409c15 	stw	r17,624(sp)
  801d70:	003e0006 	br	801574 <__alt_mem_onchip_ram+0xff7fd574>
  801d74:	88c0004c 	andi	r3,r17,1
  801d78:	183fc11e 	bne	r3,zero,801c80 <__alt_mem_onchip_ram+0xff7fdc80>
  801d7c:	8c40008c 	andi	r17,r17,2
  801d80:	883fbf26 	beq	r17,zero,801c80 <__alt_mem_onchip_ram+0xff7fdc80>
  801d84:	d940a117 	ldw	r5,644(sp)
  801d88:	00802034 	movhi	r2,128
  801d8c:	1098fd04 	addi	r2,r2,25588
  801d90:	d9c09e17 	ldw	r7,632(sp)
  801d94:	000d883a 	mov	r6,zero
  801d98:	28806726 	beq	r5,r2,801f38 <__svfscanf_r+0x197c>
  801d9c:	d9400104 	addi	r5,sp,4
  801da0:	b809883a 	mov	r4,r23
  801da4:	08060f00 	call	8060f0 <_strtoll_r>
  801da8:	d9409c17 	ldw	r5,624(sp)
  801dac:	29000017 	ldw	r4,0(r5)
  801db0:	29400104 	addi	r5,r5,4
  801db4:	d9409c15 	stw	r5,624(sp)
  801db8:	20800015 	stw	r2,0(r4)
  801dbc:	20c00115 	stw	r3,4(r4)
  801dc0:	003f8106 	br	801bc8 <__alt_mem_onchip_ram+0xff7fdbc8>
  801dc4:	08032000 	call	803200 <__locale_mb_cur_max>
  801dc8:	80bc5626 	beq	r16,r2,800f24 <__alt_mem_onchip_ram+0xff7fcf24>
  801dcc:	98800017 	ldw	r2,0(r19)
  801dd0:	99000117 	ldw	r4,4(r19)
  801dd4:	d9400104 	addi	r5,sp,4
  801dd8:	12000003 	ldbu	r8,0(r2)
  801ddc:	213fffc4 	addi	r4,r4,-1
  801de0:	10800044 	addi	r2,r2,1
  801de4:	99000115 	stw	r4,4(r19)
  801de8:	98800015 	stw	r2,0(r19)
  801dec:	84400044 	addi	r17,r16,1
  801df0:	dd400015 	stw	r21,0(sp)
  801df4:	2c21883a 	add	r16,r5,r16
  801df8:	280d883a 	mov	r6,r5
  801dfc:	880f883a 	mov	r7,r17
  801e00:	a00b883a 	mov	r5,r20
  801e04:	b809883a 	mov	r4,r23
  801e08:	82000005 	stb	r8,0(r16)
  801e0c:	0803c1c0 	call	803c1c <_mbrtowc_r>
  801e10:	00ffffc4 	movi	r3,-1
  801e14:	10fc4326 	beq	r2,r3,800f24 <__alt_mem_onchip_ram+0xff7fcf24>
  801e18:	103c371e 	bne	r2,zero,800ef8 <__alt_mem_onchip_ram+0xff7fcef8>
  801e1c:	a0000015 	stw	zero,0(r20)
  801e20:	0009883a 	mov	r4,zero
  801e24:	08031480 	call	803148 <iswspace>
  801e28:	10001b26 	beq	r2,zero,801e98 <__svfscanf_r+0x18dc>
  801e2c:	8821883a 	mov	r16,r17
  801e30:	dc409f17 	ldw	r17,636(sp)
  801e34:	803f7f26 	beq	r16,zero,801c34 <__alt_mem_onchip_ram+0xff7fdc34>
  801e38:	843fffc4 	addi	r16,r16,-1
  801e3c:	d9400104 	addi	r5,sp,4
  801e40:	2c2b883a 	add	r21,r5,r16
  801e44:	00000106 	br	801e4c <__svfscanf_r+0x1890>
  801e48:	843fffc4 	addi	r16,r16,-1
  801e4c:	a9400003 	ldbu	r5,0(r21)
  801e50:	980d883a 	mov	r6,r19
  801e54:	b809883a 	mov	r4,r23
  801e58:	0808d380 	call	808d38 <_ungetc_r>
  801e5c:	ad7fffc4 	addi	r21,r21,-1
  801e60:	803ff91e 	bne	r16,zero,801e48 <__alt_mem_onchip_ram+0xff7fde48>
  801e64:	003f7306 	br	801c34 <__alt_mem_onchip_ram+0xff7fdc34>
  801e68:	d9400104 	addi	r5,sp,4
  801e6c:	802b883a 	mov	r21,r16
  801e70:	9839883a 	mov	fp,r19
  801e74:	2c3a122e 	bgeu	r5,r16,8006c0 <__alt_mem_onchip_ram+0xff7fc6c0>
  801e78:	ad7fffc4 	addi	r21,r21,-1
  801e7c:	a9400007 	ldb	r5,0(r21)
  801e80:	e00d883a 	mov	r6,fp
  801e84:	b809883a 	mov	r4,r23
  801e88:	0808d380 	call	808d38 <_ungetc_r>
  801e8c:	d8800104 	addi	r2,sp,4
  801e90:	157ff91e 	bne	r2,r21,801e78 <__alt_mem_onchip_ram+0xff7fde78>
  801e94:	003a0a06 	br	8006c0 <__alt_mem_onchip_ram+0xff7fc6c0>
  801e98:	d8c09f17 	ldw	r3,636(sp)
  801e9c:	9465883a 	add	r18,r18,r17
  801ea0:	e73fffc4 	addi	fp,fp,-1
  801ea4:	1800051e 	bne	r3,zero,801ebc <__svfscanf_r+0x1900>
  801ea8:	a5000104 	addi	r20,r20,4
  801eac:	0021883a 	mov	r16,zero
  801eb0:	003c1406 	br	800f04 <__alt_mem_onchip_ram+0xff7fcf04>
  801eb4:	a1000017 	ldw	r4,0(r20)
  801eb8:	003fda06 	br	801e24 <__alt_mem_onchip_ram+0xff7fde24>
  801ebc:	0021883a 	mov	r16,zero
  801ec0:	003c1006 	br	800f04 <__alt_mem_onchip_ram+0xff7fcf04>
  801ec4:	d8c00104 	addi	r3,sp,4
  801ec8:	802b883a 	mov	r21,r16
  801ecc:	9839883a 	mov	fp,r19
  801ed0:	1c39fb2e 	bgeu	r3,r16,8006c0 <__alt_mem_onchip_ram+0xff7fc6c0>
  801ed4:	ad7fffc4 	addi	r21,r21,-1
  801ed8:	a9400007 	ldb	r5,0(r21)
  801edc:	b809883a 	mov	r4,r23
  801ee0:	e00d883a 	mov	r6,fp
  801ee4:	0808d380 	call	808d38 <_ungetc_r>
  801ee8:	d9000104 	addi	r4,sp,4
  801eec:	257ff91e 	bne	r4,r21,801ed4 <__alt_mem_onchip_ram+0xff7fded4>
  801ef0:	0039f306 	br	8006c0 <__alt_mem_onchip_ram+0xff7fc6c0>
  801ef4:	d8c00104 	addi	r3,sp,4
  801ef8:	802b883a 	mov	r21,r16
  801efc:	9839883a 	mov	fp,r19
  801f00:	1c39ef2e 	bgeu	r3,r16,8006c0 <__alt_mem_onchip_ram+0xff7fc6c0>
  801f04:	ad7fffc4 	addi	r21,r21,-1
  801f08:	a9400007 	ldb	r5,0(r21)
  801f0c:	b809883a 	mov	r4,r23
  801f10:	e00d883a 	mov	r6,fp
  801f14:	0808d380 	call	808d38 <_ungetc_r>
  801f18:	d9000104 	addi	r4,sp,4
  801f1c:	257ff91e 	bne	r4,r21,801f04 <__alt_mem_onchip_ram+0xff7fdf04>
  801f20:	0039e706 	br	8006c0 <__alt_mem_onchip_ram+0xff7fc6c0>
  801f24:	0009883a 	mov	r4,zero
  801f28:	08044380 	call	804438 <nanf>
  801f2c:	a0800015 	stw	r2,0(r20)
  801f30:	dc409c15 	stw	r17,624(sp)
  801f34:	003d8f06 	br	801574 <__alt_mem_onchip_ram+0xff7fd574>
  801f38:	d9400104 	addi	r5,sp,4
  801f3c:	b809883a 	mov	r4,r23
  801f40:	08066880 	call	806688 <_strtoull_r>
  801f44:	003f9806 	br	801da8 <__alt_mem_onchip_ram+0xff7fdda8>

00801f48 <vfscanf>:
  801f48:	00802074 	movhi	r2,129
  801f4c:	defffb04 	addi	sp,sp,-20
  801f50:	109ad304 	addi	r2,r2,27468
  801f54:	dc000215 	stw	r16,8(sp)
  801f58:	14000017 	ldw	r16,0(r2)
  801f5c:	dc400315 	stw	r17,12(sp)
  801f60:	dfc00415 	stw	ra,16(sp)
  801f64:	2023883a 	mov	r17,r4
  801f68:	80000826 	beq	r16,zero,801f8c <vfscanf+0x44>
  801f6c:	80800e17 	ldw	r2,56(r16)
  801f70:	1000061e 	bne	r2,zero,801f8c <vfscanf+0x44>
  801f74:	8009883a 	mov	r4,r16
  801f78:	d9400015 	stw	r5,0(sp)
  801f7c:	d9800115 	stw	r6,4(sp)
  801f80:	08028cc0 	call	8028cc <__sinit>
  801f84:	d9800117 	ldw	r6,4(sp)
  801f88:	d9400017 	ldw	r5,0(sp)
  801f8c:	300f883a 	mov	r7,r6
  801f90:	8009883a 	mov	r4,r16
  801f94:	280d883a 	mov	r6,r5
  801f98:	880b883a 	mov	r5,r17
  801f9c:	dfc00417 	ldw	ra,16(sp)
  801fa0:	dc400317 	ldw	r17,12(sp)
  801fa4:	dc000217 	ldw	r16,8(sp)
  801fa8:	dec00504 	addi	sp,sp,20
  801fac:	08005bc1 	jmpi	8005bc <__svfscanf_r>

00801fb0 <__svfscanf>:
  801fb0:	00802074 	movhi	r2,129
  801fb4:	109ad304 	addi	r2,r2,27468
  801fb8:	300f883a 	mov	r7,r6
  801fbc:	280d883a 	mov	r6,r5
  801fc0:	200b883a 	mov	r5,r4
  801fc4:	11000017 	ldw	r4,0(r2)
  801fc8:	08005bc1 	jmpi	8005bc <__svfscanf_r>

00801fcc <_vfscanf_r>:
  801fcc:	defffb04 	addi	sp,sp,-20
  801fd0:	dc000315 	stw	r16,12(sp)
  801fd4:	dfc00415 	stw	ra,16(sp)
  801fd8:	2021883a 	mov	r16,r4
  801fdc:	20000926 	beq	r4,zero,802004 <_vfscanf_r+0x38>
  801fe0:	20800e17 	ldw	r2,56(r4)
  801fe4:	1000071e 	bne	r2,zero,802004 <_vfscanf_r+0x38>
  801fe8:	d9400015 	stw	r5,0(sp)
  801fec:	d9800115 	stw	r6,4(sp)
  801ff0:	d9c00215 	stw	r7,8(sp)
  801ff4:	08028cc0 	call	8028cc <__sinit>
  801ff8:	d9c00217 	ldw	r7,8(sp)
  801ffc:	d9800117 	ldw	r6,4(sp)
  802000:	d9400017 	ldw	r5,0(sp)
  802004:	8009883a 	mov	r4,r16
  802008:	dfc00417 	ldw	ra,16(sp)
  80200c:	dc000317 	ldw	r16,12(sp)
  802010:	dec00504 	addi	sp,sp,20
  802014:	08005bc1 	jmpi	8005bc <__svfscanf_r>

00802018 <__swbuf_r>:
  802018:	defffb04 	addi	sp,sp,-20
  80201c:	dcc00315 	stw	r19,12(sp)
  802020:	dc800215 	stw	r18,8(sp)
  802024:	dc000015 	stw	r16,0(sp)
  802028:	dfc00415 	stw	ra,16(sp)
  80202c:	dc400115 	stw	r17,4(sp)
  802030:	2025883a 	mov	r18,r4
  802034:	2827883a 	mov	r19,r5
  802038:	3021883a 	mov	r16,r6
  80203c:	20000226 	beq	r4,zero,802048 <__swbuf_r+0x30>
  802040:	20800e17 	ldw	r2,56(r4)
  802044:	10004226 	beq	r2,zero,802150 <__swbuf_r+0x138>
  802048:	80800617 	ldw	r2,24(r16)
  80204c:	8100030b 	ldhu	r4,12(r16)
  802050:	80800215 	stw	r2,8(r16)
  802054:	2080020c 	andi	r2,r4,8
  802058:	10003626 	beq	r2,zero,802134 <__swbuf_r+0x11c>
  80205c:	80c00417 	ldw	r3,16(r16)
  802060:	18003426 	beq	r3,zero,802134 <__swbuf_r+0x11c>
  802064:	2088000c 	andi	r2,r4,8192
  802068:	9c403fcc 	andi	r17,r19,255
  80206c:	10001a26 	beq	r2,zero,8020d8 <__swbuf_r+0xc0>
  802070:	80800017 	ldw	r2,0(r16)
  802074:	81000517 	ldw	r4,20(r16)
  802078:	10c7c83a 	sub	r3,r2,r3
  80207c:	1900200e 	bge	r3,r4,802100 <__swbuf_r+0xe8>
  802080:	18c00044 	addi	r3,r3,1
  802084:	81000217 	ldw	r4,8(r16)
  802088:	11400044 	addi	r5,r2,1
  80208c:	81400015 	stw	r5,0(r16)
  802090:	213fffc4 	addi	r4,r4,-1
  802094:	81000215 	stw	r4,8(r16)
  802098:	14c00005 	stb	r19,0(r2)
  80209c:	80800517 	ldw	r2,20(r16)
  8020a0:	10c01e26 	beq	r2,r3,80211c <__swbuf_r+0x104>
  8020a4:	8080030b 	ldhu	r2,12(r16)
  8020a8:	1080004c 	andi	r2,r2,1
  8020ac:	10000226 	beq	r2,zero,8020b8 <__swbuf_r+0xa0>
  8020b0:	00800284 	movi	r2,10
  8020b4:	88801926 	beq	r17,r2,80211c <__swbuf_r+0x104>
  8020b8:	8805883a 	mov	r2,r17
  8020bc:	dfc00417 	ldw	ra,16(sp)
  8020c0:	dcc00317 	ldw	r19,12(sp)
  8020c4:	dc800217 	ldw	r18,8(sp)
  8020c8:	dc400117 	ldw	r17,4(sp)
  8020cc:	dc000017 	ldw	r16,0(sp)
  8020d0:	dec00504 	addi	sp,sp,20
  8020d4:	f800283a 	ret
  8020d8:	81401917 	ldw	r5,100(r16)
  8020dc:	00b7ffc4 	movi	r2,-8193
  8020e0:	21080014 	ori	r4,r4,8192
  8020e4:	2884703a 	and	r2,r5,r2
  8020e8:	80801915 	stw	r2,100(r16)
  8020ec:	80800017 	ldw	r2,0(r16)
  8020f0:	8100030d 	sth	r4,12(r16)
  8020f4:	81000517 	ldw	r4,20(r16)
  8020f8:	10c7c83a 	sub	r3,r2,r3
  8020fc:	193fe016 	blt	r3,r4,802080 <__alt_mem_onchip_ram+0xff7fe080>
  802100:	800b883a 	mov	r5,r16
  802104:	9009883a 	mov	r4,r18
  802108:	08024e00 	call	8024e0 <_fflush_r>
  80210c:	1000071e 	bne	r2,zero,80212c <__swbuf_r+0x114>
  802110:	80800017 	ldw	r2,0(r16)
  802114:	00c00044 	movi	r3,1
  802118:	003fda06 	br	802084 <__alt_mem_onchip_ram+0xff7fe084>
  80211c:	800b883a 	mov	r5,r16
  802120:	9009883a 	mov	r4,r18
  802124:	08024e00 	call	8024e0 <_fflush_r>
  802128:	103fe326 	beq	r2,zero,8020b8 <__alt_mem_onchip_ram+0xff7fe0b8>
  80212c:	00bfffc4 	movi	r2,-1
  802130:	003fe206 	br	8020bc <__alt_mem_onchip_ram+0xff7fe0bc>
  802134:	800b883a 	mov	r5,r16
  802138:	9009883a 	mov	r4,r18
  80213c:	08021700 	call	802170 <__swsetup_r>
  802140:	103ffa1e 	bne	r2,zero,80212c <__alt_mem_onchip_ram+0xff7fe12c>
  802144:	8100030b 	ldhu	r4,12(r16)
  802148:	80c00417 	ldw	r3,16(r16)
  80214c:	003fc506 	br	802064 <__alt_mem_onchip_ram+0xff7fe064>
  802150:	08028cc0 	call	8028cc <__sinit>
  802154:	003fbc06 	br	802048 <__alt_mem_onchip_ram+0xff7fe048>

00802158 <__swbuf>:
  802158:	00802074 	movhi	r2,129
  80215c:	109ad304 	addi	r2,r2,27468
  802160:	280d883a 	mov	r6,r5
  802164:	200b883a 	mov	r5,r4
  802168:	11000017 	ldw	r4,0(r2)
  80216c:	08020181 	jmpi	802018 <__swbuf_r>

00802170 <__swsetup_r>:
  802170:	00802074 	movhi	r2,129
  802174:	defffd04 	addi	sp,sp,-12
  802178:	109ad304 	addi	r2,r2,27468
  80217c:	dc400115 	stw	r17,4(sp)
  802180:	2023883a 	mov	r17,r4
  802184:	11000017 	ldw	r4,0(r2)
  802188:	dc000015 	stw	r16,0(sp)
  80218c:	dfc00215 	stw	ra,8(sp)
  802190:	2821883a 	mov	r16,r5
  802194:	20000226 	beq	r4,zero,8021a0 <__swsetup_r+0x30>
  802198:	20800e17 	ldw	r2,56(r4)
  80219c:	10003126 	beq	r2,zero,802264 <__swsetup_r+0xf4>
  8021a0:	8080030b 	ldhu	r2,12(r16)
  8021a4:	10c0020c 	andi	r3,r2,8
  8021a8:	1009883a 	mov	r4,r2
  8021ac:	18000f26 	beq	r3,zero,8021ec <__swsetup_r+0x7c>
  8021b0:	80c00417 	ldw	r3,16(r16)
  8021b4:	18001526 	beq	r3,zero,80220c <__swsetup_r+0x9c>
  8021b8:	1100004c 	andi	r4,r2,1
  8021bc:	20001c1e 	bne	r4,zero,802230 <__swsetup_r+0xc0>
  8021c0:	1080008c 	andi	r2,r2,2
  8021c4:	1000291e 	bne	r2,zero,80226c <__swsetup_r+0xfc>
  8021c8:	80800517 	ldw	r2,20(r16)
  8021cc:	80800215 	stw	r2,8(r16)
  8021d0:	18001c26 	beq	r3,zero,802244 <__swsetup_r+0xd4>
  8021d4:	0005883a 	mov	r2,zero
  8021d8:	dfc00217 	ldw	ra,8(sp)
  8021dc:	dc400117 	ldw	r17,4(sp)
  8021e0:	dc000017 	ldw	r16,0(sp)
  8021e4:	dec00304 	addi	sp,sp,12
  8021e8:	f800283a 	ret
  8021ec:	2080040c 	andi	r2,r4,16
  8021f0:	10002e26 	beq	r2,zero,8022ac <__swsetup_r+0x13c>
  8021f4:	2080010c 	andi	r2,r4,4
  8021f8:	10001e1e 	bne	r2,zero,802274 <__swsetup_r+0x104>
  8021fc:	80c00417 	ldw	r3,16(r16)
  802200:	20800214 	ori	r2,r4,8
  802204:	8080030d 	sth	r2,12(r16)
  802208:	183feb1e 	bne	r3,zero,8021b8 <__alt_mem_onchip_ram+0xff7fe1b8>
  80220c:	1100a00c 	andi	r4,r2,640
  802210:	01408004 	movi	r5,512
  802214:	217fe826 	beq	r4,r5,8021b8 <__alt_mem_onchip_ram+0xff7fe1b8>
  802218:	800b883a 	mov	r5,r16
  80221c:	8809883a 	mov	r4,r17
  802220:	08032540 	call	803254 <__smakebuf_r>
  802224:	8080030b 	ldhu	r2,12(r16)
  802228:	80c00417 	ldw	r3,16(r16)
  80222c:	003fe206 	br	8021b8 <__alt_mem_onchip_ram+0xff7fe1b8>
  802230:	80800517 	ldw	r2,20(r16)
  802234:	80000215 	stw	zero,8(r16)
  802238:	0085c83a 	sub	r2,zero,r2
  80223c:	80800615 	stw	r2,24(r16)
  802240:	183fe41e 	bne	r3,zero,8021d4 <__alt_mem_onchip_ram+0xff7fe1d4>
  802244:	80c0030b 	ldhu	r3,12(r16)
  802248:	0005883a 	mov	r2,zero
  80224c:	1900200c 	andi	r4,r3,128
  802250:	203fe126 	beq	r4,zero,8021d8 <__alt_mem_onchip_ram+0xff7fe1d8>
  802254:	18c01014 	ori	r3,r3,64
  802258:	80c0030d 	sth	r3,12(r16)
  80225c:	00bfffc4 	movi	r2,-1
  802260:	003fdd06 	br	8021d8 <__alt_mem_onchip_ram+0xff7fe1d8>
  802264:	08028cc0 	call	8028cc <__sinit>
  802268:	003fcd06 	br	8021a0 <__alt_mem_onchip_ram+0xff7fe1a0>
  80226c:	0005883a 	mov	r2,zero
  802270:	003fd606 	br	8021cc <__alt_mem_onchip_ram+0xff7fe1cc>
  802274:	81400c17 	ldw	r5,48(r16)
  802278:	28000626 	beq	r5,zero,802294 <__swsetup_r+0x124>
  80227c:	80801004 	addi	r2,r16,64
  802280:	28800326 	beq	r5,r2,802290 <__swsetup_r+0x120>
  802284:	8809883a 	mov	r4,r17
  802288:	0802cb00 	call	802cb0 <_free_r>
  80228c:	8100030b 	ldhu	r4,12(r16)
  802290:	80000c15 	stw	zero,48(r16)
  802294:	80c00417 	ldw	r3,16(r16)
  802298:	00bff6c4 	movi	r2,-37
  80229c:	1108703a 	and	r4,r2,r4
  8022a0:	80000115 	stw	zero,4(r16)
  8022a4:	80c00015 	stw	r3,0(r16)
  8022a8:	003fd506 	br	802200 <__alt_mem_onchip_ram+0xff7fe200>
  8022ac:	00800244 	movi	r2,9
  8022b0:	88800015 	stw	r2,0(r17)
  8022b4:	20801014 	ori	r2,r4,64
  8022b8:	8080030d 	sth	r2,12(r16)
  8022bc:	00bfffc4 	movi	r2,-1
  8022c0:	003fc506 	br	8021d8 <__alt_mem_onchip_ram+0xff7fe1d8>

008022c4 <__sflush_r>:
  8022c4:	2880030b 	ldhu	r2,12(r5)
  8022c8:	defffb04 	addi	sp,sp,-20
  8022cc:	dcc00315 	stw	r19,12(sp)
  8022d0:	dc400115 	stw	r17,4(sp)
  8022d4:	dfc00415 	stw	ra,16(sp)
  8022d8:	dc800215 	stw	r18,8(sp)
  8022dc:	dc000015 	stw	r16,0(sp)
  8022e0:	10c0020c 	andi	r3,r2,8
  8022e4:	2823883a 	mov	r17,r5
  8022e8:	2027883a 	mov	r19,r4
  8022ec:	1800311e 	bne	r3,zero,8023b4 <__sflush_r+0xf0>
  8022f0:	28c00117 	ldw	r3,4(r5)
  8022f4:	10820014 	ori	r2,r2,2048
  8022f8:	2880030d 	sth	r2,12(r5)
  8022fc:	00c04b0e 	bge	zero,r3,80242c <__sflush_r+0x168>
  802300:	8a000a17 	ldw	r8,40(r17)
  802304:	40002326 	beq	r8,zero,802394 <__sflush_r+0xd0>
  802308:	9c000017 	ldw	r16,0(r19)
  80230c:	10c4000c 	andi	r3,r2,4096
  802310:	98000015 	stw	zero,0(r19)
  802314:	18004826 	beq	r3,zero,802438 <__sflush_r+0x174>
  802318:	89801417 	ldw	r6,80(r17)
  80231c:	10c0010c 	andi	r3,r2,4
  802320:	18000626 	beq	r3,zero,80233c <__sflush_r+0x78>
  802324:	88c00117 	ldw	r3,4(r17)
  802328:	88800c17 	ldw	r2,48(r17)
  80232c:	30cdc83a 	sub	r6,r6,r3
  802330:	10000226 	beq	r2,zero,80233c <__sflush_r+0x78>
  802334:	88800f17 	ldw	r2,60(r17)
  802338:	308dc83a 	sub	r6,r6,r2
  80233c:	89400717 	ldw	r5,28(r17)
  802340:	000f883a 	mov	r7,zero
  802344:	9809883a 	mov	r4,r19
  802348:	403ee83a 	callr	r8
  80234c:	00ffffc4 	movi	r3,-1
  802350:	10c04426 	beq	r2,r3,802464 <__sflush_r+0x1a0>
  802354:	88c0030b 	ldhu	r3,12(r17)
  802358:	89000417 	ldw	r4,16(r17)
  80235c:	88000115 	stw	zero,4(r17)
  802360:	197dffcc 	andi	r5,r3,63487
  802364:	8940030d 	sth	r5,12(r17)
  802368:	89000015 	stw	r4,0(r17)
  80236c:	18c4000c 	andi	r3,r3,4096
  802370:	18002c1e 	bne	r3,zero,802424 <__sflush_r+0x160>
  802374:	89400c17 	ldw	r5,48(r17)
  802378:	9c000015 	stw	r16,0(r19)
  80237c:	28000526 	beq	r5,zero,802394 <__sflush_r+0xd0>
  802380:	88801004 	addi	r2,r17,64
  802384:	28800226 	beq	r5,r2,802390 <__sflush_r+0xcc>
  802388:	9809883a 	mov	r4,r19
  80238c:	0802cb00 	call	802cb0 <_free_r>
  802390:	88000c15 	stw	zero,48(r17)
  802394:	0005883a 	mov	r2,zero
  802398:	dfc00417 	ldw	ra,16(sp)
  80239c:	dcc00317 	ldw	r19,12(sp)
  8023a0:	dc800217 	ldw	r18,8(sp)
  8023a4:	dc400117 	ldw	r17,4(sp)
  8023a8:	dc000017 	ldw	r16,0(sp)
  8023ac:	dec00504 	addi	sp,sp,20
  8023b0:	f800283a 	ret
  8023b4:	2c800417 	ldw	r18,16(r5)
  8023b8:	903ff626 	beq	r18,zero,802394 <__alt_mem_onchip_ram+0xff7fe394>
  8023bc:	2c000017 	ldw	r16,0(r5)
  8023c0:	108000cc 	andi	r2,r2,3
  8023c4:	2c800015 	stw	r18,0(r5)
  8023c8:	84a1c83a 	sub	r16,r16,r18
  8023cc:	1000131e 	bne	r2,zero,80241c <__sflush_r+0x158>
  8023d0:	28800517 	ldw	r2,20(r5)
  8023d4:	88800215 	stw	r2,8(r17)
  8023d8:	04000316 	blt	zero,r16,8023e8 <__sflush_r+0x124>
  8023dc:	003fed06 	br	802394 <__alt_mem_onchip_ram+0xff7fe394>
  8023e0:	90a5883a 	add	r18,r18,r2
  8023e4:	043feb0e 	bge	zero,r16,802394 <__alt_mem_onchip_ram+0xff7fe394>
  8023e8:	88800917 	ldw	r2,36(r17)
  8023ec:	89400717 	ldw	r5,28(r17)
  8023f0:	800f883a 	mov	r7,r16
  8023f4:	900d883a 	mov	r6,r18
  8023f8:	9809883a 	mov	r4,r19
  8023fc:	103ee83a 	callr	r2
  802400:	80a1c83a 	sub	r16,r16,r2
  802404:	00bff616 	blt	zero,r2,8023e0 <__alt_mem_onchip_ram+0xff7fe3e0>
  802408:	88c0030b 	ldhu	r3,12(r17)
  80240c:	00bfffc4 	movi	r2,-1
  802410:	18c01014 	ori	r3,r3,64
  802414:	88c0030d 	sth	r3,12(r17)
  802418:	003fdf06 	br	802398 <__alt_mem_onchip_ram+0xff7fe398>
  80241c:	0005883a 	mov	r2,zero
  802420:	003fec06 	br	8023d4 <__alt_mem_onchip_ram+0xff7fe3d4>
  802424:	88801415 	stw	r2,80(r17)
  802428:	003fd206 	br	802374 <__alt_mem_onchip_ram+0xff7fe374>
  80242c:	28c00f17 	ldw	r3,60(r5)
  802430:	00ffb316 	blt	zero,r3,802300 <__alt_mem_onchip_ram+0xff7fe300>
  802434:	003fd706 	br	802394 <__alt_mem_onchip_ram+0xff7fe394>
  802438:	89400717 	ldw	r5,28(r17)
  80243c:	000d883a 	mov	r6,zero
  802440:	01c00044 	movi	r7,1
  802444:	9809883a 	mov	r4,r19
  802448:	403ee83a 	callr	r8
  80244c:	100d883a 	mov	r6,r2
  802450:	00bfffc4 	movi	r2,-1
  802454:	30801426 	beq	r6,r2,8024a8 <__sflush_r+0x1e4>
  802458:	8880030b 	ldhu	r2,12(r17)
  80245c:	8a000a17 	ldw	r8,40(r17)
  802460:	003fae06 	br	80231c <__alt_mem_onchip_ram+0xff7fe31c>
  802464:	98c00017 	ldw	r3,0(r19)
  802468:	183fba26 	beq	r3,zero,802354 <__alt_mem_onchip_ram+0xff7fe354>
  80246c:	01000744 	movi	r4,29
  802470:	19000626 	beq	r3,r4,80248c <__sflush_r+0x1c8>
  802474:	01000584 	movi	r4,22
  802478:	19000426 	beq	r3,r4,80248c <__sflush_r+0x1c8>
  80247c:	88c0030b 	ldhu	r3,12(r17)
  802480:	18c01014 	ori	r3,r3,64
  802484:	88c0030d 	sth	r3,12(r17)
  802488:	003fc306 	br	802398 <__alt_mem_onchip_ram+0xff7fe398>
  80248c:	8880030b 	ldhu	r2,12(r17)
  802490:	88c00417 	ldw	r3,16(r17)
  802494:	88000115 	stw	zero,4(r17)
  802498:	10bdffcc 	andi	r2,r2,63487
  80249c:	8880030d 	sth	r2,12(r17)
  8024a0:	88c00015 	stw	r3,0(r17)
  8024a4:	003fb306 	br	802374 <__alt_mem_onchip_ram+0xff7fe374>
  8024a8:	98800017 	ldw	r2,0(r19)
  8024ac:	103fea26 	beq	r2,zero,802458 <__alt_mem_onchip_ram+0xff7fe458>
  8024b0:	00c00744 	movi	r3,29
  8024b4:	10c00226 	beq	r2,r3,8024c0 <__sflush_r+0x1fc>
  8024b8:	00c00584 	movi	r3,22
  8024bc:	10c0031e 	bne	r2,r3,8024cc <__sflush_r+0x208>
  8024c0:	9c000015 	stw	r16,0(r19)
  8024c4:	0005883a 	mov	r2,zero
  8024c8:	003fb306 	br	802398 <__alt_mem_onchip_ram+0xff7fe398>
  8024cc:	88c0030b 	ldhu	r3,12(r17)
  8024d0:	3005883a 	mov	r2,r6
  8024d4:	18c01014 	ori	r3,r3,64
  8024d8:	88c0030d 	sth	r3,12(r17)
  8024dc:	003fae06 	br	802398 <__alt_mem_onchip_ram+0xff7fe398>

008024e0 <_fflush_r>:
  8024e0:	defffd04 	addi	sp,sp,-12
  8024e4:	dc000115 	stw	r16,4(sp)
  8024e8:	dfc00215 	stw	ra,8(sp)
  8024ec:	2021883a 	mov	r16,r4
  8024f0:	20000226 	beq	r4,zero,8024fc <_fflush_r+0x1c>
  8024f4:	20800e17 	ldw	r2,56(r4)
  8024f8:	10000c26 	beq	r2,zero,80252c <_fflush_r+0x4c>
  8024fc:	2880030f 	ldh	r2,12(r5)
  802500:	1000051e 	bne	r2,zero,802518 <_fflush_r+0x38>
  802504:	0005883a 	mov	r2,zero
  802508:	dfc00217 	ldw	ra,8(sp)
  80250c:	dc000117 	ldw	r16,4(sp)
  802510:	dec00304 	addi	sp,sp,12
  802514:	f800283a 	ret
  802518:	8009883a 	mov	r4,r16
  80251c:	dfc00217 	ldw	ra,8(sp)
  802520:	dc000117 	ldw	r16,4(sp)
  802524:	dec00304 	addi	sp,sp,12
  802528:	08022c41 	jmpi	8022c4 <__sflush_r>
  80252c:	d9400015 	stw	r5,0(sp)
  802530:	08028cc0 	call	8028cc <__sinit>
  802534:	d9400017 	ldw	r5,0(sp)
  802538:	003ff006 	br	8024fc <__alt_mem_onchip_ram+0xff7fe4fc>

0080253c <fflush>:
  80253c:	20000526 	beq	r4,zero,802554 <fflush+0x18>
  802540:	00802074 	movhi	r2,129
  802544:	109ad304 	addi	r2,r2,27468
  802548:	200b883a 	mov	r5,r4
  80254c:	11000017 	ldw	r4,0(r2)
  802550:	08024e01 	jmpi	8024e0 <_fflush_r>
  802554:	00802074 	movhi	r2,129
  802558:	109ad204 	addi	r2,r2,27464
  80255c:	11000017 	ldw	r4,0(r2)
  802560:	01402034 	movhi	r5,128
  802564:	29493804 	addi	r5,r5,9440
  802568:	08030841 	jmpi	803084 <_fwalk_reent>

0080256c <__fp_unlock>:
  80256c:	0005883a 	mov	r2,zero
  802570:	f800283a 	ret

00802574 <_cleanup_r>:
  802574:	01402074 	movhi	r5,129
  802578:	296a1204 	addi	r5,r5,-22456
  80257c:	08030841 	jmpi	803084 <_fwalk_reent>

00802580 <__sinit.part.1>:
  802580:	defff704 	addi	sp,sp,-36
  802584:	00c02034 	movhi	r3,128
  802588:	dfc00815 	stw	ra,32(sp)
  80258c:	ddc00715 	stw	r23,28(sp)
  802590:	dd800615 	stw	r22,24(sp)
  802594:	dd400515 	stw	r21,20(sp)
  802598:	dd000415 	stw	r20,16(sp)
  80259c:	dcc00315 	stw	r19,12(sp)
  8025a0:	dc800215 	stw	r18,8(sp)
  8025a4:	dc400115 	stw	r17,4(sp)
  8025a8:	dc000015 	stw	r16,0(sp)
  8025ac:	18c95d04 	addi	r3,r3,9588
  8025b0:	24000117 	ldw	r16,4(r4)
  8025b4:	20c00f15 	stw	r3,60(r4)
  8025b8:	2080bb04 	addi	r2,r4,748
  8025bc:	00c000c4 	movi	r3,3
  8025c0:	20c0b915 	stw	r3,740(r4)
  8025c4:	2080ba15 	stw	r2,744(r4)
  8025c8:	2000b815 	stw	zero,736(r4)
  8025cc:	05c00204 	movi	r23,8
  8025d0:	00800104 	movi	r2,4
  8025d4:	2025883a 	mov	r18,r4
  8025d8:	b80d883a 	mov	r6,r23
  8025dc:	81001704 	addi	r4,r16,92
  8025e0:	000b883a 	mov	r5,zero
  8025e4:	80000015 	stw	zero,0(r16)
  8025e8:	80000115 	stw	zero,4(r16)
  8025ec:	80000215 	stw	zero,8(r16)
  8025f0:	8080030d 	sth	r2,12(r16)
  8025f4:	80001915 	stw	zero,100(r16)
  8025f8:	8000038d 	sth	zero,14(r16)
  8025fc:	80000415 	stw	zero,16(r16)
  802600:	80000515 	stw	zero,20(r16)
  802604:	80000615 	stw	zero,24(r16)
  802608:	0803f880 	call	803f88 <memset>
  80260c:	05802034 	movhi	r22,128
  802610:	94400217 	ldw	r17,8(r18)
  802614:	05402034 	movhi	r21,128
  802618:	05002034 	movhi	r20,128
  80261c:	04c02034 	movhi	r19,128
  802620:	b5914104 	addi	r22,r22,17668
  802624:	ad515804 	addi	r21,r21,17760
  802628:	a5117704 	addi	r20,r20,17884
  80262c:	9cd18e04 	addi	r19,r19,17976
  802630:	85800815 	stw	r22,32(r16)
  802634:	85400915 	stw	r21,36(r16)
  802638:	85000a15 	stw	r20,40(r16)
  80263c:	84c00b15 	stw	r19,44(r16)
  802640:	84000715 	stw	r16,28(r16)
  802644:	00800284 	movi	r2,10
  802648:	8880030d 	sth	r2,12(r17)
  80264c:	00800044 	movi	r2,1
  802650:	b80d883a 	mov	r6,r23
  802654:	89001704 	addi	r4,r17,92
  802658:	000b883a 	mov	r5,zero
  80265c:	88000015 	stw	zero,0(r17)
  802660:	88000115 	stw	zero,4(r17)
  802664:	88000215 	stw	zero,8(r17)
  802668:	88001915 	stw	zero,100(r17)
  80266c:	8880038d 	sth	r2,14(r17)
  802670:	88000415 	stw	zero,16(r17)
  802674:	88000515 	stw	zero,20(r17)
  802678:	88000615 	stw	zero,24(r17)
  80267c:	0803f880 	call	803f88 <memset>
  802680:	94000317 	ldw	r16,12(r18)
  802684:	00800484 	movi	r2,18
  802688:	8c400715 	stw	r17,28(r17)
  80268c:	8d800815 	stw	r22,32(r17)
  802690:	8d400915 	stw	r21,36(r17)
  802694:	8d000a15 	stw	r20,40(r17)
  802698:	8cc00b15 	stw	r19,44(r17)
  80269c:	8080030d 	sth	r2,12(r16)
  8026a0:	00800084 	movi	r2,2
  8026a4:	80000015 	stw	zero,0(r16)
  8026a8:	80000115 	stw	zero,4(r16)
  8026ac:	80000215 	stw	zero,8(r16)
  8026b0:	80001915 	stw	zero,100(r16)
  8026b4:	8080038d 	sth	r2,14(r16)
  8026b8:	80000415 	stw	zero,16(r16)
  8026bc:	80000515 	stw	zero,20(r16)
  8026c0:	80000615 	stw	zero,24(r16)
  8026c4:	b80d883a 	mov	r6,r23
  8026c8:	000b883a 	mov	r5,zero
  8026cc:	81001704 	addi	r4,r16,92
  8026d0:	0803f880 	call	803f88 <memset>
  8026d4:	00800044 	movi	r2,1
  8026d8:	84000715 	stw	r16,28(r16)
  8026dc:	85800815 	stw	r22,32(r16)
  8026e0:	85400915 	stw	r21,36(r16)
  8026e4:	85000a15 	stw	r20,40(r16)
  8026e8:	84c00b15 	stw	r19,44(r16)
  8026ec:	90800e15 	stw	r2,56(r18)
  8026f0:	dfc00817 	ldw	ra,32(sp)
  8026f4:	ddc00717 	ldw	r23,28(sp)
  8026f8:	dd800617 	ldw	r22,24(sp)
  8026fc:	dd400517 	ldw	r21,20(sp)
  802700:	dd000417 	ldw	r20,16(sp)
  802704:	dcc00317 	ldw	r19,12(sp)
  802708:	dc800217 	ldw	r18,8(sp)
  80270c:	dc400117 	ldw	r17,4(sp)
  802710:	dc000017 	ldw	r16,0(sp)
  802714:	dec00904 	addi	sp,sp,36
  802718:	f800283a 	ret

0080271c <__fp_lock>:
  80271c:	0005883a 	mov	r2,zero
  802720:	f800283a 	ret

00802724 <__sfmoreglue>:
  802724:	defffc04 	addi	sp,sp,-16
  802728:	dc800215 	stw	r18,8(sp)
  80272c:	2825883a 	mov	r18,r5
  802730:	dc000015 	stw	r16,0(sp)
  802734:	01401a04 	movi	r5,104
  802738:	2021883a 	mov	r16,r4
  80273c:	913fffc4 	addi	r4,r18,-1
  802740:	dfc00315 	stw	ra,12(sp)
  802744:	dc400115 	stw	r17,4(sp)
  802748:	080f5740 	call	80f574 <__mulsi3>
  80274c:	8009883a 	mov	r4,r16
  802750:	11401d04 	addi	r5,r2,116
  802754:	1023883a 	mov	r17,r2
  802758:	08034100 	call	803410 <_malloc_r>
  80275c:	1021883a 	mov	r16,r2
  802760:	10000726 	beq	r2,zero,802780 <__sfmoreglue+0x5c>
  802764:	11000304 	addi	r4,r2,12
  802768:	10000015 	stw	zero,0(r2)
  80276c:	14800115 	stw	r18,4(r2)
  802770:	11000215 	stw	r4,8(r2)
  802774:	89801a04 	addi	r6,r17,104
  802778:	000b883a 	mov	r5,zero
  80277c:	0803f880 	call	803f88 <memset>
  802780:	8005883a 	mov	r2,r16
  802784:	dfc00317 	ldw	ra,12(sp)
  802788:	dc800217 	ldw	r18,8(sp)
  80278c:	dc400117 	ldw	r17,4(sp)
  802790:	dc000017 	ldw	r16,0(sp)
  802794:	dec00404 	addi	sp,sp,16
  802798:	f800283a 	ret

0080279c <__sfp>:
  80279c:	defffb04 	addi	sp,sp,-20
  8027a0:	dc000015 	stw	r16,0(sp)
  8027a4:	04002074 	movhi	r16,129
  8027a8:	841ad204 	addi	r16,r16,27464
  8027ac:	dcc00315 	stw	r19,12(sp)
  8027b0:	2027883a 	mov	r19,r4
  8027b4:	81000017 	ldw	r4,0(r16)
  8027b8:	dfc00415 	stw	ra,16(sp)
  8027bc:	dc800215 	stw	r18,8(sp)
  8027c0:	20800e17 	ldw	r2,56(r4)
  8027c4:	dc400115 	stw	r17,4(sp)
  8027c8:	1000021e 	bne	r2,zero,8027d4 <__sfp+0x38>
  8027cc:	08025800 	call	802580 <__sinit.part.1>
  8027d0:	81000017 	ldw	r4,0(r16)
  8027d4:	2480b804 	addi	r18,r4,736
  8027d8:	047fffc4 	movi	r17,-1
  8027dc:	91000117 	ldw	r4,4(r18)
  8027e0:	94000217 	ldw	r16,8(r18)
  8027e4:	213fffc4 	addi	r4,r4,-1
  8027e8:	20000a16 	blt	r4,zero,802814 <__sfp+0x78>
  8027ec:	8080030f 	ldh	r2,12(r16)
  8027f0:	10000c26 	beq	r2,zero,802824 <__sfp+0x88>
  8027f4:	80c01d04 	addi	r3,r16,116
  8027f8:	00000206 	br	802804 <__sfp+0x68>
  8027fc:	18bfe60f 	ldh	r2,-104(r3)
  802800:	10000826 	beq	r2,zero,802824 <__sfp+0x88>
  802804:	213fffc4 	addi	r4,r4,-1
  802808:	1c3ffd04 	addi	r16,r3,-12
  80280c:	18c01a04 	addi	r3,r3,104
  802810:	247ffa1e 	bne	r4,r17,8027fc <__alt_mem_onchip_ram+0xff7fe7fc>
  802814:	90800017 	ldw	r2,0(r18)
  802818:	10001d26 	beq	r2,zero,802890 <__sfp+0xf4>
  80281c:	1025883a 	mov	r18,r2
  802820:	003fee06 	br	8027dc <__alt_mem_onchip_ram+0xff7fe7dc>
  802824:	00bfffc4 	movi	r2,-1
  802828:	8080038d 	sth	r2,14(r16)
  80282c:	00800044 	movi	r2,1
  802830:	8080030d 	sth	r2,12(r16)
  802834:	80001915 	stw	zero,100(r16)
  802838:	80000015 	stw	zero,0(r16)
  80283c:	80000215 	stw	zero,8(r16)
  802840:	80000115 	stw	zero,4(r16)
  802844:	80000415 	stw	zero,16(r16)
  802848:	80000515 	stw	zero,20(r16)
  80284c:	80000615 	stw	zero,24(r16)
  802850:	01800204 	movi	r6,8
  802854:	000b883a 	mov	r5,zero
  802858:	81001704 	addi	r4,r16,92
  80285c:	0803f880 	call	803f88 <memset>
  802860:	8005883a 	mov	r2,r16
  802864:	80000c15 	stw	zero,48(r16)
  802868:	80000d15 	stw	zero,52(r16)
  80286c:	80001115 	stw	zero,68(r16)
  802870:	80001215 	stw	zero,72(r16)
  802874:	dfc00417 	ldw	ra,16(sp)
  802878:	dcc00317 	ldw	r19,12(sp)
  80287c:	dc800217 	ldw	r18,8(sp)
  802880:	dc400117 	ldw	r17,4(sp)
  802884:	dc000017 	ldw	r16,0(sp)
  802888:	dec00504 	addi	sp,sp,20
  80288c:	f800283a 	ret
  802890:	01400104 	movi	r5,4
  802894:	9809883a 	mov	r4,r19
  802898:	08027240 	call	802724 <__sfmoreglue>
  80289c:	90800015 	stw	r2,0(r18)
  8028a0:	103fde1e 	bne	r2,zero,80281c <__alt_mem_onchip_ram+0xff7fe81c>
  8028a4:	00800304 	movi	r2,12
  8028a8:	98800015 	stw	r2,0(r19)
  8028ac:	0005883a 	mov	r2,zero
  8028b0:	003ff006 	br	802874 <__alt_mem_onchip_ram+0xff7fe874>

008028b4 <_cleanup>:
  8028b4:	00802074 	movhi	r2,129
  8028b8:	109ad204 	addi	r2,r2,27464
  8028bc:	11000017 	ldw	r4,0(r2)
  8028c0:	01402074 	movhi	r5,129
  8028c4:	296a1204 	addi	r5,r5,-22456
  8028c8:	08030841 	jmpi	803084 <_fwalk_reent>

008028cc <__sinit>:
  8028cc:	20800e17 	ldw	r2,56(r4)
  8028d0:	10000126 	beq	r2,zero,8028d8 <__sinit+0xc>
  8028d4:	f800283a 	ret
  8028d8:	08025801 	jmpi	802580 <__sinit.part.1>

008028dc <__sfp_lock_acquire>:
  8028dc:	f800283a 	ret

008028e0 <__sfp_lock_release>:
  8028e0:	f800283a 	ret

008028e4 <__sinit_lock_acquire>:
  8028e4:	f800283a 	ret

008028e8 <__sinit_lock_release>:
  8028e8:	f800283a 	ret

008028ec <__fp_lock_all>:
  8028ec:	00802074 	movhi	r2,129
  8028f0:	109ad304 	addi	r2,r2,27468
  8028f4:	11000017 	ldw	r4,0(r2)
  8028f8:	01402034 	movhi	r5,128
  8028fc:	2949c704 	addi	r5,r5,10012
  802900:	0802fc01 	jmpi	802fc0 <_fwalk>

00802904 <__fp_unlock_all>:
  802904:	00802074 	movhi	r2,129
  802908:	109ad304 	addi	r2,r2,27468
  80290c:	11000017 	ldw	r4,0(r2)
  802910:	01402034 	movhi	r5,128
  802914:	29495b04 	addi	r5,r5,9580
  802918:	0802fc01 	jmpi	802fc0 <_fwalk>

0080291c <_fread_r>:
  80291c:	defff404 	addi	sp,sp,-48
  802920:	dd000615 	stw	r20,24(sp)
  802924:	dcc00515 	stw	r19,20(sp)
  802928:	2029883a 	mov	r20,r4
  80292c:	2827883a 	mov	r19,r5
  802930:	3809883a 	mov	r4,r7
  802934:	300b883a 	mov	r5,r6
  802938:	ddc00915 	stw	r23,36(sp)
  80293c:	dd400715 	stw	r21,28(sp)
  802940:	dc000215 	stw	r16,8(sp)
  802944:	dfc00b15 	stw	ra,44(sp)
  802948:	df000a15 	stw	fp,40(sp)
  80294c:	dd800815 	stw	r22,32(sp)
  802950:	dc800415 	stw	r18,16(sp)
  802954:	dc400315 	stw	r17,12(sp)
  802958:	302f883a 	mov	r23,r6
  80295c:	382b883a 	mov	r21,r7
  802960:	080f5740 	call	80f574 <__mulsi3>
  802964:	dc000c17 	ldw	r16,48(sp)
  802968:	10003826 	beq	r2,zero,802a4c <_fread_r+0x130>
  80296c:	102d883a 	mov	r22,r2
  802970:	a0000226 	beq	r20,zero,80297c <_fread_r+0x60>
  802974:	a0800e17 	ldw	r2,56(r20)
  802978:	10006e26 	beq	r2,zero,802b34 <_fread_r+0x218>
  80297c:	8080030b 	ldhu	r2,12(r16)
  802980:	10c8000c 	andi	r3,r2,8192
  802984:	1800061e 	bne	r3,zero,8029a0 <_fread_r+0x84>
  802988:	81001917 	ldw	r4,100(r16)
  80298c:	00f7ffc4 	movi	r3,-8193
  802990:	10880014 	ori	r2,r2,8192
  802994:	20c6703a 	and	r3,r4,r3
  802998:	8080030d 	sth	r2,12(r16)
  80299c:	80c01915 	stw	r3,100(r16)
  8029a0:	84400117 	ldw	r17,4(r16)
  8029a4:	88005f16 	blt	r17,zero,802b24 <_fread_r+0x208>
  8029a8:	8809883a 	mov	r4,r17
  8029ac:	1080008c 	andi	r2,r2,2
  8029b0:	1000281e 	bne	r2,zero,802a54 <_fread_r+0x138>
  8029b4:	b025883a 	mov	r18,r22
  8029b8:	00000b06 	br	8029e8 <_fread_r+0xcc>
  8029bc:	0803e400 	call	803e40 <memcpy>
  8029c0:	80800017 	ldw	r2,0(r16)
  8029c4:	9c67883a 	add	r19,r19,r17
  8029c8:	9465c83a 	sub	r18,r18,r17
  8029cc:	1463883a 	add	r17,r2,r17
  8029d0:	800b883a 	mov	r5,r16
  8029d4:	a009883a 	mov	r4,r20
  8029d8:	84400015 	stw	r17,0(r16)
  8029dc:	08040cc0 	call	8040cc <__srefill_r>
  8029e0:	10004c1e 	bne	r2,zero,802b14 <_fread_r+0x1f8>
  8029e4:	84400117 	ldw	r17,4(r16)
  8029e8:	880d883a 	mov	r6,r17
  8029ec:	9809883a 	mov	r4,r19
  8029f0:	81400017 	ldw	r5,0(r16)
  8029f4:	8cbff136 	bltu	r17,r18,8029bc <__alt_mem_onchip_ram+0xff7fe9bc>
  8029f8:	900d883a 	mov	r6,r18
  8029fc:	0803e400 	call	803e40 <memcpy>
  802a00:	80c00117 	ldw	r3,4(r16)
  802a04:	81000017 	ldw	r4,0(r16)
  802a08:	a805883a 	mov	r2,r21
  802a0c:	1c87c83a 	sub	r3,r3,r18
  802a10:	24a5883a 	add	r18,r4,r18
  802a14:	80c00115 	stw	r3,4(r16)
  802a18:	84800015 	stw	r18,0(r16)
  802a1c:	dfc00b17 	ldw	ra,44(sp)
  802a20:	df000a17 	ldw	fp,40(sp)
  802a24:	ddc00917 	ldw	r23,36(sp)
  802a28:	dd800817 	ldw	r22,32(sp)
  802a2c:	dd400717 	ldw	r21,28(sp)
  802a30:	dd000617 	ldw	r20,24(sp)
  802a34:	dcc00517 	ldw	r19,20(sp)
  802a38:	dc800417 	ldw	r18,16(sp)
  802a3c:	dc400317 	ldw	r17,12(sp)
  802a40:	dc000217 	ldw	r16,8(sp)
  802a44:	dec00c04 	addi	sp,sp,48
  802a48:	f800283a 	ret
  802a4c:	0005883a 	mov	r2,zero
  802a50:	003ff206 	br	802a1c <__alt_mem_onchip_ram+0xff7fea1c>
  802a54:	b007883a 	mov	r3,r22
  802a58:	2580012e 	bgeu	r4,r22,802a60 <_fread_r+0x144>
  802a5c:	2007883a 	mov	r3,r4
  802a60:	81400017 	ldw	r5,0(r16)
  802a64:	180d883a 	mov	r6,r3
  802a68:	9809883a 	mov	r4,r19
  802a6c:	d8c00115 	stw	r3,4(sp)
  802a70:	0803e400 	call	803e40 <memcpy>
  802a74:	d8c00117 	ldw	r3,4(sp)
  802a78:	84400017 	ldw	r17,0(r16)
  802a7c:	80800117 	ldw	r2,4(r16)
  802a80:	81400c17 	ldw	r5,48(r16)
  802a84:	88e3883a 	add	r17,r17,r3
  802a88:	10c5c83a 	sub	r2,r2,r3
  802a8c:	84400015 	stw	r17,0(r16)
  802a90:	80800115 	stw	r2,4(r16)
  802a94:	b0e5c83a 	sub	r18,r22,r3
  802a98:	28002c26 	beq	r5,zero,802b4c <_fread_r+0x230>
  802a9c:	90002c26 	beq	r18,zero,802b50 <_fread_r+0x234>
  802aa0:	80801004 	addi	r2,r16,64
  802aa4:	28800526 	beq	r5,r2,802abc <_fread_r+0x1a0>
  802aa8:	a009883a 	mov	r4,r20
  802aac:	d8c00115 	stw	r3,4(sp)
  802ab0:	0802cb00 	call	802cb0 <_free_r>
  802ab4:	d8c00117 	ldw	r3,4(sp)
  802ab8:	84400017 	ldw	r17,0(r16)
  802abc:	80000c15 	stw	zero,48(r16)
  802ac0:	80800517 	ldw	r2,20(r16)
  802ac4:	87000417 	ldw	fp,16(r16)
  802ac8:	98e7883a 	add	r19,r19,r3
  802acc:	d8800015 	stw	r2,0(sp)
  802ad0:	00000106 	br	802ad8 <_fread_r+0x1bc>
  802ad4:	90001e26 	beq	r18,zero,802b50 <_fread_r+0x234>
  802ad8:	84c00415 	stw	r19,16(r16)
  802adc:	84800515 	stw	r18,20(r16)
  802ae0:	84c00015 	stw	r19,0(r16)
  802ae4:	a009883a 	mov	r4,r20
  802ae8:	800b883a 	mov	r5,r16
  802aec:	08040cc0 	call	8040cc <__srefill_r>
  802af0:	d9000017 	ldw	r4,0(sp)
  802af4:	80c00117 	ldw	r3,4(r16)
  802af8:	87000415 	stw	fp,16(r16)
  802afc:	81000515 	stw	r4,20(r16)
  802b00:	84400015 	stw	r17,0(r16)
  802b04:	80000115 	stw	zero,4(r16)
  802b08:	90e5c83a 	sub	r18,r18,r3
  802b0c:	98e7883a 	add	r19,r19,r3
  802b10:	103ff026 	beq	r2,zero,802ad4 <__alt_mem_onchip_ram+0xff7fead4>
  802b14:	b80b883a 	mov	r5,r23
  802b18:	b489c83a 	sub	r4,r22,r18
  802b1c:	080f4b80 	call	80f4b8 <__udivsi3>
  802b20:	003fbe06 	br	802a1c <__alt_mem_onchip_ram+0xff7fea1c>
  802b24:	80000115 	stw	zero,4(r16)
  802b28:	0009883a 	mov	r4,zero
  802b2c:	0023883a 	mov	r17,zero
  802b30:	003f9e06 	br	8029ac <__alt_mem_onchip_ram+0xff7fe9ac>
  802b34:	a009883a 	mov	r4,r20
  802b38:	08028cc0 	call	8028cc <__sinit>
  802b3c:	8080030b 	ldhu	r2,12(r16)
  802b40:	10c8000c 	andi	r3,r2,8192
  802b44:	183f961e 	bne	r3,zero,8029a0 <__alt_mem_onchip_ram+0xff7fe9a0>
  802b48:	003f8f06 	br	802988 <__alt_mem_onchip_ram+0xff7fe988>
  802b4c:	903fdc1e 	bne	r18,zero,802ac0 <__alt_mem_onchip_ram+0xff7feac0>
  802b50:	a805883a 	mov	r2,r21
  802b54:	003fb106 	br	802a1c <__alt_mem_onchip_ram+0xff7fea1c>

00802b58 <fread>:
  802b58:	defffe04 	addi	sp,sp,-8
  802b5c:	00802074 	movhi	r2,129
  802b60:	d9c00015 	stw	r7,0(sp)
  802b64:	109ad304 	addi	r2,r2,27468
  802b68:	300f883a 	mov	r7,r6
  802b6c:	280d883a 	mov	r6,r5
  802b70:	200b883a 	mov	r5,r4
  802b74:	11000017 	ldw	r4,0(r2)
  802b78:	dfc00115 	stw	ra,4(sp)
  802b7c:	080291c0 	call	80291c <_fread_r>
  802b80:	dfc00117 	ldw	ra,4(sp)
  802b84:	dec00204 	addi	sp,sp,8
  802b88:	f800283a 	ret

00802b8c <_malloc_trim_r>:
  802b8c:	defffb04 	addi	sp,sp,-20
  802b90:	dcc00315 	stw	r19,12(sp)
  802b94:	04c02074 	movhi	r19,129
  802b98:	dc800215 	stw	r18,8(sp)
  802b9c:	dc400115 	stw	r17,4(sp)
  802ba0:	dc000015 	stw	r16,0(sp)
  802ba4:	dfc00415 	stw	ra,16(sp)
  802ba8:	2821883a 	mov	r16,r5
  802bac:	9cd54e04 	addi	r19,r19,21816
  802bb0:	2025883a 	mov	r18,r4
  802bb4:	08127cc0 	call	8127cc <__malloc_lock>
  802bb8:	98800217 	ldw	r2,8(r19)
  802bbc:	14400117 	ldw	r17,4(r2)
  802bc0:	00bfff04 	movi	r2,-4
  802bc4:	88a2703a 	and	r17,r17,r2
  802bc8:	8c21c83a 	sub	r16,r17,r16
  802bcc:	8403fbc4 	addi	r16,r16,4079
  802bd0:	8020d33a 	srli	r16,r16,12
  802bd4:	0083ffc4 	movi	r2,4095
  802bd8:	843fffc4 	addi	r16,r16,-1
  802bdc:	8020933a 	slli	r16,r16,12
  802be0:	1400060e 	bge	r2,r16,802bfc <_malloc_trim_r+0x70>
  802be4:	000b883a 	mov	r5,zero
  802be8:	9009883a 	mov	r4,r18
  802bec:	08043140 	call	804314 <_sbrk_r>
  802bf0:	98c00217 	ldw	r3,8(r19)
  802bf4:	1c47883a 	add	r3,r3,r17
  802bf8:	10c00a26 	beq	r2,r3,802c24 <_malloc_trim_r+0x98>
  802bfc:	9009883a 	mov	r4,r18
  802c00:	08127f00 	call	8127f0 <__malloc_unlock>
  802c04:	0005883a 	mov	r2,zero
  802c08:	dfc00417 	ldw	ra,16(sp)
  802c0c:	dcc00317 	ldw	r19,12(sp)
  802c10:	dc800217 	ldw	r18,8(sp)
  802c14:	dc400117 	ldw	r17,4(sp)
  802c18:	dc000017 	ldw	r16,0(sp)
  802c1c:	dec00504 	addi	sp,sp,20
  802c20:	f800283a 	ret
  802c24:	040bc83a 	sub	r5,zero,r16
  802c28:	9009883a 	mov	r4,r18
  802c2c:	08043140 	call	804314 <_sbrk_r>
  802c30:	00ffffc4 	movi	r3,-1
  802c34:	10c00d26 	beq	r2,r3,802c6c <_malloc_trim_r+0xe0>
  802c38:	00c020b4 	movhi	r3,130
  802c3c:	18e1ad04 	addi	r3,r3,-31052
  802c40:	18800017 	ldw	r2,0(r3)
  802c44:	99000217 	ldw	r4,8(r19)
  802c48:	8c23c83a 	sub	r17,r17,r16
  802c4c:	8c400054 	ori	r17,r17,1
  802c50:	1421c83a 	sub	r16,r2,r16
  802c54:	24400115 	stw	r17,4(r4)
  802c58:	9009883a 	mov	r4,r18
  802c5c:	1c000015 	stw	r16,0(r3)
  802c60:	08127f00 	call	8127f0 <__malloc_unlock>
  802c64:	00800044 	movi	r2,1
  802c68:	003fe706 	br	802c08 <__alt_mem_onchip_ram+0xff7fec08>
  802c6c:	000b883a 	mov	r5,zero
  802c70:	9009883a 	mov	r4,r18
  802c74:	08043140 	call	804314 <_sbrk_r>
  802c78:	99000217 	ldw	r4,8(r19)
  802c7c:	014003c4 	movi	r5,15
  802c80:	1107c83a 	sub	r3,r2,r4
  802c84:	28ffdd0e 	bge	r5,r3,802bfc <__alt_mem_onchip_ram+0xff7febfc>
  802c88:	01402074 	movhi	r5,129
  802c8c:	295ad604 	addi	r5,r5,27480
  802c90:	29400017 	ldw	r5,0(r5)
  802c94:	18c00054 	ori	r3,r3,1
  802c98:	20c00115 	stw	r3,4(r4)
  802c9c:	00c020b4 	movhi	r3,130
  802ca0:	1145c83a 	sub	r2,r2,r5
  802ca4:	18e1ad04 	addi	r3,r3,-31052
  802ca8:	18800015 	stw	r2,0(r3)
  802cac:	003fd306 	br	802bfc <__alt_mem_onchip_ram+0xff7febfc>

00802cb0 <_free_r>:
  802cb0:	28004126 	beq	r5,zero,802db8 <_free_r+0x108>
  802cb4:	defffd04 	addi	sp,sp,-12
  802cb8:	dc400115 	stw	r17,4(sp)
  802cbc:	dc000015 	stw	r16,0(sp)
  802cc0:	2023883a 	mov	r17,r4
  802cc4:	2821883a 	mov	r16,r5
  802cc8:	dfc00215 	stw	ra,8(sp)
  802ccc:	08127cc0 	call	8127cc <__malloc_lock>
  802cd0:	81ffff17 	ldw	r7,-4(r16)
  802cd4:	00bfff84 	movi	r2,-2
  802cd8:	01002074 	movhi	r4,129
  802cdc:	81bffe04 	addi	r6,r16,-8
  802ce0:	3884703a 	and	r2,r7,r2
  802ce4:	21154e04 	addi	r4,r4,21816
  802ce8:	308b883a 	add	r5,r6,r2
  802cec:	2a400117 	ldw	r9,4(r5)
  802cf0:	22000217 	ldw	r8,8(r4)
  802cf4:	00ffff04 	movi	r3,-4
  802cf8:	48c6703a 	and	r3,r9,r3
  802cfc:	2a005726 	beq	r5,r8,802e5c <_free_r+0x1ac>
  802d00:	28c00115 	stw	r3,4(r5)
  802d04:	39c0004c 	andi	r7,r7,1
  802d08:	3800091e 	bne	r7,zero,802d30 <_free_r+0x80>
  802d0c:	823ffe17 	ldw	r8,-8(r16)
  802d10:	22400204 	addi	r9,r4,8
  802d14:	320dc83a 	sub	r6,r6,r8
  802d18:	31c00217 	ldw	r7,8(r6)
  802d1c:	1205883a 	add	r2,r2,r8
  802d20:	3a406526 	beq	r7,r9,802eb8 <_free_r+0x208>
  802d24:	32000317 	ldw	r8,12(r6)
  802d28:	3a000315 	stw	r8,12(r7)
  802d2c:	41c00215 	stw	r7,8(r8)
  802d30:	28cf883a 	add	r7,r5,r3
  802d34:	39c00117 	ldw	r7,4(r7)
  802d38:	39c0004c 	andi	r7,r7,1
  802d3c:	38003a26 	beq	r7,zero,802e28 <_free_r+0x178>
  802d40:	10c00054 	ori	r3,r2,1
  802d44:	30c00115 	stw	r3,4(r6)
  802d48:	3087883a 	add	r3,r6,r2
  802d4c:	18800015 	stw	r2,0(r3)
  802d50:	00c07fc4 	movi	r3,511
  802d54:	18801936 	bltu	r3,r2,802dbc <_free_r+0x10c>
  802d58:	1004d0fa 	srli	r2,r2,3
  802d5c:	01c00044 	movi	r7,1
  802d60:	21400117 	ldw	r5,4(r4)
  802d64:	10c00044 	addi	r3,r2,1
  802d68:	18c7883a 	add	r3,r3,r3
  802d6c:	1005d0ba 	srai	r2,r2,2
  802d70:	18c7883a 	add	r3,r3,r3
  802d74:	18c7883a 	add	r3,r3,r3
  802d78:	1907883a 	add	r3,r3,r4
  802d7c:	3884983a 	sll	r2,r7,r2
  802d80:	19c00017 	ldw	r7,0(r3)
  802d84:	1a3ffe04 	addi	r8,r3,-8
  802d88:	1144b03a 	or	r2,r2,r5
  802d8c:	32000315 	stw	r8,12(r6)
  802d90:	31c00215 	stw	r7,8(r6)
  802d94:	20800115 	stw	r2,4(r4)
  802d98:	19800015 	stw	r6,0(r3)
  802d9c:	39800315 	stw	r6,12(r7)
  802da0:	8809883a 	mov	r4,r17
  802da4:	dfc00217 	ldw	ra,8(sp)
  802da8:	dc400117 	ldw	r17,4(sp)
  802dac:	dc000017 	ldw	r16,0(sp)
  802db0:	dec00304 	addi	sp,sp,12
  802db4:	08127f01 	jmpi	8127f0 <__malloc_unlock>
  802db8:	f800283a 	ret
  802dbc:	100ad27a 	srli	r5,r2,9
  802dc0:	00c00104 	movi	r3,4
  802dc4:	19404a36 	bltu	r3,r5,802ef0 <_free_r+0x240>
  802dc8:	100ad1ba 	srli	r5,r2,6
  802dcc:	28c00e44 	addi	r3,r5,57
  802dd0:	18c7883a 	add	r3,r3,r3
  802dd4:	29400e04 	addi	r5,r5,56
  802dd8:	18c7883a 	add	r3,r3,r3
  802ddc:	18c7883a 	add	r3,r3,r3
  802de0:	1909883a 	add	r4,r3,r4
  802de4:	20c00017 	ldw	r3,0(r4)
  802de8:	01c02074 	movhi	r7,129
  802dec:	213ffe04 	addi	r4,r4,-8
  802df0:	39d54e04 	addi	r7,r7,21816
  802df4:	20c04426 	beq	r4,r3,802f08 <_free_r+0x258>
  802df8:	01ffff04 	movi	r7,-4
  802dfc:	19400117 	ldw	r5,4(r3)
  802e00:	29ca703a 	and	r5,r5,r7
  802e04:	1140022e 	bgeu	r2,r5,802e10 <_free_r+0x160>
  802e08:	18c00217 	ldw	r3,8(r3)
  802e0c:	20fffb1e 	bne	r4,r3,802dfc <__alt_mem_onchip_ram+0xff7fedfc>
  802e10:	19000317 	ldw	r4,12(r3)
  802e14:	31000315 	stw	r4,12(r6)
  802e18:	30c00215 	stw	r3,8(r6)
  802e1c:	21800215 	stw	r6,8(r4)
  802e20:	19800315 	stw	r6,12(r3)
  802e24:	003fde06 	br	802da0 <__alt_mem_onchip_ram+0xff7feda0>
  802e28:	29c00217 	ldw	r7,8(r5)
  802e2c:	10c5883a 	add	r2,r2,r3
  802e30:	00c02074 	movhi	r3,129
  802e34:	18d55004 	addi	r3,r3,21824
  802e38:	38c03b26 	beq	r7,r3,802f28 <_free_r+0x278>
  802e3c:	2a000317 	ldw	r8,12(r5)
  802e40:	11400054 	ori	r5,r2,1
  802e44:	3087883a 	add	r3,r6,r2
  802e48:	3a000315 	stw	r8,12(r7)
  802e4c:	41c00215 	stw	r7,8(r8)
  802e50:	31400115 	stw	r5,4(r6)
  802e54:	18800015 	stw	r2,0(r3)
  802e58:	003fbd06 	br	802d50 <__alt_mem_onchip_ram+0xff7fed50>
  802e5c:	39c0004c 	andi	r7,r7,1
  802e60:	10c5883a 	add	r2,r2,r3
  802e64:	3800071e 	bne	r7,zero,802e84 <_free_r+0x1d4>
  802e68:	81fffe17 	ldw	r7,-8(r16)
  802e6c:	31cdc83a 	sub	r6,r6,r7
  802e70:	30c00317 	ldw	r3,12(r6)
  802e74:	31400217 	ldw	r5,8(r6)
  802e78:	11c5883a 	add	r2,r2,r7
  802e7c:	28c00315 	stw	r3,12(r5)
  802e80:	19400215 	stw	r5,8(r3)
  802e84:	10c00054 	ori	r3,r2,1
  802e88:	30c00115 	stw	r3,4(r6)
  802e8c:	00c02074 	movhi	r3,129
  802e90:	18dad704 	addi	r3,r3,27484
  802e94:	18c00017 	ldw	r3,0(r3)
  802e98:	21800215 	stw	r6,8(r4)
  802e9c:	10ffc036 	bltu	r2,r3,802da0 <__alt_mem_onchip_ram+0xff7feda0>
  802ea0:	008020b4 	movhi	r2,130
  802ea4:	10a1a404 	addi	r2,r2,-31088
  802ea8:	11400017 	ldw	r5,0(r2)
  802eac:	8809883a 	mov	r4,r17
  802eb0:	0802b8c0 	call	802b8c <_malloc_trim_r>
  802eb4:	003fba06 	br	802da0 <__alt_mem_onchip_ram+0xff7feda0>
  802eb8:	28c9883a 	add	r4,r5,r3
  802ebc:	21000117 	ldw	r4,4(r4)
  802ec0:	2100004c 	andi	r4,r4,1
  802ec4:	2000391e 	bne	r4,zero,802fac <_free_r+0x2fc>
  802ec8:	29c00217 	ldw	r7,8(r5)
  802ecc:	29000317 	ldw	r4,12(r5)
  802ed0:	1885883a 	add	r2,r3,r2
  802ed4:	10c00054 	ori	r3,r2,1
  802ed8:	39000315 	stw	r4,12(r7)
  802edc:	21c00215 	stw	r7,8(r4)
  802ee0:	30c00115 	stw	r3,4(r6)
  802ee4:	308d883a 	add	r6,r6,r2
  802ee8:	30800015 	stw	r2,0(r6)
  802eec:	003fac06 	br	802da0 <__alt_mem_onchip_ram+0xff7feda0>
  802ef0:	00c00504 	movi	r3,20
  802ef4:	19401536 	bltu	r3,r5,802f4c <_free_r+0x29c>
  802ef8:	28c01704 	addi	r3,r5,92
  802efc:	18c7883a 	add	r3,r3,r3
  802f00:	294016c4 	addi	r5,r5,91
  802f04:	003fb406 	br	802dd8 <__alt_mem_onchip_ram+0xff7fedd8>
  802f08:	280bd0ba 	srai	r5,r5,2
  802f0c:	00c00044 	movi	r3,1
  802f10:	38800117 	ldw	r2,4(r7)
  802f14:	194a983a 	sll	r5,r3,r5
  802f18:	2007883a 	mov	r3,r4
  802f1c:	2884b03a 	or	r2,r5,r2
  802f20:	38800115 	stw	r2,4(r7)
  802f24:	003fbb06 	br	802e14 <__alt_mem_onchip_ram+0xff7fee14>
  802f28:	21800515 	stw	r6,20(r4)
  802f2c:	21800415 	stw	r6,16(r4)
  802f30:	10c00054 	ori	r3,r2,1
  802f34:	31c00315 	stw	r7,12(r6)
  802f38:	31c00215 	stw	r7,8(r6)
  802f3c:	30c00115 	stw	r3,4(r6)
  802f40:	308d883a 	add	r6,r6,r2
  802f44:	30800015 	stw	r2,0(r6)
  802f48:	003f9506 	br	802da0 <__alt_mem_onchip_ram+0xff7feda0>
  802f4c:	00c01504 	movi	r3,84
  802f50:	19400536 	bltu	r3,r5,802f68 <_free_r+0x2b8>
  802f54:	100ad33a 	srli	r5,r2,12
  802f58:	28c01bc4 	addi	r3,r5,111
  802f5c:	18c7883a 	add	r3,r3,r3
  802f60:	29401b84 	addi	r5,r5,110
  802f64:	003f9c06 	br	802dd8 <__alt_mem_onchip_ram+0xff7fedd8>
  802f68:	00c05504 	movi	r3,340
  802f6c:	19400536 	bltu	r3,r5,802f84 <_free_r+0x2d4>
  802f70:	100ad3fa 	srli	r5,r2,15
  802f74:	28c01e04 	addi	r3,r5,120
  802f78:	18c7883a 	add	r3,r3,r3
  802f7c:	29401dc4 	addi	r5,r5,119
  802f80:	003f9506 	br	802dd8 <__alt_mem_onchip_ram+0xff7fedd8>
  802f84:	00c15504 	movi	r3,1364
  802f88:	19400536 	bltu	r3,r5,802fa0 <_free_r+0x2f0>
  802f8c:	100ad4ba 	srli	r5,r2,18
  802f90:	28c01f44 	addi	r3,r5,125
  802f94:	18c7883a 	add	r3,r3,r3
  802f98:	29401f04 	addi	r5,r5,124
  802f9c:	003f8e06 	br	802dd8 <__alt_mem_onchip_ram+0xff7fedd8>
  802fa0:	00c03f84 	movi	r3,254
  802fa4:	01401f84 	movi	r5,126
  802fa8:	003f8b06 	br	802dd8 <__alt_mem_onchip_ram+0xff7fedd8>
  802fac:	10c00054 	ori	r3,r2,1
  802fb0:	30c00115 	stw	r3,4(r6)
  802fb4:	308d883a 	add	r6,r6,r2
  802fb8:	30800015 	stw	r2,0(r6)
  802fbc:	003f7806 	br	802da0 <__alt_mem_onchip_ram+0xff7feda0>

00802fc0 <_fwalk>:
  802fc0:	defff704 	addi	sp,sp,-36
  802fc4:	dd000415 	stw	r20,16(sp)
  802fc8:	dfc00815 	stw	ra,32(sp)
  802fcc:	ddc00715 	stw	r23,28(sp)
  802fd0:	dd800615 	stw	r22,24(sp)
  802fd4:	dd400515 	stw	r21,20(sp)
  802fd8:	dcc00315 	stw	r19,12(sp)
  802fdc:	dc800215 	stw	r18,8(sp)
  802fe0:	dc400115 	stw	r17,4(sp)
  802fe4:	dc000015 	stw	r16,0(sp)
  802fe8:	2500b804 	addi	r20,r4,736
  802fec:	a0002326 	beq	r20,zero,80307c <_fwalk+0xbc>
  802ff0:	282b883a 	mov	r21,r5
  802ff4:	002f883a 	mov	r23,zero
  802ff8:	05800044 	movi	r22,1
  802ffc:	04ffffc4 	movi	r19,-1
  803000:	a4400117 	ldw	r17,4(r20)
  803004:	a4800217 	ldw	r18,8(r20)
  803008:	8c7fffc4 	addi	r17,r17,-1
  80300c:	88000d16 	blt	r17,zero,803044 <_fwalk+0x84>
  803010:	94000304 	addi	r16,r18,12
  803014:	94800384 	addi	r18,r18,14
  803018:	8080000b 	ldhu	r2,0(r16)
  80301c:	8c7fffc4 	addi	r17,r17,-1
  803020:	813ffd04 	addi	r4,r16,-12
  803024:	b080042e 	bgeu	r22,r2,803038 <_fwalk+0x78>
  803028:	9080000f 	ldh	r2,0(r18)
  80302c:	14c00226 	beq	r2,r19,803038 <_fwalk+0x78>
  803030:	a83ee83a 	callr	r21
  803034:	b8aeb03a 	or	r23,r23,r2
  803038:	84001a04 	addi	r16,r16,104
  80303c:	94801a04 	addi	r18,r18,104
  803040:	8cfff51e 	bne	r17,r19,803018 <__alt_mem_onchip_ram+0xff7ff018>
  803044:	a5000017 	ldw	r20,0(r20)
  803048:	a03fed1e 	bne	r20,zero,803000 <__alt_mem_onchip_ram+0xff7ff000>
  80304c:	b805883a 	mov	r2,r23
  803050:	dfc00817 	ldw	ra,32(sp)
  803054:	ddc00717 	ldw	r23,28(sp)
  803058:	dd800617 	ldw	r22,24(sp)
  80305c:	dd400517 	ldw	r21,20(sp)
  803060:	dd000417 	ldw	r20,16(sp)
  803064:	dcc00317 	ldw	r19,12(sp)
  803068:	dc800217 	ldw	r18,8(sp)
  80306c:	dc400117 	ldw	r17,4(sp)
  803070:	dc000017 	ldw	r16,0(sp)
  803074:	dec00904 	addi	sp,sp,36
  803078:	f800283a 	ret
  80307c:	002f883a 	mov	r23,zero
  803080:	003ff206 	br	80304c <__alt_mem_onchip_ram+0xff7ff04c>

00803084 <_fwalk_reent>:
  803084:	defff704 	addi	sp,sp,-36
  803088:	dd000415 	stw	r20,16(sp)
  80308c:	dfc00815 	stw	ra,32(sp)
  803090:	ddc00715 	stw	r23,28(sp)
  803094:	dd800615 	stw	r22,24(sp)
  803098:	dd400515 	stw	r21,20(sp)
  80309c:	dcc00315 	stw	r19,12(sp)
  8030a0:	dc800215 	stw	r18,8(sp)
  8030a4:	dc400115 	stw	r17,4(sp)
  8030a8:	dc000015 	stw	r16,0(sp)
  8030ac:	2500b804 	addi	r20,r4,736
  8030b0:	a0002326 	beq	r20,zero,803140 <_fwalk_reent+0xbc>
  8030b4:	282b883a 	mov	r21,r5
  8030b8:	2027883a 	mov	r19,r4
  8030bc:	002f883a 	mov	r23,zero
  8030c0:	05800044 	movi	r22,1
  8030c4:	04bfffc4 	movi	r18,-1
  8030c8:	a4400117 	ldw	r17,4(r20)
  8030cc:	a4000217 	ldw	r16,8(r20)
  8030d0:	8c7fffc4 	addi	r17,r17,-1
  8030d4:	88000c16 	blt	r17,zero,803108 <_fwalk_reent+0x84>
  8030d8:	84000304 	addi	r16,r16,12
  8030dc:	8080000b 	ldhu	r2,0(r16)
  8030e0:	8c7fffc4 	addi	r17,r17,-1
  8030e4:	817ffd04 	addi	r5,r16,-12
  8030e8:	b080052e 	bgeu	r22,r2,803100 <_fwalk_reent+0x7c>
  8030ec:	8080008f 	ldh	r2,2(r16)
  8030f0:	9809883a 	mov	r4,r19
  8030f4:	14800226 	beq	r2,r18,803100 <_fwalk_reent+0x7c>
  8030f8:	a83ee83a 	callr	r21
  8030fc:	b8aeb03a 	or	r23,r23,r2
  803100:	84001a04 	addi	r16,r16,104
  803104:	8cbff51e 	bne	r17,r18,8030dc <__alt_mem_onchip_ram+0xff7ff0dc>
  803108:	a5000017 	ldw	r20,0(r20)
  80310c:	a03fee1e 	bne	r20,zero,8030c8 <__alt_mem_onchip_ram+0xff7ff0c8>
  803110:	b805883a 	mov	r2,r23
  803114:	dfc00817 	ldw	ra,32(sp)
  803118:	ddc00717 	ldw	r23,28(sp)
  80311c:	dd800617 	ldw	r22,24(sp)
  803120:	dd400517 	ldw	r21,20(sp)
  803124:	dd000417 	ldw	r20,16(sp)
  803128:	dcc00317 	ldw	r19,12(sp)
  80312c:	dc800217 	ldw	r18,8(sp)
  803130:	dc400117 	ldw	r17,4(sp)
  803134:	dc000017 	ldw	r16,0(sp)
  803138:	dec00904 	addi	sp,sp,36
  80313c:	f800283a 	ret
  803140:	002f883a 	mov	r23,zero
  803144:	003ff206 	br	803110 <__alt_mem_onchip_ram+0xff7ff110>

00803148 <iswspace>:
  803148:	00803fc4 	movi	r2,255
  80314c:	11000836 	bltu	r2,r4,803170 <iswspace+0x28>
  803150:	00802074 	movhi	r2,129
  803154:	109ad404 	addi	r2,r2,27472
  803158:	10800017 	ldw	r2,0(r2)
  80315c:	1109883a 	add	r4,r2,r4
  803160:	20800043 	ldbu	r2,1(r4)
  803164:	1080020c 	andi	r2,r2,8
  803168:	10803fcc 	andi	r2,r2,255
  80316c:	f800283a 	ret
  803170:	0005883a 	mov	r2,zero
  803174:	f800283a 	ret

00803178 <_setlocale_r>:
  803178:	30001b26 	beq	r6,zero,8031e8 <_setlocale_r+0x70>
  80317c:	01402074 	movhi	r5,129
  803180:	defffe04 	addi	sp,sp,-8
  803184:	29531304 	addi	r5,r5,19532
  803188:	3009883a 	mov	r4,r6
  80318c:	dc000015 	stw	r16,0(sp)
  803190:	dfc00115 	stw	ra,4(sp)
  803194:	3021883a 	mov	r16,r6
  803198:	08046400 	call	804640 <strcmp>
  80319c:	1000061e 	bne	r2,zero,8031b8 <_setlocale_r+0x40>
  8031a0:	00802074 	movhi	r2,129
  8031a4:	10926704 	addi	r2,r2,18844
  8031a8:	dfc00117 	ldw	ra,4(sp)
  8031ac:	dc000017 	ldw	r16,0(sp)
  8031b0:	dec00204 	addi	sp,sp,8
  8031b4:	f800283a 	ret
  8031b8:	01402074 	movhi	r5,129
  8031bc:	29526704 	addi	r5,r5,18844
  8031c0:	8009883a 	mov	r4,r16
  8031c4:	08046400 	call	804640 <strcmp>
  8031c8:	103ff526 	beq	r2,zero,8031a0 <__alt_mem_onchip_ram+0xff7ff1a0>
  8031cc:	01402074 	movhi	r5,129
  8031d0:	29533604 	addi	r5,r5,19672
  8031d4:	8009883a 	mov	r4,r16
  8031d8:	08046400 	call	804640 <strcmp>
  8031dc:	103ff026 	beq	r2,zero,8031a0 <__alt_mem_onchip_ram+0xff7ff1a0>
  8031e0:	0005883a 	mov	r2,zero
  8031e4:	003ff006 	br	8031a8 <__alt_mem_onchip_ram+0xff7ff1a8>
  8031e8:	00802074 	movhi	r2,129
  8031ec:	10926704 	addi	r2,r2,18844
  8031f0:	f800283a 	ret

008031f4 <__locale_charset>:
  8031f4:	00802074 	movhi	r2,129
  8031f8:	10953804 	addi	r2,r2,21728
  8031fc:	f800283a 	ret

00803200 <__locale_mb_cur_max>:
  803200:	00802074 	movhi	r2,129
  803204:	109ad504 	addi	r2,r2,27476
  803208:	10800017 	ldw	r2,0(r2)
  80320c:	f800283a 	ret

00803210 <__locale_msgcharset>:
  803210:	00802074 	movhi	r2,129
  803214:	10953004 	addi	r2,r2,21696
  803218:	f800283a 	ret

0080321c <__locale_cjk_lang>:
  80321c:	0005883a 	mov	r2,zero
  803220:	f800283a 	ret

00803224 <_localeconv_r>:
  803224:	00802074 	movhi	r2,129
  803228:	10954004 	addi	r2,r2,21760
  80322c:	f800283a 	ret

00803230 <setlocale>:
  803230:	00802074 	movhi	r2,129
  803234:	109ad304 	addi	r2,r2,27468
  803238:	280d883a 	mov	r6,r5
  80323c:	200b883a 	mov	r5,r4
  803240:	11000017 	ldw	r4,0(r2)
  803244:	08031781 	jmpi	803178 <_setlocale_r>

00803248 <localeconv>:
  803248:	00802074 	movhi	r2,129
  80324c:	10954004 	addi	r2,r2,21760
  803250:	f800283a 	ret

00803254 <__smakebuf_r>:
  803254:	2880030b 	ldhu	r2,12(r5)
  803258:	10c0008c 	andi	r3,r2,2
  80325c:	1800411e 	bne	r3,zero,803364 <__smakebuf_r+0x110>
  803260:	deffec04 	addi	sp,sp,-80
  803264:	dc000f15 	stw	r16,60(sp)
  803268:	2821883a 	mov	r16,r5
  80326c:	2940038f 	ldh	r5,14(r5)
  803270:	dc401015 	stw	r17,64(sp)
  803274:	dfc01315 	stw	ra,76(sp)
  803278:	dcc01215 	stw	r19,72(sp)
  80327c:	dc801115 	stw	r18,68(sp)
  803280:	2023883a 	mov	r17,r4
  803284:	28001c16 	blt	r5,zero,8032f8 <__smakebuf_r+0xa4>
  803288:	d80d883a 	mov	r6,sp
  80328c:	080a94c0 	call	80a94c <_fstat_r>
  803290:	10001816 	blt	r2,zero,8032f4 <__smakebuf_r+0xa0>
  803294:	d8800117 	ldw	r2,4(sp)
  803298:	00e00014 	movui	r3,32768
  80329c:	10bc000c 	andi	r2,r2,61440
  8032a0:	14c80020 	cmpeqi	r19,r2,8192
  8032a4:	10c03726 	beq	r2,r3,803384 <__smakebuf_r+0x130>
  8032a8:	80c0030b 	ldhu	r3,12(r16)
  8032ac:	18c20014 	ori	r3,r3,2048
  8032b0:	80c0030d 	sth	r3,12(r16)
  8032b4:	00c80004 	movi	r3,8192
  8032b8:	10c0521e 	bne	r2,r3,803404 <__smakebuf_r+0x1b0>
  8032bc:	8140038f 	ldh	r5,14(r16)
  8032c0:	8809883a 	mov	r4,r17
  8032c4:	080b55c0 	call	80b55c <_isatty_r>
  8032c8:	10004c26 	beq	r2,zero,8033fc <__smakebuf_r+0x1a8>
  8032cc:	8080030b 	ldhu	r2,12(r16)
  8032d0:	80c010c4 	addi	r3,r16,67
  8032d4:	80c00015 	stw	r3,0(r16)
  8032d8:	10800054 	ori	r2,r2,1
  8032dc:	8080030d 	sth	r2,12(r16)
  8032e0:	00800044 	movi	r2,1
  8032e4:	80c00415 	stw	r3,16(r16)
  8032e8:	80800515 	stw	r2,20(r16)
  8032ec:	04810004 	movi	r18,1024
  8032f0:	00000706 	br	803310 <__smakebuf_r+0xbc>
  8032f4:	8080030b 	ldhu	r2,12(r16)
  8032f8:	10c0200c 	andi	r3,r2,128
  8032fc:	18001f1e 	bne	r3,zero,80337c <__smakebuf_r+0x128>
  803300:	04810004 	movi	r18,1024
  803304:	10820014 	ori	r2,r2,2048
  803308:	8080030d 	sth	r2,12(r16)
  80330c:	0027883a 	mov	r19,zero
  803310:	900b883a 	mov	r5,r18
  803314:	8809883a 	mov	r4,r17
  803318:	08034100 	call	803410 <_malloc_r>
  80331c:	10002c26 	beq	r2,zero,8033d0 <__smakebuf_r+0x17c>
  803320:	80c0030b 	ldhu	r3,12(r16)
  803324:	01002034 	movhi	r4,128
  803328:	21095d04 	addi	r4,r4,9588
  80332c:	89000f15 	stw	r4,60(r17)
  803330:	18c02014 	ori	r3,r3,128
  803334:	80c0030d 	sth	r3,12(r16)
  803338:	80800015 	stw	r2,0(r16)
  80333c:	80800415 	stw	r2,16(r16)
  803340:	84800515 	stw	r18,20(r16)
  803344:	98001a1e 	bne	r19,zero,8033b0 <__smakebuf_r+0x15c>
  803348:	dfc01317 	ldw	ra,76(sp)
  80334c:	dcc01217 	ldw	r19,72(sp)
  803350:	dc801117 	ldw	r18,68(sp)
  803354:	dc401017 	ldw	r17,64(sp)
  803358:	dc000f17 	ldw	r16,60(sp)
  80335c:	dec01404 	addi	sp,sp,80
  803360:	f800283a 	ret
  803364:	288010c4 	addi	r2,r5,67
  803368:	28800015 	stw	r2,0(r5)
  80336c:	28800415 	stw	r2,16(r5)
  803370:	00800044 	movi	r2,1
  803374:	28800515 	stw	r2,20(r5)
  803378:	f800283a 	ret
  80337c:	04801004 	movi	r18,64
  803380:	003fe006 	br	803304 <__alt_mem_onchip_ram+0xff7ff304>
  803384:	81000a17 	ldw	r4,40(r16)
  803388:	00c02034 	movhi	r3,128
  80338c:	18d17704 	addi	r3,r3,17884
  803390:	20ffc51e 	bne	r4,r3,8032a8 <__alt_mem_onchip_ram+0xff7ff2a8>
  803394:	8080030b 	ldhu	r2,12(r16)
  803398:	04810004 	movi	r18,1024
  80339c:	84801315 	stw	r18,76(r16)
  8033a0:	1484b03a 	or	r2,r2,r18
  8033a4:	8080030d 	sth	r2,12(r16)
  8033a8:	0027883a 	mov	r19,zero
  8033ac:	003fd806 	br	803310 <__alt_mem_onchip_ram+0xff7ff310>
  8033b0:	8140038f 	ldh	r5,14(r16)
  8033b4:	8809883a 	mov	r4,r17
  8033b8:	080b55c0 	call	80b55c <_isatty_r>
  8033bc:	103fe226 	beq	r2,zero,803348 <__alt_mem_onchip_ram+0xff7ff348>
  8033c0:	8080030b 	ldhu	r2,12(r16)
  8033c4:	10800054 	ori	r2,r2,1
  8033c8:	8080030d 	sth	r2,12(r16)
  8033cc:	003fde06 	br	803348 <__alt_mem_onchip_ram+0xff7ff348>
  8033d0:	8080030b 	ldhu	r2,12(r16)
  8033d4:	10c0800c 	andi	r3,r2,512
  8033d8:	183fdb1e 	bne	r3,zero,803348 <__alt_mem_onchip_ram+0xff7ff348>
  8033dc:	10800094 	ori	r2,r2,2
  8033e0:	80c010c4 	addi	r3,r16,67
  8033e4:	8080030d 	sth	r2,12(r16)
  8033e8:	00800044 	movi	r2,1
  8033ec:	80c00015 	stw	r3,0(r16)
  8033f0:	80c00415 	stw	r3,16(r16)
  8033f4:	80800515 	stw	r2,20(r16)
  8033f8:	003fd306 	br	803348 <__alt_mem_onchip_ram+0xff7ff348>
  8033fc:	04810004 	movi	r18,1024
  803400:	003fc306 	br	803310 <__alt_mem_onchip_ram+0xff7ff310>
  803404:	0027883a 	mov	r19,zero
  803408:	04810004 	movi	r18,1024
  80340c:	003fc006 	br	803310 <__alt_mem_onchip_ram+0xff7ff310>

00803410 <_malloc_r>:
  803410:	defff504 	addi	sp,sp,-44
  803414:	dc800315 	stw	r18,12(sp)
  803418:	dfc00a15 	stw	ra,40(sp)
  80341c:	df000915 	stw	fp,36(sp)
  803420:	ddc00815 	stw	r23,32(sp)
  803424:	dd800715 	stw	r22,28(sp)
  803428:	dd400615 	stw	r21,24(sp)
  80342c:	dd000515 	stw	r20,20(sp)
  803430:	dcc00415 	stw	r19,16(sp)
  803434:	dc400215 	stw	r17,8(sp)
  803438:	dc000115 	stw	r16,4(sp)
  80343c:	288002c4 	addi	r2,r5,11
  803440:	00c00584 	movi	r3,22
  803444:	2025883a 	mov	r18,r4
  803448:	18807f2e 	bgeu	r3,r2,803648 <_malloc_r+0x238>
  80344c:	047ffe04 	movi	r17,-8
  803450:	1462703a 	and	r17,r2,r17
  803454:	8800a316 	blt	r17,zero,8036e4 <_malloc_r+0x2d4>
  803458:	8940a236 	bltu	r17,r5,8036e4 <_malloc_r+0x2d4>
  80345c:	08127cc0 	call	8127cc <__malloc_lock>
  803460:	00807dc4 	movi	r2,503
  803464:	1441e92e 	bgeu	r2,r17,803c0c <_malloc_r+0x7fc>
  803468:	8804d27a 	srli	r2,r17,9
  80346c:	1000a126 	beq	r2,zero,8036f4 <_malloc_r+0x2e4>
  803470:	00c00104 	movi	r3,4
  803474:	18811e36 	bltu	r3,r2,8038f0 <_malloc_r+0x4e0>
  803478:	8804d1ba 	srli	r2,r17,6
  80347c:	12000e44 	addi	r8,r2,57
  803480:	11c00e04 	addi	r7,r2,56
  803484:	4209883a 	add	r4,r8,r8
  803488:	04c02074 	movhi	r19,129
  80348c:	2109883a 	add	r4,r4,r4
  803490:	9cd54e04 	addi	r19,r19,21816
  803494:	2109883a 	add	r4,r4,r4
  803498:	9909883a 	add	r4,r19,r4
  80349c:	24000117 	ldw	r16,4(r4)
  8034a0:	213ffe04 	addi	r4,r4,-8
  8034a4:	24009726 	beq	r4,r16,803704 <_malloc_r+0x2f4>
  8034a8:	80800117 	ldw	r2,4(r16)
  8034ac:	01bfff04 	movi	r6,-4
  8034b0:	014003c4 	movi	r5,15
  8034b4:	1184703a 	and	r2,r2,r6
  8034b8:	1447c83a 	sub	r3,r2,r17
  8034bc:	28c00716 	blt	r5,r3,8034dc <_malloc_r+0xcc>
  8034c0:	1800920e 	bge	r3,zero,80370c <_malloc_r+0x2fc>
  8034c4:	84000317 	ldw	r16,12(r16)
  8034c8:	24008e26 	beq	r4,r16,803704 <_malloc_r+0x2f4>
  8034cc:	80800117 	ldw	r2,4(r16)
  8034d0:	1184703a 	and	r2,r2,r6
  8034d4:	1447c83a 	sub	r3,r2,r17
  8034d8:	28fff90e 	bge	r5,r3,8034c0 <__alt_mem_onchip_ram+0xff7ff4c0>
  8034dc:	3809883a 	mov	r4,r7
  8034e0:	01802074 	movhi	r6,129
  8034e4:	9c000417 	ldw	r16,16(r19)
  8034e8:	31954e04 	addi	r6,r6,21816
  8034ec:	32000204 	addi	r8,r6,8
  8034f0:	82013426 	beq	r16,r8,8039c4 <_malloc_r+0x5b4>
  8034f4:	80c00117 	ldw	r3,4(r16)
  8034f8:	00bfff04 	movi	r2,-4
  8034fc:	188e703a 	and	r7,r3,r2
  803500:	3c45c83a 	sub	r2,r7,r17
  803504:	00c003c4 	movi	r3,15
  803508:	18811f16 	blt	r3,r2,803988 <_malloc_r+0x578>
  80350c:	32000515 	stw	r8,20(r6)
  803510:	32000415 	stw	r8,16(r6)
  803514:	10007f0e 	bge	r2,zero,803714 <_malloc_r+0x304>
  803518:	00807fc4 	movi	r2,511
  80351c:	11c0fd36 	bltu	r2,r7,803914 <_malloc_r+0x504>
  803520:	3806d0fa 	srli	r3,r7,3
  803524:	01c00044 	movi	r7,1
  803528:	30800117 	ldw	r2,4(r6)
  80352c:	19400044 	addi	r5,r3,1
  803530:	294b883a 	add	r5,r5,r5
  803534:	1807d0ba 	srai	r3,r3,2
  803538:	294b883a 	add	r5,r5,r5
  80353c:	294b883a 	add	r5,r5,r5
  803540:	298b883a 	add	r5,r5,r6
  803544:	38c6983a 	sll	r3,r7,r3
  803548:	29c00017 	ldw	r7,0(r5)
  80354c:	2a7ffe04 	addi	r9,r5,-8
  803550:	1886b03a 	or	r3,r3,r2
  803554:	82400315 	stw	r9,12(r16)
  803558:	81c00215 	stw	r7,8(r16)
  80355c:	30c00115 	stw	r3,4(r6)
  803560:	2c000015 	stw	r16,0(r5)
  803564:	3c000315 	stw	r16,12(r7)
  803568:	2005d0ba 	srai	r2,r4,2
  80356c:	01400044 	movi	r5,1
  803570:	288a983a 	sll	r5,r5,r2
  803574:	19406f36 	bltu	r3,r5,803734 <_malloc_r+0x324>
  803578:	28c4703a 	and	r2,r5,r3
  80357c:	10000a1e 	bne	r2,zero,8035a8 <_malloc_r+0x198>
  803580:	00bfff04 	movi	r2,-4
  803584:	294b883a 	add	r5,r5,r5
  803588:	2088703a 	and	r4,r4,r2
  80358c:	28c4703a 	and	r2,r5,r3
  803590:	21000104 	addi	r4,r4,4
  803594:	1000041e 	bne	r2,zero,8035a8 <_malloc_r+0x198>
  803598:	294b883a 	add	r5,r5,r5
  80359c:	28c4703a 	and	r2,r5,r3
  8035a0:	21000104 	addi	r4,r4,4
  8035a4:	103ffc26 	beq	r2,zero,803598 <__alt_mem_onchip_ram+0xff7ff598>
  8035a8:	02bfff04 	movi	r10,-4
  8035ac:	024003c4 	movi	r9,15
  8035b0:	21800044 	addi	r6,r4,1
  8035b4:	318d883a 	add	r6,r6,r6
  8035b8:	318d883a 	add	r6,r6,r6
  8035bc:	318d883a 	add	r6,r6,r6
  8035c0:	998d883a 	add	r6,r19,r6
  8035c4:	333ffe04 	addi	r12,r6,-8
  8035c8:	2017883a 	mov	r11,r4
  8035cc:	31800104 	addi	r6,r6,4
  8035d0:	34000017 	ldw	r16,0(r6)
  8035d4:	31fffd04 	addi	r7,r6,-12
  8035d8:	81c0041e 	bne	r16,r7,8035ec <_malloc_r+0x1dc>
  8035dc:	0000fb06 	br	8039cc <_malloc_r+0x5bc>
  8035e0:	1801030e 	bge	r3,zero,8039f0 <_malloc_r+0x5e0>
  8035e4:	84000317 	ldw	r16,12(r16)
  8035e8:	81c0f826 	beq	r16,r7,8039cc <_malloc_r+0x5bc>
  8035ec:	80800117 	ldw	r2,4(r16)
  8035f0:	1284703a 	and	r2,r2,r10
  8035f4:	1447c83a 	sub	r3,r2,r17
  8035f8:	48fff90e 	bge	r9,r3,8035e0 <__alt_mem_onchip_ram+0xff7ff5e0>
  8035fc:	80800317 	ldw	r2,12(r16)
  803600:	81000217 	ldw	r4,8(r16)
  803604:	89400054 	ori	r5,r17,1
  803608:	81400115 	stw	r5,4(r16)
  80360c:	20800315 	stw	r2,12(r4)
  803610:	11000215 	stw	r4,8(r2)
  803614:	8463883a 	add	r17,r16,r17
  803618:	9c400515 	stw	r17,20(r19)
  80361c:	9c400415 	stw	r17,16(r19)
  803620:	18800054 	ori	r2,r3,1
  803624:	88800115 	stw	r2,4(r17)
  803628:	8a000315 	stw	r8,12(r17)
  80362c:	8a000215 	stw	r8,8(r17)
  803630:	88e3883a 	add	r17,r17,r3
  803634:	88c00015 	stw	r3,0(r17)
  803638:	9009883a 	mov	r4,r18
  80363c:	08127f00 	call	8127f0 <__malloc_unlock>
  803640:	80800204 	addi	r2,r16,8
  803644:	00001b06 	br	8036b4 <_malloc_r+0x2a4>
  803648:	04400404 	movi	r17,16
  80364c:	89402536 	bltu	r17,r5,8036e4 <_malloc_r+0x2d4>
  803650:	08127cc0 	call	8127cc <__malloc_lock>
  803654:	00800184 	movi	r2,6
  803658:	01000084 	movi	r4,2
  80365c:	04c02074 	movhi	r19,129
  803660:	1085883a 	add	r2,r2,r2
  803664:	9cd54e04 	addi	r19,r19,21816
  803668:	1085883a 	add	r2,r2,r2
  80366c:	9885883a 	add	r2,r19,r2
  803670:	14000117 	ldw	r16,4(r2)
  803674:	10fffe04 	addi	r3,r2,-8
  803678:	80c0d926 	beq	r16,r3,8039e0 <_malloc_r+0x5d0>
  80367c:	80c00117 	ldw	r3,4(r16)
  803680:	81000317 	ldw	r4,12(r16)
  803684:	00bfff04 	movi	r2,-4
  803688:	1884703a 	and	r2,r3,r2
  80368c:	81400217 	ldw	r5,8(r16)
  803690:	8085883a 	add	r2,r16,r2
  803694:	10c00117 	ldw	r3,4(r2)
  803698:	29000315 	stw	r4,12(r5)
  80369c:	21400215 	stw	r5,8(r4)
  8036a0:	18c00054 	ori	r3,r3,1
  8036a4:	10c00115 	stw	r3,4(r2)
  8036a8:	9009883a 	mov	r4,r18
  8036ac:	08127f00 	call	8127f0 <__malloc_unlock>
  8036b0:	80800204 	addi	r2,r16,8
  8036b4:	dfc00a17 	ldw	ra,40(sp)
  8036b8:	df000917 	ldw	fp,36(sp)
  8036bc:	ddc00817 	ldw	r23,32(sp)
  8036c0:	dd800717 	ldw	r22,28(sp)
  8036c4:	dd400617 	ldw	r21,24(sp)
  8036c8:	dd000517 	ldw	r20,20(sp)
  8036cc:	dcc00417 	ldw	r19,16(sp)
  8036d0:	dc800317 	ldw	r18,12(sp)
  8036d4:	dc400217 	ldw	r17,8(sp)
  8036d8:	dc000117 	ldw	r16,4(sp)
  8036dc:	dec00b04 	addi	sp,sp,44
  8036e0:	f800283a 	ret
  8036e4:	00800304 	movi	r2,12
  8036e8:	90800015 	stw	r2,0(r18)
  8036ec:	0005883a 	mov	r2,zero
  8036f0:	003ff006 	br	8036b4 <__alt_mem_onchip_ram+0xff7ff6b4>
  8036f4:	01002004 	movi	r4,128
  8036f8:	02001004 	movi	r8,64
  8036fc:	01c00fc4 	movi	r7,63
  803700:	003f6106 	br	803488 <__alt_mem_onchip_ram+0xff7ff488>
  803704:	4009883a 	mov	r4,r8
  803708:	003f7506 	br	8034e0 <__alt_mem_onchip_ram+0xff7ff4e0>
  80370c:	81000317 	ldw	r4,12(r16)
  803710:	003fde06 	br	80368c <__alt_mem_onchip_ram+0xff7ff68c>
  803714:	81c5883a 	add	r2,r16,r7
  803718:	11400117 	ldw	r5,4(r2)
  80371c:	9009883a 	mov	r4,r18
  803720:	29400054 	ori	r5,r5,1
  803724:	11400115 	stw	r5,4(r2)
  803728:	08127f00 	call	8127f0 <__malloc_unlock>
  80372c:	80800204 	addi	r2,r16,8
  803730:	003fe006 	br	8036b4 <__alt_mem_onchip_ram+0xff7ff6b4>
  803734:	9c000217 	ldw	r16,8(r19)
  803738:	00bfff04 	movi	r2,-4
  80373c:	85800117 	ldw	r22,4(r16)
  803740:	b0ac703a 	and	r22,r22,r2
  803744:	b4400336 	bltu	r22,r17,803754 <_malloc_r+0x344>
  803748:	b445c83a 	sub	r2,r22,r17
  80374c:	00c003c4 	movi	r3,15
  803750:	18805d16 	blt	r3,r2,8038c8 <_malloc_r+0x4b8>
  803754:	05c02074 	movhi	r23,129
  803758:	008020b4 	movhi	r2,130
  80375c:	10a1a404 	addi	r2,r2,-31088
  803760:	bddad604 	addi	r23,r23,27480
  803764:	15400017 	ldw	r21,0(r2)
  803768:	b8c00017 	ldw	r3,0(r23)
  80376c:	00bfffc4 	movi	r2,-1
  803770:	858d883a 	add	r6,r16,r22
  803774:	8d6b883a 	add	r21,r17,r21
  803778:	1880ea26 	beq	r3,r2,803b24 <_malloc_r+0x714>
  80377c:	ad4403c4 	addi	r21,r21,4111
  803780:	00bc0004 	movi	r2,-4096
  803784:	a8aa703a 	and	r21,r21,r2
  803788:	a80b883a 	mov	r5,r21
  80378c:	9009883a 	mov	r4,r18
  803790:	d9800015 	stw	r6,0(sp)
  803794:	08043140 	call	804314 <_sbrk_r>
  803798:	1029883a 	mov	r20,r2
  80379c:	00bfffc4 	movi	r2,-1
  8037a0:	d9800017 	ldw	r6,0(sp)
  8037a4:	a080e826 	beq	r20,r2,803b48 <_malloc_r+0x738>
  8037a8:	a180a636 	bltu	r20,r6,803a44 <_malloc_r+0x634>
  8037ac:	070020b4 	movhi	fp,130
  8037b0:	e721ad04 	addi	fp,fp,-31052
  8037b4:	e0800017 	ldw	r2,0(fp)
  8037b8:	a887883a 	add	r3,r21,r2
  8037bc:	e0c00015 	stw	r3,0(fp)
  8037c0:	3500e626 	beq	r6,r20,803b5c <_malloc_r+0x74c>
  8037c4:	b9000017 	ldw	r4,0(r23)
  8037c8:	00bfffc4 	movi	r2,-1
  8037cc:	2080ee26 	beq	r4,r2,803b88 <_malloc_r+0x778>
  8037d0:	a185c83a 	sub	r2,r20,r6
  8037d4:	10c5883a 	add	r2,r2,r3
  8037d8:	e0800015 	stw	r2,0(fp)
  8037dc:	a0c001cc 	andi	r3,r20,7
  8037e0:	1800bc26 	beq	r3,zero,803ad4 <_malloc_r+0x6c4>
  8037e4:	a0e9c83a 	sub	r20,r20,r3
  8037e8:	00840204 	movi	r2,4104
  8037ec:	a5000204 	addi	r20,r20,8
  8037f0:	10c7c83a 	sub	r3,r2,r3
  8037f4:	a545883a 	add	r2,r20,r21
  8037f8:	1083ffcc 	andi	r2,r2,4095
  8037fc:	18abc83a 	sub	r21,r3,r2
  803800:	a80b883a 	mov	r5,r21
  803804:	9009883a 	mov	r4,r18
  803808:	08043140 	call	804314 <_sbrk_r>
  80380c:	00ffffc4 	movi	r3,-1
  803810:	10c0e126 	beq	r2,r3,803b98 <_malloc_r+0x788>
  803814:	1505c83a 	sub	r2,r2,r20
  803818:	1545883a 	add	r2,r2,r21
  80381c:	10800054 	ori	r2,r2,1
  803820:	e0c00017 	ldw	r3,0(fp)
  803824:	9d000215 	stw	r20,8(r19)
  803828:	a0800115 	stw	r2,4(r20)
  80382c:	a8c7883a 	add	r3,r21,r3
  803830:	e0c00015 	stw	r3,0(fp)
  803834:	84c00e26 	beq	r16,r19,803870 <_malloc_r+0x460>
  803838:	018003c4 	movi	r6,15
  80383c:	3580a72e 	bgeu	r6,r22,803adc <_malloc_r+0x6cc>
  803840:	81400117 	ldw	r5,4(r16)
  803844:	013ffe04 	movi	r4,-8
  803848:	b0bffd04 	addi	r2,r22,-12
  80384c:	1104703a 	and	r2,r2,r4
  803850:	2900004c 	andi	r4,r5,1
  803854:	2088b03a 	or	r4,r4,r2
  803858:	81000115 	stw	r4,4(r16)
  80385c:	01400144 	movi	r5,5
  803860:	8089883a 	add	r4,r16,r2
  803864:	21400115 	stw	r5,4(r4)
  803868:	21400215 	stw	r5,8(r4)
  80386c:	3080cd36 	bltu	r6,r2,803ba4 <_malloc_r+0x794>
  803870:	008020b4 	movhi	r2,130
  803874:	10a1a304 	addi	r2,r2,-31092
  803878:	11000017 	ldw	r4,0(r2)
  80387c:	20c0012e 	bgeu	r4,r3,803884 <_malloc_r+0x474>
  803880:	10c00015 	stw	r3,0(r2)
  803884:	008020b4 	movhi	r2,130
  803888:	10a1a204 	addi	r2,r2,-31096
  80388c:	11000017 	ldw	r4,0(r2)
  803890:	9c000217 	ldw	r16,8(r19)
  803894:	20c0012e 	bgeu	r4,r3,80389c <_malloc_r+0x48c>
  803898:	10c00015 	stw	r3,0(r2)
  80389c:	80c00117 	ldw	r3,4(r16)
  8038a0:	00bfff04 	movi	r2,-4
  8038a4:	1886703a 	and	r3,r3,r2
  8038a8:	1c45c83a 	sub	r2,r3,r17
  8038ac:	1c400236 	bltu	r3,r17,8038b8 <_malloc_r+0x4a8>
  8038b0:	00c003c4 	movi	r3,15
  8038b4:	18800416 	blt	r3,r2,8038c8 <_malloc_r+0x4b8>
  8038b8:	9009883a 	mov	r4,r18
  8038bc:	08127f00 	call	8127f0 <__malloc_unlock>
  8038c0:	0005883a 	mov	r2,zero
  8038c4:	003f7b06 	br	8036b4 <__alt_mem_onchip_ram+0xff7ff6b4>
  8038c8:	88c00054 	ori	r3,r17,1
  8038cc:	80c00115 	stw	r3,4(r16)
  8038d0:	8463883a 	add	r17,r16,r17
  8038d4:	10800054 	ori	r2,r2,1
  8038d8:	9c400215 	stw	r17,8(r19)
  8038dc:	88800115 	stw	r2,4(r17)
  8038e0:	9009883a 	mov	r4,r18
  8038e4:	08127f00 	call	8127f0 <__malloc_unlock>
  8038e8:	80800204 	addi	r2,r16,8
  8038ec:	003f7106 	br	8036b4 <__alt_mem_onchip_ram+0xff7ff6b4>
  8038f0:	00c00504 	movi	r3,20
  8038f4:	18804a2e 	bgeu	r3,r2,803a20 <_malloc_r+0x610>
  8038f8:	00c01504 	movi	r3,84
  8038fc:	18806e36 	bltu	r3,r2,803ab8 <_malloc_r+0x6a8>
  803900:	8804d33a 	srli	r2,r17,12
  803904:	12001bc4 	addi	r8,r2,111
  803908:	11c01b84 	addi	r7,r2,110
  80390c:	4209883a 	add	r4,r8,r8
  803910:	003edd06 	br	803488 <__alt_mem_onchip_ram+0xff7ff488>
  803914:	3804d27a 	srli	r2,r7,9
  803918:	00c00104 	movi	r3,4
  80391c:	1880442e 	bgeu	r3,r2,803a30 <_malloc_r+0x620>
  803920:	00c00504 	movi	r3,20
  803924:	18808136 	bltu	r3,r2,803b2c <_malloc_r+0x71c>
  803928:	11401704 	addi	r5,r2,92
  80392c:	10c016c4 	addi	r3,r2,91
  803930:	294b883a 	add	r5,r5,r5
  803934:	294b883a 	add	r5,r5,r5
  803938:	294b883a 	add	r5,r5,r5
  80393c:	994b883a 	add	r5,r19,r5
  803940:	28800017 	ldw	r2,0(r5)
  803944:	01802074 	movhi	r6,129
  803948:	297ffe04 	addi	r5,r5,-8
  80394c:	31954e04 	addi	r6,r6,21816
  803950:	28806526 	beq	r5,r2,803ae8 <_malloc_r+0x6d8>
  803954:	01bfff04 	movi	r6,-4
  803958:	10c00117 	ldw	r3,4(r2)
  80395c:	1986703a 	and	r3,r3,r6
  803960:	38c0022e 	bgeu	r7,r3,80396c <_malloc_r+0x55c>
  803964:	10800217 	ldw	r2,8(r2)
  803968:	28bffb1e 	bne	r5,r2,803958 <__alt_mem_onchip_ram+0xff7ff958>
  80396c:	11400317 	ldw	r5,12(r2)
  803970:	98c00117 	ldw	r3,4(r19)
  803974:	81400315 	stw	r5,12(r16)
  803978:	80800215 	stw	r2,8(r16)
  80397c:	2c000215 	stw	r16,8(r5)
  803980:	14000315 	stw	r16,12(r2)
  803984:	003ef806 	br	803568 <__alt_mem_onchip_ram+0xff7ff568>
  803988:	88c00054 	ori	r3,r17,1
  80398c:	80c00115 	stw	r3,4(r16)
  803990:	8463883a 	add	r17,r16,r17
  803994:	34400515 	stw	r17,20(r6)
  803998:	34400415 	stw	r17,16(r6)
  80399c:	10c00054 	ori	r3,r2,1
  8039a0:	8a000315 	stw	r8,12(r17)
  8039a4:	8a000215 	stw	r8,8(r17)
  8039a8:	88c00115 	stw	r3,4(r17)
  8039ac:	88a3883a 	add	r17,r17,r2
  8039b0:	88800015 	stw	r2,0(r17)
  8039b4:	9009883a 	mov	r4,r18
  8039b8:	08127f00 	call	8127f0 <__malloc_unlock>
  8039bc:	80800204 	addi	r2,r16,8
  8039c0:	003f3c06 	br	8036b4 <__alt_mem_onchip_ram+0xff7ff6b4>
  8039c4:	30c00117 	ldw	r3,4(r6)
  8039c8:	003ee706 	br	803568 <__alt_mem_onchip_ram+0xff7ff568>
  8039cc:	5ac00044 	addi	r11,r11,1
  8039d0:	588000cc 	andi	r2,r11,3
  8039d4:	31800204 	addi	r6,r6,8
  8039d8:	103efd1e 	bne	r2,zero,8035d0 <__alt_mem_onchip_ram+0xff7ff5d0>
  8039dc:	00002406 	br	803a70 <_malloc_r+0x660>
  8039e0:	14000317 	ldw	r16,12(r2)
  8039e4:	143f251e 	bne	r2,r16,80367c <__alt_mem_onchip_ram+0xff7ff67c>
  8039e8:	21000084 	addi	r4,r4,2
  8039ec:	003ebc06 	br	8034e0 <__alt_mem_onchip_ram+0xff7ff4e0>
  8039f0:	8085883a 	add	r2,r16,r2
  8039f4:	10c00117 	ldw	r3,4(r2)
  8039f8:	81000317 	ldw	r4,12(r16)
  8039fc:	81400217 	ldw	r5,8(r16)
  803a00:	18c00054 	ori	r3,r3,1
  803a04:	10c00115 	stw	r3,4(r2)
  803a08:	29000315 	stw	r4,12(r5)
  803a0c:	21400215 	stw	r5,8(r4)
  803a10:	9009883a 	mov	r4,r18
  803a14:	08127f00 	call	8127f0 <__malloc_unlock>
  803a18:	80800204 	addi	r2,r16,8
  803a1c:	003f2506 	br	8036b4 <__alt_mem_onchip_ram+0xff7ff6b4>
  803a20:	12001704 	addi	r8,r2,92
  803a24:	11c016c4 	addi	r7,r2,91
  803a28:	4209883a 	add	r4,r8,r8
  803a2c:	003e9606 	br	803488 <__alt_mem_onchip_ram+0xff7ff488>
  803a30:	3804d1ba 	srli	r2,r7,6
  803a34:	11400e44 	addi	r5,r2,57
  803a38:	10c00e04 	addi	r3,r2,56
  803a3c:	294b883a 	add	r5,r5,r5
  803a40:	003fbc06 	br	803934 <__alt_mem_onchip_ram+0xff7ff934>
  803a44:	84ff5926 	beq	r16,r19,8037ac <__alt_mem_onchip_ram+0xff7ff7ac>
  803a48:	00802074 	movhi	r2,129
  803a4c:	10954e04 	addi	r2,r2,21816
  803a50:	14000217 	ldw	r16,8(r2)
  803a54:	00bfff04 	movi	r2,-4
  803a58:	80c00117 	ldw	r3,4(r16)
  803a5c:	1886703a 	and	r3,r3,r2
  803a60:	003f9106 	br	8038a8 <__alt_mem_onchip_ram+0xff7ff8a8>
  803a64:	60800217 	ldw	r2,8(r12)
  803a68:	213fffc4 	addi	r4,r4,-1
  803a6c:	1300651e 	bne	r2,r12,803c04 <_malloc_r+0x7f4>
  803a70:	208000cc 	andi	r2,r4,3
  803a74:	633ffe04 	addi	r12,r12,-8
  803a78:	103ffa1e 	bne	r2,zero,803a64 <__alt_mem_onchip_ram+0xff7ffa64>
  803a7c:	98800117 	ldw	r2,4(r19)
  803a80:	0146303a 	nor	r3,zero,r5
  803a84:	1884703a 	and	r2,r3,r2
  803a88:	98800115 	stw	r2,4(r19)
  803a8c:	294b883a 	add	r5,r5,r5
  803a90:	117f2836 	bltu	r2,r5,803734 <__alt_mem_onchip_ram+0xff7ff734>
  803a94:	283f2726 	beq	r5,zero,803734 <__alt_mem_onchip_ram+0xff7ff734>
  803a98:	2886703a 	and	r3,r5,r2
  803a9c:	5809883a 	mov	r4,r11
  803aa0:	183ec31e 	bne	r3,zero,8035b0 <__alt_mem_onchip_ram+0xff7ff5b0>
  803aa4:	294b883a 	add	r5,r5,r5
  803aa8:	2886703a 	and	r3,r5,r2
  803aac:	21000104 	addi	r4,r4,4
  803ab0:	183ffc26 	beq	r3,zero,803aa4 <__alt_mem_onchip_ram+0xff7ffaa4>
  803ab4:	003ebe06 	br	8035b0 <__alt_mem_onchip_ram+0xff7ff5b0>
  803ab8:	00c05504 	movi	r3,340
  803abc:	18801236 	bltu	r3,r2,803b08 <_malloc_r+0x6f8>
  803ac0:	8804d3fa 	srli	r2,r17,15
  803ac4:	12001e04 	addi	r8,r2,120
  803ac8:	11c01dc4 	addi	r7,r2,119
  803acc:	4209883a 	add	r4,r8,r8
  803ad0:	003e6d06 	br	803488 <__alt_mem_onchip_ram+0xff7ff488>
  803ad4:	00c40004 	movi	r3,4096
  803ad8:	003f4606 	br	8037f4 <__alt_mem_onchip_ram+0xff7ff7f4>
  803adc:	00800044 	movi	r2,1
  803ae0:	a0800115 	stw	r2,4(r20)
  803ae4:	003f7406 	br	8038b8 <__alt_mem_onchip_ram+0xff7ff8b8>
  803ae8:	1805d0ba 	srai	r2,r3,2
  803aec:	01c00044 	movi	r7,1
  803af0:	30c00117 	ldw	r3,4(r6)
  803af4:	388e983a 	sll	r7,r7,r2
  803af8:	2805883a 	mov	r2,r5
  803afc:	38c6b03a 	or	r3,r7,r3
  803b00:	30c00115 	stw	r3,4(r6)
  803b04:	003f9b06 	br	803974 <__alt_mem_onchip_ram+0xff7ff974>
  803b08:	00c15504 	movi	r3,1364
  803b0c:	18801a36 	bltu	r3,r2,803b78 <_malloc_r+0x768>
  803b10:	8804d4ba 	srli	r2,r17,18
  803b14:	12001f44 	addi	r8,r2,125
  803b18:	11c01f04 	addi	r7,r2,124
  803b1c:	4209883a 	add	r4,r8,r8
  803b20:	003e5906 	br	803488 <__alt_mem_onchip_ram+0xff7ff488>
  803b24:	ad400404 	addi	r21,r21,16
  803b28:	003f1706 	br	803788 <__alt_mem_onchip_ram+0xff7ff788>
  803b2c:	00c01504 	movi	r3,84
  803b30:	18802336 	bltu	r3,r2,803bc0 <_malloc_r+0x7b0>
  803b34:	3804d33a 	srli	r2,r7,12
  803b38:	11401bc4 	addi	r5,r2,111
  803b3c:	10c01b84 	addi	r3,r2,110
  803b40:	294b883a 	add	r5,r5,r5
  803b44:	003f7b06 	br	803934 <__alt_mem_onchip_ram+0xff7ff934>
  803b48:	9c000217 	ldw	r16,8(r19)
  803b4c:	00bfff04 	movi	r2,-4
  803b50:	80c00117 	ldw	r3,4(r16)
  803b54:	1886703a 	and	r3,r3,r2
  803b58:	003f5306 	br	8038a8 <__alt_mem_onchip_ram+0xff7ff8a8>
  803b5c:	3083ffcc 	andi	r2,r6,4095
  803b60:	103f181e 	bne	r2,zero,8037c4 <__alt_mem_onchip_ram+0xff7ff7c4>
  803b64:	99000217 	ldw	r4,8(r19)
  803b68:	b545883a 	add	r2,r22,r21
  803b6c:	10800054 	ori	r2,r2,1
  803b70:	20800115 	stw	r2,4(r4)
  803b74:	003f3e06 	br	803870 <__alt_mem_onchip_ram+0xff7ff870>
  803b78:	01003f84 	movi	r4,254
  803b7c:	02001fc4 	movi	r8,127
  803b80:	01c01f84 	movi	r7,126
  803b84:	003e4006 	br	803488 <__alt_mem_onchip_ram+0xff7ff488>
  803b88:	00802074 	movhi	r2,129
  803b8c:	109ad604 	addi	r2,r2,27480
  803b90:	15000015 	stw	r20,0(r2)
  803b94:	003f1106 	br	8037dc <__alt_mem_onchip_ram+0xff7ff7dc>
  803b98:	00800044 	movi	r2,1
  803b9c:	002b883a 	mov	r21,zero
  803ba0:	003f1f06 	br	803820 <__alt_mem_onchip_ram+0xff7ff820>
  803ba4:	81400204 	addi	r5,r16,8
  803ba8:	9009883a 	mov	r4,r18
  803bac:	0802cb00 	call	802cb0 <_free_r>
  803bb0:	008020b4 	movhi	r2,130
  803bb4:	10a1ad04 	addi	r2,r2,-31052
  803bb8:	10c00017 	ldw	r3,0(r2)
  803bbc:	003f2c06 	br	803870 <__alt_mem_onchip_ram+0xff7ff870>
  803bc0:	00c05504 	movi	r3,340
  803bc4:	18800536 	bltu	r3,r2,803bdc <_malloc_r+0x7cc>
  803bc8:	3804d3fa 	srli	r2,r7,15
  803bcc:	11401e04 	addi	r5,r2,120
  803bd0:	10c01dc4 	addi	r3,r2,119
  803bd4:	294b883a 	add	r5,r5,r5
  803bd8:	003f5606 	br	803934 <__alt_mem_onchip_ram+0xff7ff934>
  803bdc:	00c15504 	movi	r3,1364
  803be0:	18800536 	bltu	r3,r2,803bf8 <_malloc_r+0x7e8>
  803be4:	3804d4ba 	srli	r2,r7,18
  803be8:	11401f44 	addi	r5,r2,125
  803bec:	10c01f04 	addi	r3,r2,124
  803bf0:	294b883a 	add	r5,r5,r5
  803bf4:	003f4f06 	br	803934 <__alt_mem_onchip_ram+0xff7ff934>
  803bf8:	01403f84 	movi	r5,254
  803bfc:	00c01f84 	movi	r3,126
  803c00:	003f4c06 	br	803934 <__alt_mem_onchip_ram+0xff7ff934>
  803c04:	98800117 	ldw	r2,4(r19)
  803c08:	003fa006 	br	803a8c <__alt_mem_onchip_ram+0xff7ffa8c>
  803c0c:	8808d0fa 	srli	r4,r17,3
  803c10:	20800044 	addi	r2,r4,1
  803c14:	1085883a 	add	r2,r2,r2
  803c18:	003e9006 	br	80365c <__alt_mem_onchip_ram+0xff7ff65c>

00803c1c <_mbrtowc_r>:
  803c1c:	defff704 	addi	sp,sp,-36
  803c20:	00802074 	movhi	r2,129
  803c24:	dc800715 	stw	r18,28(sp)
  803c28:	dc400615 	stw	r17,24(sp)
  803c2c:	dc000515 	stw	r16,20(sp)
  803c30:	109ad804 	addi	r2,r2,27488
  803c34:	dfc00815 	stw	ra,32(sp)
  803c38:	2021883a 	mov	r16,r4
  803c3c:	dc400917 	ldw	r17,36(sp)
  803c40:	14800017 	ldw	r18,0(r2)
  803c44:	30001626 	beq	r6,zero,803ca0 <_mbrtowc_r+0x84>
  803c48:	d9400215 	stw	r5,8(sp)
  803c4c:	d9800315 	stw	r6,12(sp)
  803c50:	d9c00415 	stw	r7,16(sp)
  803c54:	08031f40 	call	8031f4 <__locale_charset>
  803c58:	d9c00417 	ldw	r7,16(sp)
  803c5c:	d9800317 	ldw	r6,12(sp)
  803c60:	d9400217 	ldw	r5,8(sp)
  803c64:	d8800015 	stw	r2,0(sp)
  803c68:	dc400115 	stw	r17,4(sp)
  803c6c:	8009883a 	mov	r4,r16
  803c70:	903ee83a 	callr	r18
  803c74:	00ffffc4 	movi	r3,-1
  803c78:	10c0031e 	bne	r2,r3,803c88 <_mbrtowc_r+0x6c>
  803c7c:	88000015 	stw	zero,0(r17)
  803c80:	00c02284 	movi	r3,138
  803c84:	80c00015 	stw	r3,0(r16)
  803c88:	dfc00817 	ldw	ra,32(sp)
  803c8c:	dc800717 	ldw	r18,28(sp)
  803c90:	dc400617 	ldw	r17,24(sp)
  803c94:	dc000517 	ldw	r16,20(sp)
  803c98:	dec00904 	addi	sp,sp,36
  803c9c:	f800283a 	ret
  803ca0:	08031f40 	call	8031f4 <__locale_charset>
  803ca4:	01802074 	movhi	r6,129
  803ca8:	31933604 	addi	r6,r6,19672
  803cac:	dc400115 	stw	r17,4(sp)
  803cb0:	d8800015 	stw	r2,0(sp)
  803cb4:	01c00044 	movi	r7,1
  803cb8:	000b883a 	mov	r5,zero
  803cbc:	8009883a 	mov	r4,r16
  803cc0:	903ee83a 	callr	r18
  803cc4:	003feb06 	br	803c74 <__alt_mem_onchip_ram+0xff7ffc74>

00803cc8 <mbrtowc>:
  803cc8:	defff704 	addi	sp,sp,-36
  803ccc:	00802074 	movhi	r2,129
  803cd0:	dc800415 	stw	r18,16(sp)
  803cd4:	dc400315 	stw	r17,12(sp)
  803cd8:	109ad304 	addi	r2,r2,27468
  803cdc:	dfc00815 	stw	ra,32(sp)
  803ce0:	dd400715 	stw	r21,28(sp)
  803ce4:	dd000615 	stw	r20,24(sp)
  803ce8:	dcc00515 	stw	r19,20(sp)
  803cec:	dc000215 	stw	r16,8(sp)
  803cf0:	3825883a 	mov	r18,r7
  803cf4:	14400017 	ldw	r17,0(r2)
  803cf8:	28001c26 	beq	r5,zero,803d6c <mbrtowc+0xa4>
  803cfc:	00802074 	movhi	r2,129
  803d00:	109ad804 	addi	r2,r2,27488
  803d04:	15400017 	ldw	r21,0(r2)
  803d08:	2821883a 	mov	r16,r5
  803d0c:	2027883a 	mov	r19,r4
  803d10:	3029883a 	mov	r20,r6
  803d14:	08031f40 	call	8031f4 <__locale_charset>
  803d18:	d8800015 	stw	r2,0(sp)
  803d1c:	dc800115 	stw	r18,4(sp)
  803d20:	a00f883a 	mov	r7,r20
  803d24:	800d883a 	mov	r6,r16
  803d28:	980b883a 	mov	r5,r19
  803d2c:	8809883a 	mov	r4,r17
  803d30:	a83ee83a 	callr	r21
  803d34:	00ffffc4 	movi	r3,-1
  803d38:	10c0031e 	bne	r2,r3,803d48 <mbrtowc+0x80>
  803d3c:	90000015 	stw	zero,0(r18)
  803d40:	00c02284 	movi	r3,138
  803d44:	88c00015 	stw	r3,0(r17)
  803d48:	dfc00817 	ldw	ra,32(sp)
  803d4c:	dd400717 	ldw	r21,28(sp)
  803d50:	dd000617 	ldw	r20,24(sp)
  803d54:	dcc00517 	ldw	r19,20(sp)
  803d58:	dc800417 	ldw	r18,16(sp)
  803d5c:	dc400317 	ldw	r17,12(sp)
  803d60:	dc000217 	ldw	r16,8(sp)
  803d64:	dec00904 	addi	sp,sp,36
  803d68:	f800283a 	ret
  803d6c:	00802074 	movhi	r2,129
  803d70:	109ad804 	addi	r2,r2,27488
  803d74:	14000017 	ldw	r16,0(r2)
  803d78:	08031f40 	call	8031f4 <__locale_charset>
  803d7c:	01802074 	movhi	r6,129
  803d80:	31933604 	addi	r6,r6,19672
  803d84:	dc800115 	stw	r18,4(sp)
  803d88:	d8800015 	stw	r2,0(sp)
  803d8c:	01c00044 	movi	r7,1
  803d90:	000b883a 	mov	r5,zero
  803d94:	8809883a 	mov	r4,r17
  803d98:	803ee83a 	callr	r16
  803d9c:	003fe506 	br	803d34 <__alt_mem_onchip_ram+0xff7ffd34>

00803da0 <__ascii_mbtowc>:
  803da0:	deffff04 	addi	sp,sp,-4
  803da4:	28000826 	beq	r5,zero,803dc8 <__ascii_mbtowc+0x28>
  803da8:	30000926 	beq	r6,zero,803dd0 <__ascii_mbtowc+0x30>
  803dac:	38000b26 	beq	r7,zero,803ddc <__ascii_mbtowc+0x3c>
  803db0:	30800003 	ldbu	r2,0(r6)
  803db4:	28800015 	stw	r2,0(r5)
  803db8:	30800003 	ldbu	r2,0(r6)
  803dbc:	1004c03a 	cmpne	r2,r2,zero
  803dc0:	dec00104 	addi	sp,sp,4
  803dc4:	f800283a 	ret
  803dc8:	d80b883a 	mov	r5,sp
  803dcc:	303ff71e 	bne	r6,zero,803dac <__alt_mem_onchip_ram+0xff7ffdac>
  803dd0:	0005883a 	mov	r2,zero
  803dd4:	dec00104 	addi	sp,sp,4
  803dd8:	f800283a 	ret
  803ddc:	00bfff84 	movi	r2,-2
  803de0:	003ff706 	br	803dc0 <__alt_mem_onchip_ram+0xff7ffdc0>

00803de4 <_mbtowc_r>:
  803de4:	00802074 	movhi	r2,129
  803de8:	defff804 	addi	sp,sp,-32
  803dec:	109ad804 	addi	r2,r2,27488
  803df0:	dfc00715 	stw	ra,28(sp)
  803df4:	dc000615 	stw	r16,24(sp)
  803df8:	14000017 	ldw	r16,0(r2)
  803dfc:	d9000215 	stw	r4,8(sp)
  803e00:	d9400315 	stw	r5,12(sp)
  803e04:	d9800415 	stw	r6,16(sp)
  803e08:	d9c00515 	stw	r7,20(sp)
  803e0c:	08031f40 	call	8031f4 <__locale_charset>
  803e10:	d8800015 	stw	r2,0(sp)
  803e14:	d8800817 	ldw	r2,32(sp)
  803e18:	d9c00517 	ldw	r7,20(sp)
  803e1c:	d9800417 	ldw	r6,16(sp)
  803e20:	d9400317 	ldw	r5,12(sp)
  803e24:	d9000217 	ldw	r4,8(sp)
  803e28:	d8800115 	stw	r2,4(sp)
  803e2c:	803ee83a 	callr	r16
  803e30:	dfc00717 	ldw	ra,28(sp)
  803e34:	dc000617 	ldw	r16,24(sp)
  803e38:	dec00804 	addi	sp,sp,32
  803e3c:	f800283a 	ret

00803e40 <memcpy>:
  803e40:	defffd04 	addi	sp,sp,-12
  803e44:	dfc00215 	stw	ra,8(sp)
  803e48:	dc400115 	stw	r17,4(sp)
  803e4c:	dc000015 	stw	r16,0(sp)
  803e50:	00c003c4 	movi	r3,15
  803e54:	2005883a 	mov	r2,r4
  803e58:	1980452e 	bgeu	r3,r6,803f70 <memcpy+0x130>
  803e5c:	2906b03a 	or	r3,r5,r4
  803e60:	18c000cc 	andi	r3,r3,3
  803e64:	1800441e 	bne	r3,zero,803f78 <memcpy+0x138>
  803e68:	347ffc04 	addi	r17,r6,-16
  803e6c:	8822d13a 	srli	r17,r17,4
  803e70:	28c00104 	addi	r3,r5,4
  803e74:	23400104 	addi	r13,r4,4
  803e78:	8820913a 	slli	r16,r17,4
  803e7c:	2b000204 	addi	r12,r5,8
  803e80:	22c00204 	addi	r11,r4,8
  803e84:	84000504 	addi	r16,r16,20
  803e88:	2a800304 	addi	r10,r5,12
  803e8c:	22400304 	addi	r9,r4,12
  803e90:	2c21883a 	add	r16,r5,r16
  803e94:	2811883a 	mov	r8,r5
  803e98:	200f883a 	mov	r7,r4
  803e9c:	41000017 	ldw	r4,0(r8)
  803ea0:	1fc00017 	ldw	ra,0(r3)
  803ea4:	63c00017 	ldw	r15,0(r12)
  803ea8:	39000015 	stw	r4,0(r7)
  803eac:	53800017 	ldw	r14,0(r10)
  803eb0:	6fc00015 	stw	ra,0(r13)
  803eb4:	5bc00015 	stw	r15,0(r11)
  803eb8:	4b800015 	stw	r14,0(r9)
  803ebc:	18c00404 	addi	r3,r3,16
  803ec0:	39c00404 	addi	r7,r7,16
  803ec4:	42000404 	addi	r8,r8,16
  803ec8:	6b400404 	addi	r13,r13,16
  803ecc:	63000404 	addi	r12,r12,16
  803ed0:	5ac00404 	addi	r11,r11,16
  803ed4:	52800404 	addi	r10,r10,16
  803ed8:	4a400404 	addi	r9,r9,16
  803edc:	1c3fef1e 	bne	r3,r16,803e9c <__alt_mem_onchip_ram+0xff7ffe9c>
  803ee0:	89c00044 	addi	r7,r17,1
  803ee4:	380e913a 	slli	r7,r7,4
  803ee8:	310003cc 	andi	r4,r6,15
  803eec:	02c000c4 	movi	r11,3
  803ef0:	11c7883a 	add	r3,r2,r7
  803ef4:	29cb883a 	add	r5,r5,r7
  803ef8:	5900212e 	bgeu	r11,r4,803f80 <memcpy+0x140>
  803efc:	1813883a 	mov	r9,r3
  803f00:	2811883a 	mov	r8,r5
  803f04:	200f883a 	mov	r7,r4
  803f08:	42800017 	ldw	r10,0(r8)
  803f0c:	4a400104 	addi	r9,r9,4
  803f10:	39ffff04 	addi	r7,r7,-4
  803f14:	4abfff15 	stw	r10,-4(r9)
  803f18:	42000104 	addi	r8,r8,4
  803f1c:	59fffa36 	bltu	r11,r7,803f08 <__alt_mem_onchip_ram+0xff7fff08>
  803f20:	213fff04 	addi	r4,r4,-4
  803f24:	2008d0ba 	srli	r4,r4,2
  803f28:	318000cc 	andi	r6,r6,3
  803f2c:	21000044 	addi	r4,r4,1
  803f30:	2109883a 	add	r4,r4,r4
  803f34:	2109883a 	add	r4,r4,r4
  803f38:	1907883a 	add	r3,r3,r4
  803f3c:	290b883a 	add	r5,r5,r4
  803f40:	30000626 	beq	r6,zero,803f5c <memcpy+0x11c>
  803f44:	198d883a 	add	r6,r3,r6
  803f48:	29c00003 	ldbu	r7,0(r5)
  803f4c:	18c00044 	addi	r3,r3,1
  803f50:	29400044 	addi	r5,r5,1
  803f54:	19ffffc5 	stb	r7,-1(r3)
  803f58:	19bffb1e 	bne	r3,r6,803f48 <__alt_mem_onchip_ram+0xff7fff48>
  803f5c:	dfc00217 	ldw	ra,8(sp)
  803f60:	dc400117 	ldw	r17,4(sp)
  803f64:	dc000017 	ldw	r16,0(sp)
  803f68:	dec00304 	addi	sp,sp,12
  803f6c:	f800283a 	ret
  803f70:	2007883a 	mov	r3,r4
  803f74:	003ff206 	br	803f40 <__alt_mem_onchip_ram+0xff7fff40>
  803f78:	2007883a 	mov	r3,r4
  803f7c:	003ff106 	br	803f44 <__alt_mem_onchip_ram+0xff7fff44>
  803f80:	200d883a 	mov	r6,r4
  803f84:	003fee06 	br	803f40 <__alt_mem_onchip_ram+0xff7fff40>

00803f88 <memset>:
  803f88:	20c000cc 	andi	r3,r4,3
  803f8c:	2005883a 	mov	r2,r4
  803f90:	18004426 	beq	r3,zero,8040a4 <memset+0x11c>
  803f94:	31ffffc4 	addi	r7,r6,-1
  803f98:	30004026 	beq	r6,zero,80409c <memset+0x114>
  803f9c:	2813883a 	mov	r9,r5
  803fa0:	200d883a 	mov	r6,r4
  803fa4:	2007883a 	mov	r3,r4
  803fa8:	00000406 	br	803fbc <memset+0x34>
  803fac:	3a3fffc4 	addi	r8,r7,-1
  803fb0:	31800044 	addi	r6,r6,1
  803fb4:	38003926 	beq	r7,zero,80409c <memset+0x114>
  803fb8:	400f883a 	mov	r7,r8
  803fbc:	18c00044 	addi	r3,r3,1
  803fc0:	32400005 	stb	r9,0(r6)
  803fc4:	1a0000cc 	andi	r8,r3,3
  803fc8:	403ff81e 	bne	r8,zero,803fac <__alt_mem_onchip_ram+0xff7fffac>
  803fcc:	010000c4 	movi	r4,3
  803fd0:	21c02d2e 	bgeu	r4,r7,804088 <memset+0x100>
  803fd4:	29003fcc 	andi	r4,r5,255
  803fd8:	200c923a 	slli	r6,r4,8
  803fdc:	3108b03a 	or	r4,r6,r4
  803fe0:	200c943a 	slli	r6,r4,16
  803fe4:	218cb03a 	or	r6,r4,r6
  803fe8:	010003c4 	movi	r4,15
  803fec:	21c0182e 	bgeu	r4,r7,804050 <memset+0xc8>
  803ff0:	3b3ffc04 	addi	r12,r7,-16
  803ff4:	6018d13a 	srli	r12,r12,4
  803ff8:	1a000104 	addi	r8,r3,4
  803ffc:	1ac00204 	addi	r11,r3,8
  804000:	6008913a 	slli	r4,r12,4
  804004:	1a800304 	addi	r10,r3,12
  804008:	1813883a 	mov	r9,r3
  80400c:	21000504 	addi	r4,r4,20
  804010:	1909883a 	add	r4,r3,r4
  804014:	49800015 	stw	r6,0(r9)
  804018:	41800015 	stw	r6,0(r8)
  80401c:	59800015 	stw	r6,0(r11)
  804020:	51800015 	stw	r6,0(r10)
  804024:	42000404 	addi	r8,r8,16
  804028:	4a400404 	addi	r9,r9,16
  80402c:	5ac00404 	addi	r11,r11,16
  804030:	52800404 	addi	r10,r10,16
  804034:	413ff71e 	bne	r8,r4,804014 <__alt_mem_onchip_ram+0xff800014>
  804038:	63000044 	addi	r12,r12,1
  80403c:	6018913a 	slli	r12,r12,4
  804040:	39c003cc 	andi	r7,r7,15
  804044:	010000c4 	movi	r4,3
  804048:	1b07883a 	add	r3,r3,r12
  80404c:	21c00e2e 	bgeu	r4,r7,804088 <memset+0x100>
  804050:	1813883a 	mov	r9,r3
  804054:	3811883a 	mov	r8,r7
  804058:	010000c4 	movi	r4,3
  80405c:	49800015 	stw	r6,0(r9)
  804060:	423fff04 	addi	r8,r8,-4
  804064:	4a400104 	addi	r9,r9,4
  804068:	223ffc36 	bltu	r4,r8,80405c <__alt_mem_onchip_ram+0xff80005c>
  80406c:	393fff04 	addi	r4,r7,-4
  804070:	2008d0ba 	srli	r4,r4,2
  804074:	39c000cc 	andi	r7,r7,3
  804078:	21000044 	addi	r4,r4,1
  80407c:	2109883a 	add	r4,r4,r4
  804080:	2109883a 	add	r4,r4,r4
  804084:	1907883a 	add	r3,r3,r4
  804088:	38000526 	beq	r7,zero,8040a0 <memset+0x118>
  80408c:	19cf883a 	add	r7,r3,r7
  804090:	19400005 	stb	r5,0(r3)
  804094:	18c00044 	addi	r3,r3,1
  804098:	38fffd1e 	bne	r7,r3,804090 <__alt_mem_onchip_ram+0xff800090>
  80409c:	f800283a 	ret
  8040a0:	f800283a 	ret
  8040a4:	2007883a 	mov	r3,r4
  8040a8:	300f883a 	mov	r7,r6
  8040ac:	003fc706 	br	803fcc <__alt_mem_onchip_ram+0xff7fffcc>

008040b0 <lflush>:
  8040b0:	2080030b 	ldhu	r2,12(r4)
  8040b4:	00c00244 	movi	r3,9
  8040b8:	1080024c 	andi	r2,r2,9
  8040bc:	10c00226 	beq	r2,r3,8040c8 <lflush+0x18>
  8040c0:	0005883a 	mov	r2,zero
  8040c4:	f800283a 	ret
  8040c8:	080253c1 	jmpi	80253c <fflush>

008040cc <__srefill_r>:
  8040cc:	defffc04 	addi	sp,sp,-16
  8040d0:	dc400115 	stw	r17,4(sp)
  8040d4:	dc000015 	stw	r16,0(sp)
  8040d8:	dfc00315 	stw	ra,12(sp)
  8040dc:	dc800215 	stw	r18,8(sp)
  8040e0:	2023883a 	mov	r17,r4
  8040e4:	2821883a 	mov	r16,r5
  8040e8:	20000226 	beq	r4,zero,8040f4 <__srefill_r+0x28>
  8040ec:	20800e17 	ldw	r2,56(r4)
  8040f0:	10003c26 	beq	r2,zero,8041e4 <__srefill_r+0x118>
  8040f4:	80c0030b 	ldhu	r3,12(r16)
  8040f8:	1908000c 	andi	r4,r3,8192
  8040fc:	1805883a 	mov	r2,r3
  804100:	2000071e 	bne	r4,zero,804120 <__srefill_r+0x54>
  804104:	81001917 	ldw	r4,100(r16)
  804108:	18880014 	ori	r2,r3,8192
  80410c:	00f7ffc4 	movi	r3,-8193
  804110:	20c8703a 	and	r4,r4,r3
  804114:	8080030d 	sth	r2,12(r16)
  804118:	1007883a 	mov	r3,r2
  80411c:	81001915 	stw	r4,100(r16)
  804120:	80000115 	stw	zero,4(r16)
  804124:	1100080c 	andi	r4,r2,32
  804128:	2000571e 	bne	r4,zero,804288 <__srefill_r+0x1bc>
  80412c:	1100010c 	andi	r4,r2,4
  804130:	20001f26 	beq	r4,zero,8041b0 <__srefill_r+0xe4>
  804134:	81400c17 	ldw	r5,48(r16)
  804138:	28000826 	beq	r5,zero,80415c <__srefill_r+0x90>
  80413c:	80801004 	addi	r2,r16,64
  804140:	28800226 	beq	r5,r2,80414c <__srefill_r+0x80>
  804144:	8809883a 	mov	r4,r17
  804148:	0802cb00 	call	802cb0 <_free_r>
  80414c:	80800f17 	ldw	r2,60(r16)
  804150:	80000c15 	stw	zero,48(r16)
  804154:	80800115 	stw	r2,4(r16)
  804158:	1000391e 	bne	r2,zero,804240 <__srefill_r+0x174>
  80415c:	80800417 	ldw	r2,16(r16)
  804160:	10004b26 	beq	r2,zero,804290 <__srefill_r+0x1c4>
  804164:	8480030b 	ldhu	r18,12(r16)
  804168:	908000cc 	andi	r2,r18,3
  80416c:	10001f1e 	bne	r2,zero,8041ec <__srefill_r+0x120>
  804170:	81800417 	ldw	r6,16(r16)
  804174:	80800817 	ldw	r2,32(r16)
  804178:	81c00517 	ldw	r7,20(r16)
  80417c:	81400717 	ldw	r5,28(r16)
  804180:	81800015 	stw	r6,0(r16)
  804184:	8809883a 	mov	r4,r17
  804188:	103ee83a 	callr	r2
  80418c:	80800115 	stw	r2,4(r16)
  804190:	00800e0e 	bge	zero,r2,8041cc <__srefill_r+0x100>
  804194:	0005883a 	mov	r2,zero
  804198:	dfc00317 	ldw	ra,12(sp)
  80419c:	dc800217 	ldw	r18,8(sp)
  8041a0:	dc400117 	ldw	r17,4(sp)
  8041a4:	dc000017 	ldw	r16,0(sp)
  8041a8:	dec00404 	addi	sp,sp,16
  8041ac:	f800283a 	ret
  8041b0:	1100040c 	andi	r4,r2,16
  8041b4:	20003026 	beq	r4,zero,804278 <__srefill_r+0x1ac>
  8041b8:	1080020c 	andi	r2,r2,8
  8041bc:	1000241e 	bne	r2,zero,804250 <__srefill_r+0x184>
  8041c0:	18c00114 	ori	r3,r3,4
  8041c4:	80c0030d 	sth	r3,12(r16)
  8041c8:	003fe406 	br	80415c <__alt_mem_onchip_ram+0xff80015c>
  8041cc:	80c0030b 	ldhu	r3,12(r16)
  8041d0:	1000161e 	bne	r2,zero,80422c <__srefill_r+0x160>
  8041d4:	18c00814 	ori	r3,r3,32
  8041d8:	00bfffc4 	movi	r2,-1
  8041dc:	80c0030d 	sth	r3,12(r16)
  8041e0:	003fed06 	br	804198 <__alt_mem_onchip_ram+0xff800198>
  8041e4:	08028cc0 	call	8028cc <__sinit>
  8041e8:	003fc206 	br	8040f4 <__alt_mem_onchip_ram+0xff8000f4>
  8041ec:	00802074 	movhi	r2,129
  8041f0:	109ad204 	addi	r2,r2,27464
  8041f4:	11000017 	ldw	r4,0(r2)
  8041f8:	01402034 	movhi	r5,128
  8041fc:	00800044 	movi	r2,1
  804200:	29502c04 	addi	r5,r5,16560
  804204:	8080030d 	sth	r2,12(r16)
  804208:	0802fc00 	call	802fc0 <_fwalk>
  80420c:	00800244 	movi	r2,9
  804210:	8480030d 	sth	r18,12(r16)
  804214:	9480024c 	andi	r18,r18,9
  804218:	90bfd51e 	bne	r18,r2,804170 <__alt_mem_onchip_ram+0xff800170>
  80421c:	800b883a 	mov	r5,r16
  804220:	8809883a 	mov	r4,r17
  804224:	08022c40 	call	8022c4 <__sflush_r>
  804228:	003fd106 	br	804170 <__alt_mem_onchip_ram+0xff800170>
  80422c:	18c01014 	ori	r3,r3,64
  804230:	80000115 	stw	zero,4(r16)
  804234:	00bfffc4 	movi	r2,-1
  804238:	80c0030d 	sth	r3,12(r16)
  80423c:	003fd606 	br	804198 <__alt_mem_onchip_ram+0xff800198>
  804240:	80c00e17 	ldw	r3,56(r16)
  804244:	0005883a 	mov	r2,zero
  804248:	80c00015 	stw	r3,0(r16)
  80424c:	003fd206 	br	804198 <__alt_mem_onchip_ram+0xff800198>
  804250:	800b883a 	mov	r5,r16
  804254:	8809883a 	mov	r4,r17
  804258:	08024e00 	call	8024e0 <_fflush_r>
  80425c:	10000a1e 	bne	r2,zero,804288 <__srefill_r+0x1bc>
  804260:	8080030b 	ldhu	r2,12(r16)
  804264:	00fffdc4 	movi	r3,-9
  804268:	80000215 	stw	zero,8(r16)
  80426c:	1886703a 	and	r3,r3,r2
  804270:	80000615 	stw	zero,24(r16)
  804274:	003fd206 	br	8041c0 <__alt_mem_onchip_ram+0xff8001c0>
  804278:	00800244 	movi	r2,9
  80427c:	88800015 	stw	r2,0(r17)
  804280:	18c01014 	ori	r3,r3,64
  804284:	80c0030d 	sth	r3,12(r16)
  804288:	00bfffc4 	movi	r2,-1
  80428c:	003fc206 	br	804198 <__alt_mem_onchip_ram+0xff800198>
  804290:	800b883a 	mov	r5,r16
  804294:	8809883a 	mov	r4,r17
  804298:	08032540 	call	803254 <__smakebuf_r>
  80429c:	003fb106 	br	804164 <__alt_mem_onchip_ram+0xff800164>

008042a0 <__fpclassifyd>:
  8042a0:	00a00034 	movhi	r2,32768
  8042a4:	10bfffc4 	addi	r2,r2,-1
  8042a8:	2884703a 	and	r2,r5,r2
  8042ac:	10000726 	beq	r2,zero,8042cc <__fpclassifyd+0x2c>
  8042b0:	00fffc34 	movhi	r3,65520
  8042b4:	019ff834 	movhi	r6,32736
  8042b8:	28c7883a 	add	r3,r5,r3
  8042bc:	31bfffc4 	addi	r6,r6,-1
  8042c0:	30c00536 	bltu	r6,r3,8042d8 <__fpclassifyd+0x38>
  8042c4:	00800104 	movi	r2,4
  8042c8:	f800283a 	ret
  8042cc:	2000021e 	bne	r4,zero,8042d8 <__fpclassifyd+0x38>
  8042d0:	00800084 	movi	r2,2
  8042d4:	f800283a 	ret
  8042d8:	00dffc34 	movhi	r3,32752
  8042dc:	019ff834 	movhi	r6,32736
  8042e0:	28cb883a 	add	r5,r5,r3
  8042e4:	31bfffc4 	addi	r6,r6,-1
  8042e8:	317ff62e 	bgeu	r6,r5,8042c4 <__alt_mem_onchip_ram+0xff8002c4>
  8042ec:	01400434 	movhi	r5,16
  8042f0:	297fffc4 	addi	r5,r5,-1
  8042f4:	28800236 	bltu	r5,r2,804300 <__fpclassifyd+0x60>
  8042f8:	008000c4 	movi	r2,3
  8042fc:	f800283a 	ret
  804300:	10c00226 	beq	r2,r3,80430c <__fpclassifyd+0x6c>
  804304:	0005883a 	mov	r2,zero
  804308:	f800283a 	ret
  80430c:	2005003a 	cmpeq	r2,r4,zero
  804310:	f800283a 	ret

00804314 <_sbrk_r>:
  804314:	defffd04 	addi	sp,sp,-12
  804318:	dc000015 	stw	r16,0(sp)
  80431c:	040020b4 	movhi	r16,130
  804320:	dc400115 	stw	r17,4(sp)
  804324:	8421a504 	addi	r16,r16,-31084
  804328:	2023883a 	mov	r17,r4
  80432c:	2809883a 	mov	r4,r5
  804330:	dfc00215 	stw	ra,8(sp)
  804334:	80000015 	stw	zero,0(r16)
  804338:	08129ec0 	call	8129ec <sbrk>
  80433c:	00ffffc4 	movi	r3,-1
  804340:	10c00526 	beq	r2,r3,804358 <_sbrk_r+0x44>
  804344:	dfc00217 	ldw	ra,8(sp)
  804348:	dc400117 	ldw	r17,4(sp)
  80434c:	dc000017 	ldw	r16,0(sp)
  804350:	dec00304 	addi	sp,sp,12
  804354:	f800283a 	ret
  804358:	80c00017 	ldw	r3,0(r16)
  80435c:	183ff926 	beq	r3,zero,804344 <__alt_mem_onchip_ram+0xff800344>
  804360:	88c00015 	stw	r3,0(r17)
  804364:	003ff706 	br	804344 <__alt_mem_onchip_ram+0xff800344>

00804368 <__sccl>:
  804368:	2a000003 	ldbu	r8,0(r5)
  80436c:	00801784 	movi	r2,94
  804370:	40802a26 	beq	r8,r2,80441c <__sccl+0xb4>
  804374:	29400044 	addi	r5,r5,1
  804378:	000f883a 	mov	r7,zero
  80437c:	0013883a 	mov	r9,zero
  804380:	2007883a 	mov	r3,r4
  804384:	21804004 	addi	r6,r4,256
  804388:	19c00005 	stb	r7,0(r3)
  80438c:	18c00044 	addi	r3,r3,1
  804390:	19bffd1e 	bne	r3,r6,804388 <__alt_mem_onchip_ram+0xff800388>
  804394:	40001126 	beq	r8,zero,8043dc <__sccl+0x74>
  804398:	00800044 	movi	r2,1
  80439c:	124fc83a 	sub	r7,r2,r9
  8043a0:	02800b44 	movi	r10,45
  8043a4:	02c01744 	movi	r11,93
  8043a8:	2205883a 	add	r2,r4,r8
  8043ac:	11c00005 	stb	r7,0(r2)
  8043b0:	28800044 	addi	r2,r5,1
  8043b4:	28c00003 	ldbu	r3,0(r5)
  8043b8:	1a800a26 	beq	r3,r10,8043e4 <__sccl+0x7c>
  8043bc:	1ac00426 	beq	r3,r11,8043d0 <__sccl+0x68>
  8043c0:	18000426 	beq	r3,zero,8043d4 <__sccl+0x6c>
  8043c4:	1811883a 	mov	r8,r3
  8043c8:	100b883a 	mov	r5,r2
  8043cc:	003ff606 	br	8043a8 <__alt_mem_onchip_ram+0xff8003a8>
  8043d0:	f800283a 	ret
  8043d4:	2805883a 	mov	r2,r5
  8043d8:	f800283a 	ret
  8043dc:	28bfffc4 	addi	r2,r5,-1
  8043e0:	f800283a 	ret
  8043e4:	12400003 	ldbu	r9,0(r2)
  8043e8:	4ac01126 	beq	r9,r11,804430 <__sccl+0xc8>
  8043ec:	4a001016 	blt	r9,r8,804430 <__sccl+0xc8>
  8043f0:	41800044 	addi	r6,r8,1
  8043f4:	29400084 	addi	r5,r5,2
  8043f8:	2187883a 	add	r3,r4,r6
  8043fc:	00000106 	br	804404 <__sccl+0x9c>
  804400:	31800044 	addi	r6,r6,1
  804404:	19c00005 	stb	r7,0(r3)
  804408:	3011883a 	mov	r8,r6
  80440c:	18c00044 	addi	r3,r3,1
  804410:	327ffb16 	blt	r6,r9,804400 <__alt_mem_onchip_ram+0xff800400>
  804414:	10800084 	addi	r2,r2,2
  804418:	003fe606 	br	8043b4 <__alt_mem_onchip_ram+0xff8003b4>
  80441c:	2a000043 	ldbu	r8,1(r5)
  804420:	01c00044 	movi	r7,1
  804424:	29400084 	addi	r5,r5,2
  804428:	02400044 	movi	r9,1
  80442c:	003fd406 	br	804380 <__alt_mem_onchip_ram+0xff800380>
  804430:	5011883a 	mov	r8,r10
  804434:	003fe406 	br	8043c8 <__alt_mem_onchip_ram+0xff8003c8>

00804438 <nanf>:
  804438:	009ff034 	movhi	r2,32704
  80443c:	f800283a 	ret

00804440 <_sprintf_r>:
  804440:	deffe404 	addi	sp,sp,-112
  804444:	2807883a 	mov	r3,r5
  804448:	dfc01a15 	stw	ra,104(sp)
  80444c:	d9c01b15 	stw	r7,108(sp)
  804450:	00a00034 	movhi	r2,32768
  804454:	10bfffc4 	addi	r2,r2,-1
  804458:	02008204 	movi	r8,520
  80445c:	d8800215 	stw	r2,8(sp)
  804460:	d8800515 	stw	r2,20(sp)
  804464:	d9c01b04 	addi	r7,sp,108
  804468:	d80b883a 	mov	r5,sp
  80446c:	00bfffc4 	movi	r2,-1
  804470:	d8c00015 	stw	r3,0(sp)
  804474:	d8c00415 	stw	r3,16(sp)
  804478:	da00030d 	sth	r8,12(sp)
  80447c:	d880038d 	sth	r2,14(sp)
  804480:	08069a80 	call	8069a8 <___svfprintf_internal_r>
  804484:	d8c00017 	ldw	r3,0(sp)
  804488:	18000005 	stb	zero,0(r3)
  80448c:	dfc01a17 	ldw	ra,104(sp)
  804490:	dec01c04 	addi	sp,sp,112
  804494:	f800283a 	ret

00804498 <sprintf>:
  804498:	deffe304 	addi	sp,sp,-116
  80449c:	2007883a 	mov	r3,r4
  8044a0:	dfc01a15 	stw	ra,104(sp)
  8044a4:	d9801b15 	stw	r6,108(sp)
  8044a8:	d9c01c15 	stw	r7,112(sp)
  8044ac:	01002074 	movhi	r4,129
  8044b0:	211ad304 	addi	r4,r4,27468
  8044b4:	21000017 	ldw	r4,0(r4)
  8044b8:	00a00034 	movhi	r2,32768
  8044bc:	10bfffc4 	addi	r2,r2,-1
  8044c0:	280d883a 	mov	r6,r5
  8044c4:	02008204 	movi	r8,520
  8044c8:	d8800215 	stw	r2,8(sp)
  8044cc:	d8800515 	stw	r2,20(sp)
  8044d0:	d9c01b04 	addi	r7,sp,108
  8044d4:	d80b883a 	mov	r5,sp
  8044d8:	00bfffc4 	movi	r2,-1
  8044dc:	d8c00015 	stw	r3,0(sp)
  8044e0:	d8c00415 	stw	r3,16(sp)
  8044e4:	da00030d 	sth	r8,12(sp)
  8044e8:	d880038d 	sth	r2,14(sp)
  8044ec:	08069a80 	call	8069a8 <___svfprintf_internal_r>
  8044f0:	d8c00017 	ldw	r3,0(sp)
  8044f4:	18000005 	stb	zero,0(r3)
  8044f8:	dfc01a17 	ldw	ra,104(sp)
  8044fc:	dec01d04 	addi	sp,sp,116
  804500:	f800283a 	ret

00804504 <__sread>:
  804504:	defffe04 	addi	sp,sp,-8
  804508:	dc000015 	stw	r16,0(sp)
  80450c:	2821883a 	mov	r16,r5
  804510:	2940038f 	ldh	r5,14(r5)
  804514:	dfc00115 	stw	ra,4(sp)
  804518:	080c7ac0 	call	80c7ac <_read_r>
  80451c:	10000716 	blt	r2,zero,80453c <__sread+0x38>
  804520:	80c01417 	ldw	r3,80(r16)
  804524:	1887883a 	add	r3,r3,r2
  804528:	80c01415 	stw	r3,80(r16)
  80452c:	dfc00117 	ldw	ra,4(sp)
  804530:	dc000017 	ldw	r16,0(sp)
  804534:	dec00204 	addi	sp,sp,8
  804538:	f800283a 	ret
  80453c:	80c0030b 	ldhu	r3,12(r16)
  804540:	18fbffcc 	andi	r3,r3,61439
  804544:	80c0030d 	sth	r3,12(r16)
  804548:	dfc00117 	ldw	ra,4(sp)
  80454c:	dc000017 	ldw	r16,0(sp)
  804550:	dec00204 	addi	sp,sp,8
  804554:	f800283a 	ret

00804558 <__seofread>:
  804558:	0005883a 	mov	r2,zero
  80455c:	f800283a 	ret

00804560 <__swrite>:
  804560:	2880030b 	ldhu	r2,12(r5)
  804564:	defffb04 	addi	sp,sp,-20
  804568:	dcc00315 	stw	r19,12(sp)
  80456c:	dc800215 	stw	r18,8(sp)
  804570:	dc400115 	stw	r17,4(sp)
  804574:	dc000015 	stw	r16,0(sp)
  804578:	dfc00415 	stw	ra,16(sp)
  80457c:	10c0400c 	andi	r3,r2,256
  804580:	2821883a 	mov	r16,r5
  804584:	2023883a 	mov	r17,r4
  804588:	3025883a 	mov	r18,r6
  80458c:	3827883a 	mov	r19,r7
  804590:	18000526 	beq	r3,zero,8045a8 <__swrite+0x48>
  804594:	2940038f 	ldh	r5,14(r5)
  804598:	01c00084 	movi	r7,2
  80459c:	000d883a 	mov	r6,zero
  8045a0:	080b5b00 	call	80b5b0 <_lseek_r>
  8045a4:	8080030b 	ldhu	r2,12(r16)
  8045a8:	8140038f 	ldh	r5,14(r16)
  8045ac:	10bbffcc 	andi	r2,r2,61439
  8045b0:	980f883a 	mov	r7,r19
  8045b4:	900d883a 	mov	r6,r18
  8045b8:	8809883a 	mov	r4,r17
  8045bc:	8080030d 	sth	r2,12(r16)
  8045c0:	dfc00417 	ldw	ra,16(sp)
  8045c4:	dcc00317 	ldw	r19,12(sp)
  8045c8:	dc800217 	ldw	r18,8(sp)
  8045cc:	dc400117 	ldw	r17,4(sp)
  8045d0:	dc000017 	ldw	r16,0(sp)
  8045d4:	dec00504 	addi	sp,sp,20
  8045d8:	0808ee41 	jmpi	808ee4 <_write_r>

008045dc <__sseek>:
  8045dc:	defffe04 	addi	sp,sp,-8
  8045e0:	dc000015 	stw	r16,0(sp)
  8045e4:	2821883a 	mov	r16,r5
  8045e8:	2940038f 	ldh	r5,14(r5)
  8045ec:	dfc00115 	stw	ra,4(sp)
  8045f0:	080b5b00 	call	80b5b0 <_lseek_r>
  8045f4:	00ffffc4 	movi	r3,-1
  8045f8:	10c00826 	beq	r2,r3,80461c <__sseek+0x40>
  8045fc:	80c0030b 	ldhu	r3,12(r16)
  804600:	80801415 	stw	r2,80(r16)
  804604:	18c40014 	ori	r3,r3,4096
  804608:	80c0030d 	sth	r3,12(r16)
  80460c:	dfc00117 	ldw	ra,4(sp)
  804610:	dc000017 	ldw	r16,0(sp)
  804614:	dec00204 	addi	sp,sp,8
  804618:	f800283a 	ret
  80461c:	80c0030b 	ldhu	r3,12(r16)
  804620:	18fbffcc 	andi	r3,r3,61439
  804624:	80c0030d 	sth	r3,12(r16)
  804628:	dfc00117 	ldw	ra,4(sp)
  80462c:	dc000017 	ldw	r16,0(sp)
  804630:	dec00204 	addi	sp,sp,8
  804634:	f800283a 	ret

00804638 <__sclose>:
  804638:	2940038f 	ldh	r5,14(r5)
  80463c:	0808f441 	jmpi	808f44 <_close_r>

00804640 <strcmp>:
  804640:	2144b03a 	or	r2,r4,r5
  804644:	108000cc 	andi	r2,r2,3
  804648:	1000171e 	bne	r2,zero,8046a8 <strcmp+0x68>
  80464c:	20800017 	ldw	r2,0(r4)
  804650:	28c00017 	ldw	r3,0(r5)
  804654:	10c0141e 	bne	r2,r3,8046a8 <strcmp+0x68>
  804658:	027fbff4 	movhi	r9,65279
  80465c:	4a7fbfc4 	addi	r9,r9,-257
  804660:	0086303a 	nor	r3,zero,r2
  804664:	02202074 	movhi	r8,32897
  804668:	1245883a 	add	r2,r2,r9
  80466c:	42202004 	addi	r8,r8,-32640
  804670:	10c4703a 	and	r2,r2,r3
  804674:	1204703a 	and	r2,r2,r8
  804678:	10000226 	beq	r2,zero,804684 <strcmp+0x44>
  80467c:	00002306 	br	80470c <strcmp+0xcc>
  804680:	1000221e 	bne	r2,zero,80470c <strcmp+0xcc>
  804684:	21000104 	addi	r4,r4,4
  804688:	20c00017 	ldw	r3,0(r4)
  80468c:	29400104 	addi	r5,r5,4
  804690:	29800017 	ldw	r6,0(r5)
  804694:	1a4f883a 	add	r7,r3,r9
  804698:	00c4303a 	nor	r2,zero,r3
  80469c:	3884703a 	and	r2,r7,r2
  8046a0:	1204703a 	and	r2,r2,r8
  8046a4:	19bff626 	beq	r3,r6,804680 <__alt_mem_onchip_ram+0xff800680>
  8046a8:	20800003 	ldbu	r2,0(r4)
  8046ac:	10c03fcc 	andi	r3,r2,255
  8046b0:	18c0201c 	xori	r3,r3,128
  8046b4:	18ffe004 	addi	r3,r3,-128
  8046b8:	18000c26 	beq	r3,zero,8046ec <strcmp+0xac>
  8046bc:	29800007 	ldb	r6,0(r5)
  8046c0:	19800326 	beq	r3,r6,8046d0 <strcmp+0x90>
  8046c4:	00001306 	br	804714 <strcmp+0xd4>
  8046c8:	29800007 	ldb	r6,0(r5)
  8046cc:	11800b1e 	bne	r2,r6,8046fc <strcmp+0xbc>
  8046d0:	21000044 	addi	r4,r4,1
  8046d4:	20c00003 	ldbu	r3,0(r4)
  8046d8:	29400044 	addi	r5,r5,1
  8046dc:	18803fcc 	andi	r2,r3,255
  8046e0:	1080201c 	xori	r2,r2,128
  8046e4:	10bfe004 	addi	r2,r2,-128
  8046e8:	103ff71e 	bne	r2,zero,8046c8 <__alt_mem_onchip_ram+0xff8006c8>
  8046ec:	0007883a 	mov	r3,zero
  8046f0:	28800003 	ldbu	r2,0(r5)
  8046f4:	1885c83a 	sub	r2,r3,r2
  8046f8:	f800283a 	ret
  8046fc:	28800003 	ldbu	r2,0(r5)
  804700:	18c03fcc 	andi	r3,r3,255
  804704:	1885c83a 	sub	r2,r3,r2
  804708:	f800283a 	ret
  80470c:	0005883a 	mov	r2,zero
  804710:	f800283a 	ret
  804714:	10c03fcc 	andi	r3,r2,255
  804718:	003ff506 	br	8046f0 <__alt_mem_onchip_ram+0xff8006f0>

0080471c <sulp>:
  80471c:	defffd04 	addi	sp,sp,-12
  804720:	dc400115 	stw	r17,4(sp)
  804724:	3023883a 	mov	r17,r6
  804728:	dc000015 	stw	r16,0(sp)
  80472c:	dfc00215 	stw	ra,8(sp)
  804730:	2821883a 	mov	r16,r5
  804734:	080c2d40 	call	80c2d4 <__ulp>
  804738:	88000c26 	beq	r17,zero,80476c <sulp+0x50>
  80473c:	841ffc2c 	andhi	r16,r16,32752
  804740:	8020d53a 	srli	r16,r16,20
  804744:	01c01ac4 	movi	r7,107
  804748:	3c21c83a 	sub	r16,r7,r16
  80474c:	0400070e 	bge	zero,r16,80476c <sulp+0x50>
  804750:	8020953a 	slli	r16,r16,20
  804754:	01cffc34 	movhi	r7,16368
  804758:	000d883a 	mov	r6,zero
  80475c:	81cf883a 	add	r7,r16,r7
  804760:	1009883a 	mov	r4,r2
  804764:	180b883a 	mov	r5,r3
  804768:	0810c6c0 	call	810c6c <__muldf3>
  80476c:	dfc00217 	ldw	ra,8(sp)
  804770:	dc400117 	ldw	r17,4(sp)
  804774:	dc000017 	ldw	r16,0(sp)
  804778:	dec00304 	addi	sp,sp,12
  80477c:	f800283a 	ret

00804780 <_strtod_r>:
  804780:	deffe204 	addi	sp,sp,-120
  804784:	ddc01b15 	stw	r23,108(sp)
  804788:	dd801a15 	stw	r22,104(sp)
  80478c:	dc401515 	stw	r17,84(sp)
  804790:	dfc01d15 	stw	ra,116(sp)
  804794:	df001c15 	stw	fp,112(sp)
  804798:	dd401915 	stw	r21,100(sp)
  80479c:	dd001815 	stw	r20,96(sp)
  8047a0:	dcc01715 	stw	r19,92(sp)
  8047a4:	dc801615 	stw	r18,88(sp)
  8047a8:	dc001415 	stw	r16,80(sp)
  8047ac:	d8000515 	stw	zero,20(sp)
  8047b0:	d9400615 	stw	r5,24(sp)
  8047b4:	2807883a 	mov	r3,r5
  8047b8:	1f000003 	ldbu	fp,0(r3)
  8047bc:	01c02034 	movhi	r7,128
  8047c0:	2023883a 	mov	r17,r4
  8047c4:	d9400715 	stw	r5,28(sp)
  8047c8:	d9800915 	stw	r6,36(sp)
  8047cc:	01000b44 	movi	r4,45
  8047d0:	e0803fcc 	andi	r2,fp,255
  8047d4:	39d1fd04 	addi	r7,r7,18420
  8047d8:	002f883a 	mov	r23,zero
  8047dc:	002d883a 	mov	r22,zero
  8047e0:	20809c36 	bltu	r4,r2,804a54 <_strtod_r+0x2d4>
  8047e4:	100490ba 	slli	r2,r2,2
  8047e8:	11c5883a 	add	r2,r2,r7
  8047ec:	10800017 	ldw	r2,0(r2)
  8047f0:	1000683a 	jmp	r2
  8047f4:	008048b4 	movhi	r2,290
  8047f8:	00804a54 	movui	r2,297
  8047fc:	00804a54 	movui	r2,297
  804800:	00804a54 	movui	r2,297
  804804:	00804a54 	movui	r2,297
  804808:	00804a54 	movui	r2,297
  80480c:	00804a54 	movui	r2,297
  804810:	00804a54 	movui	r2,297
  804814:	00804a54 	movui	r2,297
  804818:	00804a40 	call	804a4 <__reset-0x77fb5c>
  80481c:	00804a40 	call	804a4 <__reset-0x77fb5c>
  804820:	00804a40 	call	804a4 <__reset-0x77fb5c>
  804824:	00804a40 	call	804a4 <__reset-0x77fb5c>
  804828:	00804a40 	call	804a4 <__reset-0x77fb5c>
  80482c:	00804a54 	movui	r2,297
  804830:	00804a54 	movui	r2,297
  804834:	00804a54 	movui	r2,297
  804838:	00804a54 	movui	r2,297
  80483c:	00804a54 	movui	r2,297
  804840:	00804a54 	movui	r2,297
  804844:	00804a54 	movui	r2,297
  804848:	00804a54 	movui	r2,297
  80484c:	00804a54 	movui	r2,297
  804850:	00804a54 	movui	r2,297
  804854:	00804a54 	movui	r2,297
  804858:	00804a54 	movui	r2,297
  80485c:	00804a54 	movui	r2,297
  804860:	00804a54 	movui	r2,297
  804864:	00804a54 	movui	r2,297
  804868:	00804a54 	movui	r2,297
  80486c:	00804a54 	movui	r2,297
  804870:	00804a54 	movui	r2,297
  804874:	00804a40 	call	804a4 <__reset-0x77fb5c>
  804878:	00804a54 	movui	r2,297
  80487c:	00804a54 	movui	r2,297
  804880:	00804a54 	movui	r2,297
  804884:	00804a54 	movui	r2,297
  804888:	00804a54 	movui	r2,297
  80488c:	00804a54 	movui	r2,297
  804890:	00804a54 	movui	r2,297
  804894:	00804a54 	movui	r2,297
  804898:	00804a54 	movui	r2,297
  80489c:	00804a54 	movui	r2,297
  8048a0:	00804918 	cmpnei	r2,zero,292
  8048a4:	00804a54 	movui	r2,297
  8048a8:	00804a34 	movhi	r2,296
  8048ac:	00801244 	movi	r2,73
  8048b0:	b8844726 	beq	r23,r2,8059d0 <_strtod_r+0x1250>
  8048b4:	d9000917 	ldw	r4,36(sp)
  8048b8:	d8000815 	stw	zero,32(sp)
  8048bc:	0039883a 	mov	fp,zero
  8048c0:	20000726 	beq	r4,zero,8048e0 <_strtod_r+0x160>
  8048c4:	dc800717 	ldw	r18,28(sp)
  8048c8:	d8000a15 	stw	zero,40(sp)
  8048cc:	d9400917 	ldw	r5,36(sp)
  8048d0:	2c800015 	stw	r18,0(r5)
  8048d4:	d8800a17 	ldw	r2,40(sp)
  8048d8:	10000126 	beq	r2,zero,8048e0 <_strtod_r+0x160>
  8048dc:	e720003c 	xorhi	fp,fp,32768
  8048e0:	d8800817 	ldw	r2,32(sp)
  8048e4:	e007883a 	mov	r3,fp
  8048e8:	dfc01d17 	ldw	ra,116(sp)
  8048ec:	df001c17 	ldw	fp,112(sp)
  8048f0:	ddc01b17 	ldw	r23,108(sp)
  8048f4:	dd801a17 	ldw	r22,104(sp)
  8048f8:	dd401917 	ldw	r21,100(sp)
  8048fc:	dd001817 	ldw	r20,96(sp)
  804900:	dcc01717 	ldw	r19,92(sp)
  804904:	dc801617 	ldw	r18,88(sp)
  804908:	dc401517 	ldw	r17,84(sp)
  80490c:	dc001417 	ldw	r16,80(sp)
  804910:	dec01e04 	addi	sp,sp,120
  804914:	f800283a 	ret
  804918:	d8000a15 	stw	zero,40(sp)
  80491c:	1c000044 	addi	r16,r3,1
  804920:	dc000615 	stw	r16,24(sp)
  804924:	1f000043 	ldbu	fp,1(r3)
  804928:	e0803fcc 	andi	r2,fp,255
  80492c:	1080201c 	xori	r2,r2,128
  804930:	10bfe004 	addi	r2,r2,-128
  804934:	103fdf26 	beq	r2,zero,8048b4 <__alt_mem_onchip_ram+0xff8008b4>
  804938:	e1003fcc 	andi	r4,fp,255
  80493c:	2100201c 	xori	r4,r4,128
  804940:	213fe004 	addi	r4,r4,-128
  804944:	00800c04 	movi	r2,48
  804948:	2080d426 	beq	r4,r2,804c9c <_strtod_r+0x51c>
  80494c:	dc000815 	stw	r16,32(sp)
  804950:	d8000c15 	stw	zero,48(sp)
  804954:	e0bff404 	addi	r2,fp,-48
  804958:	10803fcc 	andi	r2,r2,255
  80495c:	05400244 	movi	r21,9
  804960:	a8837836 	bltu	r21,r2,805744 <_strtod_r+0xfc4>
  804964:	dc800817 	ldw	r18,32(sp)
  804968:	0029883a 	mov	r20,zero
  80496c:	0027883a 	mov	r19,zero
  804970:	0021883a 	mov	r16,zero
  804974:	05800204 	movi	r22,8
  804978:	b4003916 	blt	r22,r16,804a60 <_strtod_r+0x2e0>
  80497c:	e7003fcc 	andi	fp,fp,255
  804980:	9809883a 	mov	r4,r19
  804984:	01400284 	movi	r5,10
  804988:	e700201c 	xori	fp,fp,128
  80498c:	080f5740 	call	80f574 <__mulsi3>
  804990:	e73fe004 	addi	fp,fp,-128
  804994:	1705883a 	add	r2,r2,fp
  804998:	14fff404 	addi	r19,r2,-48
  80499c:	94800044 	addi	r18,r18,1
  8049a0:	dc800615 	stw	r18,24(sp)
  8049a4:	97000003 	ldbu	fp,0(r18)
  8049a8:	84000044 	addi	r16,r16,1
  8049ac:	e0bff404 	addi	r2,fp,-48
  8049b0:	10803fcc 	andi	r2,r2,255
  8049b4:	a8bff02e 	bgeu	r21,r2,804978 <__alt_mem_onchip_ram+0xff800978>
  8049b8:	e5c03fcc 	andi	r23,fp,255
  8049bc:	bdc0201c 	xori	r23,r23,128
  8049c0:	bdffe004 	addi	r23,r23,-128
  8049c4:	8809883a 	mov	r4,r17
  8049c8:	08032240 	call	803224 <_localeconv_r>
  8049cc:	8809883a 	mov	r4,r17
  8049d0:	15400017 	ldw	r21,0(r2)
  8049d4:	08032240 	call	803224 <_localeconv_r>
  8049d8:	11000017 	ldw	r4,0(r2)
  8049dc:	080cd700 	call	80cd70 <strlen>
  8049e0:	100d883a 	mov	r6,r2
  8049e4:	a80b883a 	mov	r5,r21
  8049e8:	9009883a 	mov	r4,r18
  8049ec:	080ce080 	call	80ce08 <strncmp>
  8049f0:	1000bd26 	beq	r2,zero,804ce8 <_strtod_r+0x568>
  8049f4:	8039883a 	mov	fp,r16
  8049f8:	002d883a 	mov	r22,zero
  8049fc:	d8000b15 	stw	zero,44(sp)
  804a00:	0025883a 	mov	r18,zero
  804a04:	00801944 	movi	r2,101
  804a08:	b8806026 	beq	r23,r2,804b8c <_strtod_r+0x40c>
  804a0c:	00801144 	movi	r2,69
  804a10:	b8805e26 	beq	r23,r2,804b8c <_strtod_r+0x40c>
  804a14:	0009883a 	mov	r4,zero
  804a18:	e0001a1e 	bne	fp,zero,804a84 <_strtod_r+0x304>
  804a1c:	b000cd26 	beq	r22,zero,804d54 <_strtod_r+0x5d4>
  804a20:	d8000815 	stw	zero,32(sp)
  804a24:	d9000917 	ldw	r4,36(sp)
  804a28:	203faa26 	beq	r4,zero,8048d4 <__alt_mem_onchip_ram+0xff8008d4>
  804a2c:	dc800617 	ldw	r18,24(sp)
  804a30:	003fa606 	br	8048cc <__alt_mem_onchip_ram+0xff8008cc>
  804a34:	00800044 	movi	r2,1
  804a38:	d8800a15 	stw	r2,40(sp)
  804a3c:	003fb706 	br	80491c <__alt_mem_onchip_ram+0xff80091c>
  804a40:	18c00044 	addi	r3,r3,1
  804a44:	d8c00615 	stw	r3,24(sp)
  804a48:	1f000003 	ldbu	fp,0(r3)
  804a4c:	e0803fcc 	andi	r2,fp,255
  804a50:	20bf642e 	bgeu	r4,r2,8047e4 <__alt_mem_onchip_ram+0xff8007e4>
  804a54:	1821883a 	mov	r16,r3
  804a58:	d8000a15 	stw	zero,40(sp)
  804a5c:	003fb606 	br	804938 <__alt_mem_onchip_ram+0xff800938>
  804a60:	e7003fcc 	andi	fp,fp,255
  804a64:	a009883a 	mov	r4,r20
  804a68:	01400284 	movi	r5,10
  804a6c:	e700201c 	xori	fp,fp,128
  804a70:	080f5740 	call	80f574 <__mulsi3>
  804a74:	e73fe004 	addi	fp,fp,-128
  804a78:	1705883a 	add	r2,r2,fp
  804a7c:	153ff404 	addi	r20,r2,-48
  804a80:	003fc606 	br	80499c <__alt_mem_onchip_ram+0xff80099c>
  804a84:	d8c00b17 	ldw	r3,44(sp)
  804a88:	20ebc83a 	sub	r21,r4,r3
  804a8c:	8000011e 	bne	r16,zero,804a94 <_strtod_r+0x314>
  804a90:	e021883a 	mov	r16,fp
  804a94:	00800404 	movi	r2,16
  804a98:	e025883a 	mov	r18,fp
  804a9c:	1700010e 	bge	r2,fp,804aa4 <_strtod_r+0x324>
  804aa0:	1025883a 	mov	r18,r2
  804aa4:	9809883a 	mov	r4,r19
  804aa8:	0811f2c0 	call	811f2c <__floatunsidf>
  804aac:	102f883a 	mov	r23,r2
  804ab0:	00800244 	movi	r2,9
  804ab4:	182d883a 	mov	r22,r3
  804ab8:	1480150e 	bge	r2,r18,804b10 <_strtod_r+0x390>
  804abc:	90bffdc4 	addi	r2,r18,-9
  804ac0:	100490fa 	slli	r2,r2,3
  804ac4:	180b883a 	mov	r5,r3
  804ac8:	00c02074 	movhi	r3,129
  804acc:	18d3a204 	addi	r3,r3,20104
  804ad0:	1885883a 	add	r2,r3,r2
  804ad4:	11800017 	ldw	r6,0(r2)
  804ad8:	11c00117 	ldw	r7,4(r2)
  804adc:	b809883a 	mov	r4,r23
  804ae0:	0810c6c0 	call	810c6c <__muldf3>
  804ae4:	a009883a 	mov	r4,r20
  804ae8:	102f883a 	mov	r23,r2
  804aec:	182d883a 	mov	r22,r3
  804af0:	0811f2c0 	call	811f2c <__floatunsidf>
  804af4:	b809883a 	mov	r4,r23
  804af8:	b00b883a 	mov	r5,r22
  804afc:	100d883a 	mov	r6,r2
  804b00:	180f883a 	mov	r7,r3
  804b04:	080f7980 	call	80f798 <__adddf3>
  804b08:	102f883a 	mov	r23,r2
  804b0c:	182d883a 	mov	r22,r3
  804b10:	008003c4 	movi	r2,15
  804b14:	17009416 	blt	r2,fp,804d68 <_strtod_r+0x5e8>
  804b18:	a8001926 	beq	r21,zero,804b80 <_strtod_r+0x400>
  804b1c:	05439c0e 	bge	zero,r21,805990 <_strtod_r+0x1210>
  804b20:	00c00584 	movi	r3,22
  804b24:	1d430f16 	blt	r3,r21,805764 <_strtod_r+0xfe4>
  804b28:	a82a90fa 	slli	r21,r21,3
  804b2c:	00802074 	movhi	r2,129
  804b30:	1093a204 	addi	r2,r2,20104
  804b34:	1545883a 	add	r2,r2,r21
  804b38:	11000017 	ldw	r4,0(r2)
  804b3c:	11400117 	ldw	r5,4(r2)
  804b40:	b80d883a 	mov	r6,r23
  804b44:	b00f883a 	mov	r7,r22
  804b48:	0810c6c0 	call	810c6c <__muldf3>
  804b4c:	d8800815 	stw	r2,32(sp)
  804b50:	1839883a 	mov	fp,r3
  804b54:	003fb306 	br	804a24 <__alt_mem_onchip_ram+0xff800a24>
  804b58:	01402074 	movhi	r5,129
  804b5c:	29531a04 	addi	r5,r5,19560
  804b60:	d9800204 	addi	r6,sp,8
  804b64:	d9000604 	addi	r4,sp,24
  804b68:	080b2f80 	call	80b2f8 <__hexnan>
  804b6c:	00c00144 	movi	r3,5
  804b70:	10c2161e 	bne	r2,r3,8053cc <_strtod_r+0xc4c>
  804b74:	dd800317 	ldw	r22,12(sp)
  804b78:	ddc00217 	ldw	r23,8(sp)
  804b7c:	b59ffc34 	orhi	r22,r22,32752
  804b80:	ddc00815 	stw	r23,32(sp)
  804b84:	b039883a 	mov	fp,r22
  804b88:	003fa606 	br	804a24 <__alt_mem_onchip_ram+0xff800a24>
  804b8c:	e001a926 	beq	fp,zero,805234 <_strtod_r+0xab4>
  804b90:	d8c00617 	ldw	r3,24(sp)
  804b94:	18800044 	addi	r2,r3,1
  804b98:	d8800615 	stw	r2,24(sp)
  804b9c:	d8c00715 	stw	r3,28(sp)
  804ba0:	18c00047 	ldb	r3,1(r3)
  804ba4:	00800ac4 	movi	r2,43
  804ba8:	1881e526 	beq	r3,r2,805340 <_strtod_r+0xbc0>
  804bac:	00800b44 	movi	r2,45
  804bb0:	1881dc26 	beq	r3,r2,805324 <_strtod_r+0xba4>
  804bb4:	182f883a 	mov	r23,r3
  804bb8:	d8000e15 	stw	zero,56(sp)
  804bbc:	b8bff404 	addi	r2,r23,-48
  804bc0:	01000244 	movi	r4,9
  804bc4:	2081ab36 	bltu	r4,r2,805274 <_strtod_r+0xaf4>
  804bc8:	00800c04 	movi	r2,48
  804bcc:	b880071e 	bne	r23,r2,804bec <_strtod_r+0x46c>
  804bd0:	d8800617 	ldw	r2,24(sp)
  804bd4:	b809883a 	mov	r4,r23
  804bd8:	10800044 	addi	r2,r2,1
  804bdc:	d8800615 	stw	r2,24(sp)
  804be0:	15c00007 	ldb	r23,0(r2)
  804be4:	10800044 	addi	r2,r2,1
  804be8:	b93ffc26 	beq	r23,r4,804bdc <__alt_mem_onchip_ram+0xff800bdc>
  804bec:	b8bff3c4 	addi	r2,r23,-49
  804bf0:	01000204 	movi	r4,8
  804bf4:	20bf8736 	bltu	r4,r2,804a14 <__alt_mem_onchip_ram+0xff800a14>
  804bf8:	d8c00617 	ldw	r3,24(sp)
  804bfc:	b93ff404 	addi	r4,r23,-48
  804c00:	01400244 	movi	r5,9
  804c04:	1ac00044 	addi	r11,r3,1
  804c08:	dac00615 	stw	r11,24(sp)
  804c0c:	d8c00d15 	stw	r3,52(sp)
  804c10:	18c00043 	ldbu	r3,1(r3)
  804c14:	18bff404 	addi	r2,r3,-48
  804c18:	1dc03fcc 	andi	r23,r3,255
  804c1c:	bdc0201c 	xori	r23,r23,128
  804c20:	10803fcc 	andi	r2,r2,255
  804c24:	bdffe004 	addi	r23,r23,-128
  804c28:	28801136 	bltu	r5,r2,804c70 <_strtod_r+0x4f0>
  804c2c:	d8c00d17 	ldw	r3,52(sp)
  804c30:	1d400084 	addi	r21,r3,2
  804c34:	01400284 	movi	r5,10
  804c38:	080f5740 	call	80f574 <__mulsi3>
  804c3c:	dd400615 	stw	r21,24(sp)
  804c40:	a9400003 	ldbu	r5,0(r21)
  804c44:	15c5883a 	add	r2,r2,r23
  804c48:	a817883a 	mov	r11,r21
  804c4c:	28fff404 	addi	r3,r5,-48
  804c50:	2dc03fcc 	andi	r23,r5,255
  804c54:	bdc0201c 	xori	r23,r23,128
  804c58:	18c03fcc 	andi	r3,r3,255
  804c5c:	01400244 	movi	r5,9
  804c60:	113ff404 	addi	r4,r2,-48
  804c64:	bdffe004 	addi	r23,r23,-128
  804c68:	ad400044 	addi	r21,r21,1
  804c6c:	28fff12e 	bgeu	r5,r3,804c34 <__alt_mem_onchip_ram+0xff800c34>
  804c70:	d8c00d17 	ldw	r3,52(sp)
  804c74:	00800204 	movi	r2,8
  804c78:	58d7c83a 	sub	r11,r11,r3
  804c7c:	12c2ab16 	blt	r2,r11,80572c <_strtod_r+0xfac>
  804c80:	009387c4 	movi	r2,19999
  804c84:	1100010e 	bge	r2,r4,804c8c <_strtod_r+0x50c>
  804c88:	1009883a 	mov	r4,r2
  804c8c:	d8c00e17 	ldw	r3,56(sp)
  804c90:	183f6126 	beq	r3,zero,804a18 <__alt_mem_onchip_ram+0xff800a18>
  804c94:	0109c83a 	sub	r4,zero,r4
  804c98:	003f5f06 	br	804a18 <__alt_mem_onchip_ram+0xff800a18>
  804c9c:	80800047 	ldb	r2,1(r16)
  804ca0:	00c01604 	movi	r3,88
  804ca4:	10c20026 	beq	r2,r3,8054a8 <_strtod_r+0xd28>
  804ca8:	00c01e04 	movi	r3,120
  804cac:	10c1fe26 	beq	r2,r3,8054a8 <_strtod_r+0xd28>
  804cb0:	80800044 	addi	r2,r16,1
  804cb4:	1021883a 	mov	r16,r2
  804cb8:	d8800615 	stw	r2,24(sp)
  804cbc:	10800044 	addi	r2,r2,1
  804cc0:	173fffc3 	ldbu	fp,-1(r2)
  804cc4:	e0c03fcc 	andi	r3,fp,255
  804cc8:	18c0201c 	xori	r3,r3,128
  804ccc:	18ffe004 	addi	r3,r3,-128
  804cd0:	193ff826 	beq	r3,r4,804cb4 <__alt_mem_onchip_ram+0xff800cb4>
  804cd4:	18002126 	beq	r3,zero,804d5c <_strtod_r+0x5dc>
  804cd8:	00c00044 	movi	r3,1
  804cdc:	dc000815 	stw	r16,32(sp)
  804ce0:	d8c00c15 	stw	r3,48(sp)
  804ce4:	003f1b06 	br	804954 <__alt_mem_onchip_ram+0xff800954>
  804ce8:	8809883a 	mov	r4,r17
  804cec:	08032240 	call	803224 <_localeconv_r>
  804cf0:	11000017 	ldw	r4,0(r2)
  804cf4:	080cd700 	call	80cd70 <strlen>
  804cf8:	d8c00617 	ldw	r3,24(sp)
  804cfc:	1885883a 	add	r2,r3,r2
  804d00:	d8800615 	stw	r2,24(sp)
  804d04:	15c00007 	ldb	r23,0(r2)
  804d08:	8001771e 	bne	r16,zero,8052e8 <_strtod_r+0xb68>
  804d0c:	01000c04 	movi	r4,48
  804d10:	b903581e 	bne	r23,r4,805a74 <_strtod_r+0x12f4>
  804d14:	11000044 	addi	r4,r2,1
  804d18:	b80b883a 	mov	r5,r23
  804d1c:	d9000615 	stw	r4,24(sp)
  804d20:	25c00007 	ldb	r23,0(r4)
  804d24:	20adc83a 	sub	r22,r4,r2
  804d28:	21000044 	addi	r4,r4,1
  804d2c:	b97ffb26 	beq	r23,r5,804d1c <__alt_mem_onchip_ram+0xff800d1c>
  804d30:	b8bff3c4 	addi	r2,r23,-49
  804d34:	01000204 	movi	r4,8
  804d38:	2083002e 	bgeu	r4,r2,80593c <_strtod_r+0x11bc>
  804d3c:	00801944 	movi	r2,101
  804d40:	b8813a26 	beq	r23,r2,80522c <_strtod_r+0xaac>
  804d44:	0039883a 	mov	fp,zero
  804d48:	d8000b15 	stw	zero,44(sp)
  804d4c:	04800044 	movi	r18,1
  804d50:	003f2e06 	br	804a0c <__alt_mem_onchip_ram+0xff800a0c>
  804d54:	d8c00c17 	ldw	r3,48(sp)
  804d58:	18017d26 	beq	r3,zero,805350 <_strtod_r+0xbd0>
  804d5c:	d8000815 	stw	zero,32(sp)
  804d60:	0039883a 	mov	fp,zero
  804d64:	003f2f06 	br	804a24 <__alt_mem_onchip_ram+0xff800a24>
  804d68:	e4a5c83a 	sub	r18,fp,r18
  804d6c:	9565883a 	add	r18,r18,r21
  804d70:	0482370e 	bge	zero,r18,805650 <_strtod_r+0xed0>
  804d74:	908003cc 	andi	r2,r18,15
  804d78:	10000b26 	beq	r2,zero,804da8 <_strtod_r+0x628>
  804d7c:	100490fa 	slli	r2,r2,3
  804d80:	00c02074 	movhi	r3,129
  804d84:	18d3a204 	addi	r3,r3,20104
  804d88:	1885883a 	add	r2,r3,r2
  804d8c:	11000017 	ldw	r4,0(r2)
  804d90:	11400117 	ldw	r5,4(r2)
  804d94:	b80d883a 	mov	r6,r23
  804d98:	b00f883a 	mov	r7,r22
  804d9c:	0810c6c0 	call	810c6c <__muldf3>
  804da0:	102f883a 	mov	r23,r2
  804da4:	182d883a 	mov	r22,r3
  804da8:	053ffc04 	movi	r20,-16
  804dac:	9524703a 	and	r18,r18,r20
  804db0:	90003826 	beq	r18,zero,804e94 <_strtod_r+0x714>
  804db4:	00804d04 	movi	r2,308
  804db8:	1481eb16 	blt	r2,r18,805568 <_strtod_r+0xde8>
  804dbc:	9029d13a 	srai	r20,r18,4
  804dc0:	02c00044 	movi	r11,1
  804dc4:	5d03900e 	bge	r11,r20,805c08 <_strtod_r+0x1488>
  804dc8:	01002074 	movhi	r4,129
  804dcc:	21139804 	addi	r4,r4,20064
  804dd0:	2011883a 	mov	r8,r4
  804dd4:	0025883a 	mov	r18,zero
  804dd8:	880b883a 	mov	r5,r17
  804ddc:	d9000715 	stw	r4,28(sp)
  804de0:	dc000b15 	stw	r16,44(sp)
  804de4:	9023883a 	mov	r17,r18
  804de8:	b805883a 	mov	r2,r23
  804dec:	b007883a 	mov	r3,r22
  804df0:	0009883a 	mov	r4,zero
  804df4:	4021883a 	mov	r16,r8
  804df8:	2825883a 	mov	r18,r5
  804dfc:	a180004c 	andi	r6,r20,1
  804e00:	30000826 	beq	r6,zero,804e24 <_strtod_r+0x6a4>
  804e04:	81800017 	ldw	r6,0(r16)
  804e08:	81c00117 	ldw	r7,4(r16)
  804e0c:	1009883a 	mov	r4,r2
  804e10:	180b883a 	mov	r5,r3
  804e14:	dac01315 	stw	r11,76(sp)
  804e18:	0810c6c0 	call	810c6c <__muldf3>
  804e1c:	dac01317 	ldw	r11,76(sp)
  804e20:	01000044 	movi	r4,1
  804e24:	a029d07a 	srai	r20,r20,1
  804e28:	8c400044 	addi	r17,r17,1
  804e2c:	84000204 	addi	r16,r16,8
  804e30:	a2fff21e 	bne	r20,r11,804dfc <__alt_mem_onchip_ram+0xff800dfc>
  804e34:	900b883a 	mov	r5,r18
  804e38:	21003fcc 	andi	r4,r4,255
  804e3c:	8825883a 	mov	r18,r17
  804e40:	dc000b17 	ldw	r16,44(sp)
  804e44:	2823883a 	mov	r17,r5
  804e48:	2003c01e 	bne	r4,zero,805d4c <_strtod_r+0x15cc>
  804e4c:	901490fa 	slli	r10,r18,3
  804e50:	d8800717 	ldw	r2,28(sp)
  804e54:	01ff2c34 	movhi	r7,64688
  804e58:	b80d883a 	mov	r6,r23
  804e5c:	12a5883a 	add	r18,r2,r10
  804e60:	91000017 	ldw	r4,0(r18)
  804e64:	91400117 	ldw	r5,4(r18)
  804e68:	b1cf883a 	add	r7,r22,r7
  804e6c:	0810c6c0 	call	810c6c <__muldf3>
  804e70:	102f883a 	mov	r23,r2
  804e74:	011f2834 	movhi	r4,31904
  804e78:	189ffc2c 	andhi	r2,r3,32752
  804e7c:	2081ba36 	bltu	r4,r2,805568 <_strtod_r+0xde8>
  804e80:	011f2434 	movhi	r4,31888
  804e84:	20834a2e 	bgeu	r4,r2,805bb0 <_strtod_r+0x1430>
  804e88:	059ffc34 	movhi	r22,32752
  804e8c:	b5bfffc4 	addi	r22,r22,-1
  804e90:	05ffffc4 	movi	r23,-1
  804e94:	d8000715 	stw	zero,28(sp)
  804e98:	d9400817 	ldw	r5,32(sp)
  804e9c:	dcc00015 	stw	r19,0(sp)
  804ea0:	e00f883a 	mov	r7,fp
  804ea4:	800d883a 	mov	r6,r16
  804ea8:	8809883a 	mov	r4,r17
  804eac:	080b90c0 	call	80b90c <__s2b>
  804eb0:	d8800b15 	stw	r2,44(sp)
  804eb4:	1001ac26 	beq	r2,zero,805568 <_strtod_r+0xde8>
  804eb8:	a807d7fa 	srai	r3,r21,31
  804ebc:	0545c83a 	sub	r2,zero,r21
  804ec0:	dd400c15 	stw	r21,48(sp)
  804ec4:	1886703a 	and	r3,r3,r2
  804ec8:	d8c00e15 	stw	r3,56(sp)
  804ecc:	a8015916 	blt	r21,zero,805434 <_strtod_r+0xcb4>
  804ed0:	d9400b17 	ldw	r5,44(sp)
  804ed4:	0011883a 	mov	r8,zero
  804ed8:	0021883a 	mov	r16,zero
  804edc:	29400304 	addi	r5,r5,12
  804ee0:	d9401115 	stw	r5,68(sp)
  804ee4:	4025883a 	mov	r18,r8
  804ee8:	d8800b17 	ldw	r2,44(sp)
  804eec:	8809883a 	mov	r4,r17
  804ef0:	11400117 	ldw	r5,4(r2)
  804ef4:	080b6f40 	call	80b6f4 <_Balloc>
  804ef8:	1027883a 	mov	r19,r2
  804efc:	10015226 	beq	r2,zero,805448 <_strtod_r+0xcc8>
  804f00:	d8c00b17 	ldw	r3,44(sp)
  804f04:	d9401117 	ldw	r5,68(sp)
  804f08:	11000304 	addi	r4,r2,12
  804f0c:	19800417 	ldw	r6,16(r3)
  804f10:	31800084 	addi	r6,r6,2
  804f14:	318d883a 	add	r6,r6,r6
  804f18:	318d883a 	add	r6,r6,r6
  804f1c:	0803e400 	call	803e40 <memcpy>
  804f20:	d9000204 	addi	r4,sp,8
  804f24:	d9000015 	stw	r4,0(sp)
  804f28:	d9c00404 	addi	r7,sp,16
  804f2c:	b80b883a 	mov	r5,r23
  804f30:	b00d883a 	mov	r6,r22
  804f34:	8809883a 	mov	r4,r17
  804f38:	080c4440 	call	80c444 <__d2b>
  804f3c:	d8800515 	stw	r2,20(sp)
  804f40:	ddc00815 	stw	r23,32(sp)
  804f44:	dd801215 	stw	r22,72(sp)
  804f48:	10029f26 	beq	r2,zero,8059c8 <_strtod_r+0x1248>
  804f4c:	01400044 	movi	r5,1
  804f50:	8809883a 	mov	r4,r17
  804f54:	080bb280 	call	80bb28 <__i2b>
  804f58:	1021883a 	mov	r16,r2
  804f5c:	10013a26 	beq	r2,zero,805448 <_strtod_r+0xcc8>
  804f60:	d8800417 	ldw	r2,16(sp)
  804f64:	1000b816 	blt	r2,zero,805248 <_strtod_r+0xac8>
  804f68:	d9400e17 	ldw	r5,56(sp)
  804f6c:	d9000c17 	ldw	r4,48(sp)
  804f70:	28a9883a 	add	r20,r5,r2
  804f74:	d9400717 	ldw	r5,28(sp)
  804f78:	dd400217 	ldw	r21,8(sp)
  804f7c:	073f0084 	movi	fp,-1022
  804f80:	1147c83a 	sub	r3,r2,r5
  804f84:	1d47883a 	add	r3,r3,r21
  804f88:	00800d84 	movi	r2,54
  804f8c:	18ffffc4 	addi	r3,r3,-1
  804f90:	156bc83a 	sub	r21,r2,r21
  804f94:	1f00950e 	bge	r3,fp,8051ec <_strtod_r+0xa6c>
  804f98:	e0f9c83a 	sub	fp,fp,r3
  804f9c:	008007c4 	movi	r2,31
  804fa0:	af2bc83a 	sub	r21,r21,fp
  804fa4:	1700ac16 	blt	r2,fp,805258 <_strtod_r+0xad8>
  804fa8:	00800044 	movi	r2,1
  804fac:	1704983a 	sll	r2,r2,fp
  804fb0:	d8000d15 	stw	zero,52(sp)
  804fb4:	d8800f15 	stw	r2,60(sp)
  804fb8:	2547883a 	add	r3,r4,r21
  804fbc:	d9000717 	ldw	r4,28(sp)
  804fc0:	a56b883a 	add	r21,r20,r21
  804fc4:	20f9883a 	add	fp,r4,r3
  804fc8:	a009883a 	mov	r4,r20
  804fcc:	ad00010e 	bge	r21,r20,804fd4 <_strtod_r+0x854>
  804fd0:	a809883a 	mov	r4,r21
  804fd4:	e005883a 	mov	r2,fp
  804fd8:	2700010e 	bge	r4,fp,804fe0 <_strtod_r+0x860>
  804fdc:	2005883a 	mov	r2,r4
  804fe0:	0080030e 	bge	zero,r2,804ff0 <_strtod_r+0x870>
  804fe4:	a8abc83a 	sub	r21,r21,r2
  804fe8:	e0b9c83a 	sub	fp,fp,r2
  804fec:	a0a9c83a 	sub	r20,r20,r2
  804ff0:	d9400e17 	ldw	r5,56(sp)
  804ff4:	28001126 	beq	r5,zero,80503c <_strtod_r+0x8bc>
  804ff8:	280d883a 	mov	r6,r5
  804ffc:	8809883a 	mov	r4,r17
  805000:	800b883a 	mov	r5,r16
  805004:	080bdf00 	call	80bdf0 <__pow5mult>
  805008:	1021883a 	mov	r16,r2
  80500c:	10010e26 	beq	r2,zero,805448 <_strtod_r+0xcc8>
  805010:	d9800517 	ldw	r6,20(sp)
  805014:	100b883a 	mov	r5,r2
  805018:	8809883a 	mov	r4,r17
  80501c:	080bb640 	call	80bb64 <__multiply>
  805020:	10010926 	beq	r2,zero,805448 <_strtod_r+0xcc8>
  805024:	d9400517 	ldw	r5,20(sp)
  805028:	8809883a 	mov	r4,r17
  80502c:	d8801315 	stw	r2,76(sp)
  805030:	080b79c0 	call	80b79c <_Bfree>
  805034:	d8801317 	ldw	r2,76(sp)
  805038:	d8800515 	stw	r2,20(sp)
  80503c:	0540060e 	bge	zero,r21,805058 <_strtod_r+0x8d8>
  805040:	d9400517 	ldw	r5,20(sp)
  805044:	a80d883a 	mov	r6,r21
  805048:	8809883a 	mov	r4,r17
  80504c:	080bf300 	call	80bf30 <__lshift>
  805050:	d8800515 	stw	r2,20(sp)
  805054:	10025c26 	beq	r2,zero,8059c8 <_strtod_r+0x1248>
  805058:	d8800c17 	ldw	r2,48(sp)
  80505c:	10000626 	beq	r2,zero,805078 <_strtod_r+0x8f8>
  805060:	d9800c17 	ldw	r6,48(sp)
  805064:	980b883a 	mov	r5,r19
  805068:	8809883a 	mov	r4,r17
  80506c:	080bdf00 	call	80bdf0 <__pow5mult>
  805070:	1027883a 	mov	r19,r2
  805074:	1000f426 	beq	r2,zero,805448 <_strtod_r+0xcc8>
  805078:	0700060e 	bge	zero,fp,805094 <_strtod_r+0x914>
  80507c:	980b883a 	mov	r5,r19
  805080:	e00d883a 	mov	r6,fp
  805084:	8809883a 	mov	r4,r17
  805088:	080bf300 	call	80bf30 <__lshift>
  80508c:	1027883a 	mov	r19,r2
  805090:	1000ed26 	beq	r2,zero,805448 <_strtod_r+0xcc8>
  805094:	0500060e 	bge	zero,r20,8050b0 <_strtod_r+0x930>
  805098:	800b883a 	mov	r5,r16
  80509c:	a00d883a 	mov	r6,r20
  8050a0:	8809883a 	mov	r4,r17
  8050a4:	080bf300 	call	80bf30 <__lshift>
  8050a8:	1021883a 	mov	r16,r2
  8050ac:	1000e626 	beq	r2,zero,805448 <_strtod_r+0xcc8>
  8050b0:	d9400517 	ldw	r5,20(sp)
  8050b4:	980d883a 	mov	r6,r19
  8050b8:	8809883a 	mov	r4,r17
  8050bc:	080c0d80 	call	80c0d8 <__mdiff>
  8050c0:	1025883a 	mov	r18,r2
  8050c4:	1000e026 	beq	r2,zero,805448 <_strtod_r+0xcc8>
  8050c8:	15400317 	ldw	r21,12(r2)
  8050cc:	800b883a 	mov	r5,r16
  8050d0:	10000315 	stw	zero,12(r2)
  8050d4:	1009883a 	mov	r4,r2
  8050d8:	080c0780 	call	80c078 <__mcmp>
  8050dc:	10026716 	blt	r2,zero,805a7c <_strtod_r+0x12fc>
  8050e0:	10029626 	beq	r2,zero,805b3c <_strtod_r+0x13bc>
  8050e4:	800b883a 	mov	r5,r16
  8050e8:	9009883a 	mov	r4,r18
  8050ec:	080c5900 	call	80c590 <__ratio>
  8050f0:	000d883a 	mov	r6,zero
  8050f4:	01d00034 	movhi	r7,16384
  8050f8:	1009883a 	mov	r4,r2
  8050fc:	180b883a 	mov	r5,r3
  805100:	1039883a 	mov	fp,r2
  805104:	1829883a 	mov	r20,r3
  805108:	0810b780 	call	810b78 <__ledf2>
  80510c:	00803b16 	blt	zero,r2,8051fc <_strtod_r+0xa7c>
  805110:	a8005e26 	beq	r21,zero,80528c <_strtod_r+0xb0c>
  805114:	050ffc34 	movhi	r20,16368
  805118:	d8000f15 	stw	zero,60(sp)
  80511c:	d8001015 	stw	zero,64(sp)
  805120:	dd000d15 	stw	r20,52(sp)
  805124:	b71ffc2c 	andhi	fp,r22,32752
  805128:	009ff834 	movhi	r2,32736
  80512c:	e080f226 	beq	fp,r2,8054f8 <_strtod_r+0xd78>
  805130:	d9000717 	ldw	r4,28(sp)
  805134:	20000c26 	beq	r4,zero,805168 <_strtod_r+0x9e8>
  805138:	0081a834 	movhi	r2,1696
  80513c:	17000a36 	bltu	r2,fp,805168 <_strtod_r+0x9e8>
  805140:	d9001017 	ldw	r4,64(sp)
  805144:	d9400d17 	ldw	r5,52(sp)
  805148:	01d07834 	movhi	r7,16864
  80514c:	39ffffc4 	addi	r7,r7,-1
  805150:	01bff034 	movhi	r6,65472
  805154:	0810b780 	call	810b78 <__ledf2>
  805158:	0080a70e 	bge	zero,r2,8053f8 <_strtod_r+0xc78>
  80515c:	0081ac34 	movhi	r2,1712
  805160:	a091883a 	add	r8,r20,r2
  805164:	4729c83a 	sub	r20,r8,fp
  805168:	b809883a 	mov	r4,r23
  80516c:	b00b883a 	mov	r5,r22
  805170:	080c2d40 	call	80c2d4 <__ulp>
  805174:	d9000f17 	ldw	r4,60(sp)
  805178:	a00b883a 	mov	r5,r20
  80517c:	100d883a 	mov	r6,r2
  805180:	180f883a 	mov	r7,r3
  805184:	0810c6c0 	call	810c6c <__muldf3>
  805188:	b80d883a 	mov	r6,r23
  80518c:	b00f883a 	mov	r7,r22
  805190:	1009883a 	mov	r4,r2
  805194:	180b883a 	mov	r5,r3
  805198:	080f7980 	call	80f798 <__adddf3>
  80519c:	102f883a 	mov	r23,r2
  8051a0:	182d883a 	mov	r22,r3
  8051a4:	1829883a 	mov	r20,r3
  8051a8:	d9000717 	ldw	r4,28(sp)
  8051ac:	2000021e 	bne	r4,zero,8051b8 <_strtod_r+0xa38>
  8051b0:	a09ffc2c 	andhi	r2,r20,32752
  8051b4:	e080f126 	beq	fp,r2,80557c <_strtod_r+0xdfc>
  8051b8:	d9400517 	ldw	r5,20(sp)
  8051bc:	8809883a 	mov	r4,r17
  8051c0:	080b79c0 	call	80b79c <_Bfree>
  8051c4:	980b883a 	mov	r5,r19
  8051c8:	8809883a 	mov	r4,r17
  8051cc:	080b79c0 	call	80b79c <_Bfree>
  8051d0:	800b883a 	mov	r5,r16
  8051d4:	8809883a 	mov	r4,r17
  8051d8:	080b79c0 	call	80b79c <_Bfree>
  8051dc:	900b883a 	mov	r5,r18
  8051e0:	8809883a 	mov	r4,r17
  8051e4:	080b79c0 	call	80b79c <_Bfree>
  8051e8:	003f3f06 	br	804ee8 <__alt_mem_onchip_ram+0xff800ee8>
  8051ec:	00c00044 	movi	r3,1
  8051f0:	d8000d15 	stw	zero,52(sp)
  8051f4:	d8c00f15 	stw	r3,60(sp)
  8051f8:	003f6f06 	br	804fb8 <__alt_mem_onchip_ram+0xff800fb8>
  8051fc:	000d883a 	mov	r6,zero
  805200:	01cff834 	movhi	r7,16352
  805204:	e009883a 	mov	r4,fp
  805208:	a00b883a 	mov	r5,r20
  80520c:	0810c6c0 	call	810c6c <__muldf3>
  805210:	d8801015 	stw	r2,64(sp)
  805214:	d8c00d15 	stw	r3,52(sp)
  805218:	a8001a1e 	bne	r21,zero,805284 <_strtod_r+0xb04>
  80521c:	1a20003c 	xorhi	r8,r3,32768
  805220:	d8800f15 	stw	r2,60(sp)
  805224:	4029883a 	mov	r20,r8
  805228:	003fbe06 	br	805124 <__alt_mem_onchip_ram+0xff801124>
  80522c:	d8000b15 	stw	zero,44(sp)
  805230:	04800044 	movi	r18,1
  805234:	b000021e 	bne	r22,zero,805240 <_strtod_r+0xac0>
  805238:	d8c00c17 	ldw	r3,48(sp)
  80523c:	183d9d26 	beq	r3,zero,8048b4 <__alt_mem_onchip_ram+0xff8008b4>
  805240:	0039883a 	mov	fp,zero
  805244:	003e5206 	br	804b90 <__alt_mem_onchip_ram+0xff800b90>
  805248:	d8c00c17 	ldw	r3,48(sp)
  80524c:	dd000e17 	ldw	r20,56(sp)
  805250:	1889c83a 	sub	r4,r3,r2
  805254:	003f4706 	br	804f74 <__alt_mem_onchip_ram+0xff800f74>
  805258:	00bef884 	movi	r2,-1054
  80525c:	07000044 	movi	fp,1
  805260:	10c5c83a 	sub	r2,r2,r3
  805264:	e084983a 	sll	r2,fp,r2
  805268:	df000f15 	stw	fp,60(sp)
  80526c:	d8800d15 	stw	r2,52(sp)
  805270:	003f5106 	br	804fb8 <__alt_mem_onchip_ram+0xff800fb8>
  805274:	d8c00717 	ldw	r3,28(sp)
  805278:	0009883a 	mov	r4,zero
  80527c:	d8c00615 	stw	r3,24(sp)
  805280:	003de506 	br	804a18 <__alt_mem_onchip_ram+0xff800a18>
  805284:	da000d17 	ldw	r8,52(sp)
  805288:	003fe506 	br	805220 <__alt_mem_onchip_ram+0xff801220>
  80528c:	b800521e 	bne	r23,zero,8053d8 <_strtod_r+0xc58>
  805290:	01000434 	movhi	r4,16
  805294:	213fffc4 	addi	r4,r4,-1
  805298:	b104703a 	and	r2,r22,r4
  80529c:	1000501e 	bne	r2,zero,8053e0 <_strtod_r+0xc60>
  8052a0:	000d883a 	mov	r6,zero
  8052a4:	01cffc34 	movhi	r7,16368
  8052a8:	e009883a 	mov	r4,fp
  8052ac:	a00b883a 	mov	r5,r20
  8052b0:	0810b780 	call	810b78 <__ledf2>
  8052b4:	10024216 	blt	r2,zero,805bc0 <_strtod_r+0x1440>
  8052b8:	a00b883a 	mov	r5,r20
  8052bc:	000d883a 	mov	r6,zero
  8052c0:	01cff834 	movhi	r7,16352
  8052c4:	e009883a 	mov	r4,fp
  8052c8:	0810c6c0 	call	810c6c <__muldf3>
  8052cc:	d8801015 	stw	r2,64(sp)
  8052d0:	d8c00d15 	stw	r3,52(sp)
  8052d4:	1029883a 	mov	r20,r2
  8052d8:	1a20003c 	xorhi	r8,r3,32768
  8052dc:	dd000f15 	stw	r20,60(sp)
  8052e0:	4029883a 	mov	r20,r8
  8052e4:	003f8f06 	br	805124 <__alt_mem_onchip_ram+0xff801124>
  8052e8:	8039883a 	mov	fp,r16
  8052ec:	002d883a 	mov	r22,zero
  8052f0:	d8000b15 	stw	zero,44(sp)
  8052f4:	bd7ff404 	addi	r21,r23,-48
  8052f8:	00800244 	movi	r2,9
  8052fc:	15401236 	bltu	r2,r21,805348 <_strtod_r+0xbc8>
  805300:	dd400e15 	stw	r21,56(sp)
  805304:	b0800044 	addi	r2,r22,1
  805308:	a801701e 	bne	r21,zero,8058cc <_strtod_r+0x114c>
  80530c:	ddc00617 	ldw	r23,24(sp)
  805310:	102d883a 	mov	r22,r2
  805314:	b8800044 	addi	r2,r23,1
  805318:	d8800615 	stw	r2,24(sp)
  80531c:	bdc00047 	ldb	r23,1(r23)
  805320:	003ff406 	br	8052f4 <__alt_mem_onchip_ram+0xff8012f4>
  805324:	00c00044 	movi	r3,1
  805328:	d8c00e15 	stw	r3,56(sp)
  80532c:	d8c00717 	ldw	r3,28(sp)
  805330:	18800084 	addi	r2,r3,2
  805334:	d8800615 	stw	r2,24(sp)
  805338:	1dc00087 	ldb	r23,2(r3)
  80533c:	003e1f06 	br	804bbc <__alt_mem_onchip_ram+0xff800bbc>
  805340:	d8000e15 	stw	zero,56(sp)
  805344:	003ff906 	br	80532c <__alt_mem_onchip_ram+0xff80132c>
  805348:	04800044 	movi	r18,1
  80534c:	003dad06 	br	804a04 <__alt_mem_onchip_ram+0xff800a04>
  805350:	903d581e 	bne	r18,zero,8048b4 <__alt_mem_onchip_ram+0xff8008b4>
  805354:	00801384 	movi	r2,78
  805358:	b8800526 	beq	r23,r2,805370 <_strtod_r+0xbf0>
  80535c:	15fd530e 	bge	r2,r23,8048ac <__alt_mem_onchip_ram+0xff8008ac>
  805360:	00801a44 	movi	r2,105
  805364:	b8819a26 	beq	r23,r2,8059d0 <_strtod_r+0x1250>
  805368:	00801b84 	movi	r2,110
  80536c:	b8bd511e 	bne	r23,r2,8048b4 <__alt_mem_onchip_ram+0xff8008b4>
  805370:	01402074 	movhi	r5,129
  805374:	d9000617 	ldw	r4,24(sp)
  805378:	29531904 	addi	r5,r5,19556
  80537c:	01c00644 	movi	r7,25
  805380:	00000b06 	br	8053b0 <_strtod_r+0xc30>
  805384:	21000044 	addi	r4,r4,1
  805388:	20800003 	ldbu	r2,0(r4)
  80538c:	10ffefc4 	addi	r3,r2,-65
  805390:	10803fcc 	andi	r2,r2,255
  805394:	1080201c 	xori	r2,r2,128
  805398:	18c03fcc 	andi	r3,r3,255
  80539c:	10bfe004 	addi	r2,r2,-128
  8053a0:	38c00136 	bltu	r7,r3,8053a8 <_strtod_r+0xc28>
  8053a4:	10800804 	addi	r2,r2,32
  8053a8:	29400044 	addi	r5,r5,1
  8053ac:	11bd411e 	bne	r2,r6,8048b4 <__alt_mem_onchip_ram+0xff8008b4>
  8053b0:	29800007 	ldb	r6,0(r5)
  8053b4:	303ff31e 	bne	r6,zero,805384 <__alt_mem_onchip_ram+0xff801384>
  8053b8:	20800044 	addi	r2,r4,1
  8053bc:	d8800615 	stw	r2,24(sp)
  8053c0:	20c00047 	ldb	r3,1(r4)
  8053c4:	00800a04 	movi	r2,40
  8053c8:	18bde326 	beq	r3,r2,804b58 <__alt_mem_onchip_ram+0xff800b58>
  8053cc:	05bffe34 	movhi	r22,65528
  8053d0:	002f883a 	mov	r23,zero
  8053d4:	003dea06 	br	804b80 <__alt_mem_onchip_ram+0xff800b80>
  8053d8:	00800044 	movi	r2,1
  8053dc:	b880ff26 	beq	r23,r2,8057dc <_strtod_r+0x105c>
  8053e0:	014ffc34 	movhi	r5,16368
  8053e4:	d8000f15 	stw	zero,60(sp)
  8053e8:	052ffc34 	movhi	r20,49136
  8053ec:	d8001015 	stw	zero,64(sp)
  8053f0:	d9400d15 	stw	r5,52(sp)
  8053f4:	003f4b06 	br	805124 <__alt_mem_onchip_ram+0xff801124>
  8053f8:	d9001017 	ldw	r4,64(sp)
  8053fc:	d9400d17 	ldw	r5,52(sp)
  805400:	080e78c0 	call	80e78c <__fixunsdfsi>
  805404:	1000f126 	beq	r2,zero,8057cc <_strtod_r+0x104c>
  805408:	1009883a 	mov	r4,r2
  80540c:	0811f2c0 	call	811f2c <__floatunsidf>
  805410:	d8801015 	stw	r2,64(sp)
  805414:	d8c00d15 	stw	r3,52(sp)
  805418:	a800ea1e 	bne	r21,zero,8057c4 <_strtod_r+0x1044>
  80541c:	d8800d17 	ldw	r2,52(sp)
  805420:	1220003c 	xorhi	r8,r2,32768
  805424:	d8c01017 	ldw	r3,64(sp)
  805428:	4029883a 	mov	r20,r8
  80542c:	d8c00f15 	stw	r3,60(sp)
  805430:	003f4a06 	br	80515c <__alt_mem_onchip_ram+0xff80115c>
  805434:	d8000c15 	stw	zero,48(sp)
  805438:	003ea506 	br	804ed0 <__alt_mem_onchip_ram+0xff800ed0>
  80543c:	d8c00817 	ldw	r3,32(sp)
  805440:	00bfffc4 	movi	r2,-1
  805444:	1880441e 	bne	r3,r2,805558 <_strtod_r+0xdd8>
  805448:	9011883a 	mov	r8,r18
  80544c:	d8800517 	ldw	r2,20(sp)
  805450:	00c00884 	movi	r3,34
  805454:	88c00015 	stw	r3,0(r17)
  805458:	d8000815 	stw	zero,32(sp)
  80545c:	071ffc34 	movhi	fp,32752
  805460:	100b883a 	mov	r5,r2
  805464:	8809883a 	mov	r4,r17
  805468:	da001315 	stw	r8,76(sp)
  80546c:	080b79c0 	call	80b79c <_Bfree>
  805470:	980b883a 	mov	r5,r19
  805474:	8809883a 	mov	r4,r17
  805478:	080b79c0 	call	80b79c <_Bfree>
  80547c:	800b883a 	mov	r5,r16
  805480:	8809883a 	mov	r4,r17
  805484:	080b79c0 	call	80b79c <_Bfree>
  805488:	d9400b17 	ldw	r5,44(sp)
  80548c:	8809883a 	mov	r4,r17
  805490:	080b79c0 	call	80b79c <_Bfree>
  805494:	da001317 	ldw	r8,76(sp)
  805498:	8809883a 	mov	r4,r17
  80549c:	400b883a 	mov	r5,r8
  8054a0:	080b79c0 	call	80b79c <_Bfree>
  8054a4:	003d5f06 	br	804a24 <__alt_mem_onchip_ram+0xff800a24>
  8054a8:	d8c00a17 	ldw	r3,40(sp)
  8054ac:	d8800504 	addi	r2,sp,20
  8054b0:	01802074 	movhi	r6,129
  8054b4:	31931f04 	addi	r6,r6,19580
  8054b8:	d8c00115 	stw	r3,4(sp)
  8054bc:	d8800015 	stw	r2,0(sp)
  8054c0:	d9c00404 	addi	r7,sp,16
  8054c4:	d9400604 	addi	r5,sp,24
  8054c8:	8809883a 	mov	r4,r17
  8054cc:	080aaa80 	call	80aaa8 <__gethex>
  8054d0:	148001cc 	andi	r18,r2,7
  8054d4:	903e2126 	beq	r18,zero,804d5c <__alt_mem_onchip_ram+0xff800d5c>
  8054d8:	00c00184 	movi	r3,6
  8054dc:	90c0c71e 	bne	r18,r3,8057fc <_strtod_r+0x107c>
  8054e0:	84000044 	addi	r16,r16,1
  8054e4:	dc000615 	stw	r16,24(sp)
  8054e8:	d8000815 	stw	zero,32(sp)
  8054ec:	0039883a 	mov	fp,zero
  8054f0:	d8000a15 	stw	zero,40(sp)
  8054f4:	003d4b06 	br	804a24 <__alt_mem_onchip_ram+0xff800a24>
  8054f8:	00bf2c34 	movhi	r2,64688
  8054fc:	b0ad883a 	add	r22,r22,r2
  805500:	b809883a 	mov	r4,r23
  805504:	b00b883a 	mov	r5,r22
  805508:	080c2d40 	call	80c2d4 <__ulp>
  80550c:	d9000f17 	ldw	r4,60(sp)
  805510:	100d883a 	mov	r6,r2
  805514:	180f883a 	mov	r7,r3
  805518:	a00b883a 	mov	r5,r20
  80551c:	0810c6c0 	call	810c6c <__muldf3>
  805520:	b80d883a 	mov	r6,r23
  805524:	1009883a 	mov	r4,r2
  805528:	b00f883a 	mov	r7,r22
  80552c:	180b883a 	mov	r5,r3
  805530:	080f7980 	call	80f798 <__adddf3>
  805534:	011f2834 	movhi	r4,31904
  805538:	102f883a 	mov	r23,r2
  80553c:	213fffc4 	addi	r4,r4,-1
  805540:	189ffc2c 	andhi	r2,r3,32752
  805544:	20807b2e 	bgeu	r4,r2,805734 <_strtod_r+0xfb4>
  805548:	d9401217 	ldw	r5,72(sp)
  80554c:	009ffc34 	movhi	r2,32752
  805550:	10bfffc4 	addi	r2,r2,-1
  805554:	28bfb926 	beq	r5,r2,80543c <__alt_mem_onchip_ram+0xff80143c>
  805558:	059ffc34 	movhi	r22,32752
  80555c:	b5bfffc4 	addi	r22,r22,-1
  805560:	05ffffc4 	movi	r23,-1
  805564:	003f1406 	br	8051b8 <__alt_mem_onchip_ram+0xff8011b8>
  805568:	00800884 	movi	r2,34
  80556c:	88800015 	stw	r2,0(r17)
  805570:	d8000815 	stw	zero,32(sp)
  805574:	071ffc34 	movhi	fp,32752
  805578:	003d2a06 	br	804a24 <__alt_mem_onchip_ram+0xff800a24>
  80557c:	d9400d17 	ldw	r5,52(sp)
  805580:	d9001017 	ldw	r4,64(sp)
  805584:	0811dd00 	call	811dd0 <__fixdfsi>
  805588:	1009883a 	mov	r4,r2
  80558c:	0811e500 	call	811e50 <__floatsidf>
  805590:	d9001017 	ldw	r4,64(sp)
  805594:	d9400d17 	ldw	r5,52(sp)
  805598:	100d883a 	mov	r6,r2
  80559c:	180f883a 	mov	r7,r3
  8055a0:	08114d40 	call	8114d4 <__subdf3>
  8055a4:	1011883a 	mov	r8,r2
  8055a8:	1839883a 	mov	fp,r3
  8055ac:	a800121e 	bne	r21,zero,8055f8 <_strtod_r+0xe78>
  8055b0:	b800111e 	bne	r23,zero,8055f8 <_strtod_r+0xe78>
  8055b4:	01400434 	movhi	r5,16
  8055b8:	297fffc4 	addi	r5,r5,-1
  8055bc:	a168703a 	and	r20,r20,r5
  8055c0:	a0000d1e 	bne	r20,zero,8055f8 <_strtod_r+0xe78>
  8055c4:	01a52834 	movhi	r6,38048
  8055c8:	01cff434 	movhi	r7,16336
  8055cc:	318d6544 	addi	r6,r6,13717
  8055d0:	39ffffc4 	addi	r7,r7,-1
  8055d4:	1009883a 	mov	r4,r2
  8055d8:	180b883a 	mov	r5,r3
  8055dc:	0810b780 	call	810b78 <__ledf2>
  8055e0:	103ef50e 	bge	r2,zero,8051b8 <__alt_mem_onchip_ram+0xff8011b8>
  8055e4:	9011883a 	mov	r8,r18
  8055e8:	d8800517 	ldw	r2,20(sp)
  8055ec:	d8000815 	stw	zero,32(sp)
  8055f0:	b039883a 	mov	fp,r22
  8055f4:	003f9a06 	br	805460 <__alt_mem_onchip_ram+0xff801460>
  8055f8:	01a52834 	movhi	r6,38048
  8055fc:	01cff834 	movhi	r7,16352
  805600:	4009883a 	mov	r4,r8
  805604:	318d6544 	addi	r6,r6,13717
  805608:	39ffffc4 	addi	r7,r7,-1
  80560c:	e00b883a 	mov	r5,fp
  805610:	da001315 	stw	r8,76(sp)
  805614:	0810b780 	call	810b78 <__ledf2>
  805618:	da001317 	ldw	r8,76(sp)
  80561c:	10000716 	blt	r2,zero,80563c <_strtod_r+0xebc>
  805620:	018d6c34 	movhi	r6,13744
  805624:	31b94d44 	addi	r6,r6,-6859
  805628:	01cff834 	movhi	r7,16352
  80562c:	4009883a 	mov	r4,r8
  805630:	e00b883a 	mov	r5,fp
  805634:	0810a9c0 	call	810a9c <__gedf2>
  805638:	00bedf0e 	bge	zero,r2,8051b8 <__alt_mem_onchip_ram+0xff8011b8>
  80563c:	9011883a 	mov	r8,r18
  805640:	d8800517 	ldw	r2,20(sp)
  805644:	ddc00815 	stw	r23,32(sp)
  805648:	b039883a 	mov	fp,r22
  80564c:	003f8406 	br	805460 <__alt_mem_onchip_ram+0xff801460>
  805650:	903e1026 	beq	r18,zero,804e94 <__alt_mem_onchip_ram+0xff800e94>
  805654:	04a5c83a 	sub	r18,zero,r18
  805658:	908003cc 	andi	r2,r18,15
  80565c:	10000b26 	beq	r2,zero,80568c <_strtod_r+0xf0c>
  805660:	100490fa 	slli	r2,r2,3
  805664:	00c02074 	movhi	r3,129
  805668:	18d3a204 	addi	r3,r3,20104
  80566c:	1885883a 	add	r2,r3,r2
  805670:	11800017 	ldw	r6,0(r2)
  805674:	11c00117 	ldw	r7,4(r2)
  805678:	b809883a 	mov	r4,r23
  80567c:	b00b883a 	mov	r5,r22
  805680:	08100440 	call	810044 <__divdf3>
  805684:	102f883a 	mov	r23,r2
  805688:	182d883a 	mov	r22,r3
  80568c:	9025d13a 	srai	r18,r18,4
  805690:	903e0026 	beq	r18,zero,804e94 <__alt_mem_onchip_ram+0xff800e94>
  805694:	008007c4 	movi	r2,31
  805698:	14801f16 	blt	r2,r18,805718 <_strtod_r+0xf98>
  80569c:	9080040c 	andi	r2,r18,16
  8056a0:	10018d26 	beq	r2,zero,805cd8 <_strtod_r+0x1558>
  8056a4:	00c01a84 	movi	r3,106
  8056a8:	d8c00715 	stw	r3,28(sp)
  8056ac:	04817e0e 	bge	zero,r18,805ca8 <_strtod_r+0x1528>
  8056b0:	05002074 	movhi	r20,129
  8056b4:	a5132404 	addi	r20,r20,19600
  8056b8:	b805883a 	mov	r2,r23
  8056bc:	b007883a 	mov	r3,r22
  8056c0:	0009883a 	mov	r4,zero
  8056c4:	9180004c 	andi	r6,r18,1
  8056c8:	30000626 	beq	r6,zero,8056e4 <_strtod_r+0xf64>
  8056cc:	a1800017 	ldw	r6,0(r20)
  8056d0:	a1c00117 	ldw	r7,4(r20)
  8056d4:	1009883a 	mov	r4,r2
  8056d8:	180b883a 	mov	r5,r3
  8056dc:	0810c6c0 	call	810c6c <__muldf3>
  8056e0:	01000044 	movi	r4,1
  8056e4:	9025d07a 	srai	r18,r18,1
  8056e8:	a5000204 	addi	r20,r20,8
  8056ec:	903ff51e 	bne	r18,zero,8056c4 <__alt_mem_onchip_ram+0xff8016c4>
  8056f0:	21003fcc 	andi	r4,r4,255
  8056f4:	2001891e 	bne	r4,zero,805d1c <_strtod_r+0x159c>
  8056f8:	d9000717 	ldw	r4,28(sp)
  8056fc:	20016a1e 	bne	r4,zero,805ca8 <_strtod_r+0x1528>
  805700:	000d883a 	mov	r6,zero
  805704:	000f883a 	mov	r7,zero
  805708:	b809883a 	mov	r4,r23
  80570c:	b00b883a 	mov	r5,r22
  805710:	0810a140 	call	810a14 <__eqdf2>
  805714:	103de01e 	bne	r2,zero,804e98 <__alt_mem_onchip_ram+0xff800e98>
  805718:	00800884 	movi	r2,34
  80571c:	88800015 	stw	r2,0(r17)
  805720:	d8000815 	stw	zero,32(sp)
  805724:	0039883a 	mov	fp,zero
  805728:	003cbe06 	br	804a24 <__alt_mem_onchip_ram+0xff800a24>
  80572c:	011387c4 	movi	r4,19999
  805730:	003d5606 	br	804c8c <__alt_mem_onchip_ram+0xff800c8c>
