
Floating_point.elf:     file format elf32-littlenios2
Floating_point.elf
architecture: nios2:r1, flags 0x00000112:
EXEC_P, HAS_SYMS, D_PAGED
start address 0x00800230

Program Header:
    LOAD off    0x00001000 vaddr 0x00800000 paddr 0x00800000 align 2**12
         filesz 0x00000020 memsz 0x00000020 flags r-x
    LOAD off    0x00001020 vaddr 0x00800020 paddr 0x00800020 align 2**12
         filesz 0x0001507c memsz 0x0001507c flags r-x
    LOAD off    0x0001609c vaddr 0x0081509c paddr 0x00816b8c align 2**12
         filesz 0x00001af0 memsz 0x00001af0 flags rw-
    LOAD off    0x0001867c vaddr 0x0081867c paddr 0x0081867c align 2**12
         filesz 0x00000000 memsz 0x00000160 flags rw-

Sections:
Idx Name          Size      VMA       LMA       File off  Algn
  0 .entry        00000020  00800000  00800000  00001000  2**5
                  CONTENTS, ALLOC, LOAD, READONLY, CODE
  1 .exceptions   00000210  00800020  00800020  00001020  2**2
                  CONTENTS, ALLOC, LOAD, READONLY, CODE
  2 .text         00014768  00800230  00800230  00001230  2**2
                  CONTENTS, ALLOC, LOAD, READONLY, CODE
  3 .rodata       00000704  00814998  00814998  00015998  2**2
                  CONTENTS, ALLOC, LOAD, READONLY, DATA
  4 .rwdata       00001af0  0081509c  00816b8c  0001609c  2**2
                  CONTENTS, ALLOC, LOAD, DATA, SMALL_DATA
  5 .bss          00000160  0081867c  0081867c  0001867c  2**2
                  ALLOC, SMALL_DATA
  6 .sdram        00000000  008187dc  008187dc  00017b8c  2**0
                  CONTENTS
  7 .onchip_ram   00000000  01004000  01004000  00017b8c  2**0
                  CONTENTS
  8 .comment      00000023  00000000  00000000  00017b8c  2**0
                  CONTENTS, READONLY
  9 .debug_aranges 00001190  00000000  00000000  00017bb0  2**3
                  CONTENTS, READONLY, DEBUGGING
 10 .debug_info   0002bf2a  00000000  00000000  00018d40  2**0
                  CONTENTS, READONLY, DEBUGGING
 11 .debug_abbrev 0000b09f  00000000  00000000  00044c6a  2**0
                  CONTENTS, READONLY, DEBUGGING
 12 .debug_line   0000e380  00000000  00000000  0004fd09  2**0
                  CONTENTS, READONLY, DEBUGGING
 13 .debug_frame  000025d4  00000000  00000000  0005e08c  2**2
                  CONTENTS, READONLY, DEBUGGING
 14 .debug_str    0000420b  00000000  00000000  00060660  2**0
                  CONTENTS, READONLY, DEBUGGING
 15 .debug_loc    0001ed61  00000000  00000000  0006486b  2**0
                  CONTENTS, READONLY, DEBUGGING
 16 .debug_alt_sim_info 00000010  00000000  00000000  000835cc  2**2
                  CONTENTS, READONLY, DEBUGGING
 17 .debug_ranges 00001cf8  00000000  00000000  000835e0  2**3
                  CONTENTS, READONLY, DEBUGGING
 18 .thread_model 00000003  00000000  00000000  0008894d  2**0
                  CONTENTS, READONLY
 19 .cpu          00000009  00000000  00000000  00088950  2**0
                  CONTENTS, READONLY
 20 .qsys         00000001  00000000  00000000  00088959  2**0
                  CONTENTS, READONLY
 21 .simulation_enabled 00000001  00000000  00000000  0008895a  2**0
                  CONTENTS, READONLY
 22 .sysid_hash   00000004  00000000  00000000  0008895b  2**0
                  CONTENTS, READONLY
 23 .sysid_base   00000004  00000000  00000000  0008895f  2**0
                  CONTENTS, READONLY
 24 .sysid_time   00000004  00000000  00000000  00088963  2**0
                  CONTENTS, READONLY
 25 .stderr_dev   00000009  00000000  00000000  00088967  2**0
                  CONTENTS, READONLY
 26 .stdin_dev    00000009  00000000  00000000  00088970  2**0
                  CONTENTS, READONLY
 27 .stdout_dev   00000009  00000000  00000000  00088979  2**0
                  CONTENTS, READONLY
 28 .sopc_system_name 00000017  00000000  00000000  00088982  2**0
                  CONTENTS, READONLY
 29 .quartus_project_dir 00000037  00000000  00000000  00088999  2**0
                  CONTENTS, READONLY
 30 .sopcinfo     0005a8d5  00000000  00000000  000889d0  2**0
                  CONTENTS, READONLY
SYMBOL TABLE:
00800000 l    d  .entry	00000000 .entry
00800020 l    d  .exceptions	00000000 .exceptions
00800230 l    d  .text	00000000 .text
00814998 l    d  .rodata	00000000 .rodata
0081509c l    d  .rwdata	00000000 .rwdata
0081867c l    d  .bss	00000000 .bss
008187dc l    d  .sdram	00000000 .sdram
01004000 l    d  .onchip_ram	00000000 .onchip_ram
00000000 l    d  .comment	00000000 .comment
00000000 l    d  .debug_aranges	00000000 .debug_aranges
00000000 l    d  .debug_info	00000000 .debug_info
00000000 l    d  .debug_abbrev	00000000 .debug_abbrev
00000000 l    d  .debug_line	00000000 .debug_line
00000000 l    d  .debug_frame	00000000 .debug_frame
00000000 l    d  .debug_str	00000000 .debug_str
00000000 l    d  .debug_loc	00000000 .debug_loc
00000000 l    d  .debug_alt_sim_info	00000000 .debug_alt_sim_info
00000000 l    d  .debug_ranges	00000000 .debug_ranges
00000000 l    df *ABS*	00000000 ../Floating_point_bsp//obj/HAL/src/crt0.o
00800268 l       .text	00000000 alt_after_alt_main
00000000 l    df *ABS*	00000000 alt_irq_handler.c
00000000 l    df *ABS*	00000000 alt_instruction_exception_entry.c
00000000 l    df *ABS*	00000000 hello_world.c
00000000 l    df *ABS*	00000000 impure.c
0081509c l     O .rwdata	00000424 impure_data
00000000 l    df *ABS*	00000000 putc.c
00000000 l    df *ABS*	00000000 putchar.c
00000000 l    df *ABS*	00000000 scanf.c
00000000 l    df *ABS*	00000000 vfscanf.c
008149a6 l     O .rodata	00000022 basefix.4359
00000000 l    df *ABS*	00000000 wbuf.c
00000000 l    df *ABS*	00000000 wsetup.c
00000000 l    df *ABS*	00000000 ctype_.c
00814ac9 l     O .rodata	00000180 _ctype_b
00000000 l    df *ABS*	00000000 fflush.c
00000000 l    df *ABS*	00000000 findfp.c
0080256c l     F .text	00000008 __fp_unlock
00802580 l     F .text	0000019c __sinit.part.1
0080271c l     F .text	00000008 __fp_lock
00000000 l    df *ABS*	00000000 fread.c
00000000 l    df *ABS*	00000000 mallocr.c
00000000 l    df *ABS*	00000000 fwalk.c
00000000 l    df *ABS*	00000000 iswspace.c
00000000 l    df *ABS*	00000000 locale.c
008154e0 l     O .rwdata	00000020 lc_ctype_charset
008154c0 l     O .rwdata	00000020 lc_message_charset
00815500 l     O .rwdata	00000038 lconv
00000000 l    df *ABS*	00000000 makebuf.c
00000000 l    df *ABS*	00000000 mallocr.c
00000000 l    df *ABS*	00000000 mbrtowc.c
00000000 l    df *ABS*	00000000 mbtowc_r.c
00000000 l    df *ABS*	00000000 memcpy.c
00000000 l    df *ABS*	00000000 memset.c
00000000 l    df *ABS*	00000000 refill.c
008040b0 l     F .text	0000001c lflush
00000000 l    df *ABS*	00000000 s_fpclassify.c
00000000 l    df *ABS*	00000000 sbrkr.c
00000000 l    df *ABS*	00000000 sccl.c
00000000 l    df *ABS*	00000000 sf_nan.c
00000000 l    df *ABS*	00000000 sprintf.c
00000000 l    df *ABS*	00000000 stdio.c
00000000 l    df *ABS*	00000000 strcmp.c
00000000 l    df *ABS*	00000000 strtod.c
0080471c l     F .text	00000064 sulp
00814c68 l     O .rodata	00000014 fpinan.2773
00814c7c l     O .rodata	00000014 fpi.2737
00814c90 l     O .rodata	00000028 tinytens
00000000 l    df *ABS*	00000000 strtol.c
00000000 l    df *ABS*	00000000 strtoll_r.c
00000000 l    df *ABS*	00000000 strtoul.c
00000000 l    df *ABS*	00000000 strtoull_r.c
00000000 l    df *ABS*	00000000 vfprintf.c
00814cfa l     O .rodata	00000010 zeroes.4389
00814d0a l     O .rodata	00000010 blanks.4388
00000000 l    df *ABS*	00000000 ungetc.c
00000000 l    df *ABS*	00000000 writer.c
00000000 l    df *ABS*	00000000 closer.c
00000000 l    df *ABS*	00000000 dtoa.c
00808f98 l     F .text	00000228 quorem
00000000 l    df *ABS*	00000000 fclose.c
00000000 l    df *ABS*	00000000 fstatr.c
00000000 l    df *ABS*	00000000 gdtoa-gethex.c
0080a9a8 l     F .text	00000100 rshift
00000000 l    df *ABS*	00000000 gdtoa-hexnan.c
00000000 l    df *ABS*	00000000 int_errno.c
00000000 l    df *ABS*	00000000 isattyr.c
00000000 l    df *ABS*	00000000 lseekr.c
00000000 l    df *ABS*	00000000 memchr.c
00000000 l    df *ABS*	00000000 mprec.c
00814e2c l     O .rodata	0000000c p05.2768
00000000 l    df *ABS*	00000000 readr.c
00000000 l    df *ABS*	00000000 mallocr.c
00000000 l    df *ABS*	00000000 strlen.c
00000000 l    df *ABS*	00000000 strncmp.c
00000000 l    df *ABS*	00000000 vfprintf.c
00814f50 l     O .rodata	00000010 zeroes.4333
00814f60 l     O .rodata	00000010 blanks.4332
00000000 l    df *ABS*	00000000 mallocr.c
00000000 l    df *ABS*	00000000 memmove.c
00000000 l    df *ABS*	00000000 libgcc2.c
00000000 l    df *ABS*	00000000 libgcc2.c
00000000 l    df *ABS*	00000000 libgcc2.c
00000000 l    df *ABS*	00000000 libgcc2.c
00000000 l    df *ABS*	00000000 lib2-divmod.c
00000000 l    df *ABS*	00000000 lib2-mul.c
00000000 l    df *ABS*	00000000 eqsf2.c
00000000 l    df *ABS*	00000000 gesf2.c
00000000 l    df *ABS*	00000000 lesf2.c
00000000 l    df *ABS*	00000000 adddf3.c
00000000 l    df *ABS*	00000000 divdf3.c
00000000 l    df *ABS*	00000000 eqdf2.c
00000000 l    df *ABS*	00000000 gedf2.c
00000000 l    df *ABS*	00000000 ledf2.c
00000000 l    df *ABS*	00000000 muldf3.c
00000000 l    df *ABS*	00000000 subdf3.c
00000000 l    df *ABS*	00000000 fixdfsi.c
00000000 l    df *ABS*	00000000 floatsidf.c
00000000 l    df *ABS*	00000000 floatunsidf.c
00000000 l    df *ABS*	00000000 truncdfsf2.c
00000000 l    df *ABS*	00000000 libgcc2.c
00000000 l    df *ABS*	00000000 libgcc2.c
00000000 l    df *ABS*	00000000 alt_close.c
008121e0 l     F .text	00000050 alt_get_errno
00000000 l    df *ABS*	00000000 alt_dev.c
00812308 l     F .text	0000002c alt_dev_null_write
00000000 l    df *ABS*	00000000 alt_errno.c
00000000 l    df *ABS*	00000000 alt_fstat.c
00812334 l     F .text	00000050 alt_get_errno
00000000 l    df *ABS*	00000000 alt_isatty.c
0081243c l     F .text	00000050 alt_get_errno
00000000 l    df *ABS*	00000000 alt_load.c
00812538 l     F .text	00000068 alt_load_section
00000000 l    df *ABS*	00000000 alt_lseek.c
00812624 l     F .text	00000050 alt_get_errno
00000000 l    df *ABS*	00000000 alt_main.c
00000000 l    df *ABS*	00000000 alt_malloc_lock.c
00000000 l    df *ABS*	00000000 alt_read.c
00812814 l     F .text	00000050 alt_get_errno
00000000 l    df *ABS*	00000000 alt_release_fd.c
00000000 l    df *ABS*	00000000 alt_sbrk.c
00816b7c l     O .rwdata	00000004 heap_end
00000000 l    df *ABS*	00000000 alt_write.c
00812a9c l     F .text	00000050 alt_get_errno
00000000 l    df *ABS*	00000000 alt_sys_init.c
00812bec l     F .text	00000038 alt_dev_reg
00815ae8 l     O .rwdata	00001060 jtag_uart
00000000 l    df *ABS*	00000000 altera_avalon_jtag_uart_fd.c
00000000 l    df *ABS*	00000000 altera_avalon_jtag_uart_init.c
00812ed4 l     F .text	0000020c altera_avalon_jtag_uart_irq
008130e0 l     F .text	000000a8 altera_avalon_jtag_uart_timeout
00000000 l    df *ABS*	00000000 altera_avalon_jtag_uart_ioctl.c
00000000 l    df *ABS*	00000000 altera_avalon_jtag_uart_read.c
00000000 l    df *ABS*	00000000 altera_avalon_jtag_uart_write.c
00000000 l    df *ABS*	00000000 alt_alarm_start.c
00000000 l    df *ABS*	00000000 alt_dcache_flush_all.c
00000000 l    df *ABS*	00000000 alt_dev_llist_insert.c
00813880 l     F .text	00000050 alt_get_errno
00000000 l    df *ABS*	00000000 alt_do_ctors.c
00000000 l    df *ABS*	00000000 alt_do_dtors.c
00000000 l    df *ABS*	00000000 alt_icache_flush_all.c
00000000 l    df *ABS*	00000000 alt_iic.c
00000000 l    df *ABS*	00000000 alt_iic_isr_register.c
00000000 l    df *ABS*	00000000 alt_io_redirect.c
00813d24 l     F .text	000000e4 alt_open_fd
00000000 l    df *ABS*	00000000 alt_irq_vars.c
00000000 l    df *ABS*	00000000 alt_open.c
00813e84 l     F .text	00000050 alt_get_errno
00813ed4 l     F .text	000000f4 alt_file_locked
00000000 l    df *ABS*	00000000 alt_tick.c
00000000 l    df *ABS*	00000000 altera_nios2_gen2_irq.c
00000000 l    df *ABS*	00000000 alt_find_dev.c
00000000 l    df *ABS*	00000000 alt_find_file.c
00000000 l    df *ABS*	00000000 alt_get_fd.c
00000000 l    df *ABS*	00000000 atexit.c
00000000 l    df *ABS*	00000000 exit.c
00000000 l    df *ABS*	00000000 memcmp.c
00000000 l    df *ABS*	00000000 __atexit.c
00000000 l    df *ABS*	00000000 __call_atexit.c
00000000 l    df *ABS*	00000000 alt_exit.c
008186b0 g     O .bss	00000004 alt_instruction_exception_handler
00800538 g     F .text	00000018 putchar
0080c634 g     F .text	00000074 _mprec_log10
0080c720 g     F .text	0000008c __any_on
0080b55c g     F .text	00000054 _isatty_r
00814e38 g     O .rodata	00000028 __mprec_tinytens
00812750 g     F .text	0000007c alt_main
008186dc g     O .bss	00000100 alt_irq
0080b5b0 g     F .text	00000060 _lseek_r
00816b8c g       *ABS*	00000000 __flash_rwdata_start
00810a14 g     F .text	00000088 .hidden __eqdf2
008187dc g       *ABS*	00000000 __alt_heap_start
008045dc g     F .text	0000005c __sseek
008028cc g     F .text	00000010 __sinit
00802018 g     F .text	00000140 __swbuf_r
00803178 g     F .text	0000007c _setlocale_r
00802724 g     F .text	00000078 __sfmoreglue
00808ecc g     F .text	00000018 ungetc
008127f0 g     F .text	00000024 __malloc_unlock
00804780 g     F .text	000015e4 _strtod_r
0080e524 g     F .text	0000015c memmove
008028b4 g     F .text	00000018 _cleanup
0080b6f4 g     F .text	000000a8 _Balloc
00810a9c g     F .text	000000dc .hidden __gtdf2
008142cc g     F .text	00000024 altera_nios2_gen2_irq_init
00800000 g     F .entry	0000000c __reset
00800020 g       *ABS*	00000000 __flash_exceptions_start
0080a94c g     F .text	0000005c _fstat_r
00818694 g     O .bss	00000004 errno
00801fb0 g     F .text	0000001c __svfscanf
00804558 g     F .text	00000008 __seofread
0080d0a8 g     F .text	000013a0 ___svfiprintf_internal_r
0081869c g     O .bss	00000004 alt_argv
0081eb48 g       *ABS*	00000000 _gp
00815968 g     O .rwdata	00000180 alt_fd_list
00800530 g     F .text	00000008 _putchar_r
008142f0 g     F .text	00000090 alt_find_dev
00803e40 g     F .text	00000148 memcpy
0080b2f8 g     F .text	00000264 __hexnan
00802574 g     F .text	0000000c _cleanup_r
00811e50 g     F .text	000000dc .hidden __floatsidf
00813e08 g     F .text	0000007c alt_io_redirect
00810b78 g     F .text	000000f4 .hidden __ltdf2
00814998 g       *ABS*	00000000 __DTOR_END__
00814568 g     F .text	0000009c alt_exception_cause_generated_bad_addr
00803cc8 g     F .text	000000d8 mbrtowc
008042a0 g     F .text	00000074 __fpclassifyd
00801fcc g     F .text	0000004c _vfscanf_r
0080c590 g     F .text	000000a4 __ratio
008132e0 g     F .text	0000021c altera_avalon_jtag_uart_read
0080f4b8 g     F .text	00000064 .hidden __udivsi3
0081248c g     F .text	000000ac isatty
00803148 g     F .text	00000030 iswspace
00814e88 g     O .rodata	000000c8 __mprec_tens
008031f4 g     F .text	0000000c __locale_charset
0080f6d0 g     F .text	000000c8 .hidden __lesf2
0080e78c g     F .text	00000074 .hidden __fixunsdfsi
00818690 g     O .bss	00000004 __malloc_top_pad
0080666c g     F .text	0000001c strtoul
00816b54 g     O .rwdata	00000004 __mb_cur_max
00803224 g     F .text	0000000c _localeconv_r
00806688 g     F .text	00000320 _strtoull_r
0080bb28 g     F .text	0000003c __i2b
00804314 g     F .text	00000054 _sbrk_r
0080c7ac g     F .text	00000060 _read_r
00816b74 g     O .rwdata	00000004 alt_max_fd
0080a848 g     F .text	000000f0 _fclose_r
0080253c g     F .text	00000030 fflush
0081868c g     O .bss	00000004 __malloc_max_sbrked_mem
0080f798 g     F .text	000008ac .hidden __adddf3
0080f59c g     F .text	00000078 .hidden __nesf2
0080c338 g     F .text	0000010c __b2d
0080edfc g     F .text	000005c4 .hidden __umoddi3
00812674 g     F .text	000000dc lseek
00816b48 g     O .rwdata	00000004 _global_impure_ptr
0080c80c g     F .text	00000564 _realloc_r
008187dc g       *ABS*	00000000 __bss_end
00813c34 g     F .text	000000f0 alt_iic_isr_register
008141c4 g     F .text	00000108 alt_tick
00814d2c g     O .rodata	00000100 __hexdig
0080e800 g     F .text	000005fc .hidden __udivdi3
00814e60 g     O .rodata	00000028 __mprec_bigtens
0080b90c g     F .text	00000104 __s2b
00811f2c g     F .text	000000a8 .hidden __floatunsidf
0080c078 g     F .text	00000060 __mcmp
008028ec g     F .text	00000018 __fp_lock_all
00813be8 g     F .text	0000004c alt_ic_irq_enabled
00814128 g     F .text	0000009c alt_alarm_stop
008060d4 g     F .text	0000001c strtol
008186a4 g     O .bss	00000004 alt_irq_active
008000fc g     F .exceptions	000000d4 alt_irq_handler
00815940 g     O .rwdata	00000028 alt_dev_null
00813860 g     F .text	00000020 alt_dcache_flush_all
0080ba10 g     F .text	00000068 __hi0bits
00811dd0 g     F .text	00000080 .hidden __fixdfsi
00805d64 g     F .text	00000018 strtod
00816b8c g       *ABS*	00000000 __ram_rwdata_end
00816b6c g     O .rwdata	00000008 alt_dev_list
00812aec g     F .text	00000100 write
008003c8 g     F .text	000000a0 _putc_r
0080f614 g     F .text	000000bc .hidden __gtsf2
0081509c g       *ABS*	00000000 __ram_rodata_end
00812384 g     F .text	000000b8 fstat
00810b78 g     F .text	000000f4 .hidden __ledf2
0080bdf0 g     F .text	00000140 __pow5mult
00818684 g     O .bss	00000004 __nlocale_changed
0080f51c g     F .text	00000058 .hidden __umodsi3
0080058c g     F .text	00000030 _scanf_r
008187dc g       *ABS*	00000000 end
00812e0c g     F .text	000000c8 altera_avalon_jtag_uart_init
008001d0 g     F .exceptions	00000060 alt_instruction_exception_entry
00814998 g       *ABS*	00000000 __CTOR_LIST__
01000000 g       *ABS*	00000000 __alt_stack_pointer
0081217c g     F .text	00000064 .hidden __clzsi2
008134fc g     F .text	00000224 altera_avalon_jtag_uart_write
008028dc g     F .text	00000004 __sfp_lock_acquire
0080b610 g     F .text	000000e4 memchr
00804440 g     F .text	00000058 _sprintf_r
00802cb0 g     F .text	00000310 _free_r
00803200 g     F .text	00000010 __locale_mb_cur_max
008147e4 g     F .text	00000180 __call_exitprocs
00818680 g     O .bss	00000004 __mlocale_changed
00816b58 g     O .rwdata	00000004 __malloc_sbrk_base
00800230 g     F .text	0000003c _start
008186a8 g     O .bss	00000004 _alt_tick_rate
008060f0 g     F .text	00000304 _strtoll_r
0080bf30 g     F .text	00000148 __lshift
008186ac g     O .bss	00000004 _alt_nticks
00812864 g     F .text	00000104 read
00812c5c g     F .text	0000004c alt_sys_init
0080ced8 g     F .text	000001d0 __ssprint_r
008146cc g     F .text	00000118 __register_exitproc
0080ce08 g     F .text	000000d0 strncmp
0080bb64 g     F .text	0000028c __multiply
00813188 g     F .text	00000068 altera_avalon_jtag_uart_close
0080f574 g     F .text	00000028 .hidden __mulsi3
0081509c g       *ABS*	00000000 __ram_rwdata_start
00814998 g       *ABS*	00000000 __ram_rodata_start
008186b4 g     O .bss	00000028 __malloc_current_mallinfo
0080f59c g     F .text	00000078 .hidden __eqsf2
0080c444 g     F .text	0000014c __d2b
00812ca8 g     F .text	00000060 altera_avalon_jtag_uart_read_fd
008063f4 g     F .text	00000278 _strtoul_r
00814494 g     F .text	000000d4 alt_get_fd
00808f44 g     F .text	00000054 _close_r
00814650 g     F .text	0000007c memcmp
00812d68 g     F .text	00000050 altera_avalon_jtag_uart_close_fd
008187dc g       *ABS*	00000000 __alt_stack_base
00812db8 g     F .text	00000054 altera_avalon_jtag_uart_ioctl_fd
00802170 g     F .text	00000154 __swsetup_r
00810044 g     F .text	000009d0 .hidden __divdf3
0080279c g     F .text	00000118 __sfp
0080c6a8 g     F .text	00000078 __copybits
00815538 g     O .rwdata	00000408 __malloc_av_
008028e8 g     F .text	00000004 __sinit_lock_release
00810c6c g     F .text	00000868 .hidden __muldf3
00804504 g     F .text	00000054 __sread
00802b58 g     F .text	00000034 fread
00814380 g     F .text	00000114 alt_find_file
008138d0 g     F .text	000000a4 alt_dev_llist_insert
008127cc g     F .text	00000024 __malloc_lock
008129ec g     F .text	000000b0 sbrk
008069a8 g     F .text	000022bc ___svfprintf_internal_r
008024e0 g     F .text	0000005c _fflush_r
0080e448 g     F .text	000000dc _calloc_r
0081867c g       *ABS*	00000000 __bss_start
00803f88 g     F .text	00000128 memset
0080026c g     F .text	0000015c main
008186a0 g     O .bss	00000004 alt_envp
00818688 g     O .bss	00000004 __malloc_max_total_mem
00812d08 g     F .text	00000060 altera_avalon_jtag_uart_write_fd
00802158 g     F .text	00000018 __swbuf
0080f6d0 g     F .text	000000c8 .hidden __ltsf2
0080291c g     F .text	0000023c _fread_r
00804638 g     F .text	00000008 __sclose
01000000 g       *ABS*	00000000 __alt_heap_limit
0080a938 g     F .text	00000014 fclose
00805e7c g     F .text	00000258 _strtol_r
00811fd4 g     F .text	000001a8 .hidden __truncdfsf2
008091c0 g     F .text	00001688 _dtoa_r
00803410 g     F .text	0000080c _malloc_r
00816b78 g     O .rwdata	00000004 alt_errno
00808c64 g     F .text	000000d4 __submore
00802fc0 g     F .text	000000c4 _fwalk
00803de4 g     F .text	0000005c _mbtowc_r
00800468 g     F .text	000000c8 putc
0080f3c0 g     F .text	00000084 .hidden __divsi3
00802b8c g     F .text	00000124 _malloc_trim_r
00814998 g       *ABS*	00000000 __CTOR_END__
00804640 g     F .text	000000dc strcmp
00814998 g       *ABS*	00000000 __flash_rodata_start
00814998 g       *ABS*	00000000 __DTOR_LIST__
00810a14 g     F .text	00000088 .hidden __nedf2
00812c24 g     F .text	00000038 alt_irq_init
00812968 g     F .text	00000084 alt_release_fd
00804498 g     F .text	0000006c sprintf
00814f70 g     O .rodata	00000100 .hidden __clz_tab
0081867c g     O .bss	00000004 _PathLocale
00805d7c g     F .text	00000100 strtof
00814604 g     F .text	00000014 atexit
0080f614 g     F .text	000000bc .hidden __gesf2
00808ee4 g     F .text	00000060 _write_r
00803230 g     F .text	00000018 setlocale
00800550 g     F .text	0000003c scanf
00804438 g     F .text	00000008 nanf
00816b4c g     O .rwdata	00000004 _impure_ptr
00818698 g     O .bss	00000004 alt_argc
008022c4 g     F .text	0000021c __sflush_r
00803c1c g     F .text	000000ac _mbrtowc_r
008139d4 g     F .text	00000060 _do_dtors
0080321c g     F .text	00000008 __locale_cjk_lang
008040cc g     F .text	000001d4 __srefill_r
00800020 g       .exceptions	00000000 alt_irq_entry
00803da0 g     F .text	00000044 __ascii_mbtowc
0080c2d4 g     F .text	00000064 __ulp
00802904 g     F .text	00000018 __fp_unlock_all
00816b64 g     O .rwdata	00000008 alt_fs_list
00800020 g       *ABS*	00000000 __ram_exceptions_start
00803248 g     F .text	0000000c localeconv
00813a54 g     F .text	00000050 alt_ic_isr_register
00816b8c g       *ABS*	00000000 _edata
008187dc g       *ABS*	00000000 _end
00800230 g       *ABS*	00000000 __ram_exceptions_end
00801f48 g     F .text	00000068 vfscanf
008131f0 g     F .text	000000f0 altera_avalon_jtag_uart_ioctl
00813b44 g     F .text	000000a4 alt_ic_irq_disable
00804560 g     F .text	0000007c __swrite
00816b5c g     O .rwdata	00000004 __malloc_trim_threshold
00803210 g     F .text	0000000c __locale_msgcharset
00814618 g     F .text	00000038 exit
00803084 g     F .text	000000c4 _fwalk_reent
0080c0d8 g     F .text	000001fc __mdiff
0080f444 g     F .text	00000074 .hidden __modsi3
00816b50 g     O .rwdata	00000004 __ctype_ptr__
01000000 g       *ABS*	00000000 __alt_data_end
00800020 g     F .exceptions	00000000 alt_exception
008028e0 g     F .text	00000004 __sfp_lock_release
00800000 g       *ABS*	00000000 __alt_mem_sdram
00804368 g     F .text	000000d0 __sccl
008149c8 g     O .rodata	00000101 _ctype_
01004000 g       *ABS*	00000000 __alt_mem_onchip_ram
00816b60 g     O .rwdata	00000004 __mbtowc
00814964 g     F .text	00000034 _exit
00813720 g     F .text	00000140 alt_alarm_start
0080e680 g     F .text	0000010c .hidden __muldi3
00803254 g     F .text	000001bc __smakebuf_r
0080cd70 g     F .text	00000098 strlen
00813fc8 g     F .text	00000160 open
00810a9c g     F .text	000000dc .hidden __gedf2
0080aaa8 g     F .text	00000850 __gethex
00813a34 g     F .text	00000020 alt_icache_flush_all
00816b80 g     O .rwdata	00000004 alt_priority_mask
00813aa4 g     F .text	000000a0 alt_ic_irq_enable
008114d4 g     F .text	000008fc .hidden __subdf3
0080ba78 g     F .text	000000b0 __lo0bits
008005bc g     F .text	0000198c __svfscanf_r
00816b84 g     O .rwdata	00000008 alt_alarm_list
00808d38 g     F .text	00000194 _ungetc_r
00813974 g     F .text	00000060 _do_ctors
00812230 g     F .text	000000d8 close
008125a0 g     F .text	00000084 alt_load
008028e4 g     F .text	00000004 __sinit_lock_acquire
0080b7c4 g     F .text	00000148 __multadd
0080b79c g     F .text	00000028 _Bfree



Disassembly of section .entry:

00800000 <__reset>:
 * Jump to the _start entry point in the .text section if reset code
 * is allowed or if optimizing for RTL simulation.
 */
#if defined(ALT_ALLOW_CODE_AT_RESET) || defined(ALT_SIM_OPTIMIZE)
    /* Jump to the _start entry point in the .text section. */
    movhi r1, %hi(_start)
  800000:	00402034 	movhi	at,128
    ori r1, r1, %lo(_start)
  800004:	08408c14 	ori	at,at,560
    jmp r1
  800008:	0800683a 	jmp	at
	...

Disassembly of section .exceptions:

00800020 <alt_exception>:

#else /* ALT_EXCEPTION_STACK disabled */
        /* 
         * Reserve space on normal stack for registers about to be pushed.
         */
        addi  sp, sp, -76
  800020:	deffed04 	addi	sp,sp,-76
         * documentation for details).
         *
         * Leave a gap in the stack frame at 4(sp) for the muldiv handler to
         * store zero into.
         */
        stw   ra,  0(sp)
  800024:	dfc00015 	stw	ra,0(sp)
        stw   r1,   8(sp)
  800028:	d8400215 	stw	at,8(sp)
        stw   r2,  12(sp)
  80002c:	d8800315 	stw	r2,12(sp)
        stw   r3,  16(sp)
  800030:	d8c00415 	stw	r3,16(sp)
        stw   r4,  20(sp)
  800034:	d9000515 	stw	r4,20(sp)
        stw   r5,  24(sp)
  800038:	d9400615 	stw	r5,24(sp)
        stw   r6,  28(sp)
  80003c:	d9800715 	stw	r6,28(sp)
        stw   r7,  32(sp)
  800040:	d9c00815 	stw	r7,32(sp)
        rdctl r5, estatus   /* Read early to avoid usage stall */
  800044:	000b307a 	rdctl	r5,estatus
        stw   r8,  36(sp)
  800048:	da000915 	stw	r8,36(sp)
        stw   r9,  40(sp)
  80004c:	da400a15 	stw	r9,40(sp)
        stw   r10, 44(sp)
  800050:	da800b15 	stw	r10,44(sp)
        stw   r11, 48(sp)
  800054:	dac00c15 	stw	r11,48(sp)
        stw   r12, 52(sp)
  800058:	db000d15 	stw	r12,52(sp)
        stw   r13, 56(sp)
  80005c:	db400e15 	stw	r13,56(sp)
        stw   r14, 60(sp)
  800060:	db800f15 	stw	r14,60(sp)
        stw   r15, 64(sp)
  800064:	dbc01015 	stw	r15,64(sp)
        /*
         * ea-4 contains the address of the instruction being executed
         * when the exception occured. For interrupt exceptions, we will
         * will be re-issue the isntruction. Store it in 72(sp)
         */
        stw   r5,  68(sp)  /* estatus */
  800068:	d9401115 	stw	r5,68(sp)
        addi  r15, ea, -4  /* instruction that caused exception */
  80006c:	ebffff04 	addi	r15,ea,-4
        stw   r15,  72(sp)
  800070:	dbc01215 	stw	r15,72(sp)
#else
        /*
         * Test to see if the exception was a software exception or caused 
         * by an external interrupt, and vector accordingly.
         */
        rdctl r4, ipending
  800074:	0009313a 	rdctl	r4,ipending
        andi  r2, r5, 1
  800078:	2880004c 	andi	r2,r5,1
        beq   r2, zero, .Lnot_irq
  80007c:	10000326 	beq	r2,zero,80008c <alt_exception+0x6c>
        beq   r4, zero, .Lnot_irq
  800080:	20000226 	beq	r4,zero,80008c <alt_exception+0x6c>
        /*
         * Now that all necessary registers have been preserved, call 
         * alt_irq_handler() to process the interrupts.
         */

        call alt_irq_handler
  800084:	08000fc0 	call	8000fc <alt_irq_handler>

        .section .exceptions.irqreturn, "xa"

        br    .Lexception_exit
  800088:	00000706 	br	8000a8 <alt_exception+0x88>
         * upon completion, so we write ea (address of instruction *after*
         * the one where the exception occured) into 72(sp). The actual
         * instruction that caused the exception is written in r2, which these
         * handlers will utilize.
         */
        stw ea, 72(sp) /* EA is PC+4 so will skip over instruction causing exception */
  80008c:	df401215 	stw	ea,72(sp)
.Lunknown_16bit:
        addi.n r4, r4, 2 /* Need PC+2 to skip over instruction causing exception */
        stw r4, 72(sp)

#else /* CDX is not Enabled and all instructions are 32bits */
        ldw r2, -4(ea) /* Instruction value that caused exception */
  800090:	e8bfff17 	ldw	r2,-4(ea)
         * debugger is present) or go into an infinite loop since the
         * handling behavior is undefined; in that case we will not return here.
         */

        /* Load exception-causing address as first argument (r4) */
        addi   r4, ea, -4
  800094:	e93fff04 	addi	r4,ea,-4

        /* Call the instruction-exception entry */
        call   alt_instruction_exception_entry
  800098:	08001d00 	call	8001d0 <alt_instruction_exception_entry>
         * instruction
         *
         * Return code was 0: Skip. The instruction after the exception is
         * already stored in 72(sp).
         */
        bne   r2, r0, .Lexception_exit
  80009c:	1000021e 	bne	r2,zero,8000a8 <alt_exception+0x88>

        /*
         * Otherwise, modify 72(sp) to re-issue the instruction that caused the
         * exception.
         */
        addi  r15, ea, -4  /* instruction that caused exception */
  8000a0:	ebffff04 	addi	r15,ea,-4
        stw   r15,  72(sp)
  8000a4:	dbc01215 	stw	r15,72(sp)
        /* 
         * Restore the saved registers, so that all general purpose registers 
         * have been restored to their state at the time the interrupt occured.
         */

        ldw   r5,  68(sp)
  8000a8:	d9401117 	ldw	r5,68(sp)
        ldw   ea,  72(sp)  /* This becomes the PC once eret is executed */
  8000ac:	df401217 	ldw	ea,72(sp)
        ldw   ra,   0(sp)
  8000b0:	dfc00017 	ldw	ra,0(sp)

        wrctl estatus, r5
  8000b4:	2801707a 	wrctl	estatus,r5

        ldw   r1,   8(sp)
  8000b8:	d8400217 	ldw	at,8(sp)
        ldw   r2,  12(sp)
  8000bc:	d8800317 	ldw	r2,12(sp)
        ldw   r3,  16(sp)
  8000c0:	d8c00417 	ldw	r3,16(sp)
        ldw   r4,  20(sp)
  8000c4:	d9000517 	ldw	r4,20(sp)
        ldw   r5,  24(sp)
  8000c8:	d9400617 	ldw	r5,24(sp)
        ldw   r6,  28(sp)
  8000cc:	d9800717 	ldw	r6,28(sp)
        ldw   r7,  32(sp)
  8000d0:	d9c00817 	ldw	r7,32(sp)

#if defined(ALT_EXCEPTION_STACK) && defined(ALT_STACK_CHECK)
        ldw   et, %gprel(alt_exception_old_stack_limit)(gp)
#endif

        ldw   r8,  36(sp)
  8000d4:	da000917 	ldw	r8,36(sp)
        ldw   r9,  40(sp)
  8000d8:	da400a17 	ldw	r9,40(sp)
        ldw   r10, 44(sp)
  8000dc:	da800b17 	ldw	r10,44(sp)
        ldw   r11, 48(sp)
  8000e0:	dac00c17 	ldw	r11,48(sp)
        ldw   r12, 52(sp)
  8000e4:	db000d17 	ldw	r12,52(sp)
        ldw   r13, 56(sp)
  8000e8:	db400e17 	ldw	r13,56(sp)
        ldw   r14, 60(sp)
  8000ec:	db800f17 	ldw	r14,60(sp)
        ldw   r15, 64(sp)
  8000f0:	dbc01017 	ldw	r15,64(sp)
        stw   et, %gprel(alt_stack_limit_value)(gp)
        stw   zero, %gprel(alt_exception_old_stack_limit)(gp)
#endif /* ALT_STACK_CHECK */
        ldw   sp,  76(sp)
#else /* ALT_EXCEPTION_STACK disabled */
        addi  sp, sp, 76
  8000f4:	dec01304 	addi	sp,sp,76

        /*
         * Return to the interrupted instruction.
         */

        eret
  8000f8:	ef80083a 	eret

008000fc <alt_irq_handler>:
 * instruction is present if the macro ALT_CI_INTERRUPT_VECTOR defined.
 */

void alt_irq_handler (void) __attribute__ ((section (".exceptions")));
void alt_irq_handler (void)
{
  8000fc:	defff904 	addi	sp,sp,-28
  800100:	dfc00615 	stw	ra,24(sp)
  800104:	df000515 	stw	fp,20(sp)
  800108:	df000504 	addi	fp,sp,20
  
  /*
   * Notify the operating system that we are at interrupt level.
   */ 
  
  ALT_OS_INT_ENTER();
  80010c:	0001883a 	nop
#ifndef NIOS2_EIC_PRESENT
static ALT_INLINE alt_u32 ALT_ALWAYS_INLINE alt_irq_pending (void)
{
  alt_u32 active;

  NIOS2_READ_IPENDING (active);
  800110:	0005313a 	rdctl	r2,ipending
  800114:	e0bffe15 	stw	r2,-8(fp)

  return active;
  800118:	e0bffe17 	ldw	r2,-8(fp)
   * Consider the case where the high priority interupt is asserted during
   * the interrupt entry sequence for a lower priority interrupt to see why
   * this is the case.
   */

  active = alt_irq_pending ();
  80011c:	e0bffb15 	stw	r2,-20(fp)

  do
  {
    i = 0;
  800120:	e03ffd15 	stw	zero,-12(fp)
    mask = 1;
  800124:	00800044 	movi	r2,1
  800128:	e0bffc15 	stw	r2,-16(fp)
     * called to clear the interrupt condition.
     */

    do
    {
      if (active & mask)
  80012c:	e0fffb17 	ldw	r3,-20(fp)
  800130:	e0bffc17 	ldw	r2,-16(fp)
  800134:	1884703a 	and	r2,r3,r2
  800138:	10001426 	beq	r2,zero,80018c <alt_irq_handler+0x90>
      { 
#ifdef ALT_ENHANCED_INTERRUPT_API_PRESENT
        alt_irq[i].handler(alt_irq[i].context); 
  80013c:	008020b4 	movhi	r2,130
  800140:	10a1b704 	addi	r2,r2,-31012
  800144:	e0fffd17 	ldw	r3,-12(fp)
  800148:	180690fa 	slli	r3,r3,3
  80014c:	10c5883a 	add	r2,r2,r3
  800150:	10c00017 	ldw	r3,0(r2)
  800154:	008020b4 	movhi	r2,130
  800158:	10a1b704 	addi	r2,r2,-31012
  80015c:	e13ffd17 	ldw	r4,-12(fp)
  800160:	200890fa 	slli	r4,r4,3
  800164:	1105883a 	add	r2,r2,r4
  800168:	10800104 	addi	r2,r2,4
  80016c:	10800017 	ldw	r2,0(r2)
  800170:	1009883a 	mov	r4,r2
  800174:	183ee83a 	callr	r3
#else
        alt_irq[i].handler(alt_irq[i].context, i); 
#endif
        break;
  800178:	0001883a 	nop
#ifndef NIOS2_EIC_PRESENT
static ALT_INLINE alt_u32 ALT_ALWAYS_INLINE alt_irq_pending (void)
{
  alt_u32 active;

  NIOS2_READ_IPENDING (active);
  80017c:	0005313a 	rdctl	r2,ipending
  800180:	e0bfff15 	stw	r2,-4(fp)

  return active;
  800184:	e0bfff17 	ldw	r2,-4(fp)
  800188:	00000706 	br	8001a8 <alt_irq_handler+0xac>
      }
      mask <<= 1;
  80018c:	e0bffc17 	ldw	r2,-16(fp)
  800190:	1085883a 	add	r2,r2,r2
  800194:	e0bffc15 	stw	r2,-16(fp)
      i++;
  800198:	e0bffd17 	ldw	r2,-12(fp)
  80019c:	10800044 	addi	r2,r2,1
  8001a0:	e0bffd15 	stw	r2,-12(fp)

    } while (1);
  8001a4:	003fe106 	br	80012c <__alt_mem_onchip_ram+0xff7fc12c>

    active = alt_irq_pending ();
  8001a8:	e0bffb15 	stw	r2,-20(fp)
    
  } while (active);
  8001ac:	e0bffb17 	ldw	r2,-20(fp)
  8001b0:	103fdb1e 	bne	r2,zero,800120 <__alt_mem_onchip_ram+0xff7fc120>

  /*
   * Notify the operating system that interrupt processing is complete.
   */ 

  ALT_OS_INT_EXIT();
  8001b4:	0001883a 	nop
}
  8001b8:	0001883a 	nop
  8001bc:	e037883a 	mov	sp,fp
  8001c0:	dfc00117 	ldw	ra,4(sp)
  8001c4:	df000017 	ldw	fp,0(sp)
  8001c8:	dec00204 	addi	sp,sp,8
  8001cc:	f800283a 	ret

008001d0 <alt_instruction_exception_entry>:
 * that handler if it has been registered. Absent a handler, it will
 * break break or hang as discussed below.
 */
int 
alt_instruction_exception_entry (alt_u32 exception_pc)
{
  8001d0:	defffb04 	addi	sp,sp,-20
  8001d4:	dfc00415 	stw	ra,16(sp)
  8001d8:	df000315 	stw	fp,12(sp)
  8001dc:	df000304 	addi	fp,sp,12
  8001e0:	e13fff15 	stw	r4,-4(fp)
  cause = ( (cause & NIOS2_EXCEPTION_REG_CAUSE_MASK) >>
              NIOS2_EXCEPTION_REG_CAUSE_OFST );

  NIOS2_READ_BADADDR(badaddr);
#else
  cause = NIOS2_EXCEPTION_CAUSE_NOT_PRESENT;
  8001e4:	00bfffc4 	movi	r2,-1
  8001e8:	e0bffd15 	stw	r2,-12(fp)
  badaddr = 0;
  8001ec:	e03ffe15 	stw	zero,-8(fp)
#endif /* NIOS2_HAS_EXTRA_EXCEPTION_INFO */

  if(alt_instruction_exception_handler) {
  8001f0:	d0a6da17 	ldw	r2,-25752(gp)
  8001f4:	10000726 	beq	r2,zero,800214 <alt_instruction_exception_entry+0x44>
     * Call handler. Its return value indicates whether the exception-causing
     * instruction should be re-issued. The code that called us,
     * alt_eceptions_entry.S, will look at this value and adjust the ea
     * register as necessary
     */
    return alt_instruction_exception_handler(cause, exception_pc, badaddr);
  8001f8:	d0a6da17 	ldw	r2,-25752(gp)
  8001fc:	e0fffd17 	ldw	r3,-12(fp)
  800200:	e1bffe17 	ldw	r6,-8(fp)
  800204:	e17fff17 	ldw	r5,-4(fp)
  800208:	1809883a 	mov	r4,r3
  80020c:	103ee83a 	callr	r2
  800210:	00000206 	br	80021c <alt_instruction_exception_entry+0x4c>
   *    (a peripheral which negates its interrupt output before its
   *    interrupt handler has been executed will cause spurious interrupts)
   */
  else {
#ifdef NIOS2_HAS_DEBUG_STUB
    NIOS2_BREAK();
  800214:	003da03a 	break	0
      ;
#endif /* NIOS2_HAS_DEBUG_STUB */
  }

  /* We should not get here. Remove compiler warning. */
  return NIOS2_EXCEPTION_RETURN_REISSUE_INST;
  800218:	0005883a 	mov	r2,zero
}
  80021c:	e037883a 	mov	sp,fp
  800220:	dfc00117 	ldw	ra,4(sp)
  800224:	df000017 	ldw	fp,0(sp)
  800228:	dec00204 	addi	sp,sp,8
  80022c:	f800283a 	ret

Disassembly of section .text:

00800230 <_start>:

    /*
     * Now that the caches are initialized, set up the stack pointer and global pointer.
     * The values provided by the linker are assumed to be correctly aligned.
     */
    movhi sp, %hi(__alt_stack_pointer)
  800230:	06c04034 	movhi	sp,256
    ori sp, sp, %lo(__alt_stack_pointer)
  800234:	dec00014 	ori	sp,sp,0
    movhi gp, %hi(_gp)
  800238:	06802074 	movhi	gp,129
    ori gp, gp, %lo(_gp)
  80023c:	d6bad214 	ori	gp,gp,60232
 */
#ifndef ALT_SIM_OPTIMIZE
    /* Log that the BSS is about to be cleared. */
    ALT_LOG_PUTS(alt_log_msg_bss)

    movhi r2, %hi(__bss_start)
  800240:	00802074 	movhi	r2,129
    ori r2, r2, %lo(__bss_start)
  800244:	10a19f14 	ori	r2,r2,34428

    movhi r3, %hi(__bss_end)
  800248:	00c02074 	movhi	r3,129
    ori r3, r3, %lo(__bss_end)
  80024c:	18e1f714 	ori	r3,r3,34780

    beq r2, r3, 1f
  800250:	10c00326 	beq	r2,r3,800260 <_start+0x30>

0:
    stw zero, (r2)
  800254:	10000015 	stw	zero,0(r2)
    addi r2, r2, 4
  800258:	10800104 	addi	r2,r2,4
    bltu r2, r3, 0b
  80025c:	10fffd36 	bltu	r2,r3,800254 <__alt_mem_onchip_ram+0xff7fc254>
     * section aren't defined until alt_load() has been called).
     */
    mov   et, zero
#endif

    call alt_load
  800260:	08125a00 	call	8125a0 <alt_load>

    /* Log that alt_main is about to be called. */
    ALT_LOG_PUTS(alt_log_msg_alt_main)

    /* Call the C entry point. It should never return. */
    call alt_main
  800264:	08127500 	call	812750 <alt_main>

00800268 <alt_after_alt_main>:

    /* Wait in infinite loop in case alt_main does return. */
alt_after_alt_main:
    br alt_after_alt_main
  800268:	003fff06 	br	800268 <__alt_mem_onchip_ram+0xff7fc268>

0080026c <main>:
 */

#include <stdio.h>

int main()
{
  80026c:	defffa04 	addi	sp,sp,-24
  800270:	dfc00515 	stw	ra,20(sp)
  800274:	df000415 	stw	fp,16(sp)
  800278:	df000404 	addi	fp,sp,16

		float f;
      int n,i;
      unsigned int mask;
      scanf("%f",&f);
  80027c:	e0bfff04 	addi	r2,fp,-4
  800280:	100b883a 	mov	r5,r2
  800284:	01002074 	movhi	r4,129
  800288:	21126604 	addi	r4,r4,18840
  80028c:	08005500 	call	800550 <scanf>
      i = *(int *)&f;
  800290:	e0bfff04 	addi	r2,fp,-4
  800294:	10800017 	ldw	r2,0(r2)
  800298:	e0bffe15 	stw	r2,-8(fp)
      n = 0;
  80029c:	e03ffc15 	stw	zero,-16(fp)

      for (mask = 0x80000000; mask != 0; mask >>= 1)
  8002a0:	00a00034 	movhi	r2,32768
  8002a4:	e0bffd15 	stw	r2,-12(fp)
  8002a8:	00003d06 	br	8003a0 <main+0x134>
      {
          if((n==1) || (n==9))
  8002ac:	e0bffc17 	ldw	r2,-16(fp)
  8002b0:	10800060 	cmpeqi	r2,r2,1
  8002b4:	1000031e 	bne	r2,zero,8002c4 <main+0x58>
  8002b8:	e0bffc17 	ldw	r2,-16(fp)
  8002bc:	10800258 	cmpnei	r2,r2,9
  8002c0:	1000071e 	bne	r2,zero,8002e0 <main+0x74>
              putchar(' ');
  8002c4:	00802074 	movhi	r2,129
  8002c8:	109ad304 	addi	r2,r2,27468
  8002cc:	10800017 	ldw	r2,0(r2)
  8002d0:	10800217 	ldw	r2,8(r2)
  8002d4:	100b883a 	mov	r5,r2
  8002d8:	01000804 	movi	r4,32
  8002dc:	08004680 	call	800468 <putc>
          if((n==4) || (n==8)|| (n == 12)|| n== 16 ||n==20|| n==24 ||n==28)
  8002e0:	e0bffc17 	ldw	r2,-16(fp)
  8002e4:	10800120 	cmpeqi	r2,r2,4
  8002e8:	1000121e 	bne	r2,zero,800334 <main+0xc8>
  8002ec:	e0bffc17 	ldw	r2,-16(fp)
  8002f0:	10800220 	cmpeqi	r2,r2,8
  8002f4:	10000f1e 	bne	r2,zero,800334 <main+0xc8>
  8002f8:	e0bffc17 	ldw	r2,-16(fp)
  8002fc:	10800320 	cmpeqi	r2,r2,12
  800300:	10000c1e 	bne	r2,zero,800334 <main+0xc8>
  800304:	e0bffc17 	ldw	r2,-16(fp)
  800308:	10800420 	cmpeqi	r2,r2,16
  80030c:	1000091e 	bne	r2,zero,800334 <main+0xc8>
  800310:	e0bffc17 	ldw	r2,-16(fp)
  800314:	10800520 	cmpeqi	r2,r2,20
  800318:	1000061e 	bne	r2,zero,800334 <main+0xc8>
  80031c:	e0bffc17 	ldw	r2,-16(fp)
  800320:	10800620 	cmpeqi	r2,r2,24
  800324:	1000031e 	bne	r2,zero,800334 <main+0xc8>
  800328:	e0bffc17 	ldw	r2,-16(fp)
  80032c:	10800718 	cmpnei	r2,r2,28
  800330:	1000071e 	bne	r2,zero,800350 <main+0xe4>
                  putchar(' ');
  800334:	00802074 	movhi	r2,129
  800338:	109ad304 	addi	r2,r2,27468
  80033c:	10800017 	ldw	r2,0(r2)
  800340:	10800217 	ldw	r2,8(r2)
  800344:	100b883a 	mov	r5,r2
  800348:	01000804 	movi	r4,32
  80034c:	08004680 	call	800468 <putc>
          putchar((i & mask)? '1':'0');
  800350:	e0fffe17 	ldw	r3,-8(fp)
  800354:	e0bffd17 	ldw	r2,-12(fp)
  800358:	1884703a 	and	r2,r3,r2
  80035c:	10000226 	beq	r2,zero,800368 <main+0xfc>
  800360:	00c00c44 	movi	r3,49
  800364:	00000106 	br	80036c <main+0x100>
  800368:	00c00c04 	movi	r3,48
  80036c:	00802074 	movhi	r2,129
  800370:	109ad304 	addi	r2,r2,27468
  800374:	10800017 	ldw	r2,0(r2)
  800378:	10800217 	ldw	r2,8(r2)
  80037c:	100b883a 	mov	r5,r2
  800380:	1809883a 	mov	r4,r3
  800384:	08004680 	call	800468 <putc>
          n++;
  800388:	e0bffc17 	ldw	r2,-16(fp)
  80038c:	10800044 	addi	r2,r2,1
  800390:	e0bffc15 	stw	r2,-16(fp)
      unsigned int mask;
      scanf("%f",&f);
      i = *(int *)&f;
      n = 0;

      for (mask = 0x80000000; mask != 0; mask >>= 1)
  800394:	e0bffd17 	ldw	r2,-12(fp)
  800398:	1004d07a 	srli	r2,r2,1
  80039c:	e0bffd15 	stw	r2,-12(fp)
  8003a0:	e0bffd17 	ldw	r2,-12(fp)
  8003a4:	103fc11e 	bne	r2,zero,8002ac <__alt_mem_onchip_ram+0xff7fc2ac>
          if((n==4) || (n==8)|| (n == 12)|| n== 16 ||n==20|| n==24 ||n==28)
                  putchar(' ');
          putchar((i & mask)? '1':'0');
          n++;
      }
      printf("\n");
  8003a8:	01000284 	movi	r4,10
  8003ac:	08005380 	call	800538 <putchar>

  return 0;
  8003b0:	0005883a 	mov	r2,zero
}
  8003b4:	e037883a 	mov	sp,fp
  8003b8:	dfc00117 	ldw	ra,4(sp)
  8003bc:	df000017 	ldw	fp,0(sp)
  8003c0:	dec00204 	addi	sp,sp,8
  8003c4:	f800283a 	ret

008003c8 <_putc_r>:
  8003c8:	defffc04 	addi	sp,sp,-16
  8003cc:	dc000215 	stw	r16,8(sp)
  8003d0:	dfc00315 	stw	ra,12(sp)
  8003d4:	2021883a 	mov	r16,r4
  8003d8:	20000226 	beq	r4,zero,8003e4 <_putc_r+0x1c>
  8003dc:	20800e17 	ldw	r2,56(r4)
  8003e0:	10001b26 	beq	r2,zero,800450 <_putc_r+0x88>
  8003e4:	30800217 	ldw	r2,8(r6)
  8003e8:	10bfffc4 	addi	r2,r2,-1
  8003ec:	30800215 	stw	r2,8(r6)
  8003f0:	10000a16 	blt	r2,zero,80041c <_putc_r+0x54>
  8003f4:	30800017 	ldw	r2,0(r6)
  8003f8:	11400005 	stb	r5,0(r2)
  8003fc:	30800017 	ldw	r2,0(r6)
  800400:	10c00044 	addi	r3,r2,1
  800404:	30c00015 	stw	r3,0(r6)
  800408:	10800003 	ldbu	r2,0(r2)
  80040c:	dfc00317 	ldw	ra,12(sp)
  800410:	dc000217 	ldw	r16,8(sp)
  800414:	dec00404 	addi	sp,sp,16
  800418:	f800283a 	ret
  80041c:	30c00617 	ldw	r3,24(r6)
  800420:	10c00616 	blt	r2,r3,80043c <_putc_r+0x74>
  800424:	30800017 	ldw	r2,0(r6)
  800428:	00c00284 	movi	r3,10
  80042c:	11400005 	stb	r5,0(r2)
  800430:	30800017 	ldw	r2,0(r6)
  800434:	11400003 	ldbu	r5,0(r2)
  800438:	28fff11e 	bne	r5,r3,800400 <__alt_mem_onchip_ram+0xff7fc400>
  80043c:	8009883a 	mov	r4,r16
  800440:	dfc00317 	ldw	ra,12(sp)
  800444:	dc000217 	ldw	r16,8(sp)
  800448:	dec00404 	addi	sp,sp,16
  80044c:	08020181 	jmpi	802018 <__swbuf_r>
  800450:	d9400015 	stw	r5,0(sp)
  800454:	d9800115 	stw	r6,4(sp)
  800458:	08028cc0 	call	8028cc <__sinit>
  80045c:	d9800117 	ldw	r6,4(sp)
  800460:	d9400017 	ldw	r5,0(sp)
  800464:	003fdf06 	br	8003e4 <__alt_mem_onchip_ram+0xff7fc3e4>

00800468 <putc>:
  800468:	00802074 	movhi	r2,129
  80046c:	defffc04 	addi	sp,sp,-16
  800470:	109ad304 	addi	r2,r2,27468
  800474:	dc000115 	stw	r16,4(sp)
  800478:	14000017 	ldw	r16,0(r2)
  80047c:	dc400215 	stw	r17,8(sp)
  800480:	dfc00315 	stw	ra,12(sp)
  800484:	2023883a 	mov	r17,r4
  800488:	80000226 	beq	r16,zero,800494 <putc+0x2c>
  80048c:	80800e17 	ldw	r2,56(r16)
  800490:	10001a26 	beq	r2,zero,8004fc <putc+0x94>
  800494:	28800217 	ldw	r2,8(r5)
  800498:	10bfffc4 	addi	r2,r2,-1
  80049c:	28800215 	stw	r2,8(r5)
  8004a0:	10000b16 	blt	r2,zero,8004d0 <putc+0x68>
  8004a4:	28800017 	ldw	r2,0(r5)
  8004a8:	14400005 	stb	r17,0(r2)
  8004ac:	28800017 	ldw	r2,0(r5)
  8004b0:	10c00044 	addi	r3,r2,1
  8004b4:	28c00015 	stw	r3,0(r5)
  8004b8:	10800003 	ldbu	r2,0(r2)
  8004bc:	dfc00317 	ldw	ra,12(sp)
  8004c0:	dc400217 	ldw	r17,8(sp)
  8004c4:	dc000117 	ldw	r16,4(sp)
  8004c8:	dec00404 	addi	sp,sp,16
  8004cc:	f800283a 	ret
  8004d0:	28c00617 	ldw	r3,24(r5)
  8004d4:	10c00e16 	blt	r2,r3,800510 <putc+0xa8>
  8004d8:	28800017 	ldw	r2,0(r5)
  8004dc:	01000284 	movi	r4,10
  8004e0:	14400005 	stb	r17,0(r2)
  8004e4:	28800017 	ldw	r2,0(r5)
  8004e8:	10c00003 	ldbu	r3,0(r2)
  8004ec:	193ff01e 	bne	r3,r4,8004b0 <__alt_mem_onchip_ram+0xff7fc4b0>
  8004f0:	280d883a 	mov	r6,r5
  8004f4:	180b883a 	mov	r5,r3
  8004f8:	00000706 	br	800518 <putc+0xb0>
  8004fc:	8009883a 	mov	r4,r16
  800500:	d9400015 	stw	r5,0(sp)
  800504:	08028cc0 	call	8028cc <__sinit>
  800508:	d9400017 	ldw	r5,0(sp)
  80050c:	003fe106 	br	800494 <__alt_mem_onchip_ram+0xff7fc494>
  800510:	280d883a 	mov	r6,r5
  800514:	880b883a 	mov	r5,r17
  800518:	8009883a 	mov	r4,r16
  80051c:	dfc00317 	ldw	ra,12(sp)
  800520:	dc400217 	ldw	r17,8(sp)
  800524:	dc000117 	ldw	r16,4(sp)
  800528:	dec00404 	addi	sp,sp,16
  80052c:	08020181 	jmpi	802018 <__swbuf_r>

00800530 <_putchar_r>:
  800530:	21800217 	ldw	r6,8(r4)
  800534:	08003c81 	jmpi	8003c8 <_putc_r>

00800538 <putchar>:
  800538:	00802074 	movhi	r2,129
  80053c:	109ad304 	addi	r2,r2,27468
  800540:	200b883a 	mov	r5,r4
  800544:	11000017 	ldw	r4,0(r2)
  800548:	21800217 	ldw	r6,8(r4)
  80054c:	08003c81 	jmpi	8003c8 <_putc_r>

00800550 <scanf>:
  800550:	defffc04 	addi	sp,sp,-16
  800554:	dfc00015 	stw	ra,0(sp)
  800558:	d9400115 	stw	r5,4(sp)
  80055c:	d9800215 	stw	r6,8(sp)
  800560:	d9c00315 	stw	r7,12(sp)
  800564:	00802074 	movhi	r2,129
  800568:	109ad304 	addi	r2,r2,27468
  80056c:	200d883a 	mov	r6,r4
  800570:	11000017 	ldw	r4,0(r2)
  800574:	d9c00104 	addi	r7,sp,4
  800578:	21400117 	ldw	r5,4(r4)
  80057c:	0801fcc0 	call	801fcc <_vfscanf_r>
  800580:	dfc00017 	ldw	ra,0(sp)
  800584:	dec00404 	addi	sp,sp,16
  800588:	f800283a 	ret

0080058c <_scanf_r>:
  80058c:	defffd04 	addi	sp,sp,-12
  800590:	2805883a 	mov	r2,r5
  800594:	dfc00015 	stw	ra,0(sp)
  800598:	d9800115 	stw	r6,4(sp)
  80059c:	d9c00215 	stw	r7,8(sp)
  8005a0:	21400117 	ldw	r5,4(r4)
  8005a4:	d9c00104 	addi	r7,sp,4
  8005a8:	100d883a 	mov	r6,r2
  8005ac:	0801fcc0 	call	801fcc <_vfscanf_r>
  8005b0:	dfc00017 	ldw	ra,0(sp)
  8005b4:	dec00304 	addi	sp,sp,12
  8005b8:	f800283a 	ret

008005bc <__svfscanf_r>:
  8005bc:	2880030b 	ldhu	r2,12(r5)
  8005c0:	deff4b04 	addi	sp,sp,-724
  8005c4:	df00b315 	stw	fp,716(sp)
  8005c8:	ddc0b215 	stw	r23,712(sp)
  8005cc:	dfc0b415 	stw	ra,720(sp)
  8005d0:	dd80b115 	stw	r22,708(sp)
  8005d4:	dd40b015 	stw	r21,704(sp)
  8005d8:	dd00af15 	stw	r20,700(sp)
  8005dc:	dcc0ae15 	stw	r19,696(sp)
  8005e0:	dc80ad15 	stw	r18,692(sp)
  8005e4:	dc40ac15 	stw	r17,688(sp)
  8005e8:	dc00ab15 	stw	r16,684(sp)
  8005ec:	10c8000c 	andi	r3,r2,8192
  8005f0:	d9c09c15 	stw	r7,624(sp)
  8005f4:	2839883a 	mov	fp,r5
  8005f8:	202f883a 	mov	r23,r4
  8005fc:	1800061e 	bne	r3,zero,800618 <__svfscanf_r+0x5c>
  800600:	29001917 	ldw	r4,100(r5)
  800604:	00f7ffc4 	movi	r3,-8193
  800608:	10880014 	ori	r2,r2,8192
  80060c:	20c6703a 	and	r3,r4,r3
  800610:	2880030d 	sth	r2,12(r5)
  800614:	28c01915 	stw	r3,100(r5)
  800618:	30800003 	ldbu	r2,0(r6)
  80061c:	0021883a 	mov	r16,zero
  800620:	05802074 	movhi	r22,129
  800624:	d800a115 	stw	zero,644(sp)
  800628:	d8009e15 	stw	zero,632(sp)
  80062c:	d800a015 	stw	zero,640(sp)
  800630:	d8809b15 	stw	r2,620(sp)
  800634:	b59ad404 	addi	r22,r22,27472
  800638:	8025883a 	mov	r18,r16
  80063c:	e027883a 	mov	r19,fp
  800640:	35000044 	addi	r20,r6,1
  800644:	10001e26 	beq	r2,zero,8006c0 <__svfscanf_r+0x104>
  800648:	b4000017 	ldw	r16,0(r22)
  80064c:	8087883a 	add	r3,r16,r2
  800650:	18c00043 	ldbu	r3,1(r3)
  800654:	18c0020c 	andi	r3,r3,8
  800658:	18001b26 	beq	r3,zero,8006c8 <__svfscanf_r+0x10c>
  80065c:	98800117 	ldw	r2,4(r19)
  800660:	00800e0e 	bge	zero,r2,80069c <__svfscanf_r+0xe0>
  800664:	98c00017 	ldw	r3,0(r19)
  800668:	b1000017 	ldw	r4,0(r22)
  80066c:	18800003 	ldbu	r2,0(r3)
  800670:	2085883a 	add	r2,r4,r2
  800674:	10800043 	ldbu	r2,1(r2)
  800678:	1080020c 	andi	r2,r2,8
  80067c:	10000b26 	beq	r2,zero,8006ac <__svfscanf_r+0xf0>
  800680:	98800117 	ldw	r2,4(r19)
  800684:	18c00044 	addi	r3,r3,1
  800688:	98c00015 	stw	r3,0(r19)
  80068c:	10bfffc4 	addi	r2,r2,-1
  800690:	98800115 	stw	r2,4(r19)
  800694:	94800044 	addi	r18,r18,1
  800698:	00bff216 	blt	zero,r2,800664 <__alt_mem_onchip_ram+0xff7fc664>
  80069c:	980b883a 	mov	r5,r19
  8006a0:	b809883a 	mov	r4,r23
  8006a4:	08040cc0 	call	8040cc <__srefill_r>
  8006a8:	103fee26 	beq	r2,zero,800664 <__alt_mem_onchip_ram+0xff7fc664>
  8006ac:	a00d883a 	mov	r6,r20
  8006b0:	30800003 	ldbu	r2,0(r6)
  8006b4:	35000044 	addi	r20,r6,1
  8006b8:	d8809b15 	stw	r2,620(sp)
  8006bc:	103fe21e 	bne	r2,zero,800648 <__alt_mem_onchip_ram+0xff7fc648>
  8006c0:	d880a017 	ldw	r2,640(sp)
  8006c4:	00009a06 	br	800930 <__svfscanf_r+0x374>
  8006c8:	00c00944 	movi	r3,37
  8006cc:	10c0891e 	bne	r2,r3,8008f4 <__svfscanf_r+0x338>
  8006d0:	0039883a 	mov	fp,zero
  8006d4:	35400043 	ldbu	r21,1(r6)
  8006d8:	0023883a 	mov	r17,zero
  8006dc:	01801e04 	movi	r6,120
  8006e0:	00c01b04 	movi	r3,108
  8006e4:	e009883a 	mov	r4,fp
  8006e8:	a1c00044 	addi	r7,r20,1
  8006ec:	3540a236 	bltu	r6,r21,800978 <__svfscanf_r+0x3bc>
  8006f0:	a80490ba 	slli	r2,r21,2
  8006f4:	01402034 	movhi	r5,128
  8006f8:	2941c204 	addi	r5,r5,1800
  8006fc:	1145883a 	add	r2,r2,r5
  800700:	10800017 	ldw	r2,0(r2)
  800704:	1000683a 	jmp	r2
  800708:	0080092c 	andhi	r2,zero,36
  80070c:	00800978 	rdprs	r2,zero,37
  800710:	00800978 	rdprs	r2,zero,37
  800714:	00800978 	rdprs	r2,zero,37
  800718:	00800978 	rdprs	r2,zero,37
  80071c:	00800978 	rdprs	r2,zero,37
  800720:	00800978 	rdprs	r2,zero,37
  800724:	00800978 	rdprs	r2,zero,37
  800728:	00800978 	rdprs	r2,zero,37
  80072c:	00800978 	rdprs	r2,zero,37
  800730:	00800978 	rdprs	r2,zero,37
  800734:	00800978 	rdprs	r2,zero,37
  800738:	00800978 	rdprs	r2,zero,37
  80073c:	00800978 	rdprs	r2,zero,37
  800740:	00800978 	rdprs	r2,zero,37
  800744:	00800978 	rdprs	r2,zero,37
  800748:	00800978 	rdprs	r2,zero,37
  80074c:	00800978 	rdprs	r2,zero,37
  800750:	00800978 	rdprs	r2,zero,37
  800754:	00800978 	rdprs	r2,zero,37
  800758:	00800978 	rdprs	r2,zero,37
  80075c:	00800978 	rdprs	r2,zero,37
  800760:	00800978 	rdprs	r2,zero,37
  800764:	00800978 	rdprs	r2,zero,37
  800768:	00800978 	rdprs	r2,zero,37
  80076c:	00800978 	rdprs	r2,zero,37
  800770:	00800978 	rdprs	r2,zero,37
  800774:	00800978 	rdprs	r2,zero,37
  800778:	00800978 	rdprs	r2,zero,37
  80077c:	00800978 	rdprs	r2,zero,37
  800780:	00800978 	rdprs	r2,zero,37
  800784:	00800978 	rdprs	r2,zero,37
  800788:	00800978 	rdprs	r2,zero,37
  80078c:	00800978 	rdprs	r2,zero,37
  800790:	00800978 	rdprs	r2,zero,37
  800794:	00800978 	rdprs	r2,zero,37
  800798:	00800978 	rdprs	r2,zero,37
  80079c:	008008ec 	andhi	r2,zero,35
  8007a0:	00800978 	rdprs	r2,zero,37
  8007a4:	00800978 	rdprs	r2,zero,37
  8007a8:	00800978 	rdprs	r2,zero,37
  8007ac:	00800978 	rdprs	r2,zero,37
  8007b0:	00800960 	cmpeqi	r2,zero,37
  8007b4:	00800978 	rdprs	r2,zero,37
  8007b8:	00800978 	rdprs	r2,zero,37
  8007bc:	00800978 	rdprs	r2,zero,37
  8007c0:	00800978 	rdprs	r2,zero,37
  8007c4:	00800978 	rdprs	r2,zero,37
  8007c8:	00800ac0 	call	800ac <__reset-0x77ff54>
  8007cc:	00800ac0 	call	800ac <__reset-0x77ff54>
  8007d0:	00800ac0 	call	800ac <__reset-0x77ff54>
  8007d4:	00800ac0 	call	800ac <__reset-0x77ff54>
  8007d8:	00800ac0 	call	800ac <__reset-0x77ff54>
  8007dc:	00800ac0 	call	800ac <__reset-0x77ff54>
  8007e0:	00800ac0 	call	800ac <__reset-0x77ff54>
  8007e4:	00800ac0 	call	800ac <__reset-0x77ff54>
  8007e8:	00800ac0 	call	800ac <__reset-0x77ff54>
  8007ec:	00800ac0 	call	800ac <__reset-0x77ff54>
  8007f0:	00800978 	rdprs	r2,zero,37
  8007f4:	00800978 	rdprs	r2,zero,37
  8007f8:	00800978 	rdprs	r2,zero,37
  8007fc:	00800978 	rdprs	r2,zero,37
  800800:	00800978 	rdprs	r2,zero,37
  800804:	00800978 	rdprs	r2,zero,37
  800808:	00800978 	rdprs	r2,zero,37
  80080c:	00800978 	rdprs	r2,zero,37
  800810:	00800978 	rdprs	r2,zero,37
  800814:	00800978 	rdprs	r2,zero,37
  800818:	00800a90 	cmplti	r2,zero,42
  80081c:	00800b6c 	andhi	r2,zero,45
  800820:	00800978 	rdprs	r2,zero,37
  800824:	00800b6c 	andhi	r2,zero,45
  800828:	00800978 	rdprs	r2,zero,37
  80082c:	00800978 	rdprs	r2,zero,37
  800830:	00800978 	rdprs	r2,zero,37
  800834:	00800978 	rdprs	r2,zero,37
  800838:	00800b58 	cmpnei	r2,zero,45
  80083c:	00800978 	rdprs	r2,zero,37
  800840:	00800978 	rdprs	r2,zero,37
  800844:	00800b28 	cmpgeui	r2,zero,44
  800848:	00800978 	rdprs	r2,zero,37
  80084c:	00800978 	rdprs	r2,zero,37
  800850:	00800978 	rdprs	r2,zero,37
  800854:	00800978 	rdprs	r2,zero,37
  800858:	00800978 	rdprs	r2,zero,37
  80085c:	00800978 	rdprs	r2,zero,37
  800860:	00800978 	rdprs	r2,zero,37
  800864:	00800978 	rdprs	r2,zero,37
  800868:	00800af8 	rdprs	r2,zero,43
  80086c:	00800978 	rdprs	r2,zero,37
  800870:	00800978 	rdprs	r2,zero,37
  800874:	00800cb4 	movhi	r2,50
  800878:	00800978 	rdprs	r2,zero,37
  80087c:	00800978 	rdprs	r2,zero,37
  800880:	00800978 	rdprs	r2,zero,37
  800884:	00800978 	rdprs	r2,zero,37
  800888:	00800978 	rdprs	r2,zero,37
  80088c:	00800978 	rdprs	r2,zero,37
  800890:	00800978 	rdprs	r2,zero,37
  800894:	00800c34 	movhi	r2,48
  800898:	00800c08 	cmpgei	r2,zero,48
  80089c:	00800b6c 	andhi	r2,zero,45
  8008a0:	00800b6c 	andhi	r2,zero,45
  8008a4:	00800b6c 	andhi	r2,zero,45
  8008a8:	00800bf4 	movhi	r2,47
  8008ac:	00800d44 	movi	r2,53
  8008b0:	00800978 	rdprs	r2,zero,37
  8008b4:	00800978 	rdprs	r2,zero,37
  8008b8:	00800be0 	cmpeqi	r2,zero,47
  8008bc:	00800978 	rdprs	r2,zero,37
  8008c0:	00800bb0 	cmpltui	r2,zero,46
  8008c4:	00800b84 	movi	r2,46
  8008c8:	00800a60 	cmpeqi	r2,zero,41
  8008cc:	00800978 	rdprs	r2,zero,37
  8008d0:	00800978 	rdprs	r2,zero,37
  8008d4:	00800a48 	cmpgei	r2,zero,41
  8008d8:	00800978 	rdprs	r2,zero,37
  8008dc:	008009cc 	andi	r2,zero,39
  8008e0:	00800978 	rdprs	r2,zero,37
  8008e4:	00800978 	rdprs	r2,zero,37
  8008e8:	00800af8 	rdprs	r2,zero,43
  8008ec:	d9c09d15 	stw	r7,628(sp)
  8008f0:	3829883a 	mov	r20,r7
  8008f4:	98800117 	ldw	r2,4(r19)
  8008f8:	0081c60e 	bge	zero,r2,801014 <__svfscanf_r+0xa58>
  8008fc:	98800017 	ldw	r2,0(r19)
  800900:	a0ffffc3 	ldbu	r3,-1(r20)
  800904:	11000003 	ldbu	r4,0(r2)
  800908:	20ff6d1e 	bne	r4,r3,8006c0 <__alt_mem_onchip_ram+0xff7fc6c0>
  80090c:	98c00117 	ldw	r3,4(r19)
  800910:	10800044 	addi	r2,r2,1
  800914:	98800015 	stw	r2,0(r19)
  800918:	18bfffc4 	addi	r2,r3,-1
  80091c:	98800115 	stw	r2,4(r19)
  800920:	94800044 	addi	r18,r18,1
  800924:	a00d883a 	mov	r6,r20
  800928:	003f6106 	br	8006b0 <__alt_mem_onchip_ram+0xff7fc6b0>
  80092c:	00bfffc4 	movi	r2,-1
  800930:	dfc0b417 	ldw	ra,720(sp)
  800934:	df00b317 	ldw	fp,716(sp)
  800938:	ddc0b217 	ldw	r23,712(sp)
  80093c:	dd80b117 	ldw	r22,708(sp)
  800940:	dd40b017 	ldw	r21,704(sp)
  800944:	dd00af17 	ldw	r20,700(sp)
  800948:	dcc0ae17 	ldw	r19,696(sp)
  80094c:	dc80ad17 	ldw	r18,692(sp)
  800950:	dc40ac17 	ldw	r17,688(sp)
  800954:	dc00ab17 	ldw	r16,684(sp)
  800958:	dec0b504 	addi	sp,sp,724
  80095c:	f800283a 	ret
  800960:	a1400043 	ldbu	r5,1(r20)
  800964:	3829883a 	mov	r20,r7
  800968:	8c400414 	ori	r17,r17,16
  80096c:	2d403fcc 	andi	r21,r5,255
  800970:	a1c00044 	addi	r7,r20,1
  800974:	357f5e2e 	bgeu	r6,r21,8006f0 <__alt_mem_onchip_ram+0xff7fc6f0>
  800978:	856b883a 	add	r21,r16,r21
  80097c:	a8800043 	ldbu	r2,1(r21)
  800980:	d9c09d15 	stw	r7,628(sp)
  800984:	00c00044 	movi	r3,1
  800988:	108000cc 	andi	r2,r2,3
  80098c:	2039883a 	mov	fp,r4
  800990:	10c1a526 	beq	r2,r3,801028 <__svfscanf_r+0xa6c>
  800994:	98800117 	ldw	r2,4(r19)
  800998:	00804216 	blt	zero,r2,800aa4 <__svfscanf_r+0x4e8>
  80099c:	980b883a 	mov	r5,r19
  8009a0:	b809883a 	mov	r4,r23
  8009a4:	08040cc0 	call	8040cc <__srefill_r>
  8009a8:	10015e1e 	bne	r2,zero,800f24 <__svfscanf_r+0x968>
  8009ac:	01002034 	movhi	r4,128
  8009b0:	21179f04 	addi	r4,r4,24188
  8009b4:	01400284 	movi	r5,10
  8009b8:	b4000017 	ldw	r16,0(r22)
  8009bc:	d900a115 	stw	r4,644(sp)
  8009c0:	d9409e15 	stw	r5,632(sp)
  8009c4:	050000c4 	movi	r20,3
  8009c8:	00000a06 	br	8009f4 <__svfscanf_r+0x438>
  8009cc:	98800117 	ldw	r2,4(r19)
  8009d0:	d9c09d15 	stw	r7,628(sp)
  8009d4:	2039883a 	mov	fp,r4
  8009d8:	0081e20e 	bge	zero,r2,801164 <__svfscanf_r+0xba8>
  8009dc:	00c02034 	movhi	r3,128
  8009e0:	18d8fd04 	addi	r3,r3,25588
  8009e4:	01000284 	movi	r4,10
  8009e8:	d8c0a115 	stw	r3,644(sp)
  8009ec:	d9009e15 	stw	r4,632(sp)
  8009f0:	050000c4 	movi	r20,3
  8009f4:	98c00017 	ldw	r3,0(r19)
  8009f8:	00000206 	br	800a04 <__svfscanf_r+0x448>
  8009fc:	18c00044 	addi	r3,r3,1
  800a00:	98c00015 	stw	r3,0(r19)
  800a04:	19000003 	ldbu	r4,0(r3)
  800a08:	20803fcc 	andi	r2,r4,255
  800a0c:	8085883a 	add	r2,r16,r2
  800a10:	10800043 	ldbu	r2,1(r2)
  800a14:	1140020c 	andi	r5,r2,8
  800a18:	28020126 	beq	r5,zero,801220 <__svfscanf_r+0xc64>
  800a1c:	98800117 	ldw	r2,4(r19)
  800a20:	94800044 	addi	r18,r18,1
  800a24:	10bfffc4 	addi	r2,r2,-1
  800a28:	98800115 	stw	r2,4(r19)
  800a2c:	00bff316 	blt	zero,r2,8009fc <__alt_mem_onchip_ram+0xff7fc9fc>
  800a30:	980b883a 	mov	r5,r19
  800a34:	b809883a 	mov	r4,r23
  800a38:	08040cc0 	call	8040cc <__srefill_r>
  800a3c:	1001391e 	bne	r2,zero,800f24 <__svfscanf_r+0x968>
  800a40:	b4000017 	ldw	r16,0(r22)
  800a44:	003feb06 	br	8009f4 <__alt_mem_onchip_ram+0xff7fc9f4>
  800a48:	98800117 	ldw	r2,4(r19)
  800a4c:	d9c09d15 	stw	r7,628(sp)
  800a50:	2039883a 	mov	fp,r4
  800a54:	0081aa0e 	bge	zero,r2,801100 <__svfscanf_r+0xb44>
  800a58:	05000084 	movi	r20,2
  800a5c:	003fe506 	br	8009f4 <__alt_mem_onchip_ram+0xff7fc9f4>
  800a60:	98800117 	ldw	r2,4(r19)
  800a64:	d9c09d15 	stw	r7,628(sp)
  800a68:	2039883a 	mov	fp,r4
  800a6c:	8c408814 	ori	r17,r17,544
  800a70:	0081df0e 	bge	zero,r2,8011f0 <__svfscanf_r+0xc34>
  800a74:	00c02034 	movhi	r3,128
  800a78:	18d8fd04 	addi	r3,r3,25588
  800a7c:	01000404 	movi	r4,16
  800a80:	d8c0a115 	stw	r3,644(sp)
  800a84:	d9009e15 	stw	r4,632(sp)
  800a88:	050000c4 	movi	r20,3
  800a8c:	003fd906 	br	8009f4 <__alt_mem_onchip_ram+0xff7fc9f4>
  800a90:	98800117 	ldw	r2,4(r19)
  800a94:	d9c09d15 	stw	r7,628(sp)
  800a98:	2039883a 	mov	fp,r4
  800a9c:	8c400054 	ori	r17,r17,1
  800aa0:	0081850e 	bge	zero,r2,8010b8 <__svfscanf_r+0xafc>
  800aa4:	00c02034 	movhi	r3,128
  800aa8:	18d79f04 	addi	r3,r3,24188
  800aac:	01000284 	movi	r4,10
  800ab0:	d8c0a115 	stw	r3,644(sp)
  800ab4:	d9009e15 	stw	r4,632(sp)
  800ab8:	050000c4 	movi	r20,3
  800abc:	003fcd06 	br	8009f4 <__alt_mem_onchip_ram+0xff7fc9f4>
  800ac0:	01400284 	movi	r5,10
  800ac4:	d8c0a615 	stw	r3,664(sp)
  800ac8:	d980a915 	stw	r6,676(sp)
  800acc:	d9c0aa15 	stw	r7,680(sp)
  800ad0:	080f5740 	call	80f574 <__mulsi3>
  800ad4:	a1400043 	ldbu	r5,1(r20)
  800ad8:	d9c0aa17 	ldw	r7,680(sp)
  800adc:	1545883a 	add	r2,r2,r21
  800ae0:	113ff404 	addi	r4,r2,-48
  800ae4:	3829883a 	mov	r20,r7
  800ae8:	2d403fcc 	andi	r21,r5,255
  800aec:	d8c0a617 	ldw	r3,664(sp)
  800af0:	d980a917 	ldw	r6,676(sp)
  800af4:	003efc06 	br	8006e8 <__alt_mem_onchip_ram+0xff7fc6e8>
  800af8:	98800117 	ldw	r2,4(r19)
  800afc:	d9c09d15 	stw	r7,628(sp)
  800b00:	2039883a 	mov	fp,r4
  800b04:	8c408014 	ori	r17,r17,512
  800b08:	0081710e 	bge	zero,r2,8010d0 <__svfscanf_r+0xb14>
  800b0c:	01402034 	movhi	r5,128
  800b10:	2958fd04 	addi	r5,r5,25588
  800b14:	00800404 	movi	r2,16
  800b18:	d940a115 	stw	r5,644(sp)
  800b1c:	d8809e15 	stw	r2,632(sp)
  800b20:	050000c4 	movi	r20,3
  800b24:	003fb306 	br	8009f4 <__alt_mem_onchip_ram+0xff7fc9f4>
  800b28:	98800117 	ldw	r2,4(r19)
  800b2c:	d9c09d15 	stw	r7,628(sp)
  800b30:	2039883a 	mov	fp,r4
  800b34:	8c400054 	ori	r17,r17,1
  800b38:	0081840e 	bge	zero,r2,80114c <__svfscanf_r+0xb90>
  800b3c:	01402034 	movhi	r5,128
  800b40:	2958fd04 	addi	r5,r5,25588
  800b44:	00800204 	movi	r2,8
  800b48:	d940a115 	stw	r5,644(sp)
  800b4c:	d8809e15 	stw	r2,632(sp)
  800b50:	050000c4 	movi	r20,3
  800b54:	003fa706 	br	8009f4 <__alt_mem_onchip_ram+0xff7fc9f4>
  800b58:	a1400043 	ldbu	r5,1(r20)
  800b5c:	8c400094 	ori	r17,r17,2
  800b60:	3829883a 	mov	r20,r7
  800b64:	2d403fcc 	andi	r21,r5,255
  800b68:	003edf06 	br	8006e8 <__alt_mem_onchip_ram+0xff7fc6e8>
  800b6c:	98800117 	ldw	r2,4(r19)
  800b70:	d9c09d15 	stw	r7,628(sp)
  800b74:	2039883a 	mov	fp,r4
  800b78:	00816d0e 	bge	zero,r2,801130 <__svfscanf_r+0xb74>
  800b7c:	05000104 	movi	r20,4
  800b80:	003f9c06 	br	8009f4 <__alt_mem_onchip_ram+0xff7fc9f4>
  800b84:	98800117 	ldw	r2,4(r19)
  800b88:	d9c09d15 	stw	r7,628(sp)
  800b8c:	2039883a 	mov	fp,r4
  800b90:	0081800e 	bge	zero,r2,801194 <__svfscanf_r+0xbd8>
  800b94:	01002034 	movhi	r4,128
  800b98:	2118fd04 	addi	r4,r4,25588
  800b9c:	01400204 	movi	r5,8
  800ba0:	d900a115 	stw	r4,644(sp)
  800ba4:	d9409e15 	stw	r5,632(sp)
  800ba8:	050000c4 	movi	r20,3
  800bac:	003f9106 	br	8009f4 <__alt_mem_onchip_ram+0xff7fc9f4>
  800bb0:	d9c09d15 	stw	r7,628(sp)
  800bb4:	8880040c 	andi	r2,r17,16
  800bb8:	1000a01e 	bne	r2,zero,800e3c <__svfscanf_r+0x880>
  800bbc:	8880010c 	andi	r2,r17,4
  800bc0:	10012826 	beq	r2,zero,801064 <__svfscanf_r+0xaa8>
  800bc4:	d9009c17 	ldw	r4,624(sp)
  800bc8:	3829883a 	mov	r20,r7
  800bcc:	20800017 	ldw	r2,0(r4)
  800bd0:	21000104 	addi	r4,r4,4
  800bd4:	d9009c15 	stw	r4,624(sp)
  800bd8:	1480000d 	sth	r18,0(r2)
  800bdc:	003eb306 	br	8006ac <__alt_mem_onchip_ram+0xff7fc6ac>
  800be0:	a5400043 	ldbu	r21,1(r20)
  800be4:	a8c11a26 	beq	r21,r3,801050 <__svfscanf_r+0xa94>
  800be8:	8c400054 	ori	r17,r17,1
  800bec:	3829883a 	mov	r20,r7
  800bf0:	003ebd06 	br	8006e8 <__alt_mem_onchip_ram+0xff7fc6e8>
  800bf4:	a1400043 	ldbu	r5,1(r20)
  800bf8:	8c400114 	ori	r17,r17,4
  800bfc:	3829883a 	mov	r20,r7
  800c00:	2d403fcc 	andi	r21,r5,255
  800c04:	003eb806 	br	8006e8 <__alt_mem_onchip_ram+0xff7fc6e8>
  800c08:	98800117 	ldw	r2,4(r19)
  800c0c:	d9c09d15 	stw	r7,628(sp)
  800c10:	2039883a 	mov	fp,r4
  800c14:	00bf610e 	bge	zero,r2,80099c <__alt_mem_onchip_ram+0xff7fc99c>
  800c18:	00802034 	movhi	r2,128
  800c1c:	10979f04 	addi	r2,r2,24188
  800c20:	00c00284 	movi	r3,10
  800c24:	d880a115 	stw	r2,644(sp)
  800c28:	d8c09e15 	stw	r3,632(sp)
  800c2c:	050000c4 	movi	r20,3
  800c30:	003f7006 	br	8009f4 <__alt_mem_onchip_ram+0xff7fc9f4>
  800c34:	98800117 	ldw	r2,4(r19)
  800c38:	d9c09d15 	stw	r7,628(sp)
  800c3c:	2039883a 	mov	fp,r4
  800c40:	0080c60e 	bge	zero,r2,800f5c <__svfscanf_r+0x9a0>
  800c44:	e000011e 	bne	fp,zero,800c4c <__svfscanf_r+0x690>
  800c48:	07000044 	movi	fp,1
  800c4c:	8880004c 	andi	r2,r17,1
  800c50:	1000461e 	bne	r2,zero,800d6c <__svfscanf_r+0x7b0>
  800c54:	8c40040c 	andi	r17,r17,16
  800c58:	8800dc26 	beq	r17,zero,800fcc <__svfscanf_r+0xa10>
  800c5c:	0021883a 	mov	r16,zero
  800c60:	00000806 	br	800c84 <__svfscanf_r+0x6c8>
  800c64:	1887883a 	add	r3,r3,r2
  800c68:	980b883a 	mov	r5,r19
  800c6c:	b809883a 	mov	r4,r23
  800c70:	98c00015 	stw	r3,0(r19)
  800c74:	80a1883a 	add	r16,r16,r2
  800c78:	e0b9c83a 	sub	fp,fp,r2
  800c7c:	08040cc0 	call	8040cc <__srefill_r>
  800c80:	1000cc1e 	bne	r2,zero,800fb4 <__svfscanf_r+0x9f8>
  800c84:	98800117 	ldw	r2,4(r19)
  800c88:	98c00017 	ldw	r3,0(r19)
  800c8c:	173ff516 	blt	r2,fp,800c64 <__alt_mem_onchip_ram+0xff7fcc64>
  800c90:	1705c83a 	sub	r2,r2,fp
  800c94:	1f15883a 	add	r10,r3,fp
  800c98:	8721883a 	add	r16,r16,fp
  800c9c:	98800115 	stw	r2,4(r19)
  800ca0:	9a800015 	stw	r10,0(r19)
  800ca4:	dd009d17 	ldw	r20,628(sp)
  800ca8:	9425883a 	add	r18,r18,r16
  800cac:	a00d883a 	mov	r6,r20
  800cb0:	003e7f06 	br	8006b0 <__alt_mem_onchip_ram+0xff7fc6b0>
  800cb4:	2039883a 	mov	fp,r4
  800cb8:	380b883a 	mov	r5,r7
  800cbc:	d9005884 	addi	r4,sp,354
  800cc0:	d9c09d15 	stw	r7,628(sp)
  800cc4:	08043680 	call	804368 <__sccl>
  800cc8:	1029883a 	mov	r20,r2
  800ccc:	98800117 	ldw	r2,4(r19)
  800cd0:	0081120e 	bge	zero,r2,80111c <__svfscanf_r+0xb60>
  800cd4:	99000017 	ldw	r4,0(r19)
  800cd8:	20800003 	ldbu	r2,0(r4)
  800cdc:	e0005a26 	beq	fp,zero,800e48 <__svfscanf_r+0x88c>
  800ce0:	8c40040c 	andi	r17,r17,16
  800ce4:	88005b26 	beq	r17,zero,800e54 <__svfscanf_r+0x898>
  800ce8:	e023883a 	mov	r17,fp
  800cec:	0021883a 	mov	r16,zero
  800cf0:	00000106 	br	800cf8 <__svfscanf_r+0x73c>
  800cf4:	20800003 	ldbu	r2,0(r4)
  800cf8:	10803fcc 	andi	r2,r2,255
  800cfc:	d8c05884 	addi	r3,sp,354
  800d00:	1885883a 	add	r2,r3,r2
  800d04:	10800007 	ldb	r2,0(r2)
  800d08:	1000ae26 	beq	r2,zero,800fc4 <__svfscanf_r+0xa08>
  800d0c:	98800117 	ldw	r2,4(r19)
  800d10:	21000044 	addi	r4,r4,1
  800d14:	84000044 	addi	r16,r16,1
  800d18:	10bfffc4 	addi	r2,r2,-1
  800d1c:	98800115 	stw	r2,4(r19)
  800d20:	99000015 	stw	r4,0(r19)
  800d24:	8700a126 	beq	r16,fp,800fac <__svfscanf_r+0x9f0>
  800d28:	00bff216 	blt	zero,r2,800cf4 <__alt_mem_onchip_ram+0xff7fccf4>
  800d2c:	980b883a 	mov	r5,r19
  800d30:	b809883a 	mov	r4,r23
  800d34:	08040cc0 	call	8040cc <__srefill_r>
  800d38:	10009b1e 	bne	r2,zero,800fa8 <__svfscanf_r+0x9ec>
  800d3c:	99000017 	ldw	r4,0(r19)
  800d40:	003fec06 	br	800cf4 <__alt_mem_onchip_ram+0xff7fccf4>
  800d44:	98800117 	ldw	r2,4(r19)
  800d48:	d9c09d15 	stw	r7,628(sp)
  800d4c:	2039883a 	mov	fp,r4
  800d50:	00811c0e 	bge	zero,r2,8011c4 <__svfscanf_r+0xc08>
  800d54:	01402034 	movhi	r5,128
  800d58:	29579f04 	addi	r5,r5,24188
  800d5c:	d940a115 	stw	r5,644(sp)
  800d60:	d8009e15 	stw	zero,632(sp)
  800d64:	050000c4 	movi	r20,3
  800d68:	003f2206 	br	8009f4 <__alt_mem_onchip_ram+0xff7fc9f4>
  800d6c:	dd409904 	addi	r21,sp,612
  800d70:	8c40040c 	andi	r17,r17,16
  800d74:	01800204 	movi	r6,8
  800d78:	000b883a 	mov	r5,zero
  800d7c:	a809883a 	mov	r4,r21
  800d80:	dc409f15 	stw	r17,636(sp)
  800d84:	0803f880 	call	803f88 <memset>
  800d88:	dc409f17 	ldw	r17,636(sp)
  800d8c:	88006e26 	beq	r17,zero,800f48 <__svfscanf_r+0x98c>
  800d90:	0029883a 	mov	r20,zero
  800d94:	0023883a 	mov	r17,zero
  800d98:	08032000 	call	803200 <__locale_mb_cur_max>
  800d9c:	14406126 	beq	r2,r17,800f24 <__svfscanf_r+0x968>
  800da0:	98800017 	ldw	r2,0(r19)
  800da4:	98c00117 	ldw	r3,4(r19)
  800da8:	d9000104 	addi	r4,sp,4
  800dac:	12000003 	ldbu	r8,0(r2)
  800db0:	18ffffc4 	addi	r3,r3,-1
  800db4:	10800044 	addi	r2,r2,1
  800db8:	98c00115 	stw	r3,4(r19)
  800dbc:	98800015 	stw	r2,0(r19)
  800dc0:	8c000044 	addi	r16,r17,1
  800dc4:	dd400015 	stw	r21,0(sp)
  800dc8:	2463883a 	add	r17,r4,r17
  800dcc:	200d883a 	mov	r6,r4
  800dd0:	a00b883a 	mov	r5,r20
  800dd4:	800f883a 	mov	r7,r16
  800dd8:	b809883a 	mov	r4,r23
  800ddc:	8a000005 	stb	r8,0(r17)
  800de0:	0803c1c0 	call	803c1c <_mbrtowc_r>
  800de4:	017fffc4 	movi	r5,-1
  800de8:	11404e26 	beq	r2,r5,800f24 <__svfscanf_r+0x968>
  800dec:	1000601e 	bne	r2,zero,800f70 <__svfscanf_r+0x9b4>
  800df0:	d8c09f17 	ldw	r3,636(sp)
  800df4:	1800641e 	bne	r3,zero,800f88 <__svfscanf_r+0x9cc>
  800df8:	a0000015 	stw	zero,0(r20)
  800dfc:	9425883a 	add	r18,r18,r16
  800e00:	e179883a 	add	fp,fp,r5
  800e04:	a5000104 	addi	r20,r20,4
  800e08:	98800117 	ldw	r2,4(r19)
  800e0c:	0023883a 	mov	r17,zero
  800e10:	00804b16 	blt	zero,r2,800f40 <__svfscanf_r+0x984>
  800e14:	980b883a 	mov	r5,r19
  800e18:	b809883a 	mov	r4,r23
  800e1c:	08040cc0 	call	8040cc <__srefill_r>
  800e20:	10004726 	beq	r2,zero,800f40 <__svfscanf_r+0x984>
  800e24:	88003f1e 	bne	r17,zero,800f24 <__svfscanf_r+0x968>
  800e28:	d8c09f17 	ldw	r3,636(sp)
  800e2c:	1800031e 	bne	r3,zero,800e3c <__svfscanf_r+0x880>
  800e30:	d900a017 	ldw	r4,640(sp)
  800e34:	21000044 	addi	r4,r4,1
  800e38:	d900a015 	stw	r4,640(sp)
  800e3c:	dd009d17 	ldw	r20,628(sp)
  800e40:	a00d883a 	mov	r6,r20
  800e44:	003e1a06 	br	8006b0 <__alt_mem_onchip_ram+0xff7fc6b0>
  800e48:	8c40040c 	andi	r17,r17,16
  800e4c:	073fffc4 	movi	fp,-1
  800e50:	883fa51e 	bne	r17,zero,800ce8 <__alt_mem_onchip_ram+0xff7fcce8>
  800e54:	d9409c17 	ldw	r5,624(sp)
  800e58:	e2bfffc4 	addi	r10,fp,-1
  800e5c:	2c000017 	ldw	r16,0(r5)
  800e60:	2c400104 	addi	r17,r5,4
  800e64:	8007883a 	mov	r3,r16
  800e68:	82ab883a 	add	r21,r16,r10
  800e6c:	00000306 	br	800e7c <__svfscanf_r+0x8c0>
  800e70:	99000017 	ldw	r4,0(r19)
  800e74:	e007883a 	mov	r3,fp
  800e78:	20800003 	ldbu	r2,0(r4)
  800e7c:	10803fcc 	andi	r2,r2,255
  800e80:	d9405884 	addi	r5,sp,354
  800e84:	2885883a 	add	r2,r5,r2
  800e88:	10800007 	ldb	r2,0(r2)
  800e8c:	10004b26 	beq	r2,zero,800fbc <__svfscanf_r+0xa00>
  800e90:	98800117 	ldw	r2,4(r19)
  800e94:	21400044 	addi	r5,r4,1
  800e98:	99400015 	stw	r5,0(r19)
  800e9c:	10bfffc4 	addi	r2,r2,-1
  800ea0:	98800115 	stw	r2,4(r19)
  800ea4:	20800003 	ldbu	r2,0(r4)
  800ea8:	1f000044 	addi	fp,r3,1
  800eac:	18800005 	stb	r2,0(r3)
  800eb0:	1d400726 	beq	r3,r21,800ed0 <__svfscanf_r+0x914>
  800eb4:	98800117 	ldw	r2,4(r19)
  800eb8:	00bfed16 	blt	zero,r2,800e70 <__alt_mem_onchip_ram+0xff7fce70>
  800ebc:	980b883a 	mov	r5,r19
  800ec0:	b809883a 	mov	r4,r23
  800ec4:	08040cc0 	call	8040cc <__srefill_r>
  800ec8:	103fe926 	beq	r2,zero,800e70 <__alt_mem_onchip_ram+0xff7fce70>
  800ecc:	87001526 	beq	r16,fp,800f24 <__svfscanf_r+0x968>
  800ed0:	e421c83a 	sub	r16,fp,r16
  800ed4:	803dfa26 	beq	r16,zero,8006c0 <__alt_mem_onchip_ram+0xff7fc6c0>
  800ed8:	d880a017 	ldw	r2,640(sp)
  800edc:	e0000005 	stb	zero,0(fp)
  800ee0:	dc409c15 	stw	r17,624(sp)
  800ee4:	10800044 	addi	r2,r2,1
  800ee8:	d880a015 	stw	r2,640(sp)
  800eec:	9425883a 	add	r18,r18,r16
  800ef0:	a00d883a 	mov	r6,r20
  800ef4:	003dee06 	br	8006b0 <__alt_mem_onchip_ram+0xff7fc6b0>
  800ef8:	013fff84 	movi	r4,-2
  800efc:	1103ed1e 	bne	r2,r4,801eb4 <__svfscanf_r+0x18f8>
  800f00:	8821883a 	mov	r16,r17
  800f04:	98800117 	ldw	r2,4(r19)
  800f08:	00834116 	blt	zero,r2,801c10 <__svfscanf_r+0x1654>
  800f0c:	980b883a 	mov	r5,r19
  800f10:	b809883a 	mov	r4,r23
  800f14:	08040cc0 	call	8040cc <__srefill_r>
  800f18:	10033d26 	beq	r2,zero,801c10 <__svfscanf_r+0x1654>
  800f1c:	dc409f17 	ldw	r17,636(sp)
  800f20:	80034426 	beq	r16,zero,801c34 <__svfscanf_r+0x1678>
  800f24:	d900a017 	ldw	r4,640(sp)
  800f28:	203e8026 	beq	r4,zero,80092c <__alt_mem_onchip_ram+0xff7fc92c>
  800f2c:	9880030b 	ldhu	r2,12(r19)
  800f30:	1080100c 	andi	r2,r2,64
  800f34:	103e7d1e 	bne	r2,zero,80092c <__alt_mem_onchip_ram+0xff7fc92c>
  800f38:	2005883a 	mov	r2,r4
  800f3c:	003e7c06 	br	800930 <__alt_mem_onchip_ram+0xff7fc930>
  800f40:	e03f951e 	bne	fp,zero,800d98 <__alt_mem_onchip_ram+0xff7fcd98>
  800f44:	003fb806 	br	800e28 <__alt_mem_onchip_ram+0xff7fce28>
  800f48:	d8809c17 	ldw	r2,624(sp)
  800f4c:	15000017 	ldw	r20,0(r2)
  800f50:	10800104 	addi	r2,r2,4
  800f54:	d8809c15 	stw	r2,624(sp)
  800f58:	003f8e06 	br	800d94 <__alt_mem_onchip_ram+0xff7fcd94>
  800f5c:	980b883a 	mov	r5,r19
  800f60:	b809883a 	mov	r4,r23
  800f64:	08040cc0 	call	8040cc <__srefill_r>
  800f68:	103f3626 	beq	r2,zero,800c44 <__alt_mem_onchip_ram+0xff7fcc44>
  800f6c:	003fed06 	br	800f24 <__alt_mem_onchip_ram+0xff7fcf24>
  800f70:	013fff84 	movi	r4,-2
  800f74:	1100071e 	bne	r2,r4,800f94 <__svfscanf_r+0x9d8>
  800f78:	98800117 	ldw	r2,4(r19)
  800f7c:	8023883a 	mov	r17,r16
  800f80:	00bf8516 	blt	zero,r2,800d98 <__alt_mem_onchip_ram+0xff7fcd98>
  800f84:	003fa306 	br	800e14 <__alt_mem_onchip_ram+0xff7fce14>
  800f88:	9425883a 	add	r18,r18,r16
  800f8c:	e73fffc4 	addi	fp,fp,-1
  800f90:	003f9d06 	br	800e08 <__alt_mem_onchip_ram+0xff7fce08>
  800f94:	d8c09f17 	ldw	r3,636(sp)
  800f98:	9425883a 	add	r18,r18,r16
  800f9c:	e73fffc4 	addi	fp,fp,-1
  800fa0:	183f9826 	beq	r3,zero,800e04 <__alt_mem_onchip_ram+0xff7fce04>
  800fa4:	003f9806 	br	800e08 <__alt_mem_onchip_ram+0xff7fce08>
  800fa8:	8023883a 	mov	r17,r16
  800fac:	8821883a 	mov	r16,r17
  800fb0:	003fce06 	br	800eec <__alt_mem_onchip_ram+0xff7fceec>
  800fb4:	803f3b1e 	bne	r16,zero,800ca4 <__alt_mem_onchip_ram+0xff7fcca4>
  800fb8:	003fda06 	br	800f24 <__alt_mem_onchip_ram+0xff7fcf24>
  800fbc:	1839883a 	mov	fp,r3
  800fc0:	003fc306 	br	800ed0 <__alt_mem_onchip_ram+0xff7fced0>
  800fc4:	803fc91e 	bne	r16,zero,800eec <__alt_mem_onchip_ram+0xff7fceec>
  800fc8:	003dbd06 	br	8006c0 <__alt_mem_onchip_ram+0xff7fc6c0>
  800fcc:	d8809c17 	ldw	r2,624(sp)
  800fd0:	dcc00015 	stw	r19,0(sp)
  800fd4:	b809883a 	mov	r4,r23
  800fd8:	11400017 	ldw	r5,0(r2)
  800fdc:	e00f883a 	mov	r7,fp
  800fe0:	01800044 	movi	r6,1
  800fe4:	080291c0 	call	80291c <_fread_r>
  800fe8:	d9009c17 	ldw	r4,624(sp)
  800fec:	20c00104 	addi	r3,r4,4
  800ff0:	103fcc26 	beq	r2,zero,800f24 <__alt_mem_onchip_ram+0xff7fcf24>
  800ff4:	d940a017 	ldw	r5,640(sp)
  800ff8:	dd009d17 	ldw	r20,628(sp)
  800ffc:	90a5883a 	add	r18,r18,r2
  801000:	29400044 	addi	r5,r5,1
  801004:	d940a015 	stw	r5,640(sp)
  801008:	d8c09c15 	stw	r3,624(sp)
  80100c:	a00d883a 	mov	r6,r20
  801010:	003da706 	br	8006b0 <__alt_mem_onchip_ram+0xff7fc6b0>
  801014:	980b883a 	mov	r5,r19
  801018:	b809883a 	mov	r4,r23
  80101c:	08040cc0 	call	8040cc <__srefill_r>
  801020:	103e3626 	beq	r2,zero,8008fc <__alt_mem_onchip_ram+0xff7fc8fc>
  801024:	003fbf06 	br	800f24 <__alt_mem_onchip_ram+0xff7fcf24>
  801028:	98800117 	ldw	r2,4(r19)
  80102c:	88e2b03a 	or	r17,r17,r3
  801030:	0080210e 	bge	zero,r2,8010b8 <__svfscanf_r+0xafc>
  801034:	01402034 	movhi	r5,128
  801038:	29579f04 	addi	r5,r5,24188
  80103c:	00800284 	movi	r2,10
  801040:	d940a115 	stw	r5,644(sp)
  801044:	d8809e15 	stw	r2,632(sp)
  801048:	050000c4 	movi	r20,3
  80104c:	003e6906 	br	8009f4 <__alt_mem_onchip_ram+0xff7fc9f4>
  801050:	a1400083 	ldbu	r5,2(r20)
  801054:	8c400094 	ori	r17,r17,2
  801058:	a5000084 	addi	r20,r20,2
  80105c:	2d403fcc 	andi	r21,r5,255
  801060:	003da106 	br	8006e8 <__alt_mem_onchip_ram+0xff7fc6e8>
  801064:	8880004c 	andi	r2,r17,1
  801068:	10000c1e 	bne	r2,zero,80109c <__svfscanf_r+0xae0>
  80106c:	8c40008c 	andi	r17,r17,2
  801070:	88000a26 	beq	r17,zero,80109c <__svfscanf_r+0xae0>
  801074:	d8c09c17 	ldw	r3,624(sp)
  801078:	d9009c17 	ldw	r4,624(sp)
  80107c:	dd009d17 	ldw	r20,628(sp)
  801080:	18800017 	ldw	r2,0(r3)
  801084:	9007d7fa 	srai	r3,r18,31
  801088:	21000104 	addi	r4,r4,4
  80108c:	14800015 	stw	r18,0(r2)
  801090:	10c00115 	stw	r3,4(r2)
  801094:	d9009c15 	stw	r4,624(sp)
  801098:	003d8406 	br	8006ac <__alt_mem_onchip_ram+0xff7fc6ac>
  80109c:	d9409c17 	ldw	r5,624(sp)
  8010a0:	dd009d17 	ldw	r20,628(sp)
  8010a4:	28800017 	ldw	r2,0(r5)
  8010a8:	29400104 	addi	r5,r5,4
  8010ac:	d9409c15 	stw	r5,624(sp)
  8010b0:	14800015 	stw	r18,0(r2)
  8010b4:	003d7d06 	br	8006ac <__alt_mem_onchip_ram+0xff7fc6ac>
  8010b8:	980b883a 	mov	r5,r19
  8010bc:	b809883a 	mov	r4,r23
  8010c0:	08040cc0 	call	8040cc <__srefill_r>
  8010c4:	103f971e 	bne	r2,zero,800f24 <__alt_mem_onchip_ram+0xff7fcf24>
  8010c8:	b4000017 	ldw	r16,0(r22)
  8010cc:	003ed206 	br	800c18 <__alt_mem_onchip_ram+0xff7fcc18>
  8010d0:	980b883a 	mov	r5,r19
  8010d4:	b809883a 	mov	r4,r23
  8010d8:	08040cc0 	call	8040cc <__srefill_r>
  8010dc:	103f911e 	bne	r2,zero,800f24 <__alt_mem_onchip_ram+0xff7fcf24>
  8010e0:	01002034 	movhi	r4,128
  8010e4:	2118fd04 	addi	r4,r4,25588
  8010e8:	01400404 	movi	r5,16
  8010ec:	b4000017 	ldw	r16,0(r22)
  8010f0:	d900a115 	stw	r4,644(sp)
  8010f4:	d9409e15 	stw	r5,632(sp)
  8010f8:	050000c4 	movi	r20,3
  8010fc:	003e3d06 	br	8009f4 <__alt_mem_onchip_ram+0xff7fc9f4>
  801100:	980b883a 	mov	r5,r19
  801104:	b809883a 	mov	r4,r23
  801108:	08040cc0 	call	8040cc <__srefill_r>
  80110c:	103f851e 	bne	r2,zero,800f24 <__alt_mem_onchip_ram+0xff7fcf24>
  801110:	b4000017 	ldw	r16,0(r22)
  801114:	05000084 	movi	r20,2
  801118:	003e3606 	br	8009f4 <__alt_mem_onchip_ram+0xff7fc9f4>
  80111c:	980b883a 	mov	r5,r19
  801120:	b809883a 	mov	r4,r23
  801124:	08040cc0 	call	8040cc <__srefill_r>
  801128:	103eea26 	beq	r2,zero,800cd4 <__alt_mem_onchip_ram+0xff7fccd4>
  80112c:	003f7d06 	br	800f24 <__alt_mem_onchip_ram+0xff7fcf24>
  801130:	980b883a 	mov	r5,r19
  801134:	b809883a 	mov	r4,r23
  801138:	08040cc0 	call	8040cc <__srefill_r>
  80113c:	103f791e 	bne	r2,zero,800f24 <__alt_mem_onchip_ram+0xff7fcf24>
  801140:	b4000017 	ldw	r16,0(r22)
  801144:	05000104 	movi	r20,4
  801148:	003e2a06 	br	8009f4 <__alt_mem_onchip_ram+0xff7fc9f4>
  80114c:	980b883a 	mov	r5,r19
  801150:	b809883a 	mov	r4,r23
  801154:	08040cc0 	call	8040cc <__srefill_r>
  801158:	103f721e 	bne	r2,zero,800f24 <__alt_mem_onchip_ram+0xff7fcf24>
  80115c:	b4000017 	ldw	r16,0(r22)
  801160:	003e8c06 	br	800b94 <__alt_mem_onchip_ram+0xff7fcb94>
  801164:	980b883a 	mov	r5,r19
  801168:	b809883a 	mov	r4,r23
  80116c:	08040cc0 	call	8040cc <__srefill_r>
  801170:	103f6c1e 	bne	r2,zero,800f24 <__alt_mem_onchip_ram+0xff7fcf24>
  801174:	00802034 	movhi	r2,128
  801178:	1098fd04 	addi	r2,r2,25588
  80117c:	00c00284 	movi	r3,10
  801180:	b4000017 	ldw	r16,0(r22)
  801184:	d880a115 	stw	r2,644(sp)
  801188:	d8c09e15 	stw	r3,632(sp)
  80118c:	050000c4 	movi	r20,3
  801190:	003e1806 	br	8009f4 <__alt_mem_onchip_ram+0xff7fc9f4>
  801194:	980b883a 	mov	r5,r19
  801198:	b809883a 	mov	r4,r23
  80119c:	08040cc0 	call	8040cc <__srefill_r>
  8011a0:	103f601e 	bne	r2,zero,800f24 <__alt_mem_onchip_ram+0xff7fcf24>
  8011a4:	00802034 	movhi	r2,128
  8011a8:	1098fd04 	addi	r2,r2,25588
  8011ac:	00c00204 	movi	r3,8
  8011b0:	b4000017 	ldw	r16,0(r22)
  8011b4:	d880a115 	stw	r2,644(sp)
  8011b8:	d8c09e15 	stw	r3,632(sp)
  8011bc:	050000c4 	movi	r20,3
  8011c0:	003e0c06 	br	8009f4 <__alt_mem_onchip_ram+0xff7fc9f4>
  8011c4:	980b883a 	mov	r5,r19
  8011c8:	b809883a 	mov	r4,r23
  8011cc:	08040cc0 	call	8040cc <__srefill_r>
  8011d0:	103f541e 	bne	r2,zero,800f24 <__alt_mem_onchip_ram+0xff7fcf24>
  8011d4:	00802034 	movhi	r2,128
  8011d8:	10979f04 	addi	r2,r2,24188
  8011dc:	b4000017 	ldw	r16,0(r22)
  8011e0:	d880a115 	stw	r2,644(sp)
  8011e4:	d8009e15 	stw	zero,632(sp)
  8011e8:	050000c4 	movi	r20,3
  8011ec:	003e0106 	br	8009f4 <__alt_mem_onchip_ram+0xff7fc9f4>
  8011f0:	980b883a 	mov	r5,r19
  8011f4:	b809883a 	mov	r4,r23
  8011f8:	08040cc0 	call	8040cc <__srefill_r>
  8011fc:	103f491e 	bne	r2,zero,800f24 <__alt_mem_onchip_ram+0xff7fcf24>
  801200:	00802034 	movhi	r2,128
  801204:	1098fd04 	addi	r2,r2,25588
  801208:	00c00404 	movi	r3,16
  80120c:	b4000017 	ldw	r16,0(r22)
  801210:	d880a115 	stw	r2,644(sp)
  801214:	d8c09e15 	stw	r3,632(sp)
  801218:	050000c4 	movi	r20,3
  80121c:	003df506 	br	8009f4 <__alt_mem_onchip_ram+0xff7fc9f4>
  801220:	014000c4 	movi	r5,3
  801224:	a1416726 	beq	r20,r5,8017c4 <__svfscanf_r+0x1208>
  801228:	01000104 	movi	r4,4
  80122c:	a101491e 	bne	r20,r4,801754 <__svfscanf_r+0x1198>
  801230:	b809883a 	mov	r4,r23
  801234:	08032240 	call	803224 <_localeconv_r>
  801238:	10800017 	ldw	r2,0(r2)
  80123c:	e0ffffc4 	addi	r3,fp,-1
  801240:	d880a315 	stw	r2,652(sp)
  801244:	00805704 	movi	r2,348
  801248:	10c21e2e 	bgeu	r2,r3,801ac4 <__svfscanf_r+0x1508>
  80124c:	e73fa8c4 	addi	fp,fp,-349
  801250:	df00a215 	stw	fp,648(sp)
  801254:	07005744 	movi	fp,349
  801258:	8d01e014 	ori	r20,r17,1920
  80125c:	0023883a 	mov	r17,zero
  801260:	dc000104 	addi	r16,sp,4
  801264:	002b883a 	mov	r21,zero
  801268:	8805883a 	mov	r2,r17
  80126c:	0007883a 	mov	r3,zero
  801270:	8023883a 	mov	r17,r16
  801274:	b80d883a 	mov	r6,r23
  801278:	e021883a 	mov	r16,fp
  80127c:	a82f883a 	mov	r23,r21
  801280:	d800a515 	stw	zero,660(sp)
  801284:	d800a415 	stw	zero,656(sp)
  801288:	d8009f15 	stw	zero,636(sp)
  80128c:	01c01384 	movi	r7,78
  801290:	182b883a 	mov	r21,r3
  801294:	1039883a 	mov	fp,r2
  801298:	99000017 	ldw	r4,0(r19)
  80129c:	21400003 	ldbu	r5,0(r4)
  8012a0:	28bff544 	addi	r2,r5,-43
  8012a4:	10803fcc 	andi	r2,r2,255
  8012a8:	38810e36 	bltu	r7,r2,8016e4 <__svfscanf_r+0x1128>
  8012ac:	100490ba 	slli	r2,r2,2
  8012b0:	00c02034 	movhi	r3,128
  8012b4:	18c4b104 	addi	r3,r3,4804
  8012b8:	10c5883a 	add	r2,r2,r3
  8012bc:	10800017 	ldw	r2,0(r2)
  8012c0:	1000683a 	jmp	r2
  8012c4:	008015b8 	rdprs	r2,zero,86
  8012c8:	008016e4 	muli	r2,zero,91
  8012cc:	008015b8 	rdprs	r2,zero,86
  8012d0:	008016e4 	muli	r2,zero,91
  8012d4:	008016e4 	muli	r2,zero,91
  8012d8:	0080158c 	andi	r2,zero,86
  8012dc:	00801400 	call	80140 <__reset-0x77fec0>
  8012e0:	00801400 	call	80140 <__reset-0x77fec0>
  8012e4:	00801400 	call	80140 <__reset-0x77fec0>
  8012e8:	00801400 	call	80140 <__reset-0x77fec0>
  8012ec:	00801400 	call	80140 <__reset-0x77fec0>
  8012f0:	00801400 	call	80140 <__reset-0x77fec0>
  8012f4:	00801400 	call	80140 <__reset-0x77fec0>
  8012f8:	00801400 	call	80140 <__reset-0x77fec0>
  8012fc:	00801400 	call	80140 <__reset-0x77fec0>
  801300:	008016e4 	muli	r2,zero,91
  801304:	008016e4 	muli	r2,zero,91
  801308:	008016e4 	muli	r2,zero,91
  80130c:	008016e4 	muli	r2,zero,91
  801310:	008016e4 	muli	r2,zero,91
  801314:	008016e4 	muli	r2,zero,91
  801318:	008016e4 	muli	r2,zero,91
  80131c:	008016d4 	movui	r2,91
  801320:	008016e4 	muli	r2,zero,91
  801324:	008016e4 	muli	r2,zero,91
  801328:	008016e4 	muli	r2,zero,91
  80132c:	00801690 	cmplti	r2,zero,90
  801330:	00801674 	movhi	r2,89
  801334:	008016e4 	muli	r2,zero,91
  801338:	008016e4 	muli	r2,zero,91
  80133c:	0080163c 	xorhi	r2,zero,88
  801340:	008016e4 	muli	r2,zero,91
  801344:	008016e4 	muli	r2,zero,91
  801348:	008016e4 	muli	r2,zero,91
  80134c:	008016e4 	muli	r2,zero,91
  801350:	00801604 	movi	r2,88
  801354:	008016e4 	muli	r2,zero,91
  801358:	008016e4 	muli	r2,zero,91
  80135c:	008016e4 	muli	r2,zero,91
  801360:	008016e4 	muli	r2,zero,91
  801364:	008016e4 	muli	r2,zero,91
  801368:	008015e8 	cmpgeui	r2,zero,87
  80136c:	008016e4 	muli	r2,zero,91
  801370:	008016e4 	muli	r2,zero,91
  801374:	008016e4 	muli	r2,zero,91
  801378:	008016e4 	muli	r2,zero,91
  80137c:	008015cc 	andi	r2,zero,87
  801380:	008016e4 	muli	r2,zero,91
  801384:	008016e4 	muli	r2,zero,91
  801388:	008016e4 	muli	r2,zero,91
  80138c:	008016e4 	muli	r2,zero,91
  801390:	008016e4 	muli	r2,zero,91
  801394:	008016e4 	muli	r2,zero,91
  801398:	008016e4 	muli	r2,zero,91
  80139c:	008016d4 	movui	r2,91
  8013a0:	008016e4 	muli	r2,zero,91
  8013a4:	008016e4 	muli	r2,zero,91
  8013a8:	008016e4 	muli	r2,zero,91
  8013ac:	00801690 	cmplti	r2,zero,90
  8013b0:	00801674 	movhi	r2,89
  8013b4:	008016e4 	muli	r2,zero,91
  8013b8:	008016e4 	muli	r2,zero,91
  8013bc:	0080163c 	xorhi	r2,zero,88
  8013c0:	008016e4 	muli	r2,zero,91
  8013c4:	008016e4 	muli	r2,zero,91
  8013c8:	008016e4 	muli	r2,zero,91
  8013cc:	008016e4 	muli	r2,zero,91
  8013d0:	00801604 	movi	r2,88
  8013d4:	008016e4 	muli	r2,zero,91
  8013d8:	008016e4 	muli	r2,zero,91
  8013dc:	008016e4 	muli	r2,zero,91
  8013e0:	008016e4 	muli	r2,zero,91
  8013e4:	008016e4 	muli	r2,zero,91
  8013e8:	008015e8 	cmpgeui	r2,zero,87
  8013ec:	008016e4 	muli	r2,zero,91
  8013f0:	008016e4 	muli	r2,zero,91
  8013f4:	008016e4 	muli	r2,zero,91
  8013f8:	008016e4 	muli	r2,zero,91
  8013fc:	008015cc 	andi	r2,zero,87
  801400:	a8803fcc 	andi	r2,r21,255
  801404:	1080201c 	xori	r2,r2,128
  801408:	10bfe004 	addi	r2,r2,-128
  80140c:	b885883a 	add	r2,r23,r2
  801410:	10000d1e 	bne	r2,zero,801448 <__svfscanf_r+0xe8c>
  801414:	00bf9fc4 	movi	r2,-385
  801418:	a0a8703a 	and	r20,r20,r2
  80141c:	89400005 	stb	r5,0(r17)
  801420:	8c400044 	addi	r17,r17,1
  801424:	98800117 	ldw	r2,4(r19)
  801428:	843fffc4 	addi	r16,r16,-1
  80142c:	94800044 	addi	r18,r18,1
  801430:	10bfffc4 	addi	r2,r2,-1
  801434:	98800115 	stw	r2,4(r19)
  801438:	0080b40e 	bge	zero,r2,80170c <__svfscanf_r+0x1150>
  80143c:	21000044 	addi	r4,r4,1
  801440:	99000015 	stw	r4,0(r19)
  801444:	803f941e 	bne	r16,zero,801298 <__alt_mem_onchip_ram+0xff7fd298>
  801448:	8821883a 	mov	r16,r17
  80144c:	a807883a 	mov	r3,r21
  801450:	e023883a 	mov	r17,fp
  801454:	b82b883a 	mov	r21,r23
  801458:	302f883a 	mov	r23,r6
  80145c:	e001961e 	bne	fp,zero,801ab8 <__svfscanf_r+0x14fc>
  801460:	ab3fffc4 	addi	r12,r21,-1
  801464:	00800044 	movi	r2,1
  801468:	1302a22e 	bgeu	r2,r12,801ef4 <__svfscanf_r+0x1938>
  80146c:	18803fcc 	andi	r2,r3,255
  801470:	1080201c 	xori	r2,r2,128
  801474:	10bfe004 	addi	r2,r2,-128
  801478:	113fffc4 	addi	r4,r2,-1
  80147c:	01400184 	movi	r5,6
  801480:	29001136 	bltu	r5,r4,8014c8 <__svfscanf_r+0xf0c>
  801484:	01000084 	movi	r4,2
  801488:	2082770e 	bge	r4,r2,801e68 <__svfscanf_r+0x18ac>
  80148c:	054000c4 	movi	r21,3
  801490:	1839883a 	mov	fp,r3
  801494:	15400c26 	beq	r2,r21,8014c8 <__svfscanf_r+0xf0c>
  801498:	9425c83a 	sub	r18,r18,r16
  80149c:	843fffc4 	addi	r16,r16,-1
  8014a0:	81400007 	ldb	r5,0(r16)
  8014a4:	980d883a 	mov	r6,r19
  8014a8:	b809883a 	mov	r4,r23
  8014ac:	0808d380 	call	808d38 <_ungetc_r>
  8014b0:	e0bfffc4 	addi	r2,fp,-1
  8014b4:	10c03fcc 	andi	r3,r2,255
  8014b8:	8493883a 	add	r9,r16,r18
  8014bc:	1039883a 	mov	fp,r2
  8014c0:	a8fff636 	bltu	r21,r3,80149c <__alt_mem_onchip_ram+0xff7fd49c>
  8014c4:	4825883a 	mov	r18,r9
  8014c8:	a080400c 	andi	r2,r20,256
  8014cc:	10001426 	beq	r2,zero,801520 <__svfscanf_r+0xf64>
  8014d0:	a081000c 	andi	r2,r20,1024
  8014d4:	10027b1e 	bne	r2,zero,801ec4 <__svfscanf_r+0x1908>
  8014d8:	817fffc7 	ldb	r5,-1(r16)
  8014dc:	00801944 	movi	r2,101
  8014e0:	873fffc4 	addi	fp,r16,-1
  8014e4:	957fffc4 	addi	r21,r18,-1
  8014e8:	28800826 	beq	r5,r2,80150c <__svfscanf_r+0xf50>
  8014ec:	00801144 	movi	r2,69
  8014f0:	28800626 	beq	r5,r2,80150c <__svfscanf_r+0xf50>
  8014f4:	980d883a 	mov	r6,r19
  8014f8:	b809883a 	mov	r4,r23
  8014fc:	0808d380 	call	808d38 <_ungetc_r>
  801500:	817fff87 	ldb	r5,-2(r16)
  801504:	873fff84 	addi	fp,r16,-2
  801508:	957fff84 	addi	r21,r18,-2
  80150c:	980d883a 	mov	r6,r19
  801510:	b809883a 	mov	r4,r23
  801514:	0808d380 	call	808d38 <_ungetc_r>
  801518:	a825883a 	mov	r18,r21
  80151c:	e021883a 	mov	r16,fp
  801520:	a080040c 	andi	r2,r20,16
  801524:	103e451e 	bne	r2,zero,800e3c <__alt_mem_onchip_ram+0xff7fce3c>
  801528:	80000005 	stb	zero,0(r16)
  80152c:	a081800c 	andi	r2,r20,1536
  801530:	01010004 	movi	r4,1024
  801534:	1101ea26 	beq	r2,r4,801ce0 <__svfscanf_r+0x1724>
  801538:	d8c0a417 	ldw	r3,656(sp)
  80153c:	1801f41e 	bne	r3,zero,801d10 <__svfscanf_r+0x1754>
  801540:	000d883a 	mov	r6,zero
  801544:	d9400104 	addi	r5,sp,4
  801548:	b809883a 	mov	r4,r23
  80154c:	08047800 	call	804780 <_strtod_r>
  801550:	1021883a 	mov	r16,r2
  801554:	a080004c 	andi	r2,r20,1
  801558:	1001b926 	beq	r2,zero,801c40 <__svfscanf_r+0x1684>
  80155c:	d9009c17 	ldw	r4,624(sp)
  801560:	20800017 	ldw	r2,0(r4)
  801564:	21000104 	addi	r4,r4,4
  801568:	d9009c15 	stw	r4,624(sp)
  80156c:	14000015 	stw	r16,0(r2)
  801570:	10c00115 	stw	r3,4(r2)
  801574:	d8c0a017 	ldw	r3,640(sp)
  801578:	dd009d17 	ldw	r20,628(sp)
  80157c:	18c00044 	addi	r3,r3,1
  801580:	d8c0a015 	stw	r3,640(sp)
  801584:	a00d883a 	mov	r6,r20
  801588:	003c4906 	br	8006b0 <__alt_mem_onchip_ram+0xff7fc6b0>
  80158c:	a080400c 	andi	r2,r20,256
  801590:	103f9b26 	beq	r2,zero,801400 <__alt_mem_onchip_ram+0xff7fd400>
  801594:	d8c0a217 	ldw	r3,648(sp)
  801598:	00bfdfc4 	movi	r2,-129
  80159c:	a0a8703a 	and	r20,r20,r2
  8015a0:	e7000044 	addi	fp,fp,1
  8015a4:	183f9f26 	beq	r3,zero,801424 <__alt_mem_onchip_ram+0xff7fd424>
  8015a8:	18ffffc4 	addi	r3,r3,-1
  8015ac:	d8c0a215 	stw	r3,648(sp)
  8015b0:	84000044 	addi	r16,r16,1
  8015b4:	003f9b06 	br	801424 <__alt_mem_onchip_ram+0xff7fd424>
  8015b8:	a080200c 	andi	r2,r20,128
  8015bc:	103fa226 	beq	r2,zero,801448 <__alt_mem_onchip_ram+0xff7fd448>
  8015c0:	00bfdfc4 	movi	r2,-129
  8015c4:	a0a8703a 	and	r20,r20,r2
  8015c8:	003f9406 	br	80141c <__alt_mem_onchip_ram+0xff7fd41c>
  8015cc:	a8803fcc 	andi	r2,r21,255
  8015d0:	1080201c 	xori	r2,r2,128
  8015d4:	10bfe004 	addi	r2,r2,-128
  8015d8:	00c001c4 	movi	r3,7
  8015dc:	10ff9a1e 	bne	r2,r3,801448 <__alt_mem_onchip_ram+0xff7fd448>
  8015e0:	05400204 	movi	r21,8
  8015e4:	003f8d06 	br	80141c <__alt_mem_onchip_ram+0xff7fd41c>
  8015e8:	a8803fcc 	andi	r2,r21,255
  8015ec:	1080201c 	xori	r2,r2,128
  8015f0:	10bfe004 	addi	r2,r2,-128
  8015f4:	02000184 	movi	r8,6
  8015f8:	123f931e 	bne	r2,r8,801448 <__alt_mem_onchip_ram+0xff7fd448>
  8015fc:	054001c4 	movi	r21,7
  801600:	003f8606 	br	80141c <__alt_mem_onchip_ram+0xff7fd41c>
  801604:	b8004f1e 	bne	r23,zero,801744 <__svfscanf_r+0x1188>
  801608:	e000031e 	bne	fp,zero,801618 <__svfscanf_r+0x105c>
  80160c:	a081c00c 	andi	r2,r20,1792
  801610:	0201c004 	movi	r8,1792
  801614:	1201a226 	beq	r2,r8,801ca0 <__svfscanf_r+0x16e4>
  801618:	a8803fcc 	andi	r2,r21,255
  80161c:	1080201c 	xori	r2,r2,128
  801620:	10bfe004 	addi	r2,r2,-128
  801624:	02000044 	movi	r8,1
  801628:	12000226 	beq	r2,r8,801634 <__svfscanf_r+0x1078>
  80162c:	02000104 	movi	r8,4
  801630:	123f851e 	bne	r2,r8,801448 <__alt_mem_onchip_ram+0xff7fd448>
  801634:	ad400044 	addi	r21,r21,1
  801638:	003f7806 	br	80141c <__alt_mem_onchip_ram+0xff7fd41c>
  80163c:	a8803fcc 	andi	r2,r21,255
  801640:	1080201c 	xori	r2,r2,128
  801644:	10bfe004 	addi	r2,r2,-128
  801648:	1000391e 	bne	r2,zero,801730 <__svfscanf_r+0x1174>
  80164c:	e001151e 	bne	fp,zero,801aa4 <__svfscanf_r+0x14e8>
  801650:	a081c00c 	andi	r2,r20,1792
  801654:	0201c004 	movi	r8,1792
  801658:	12019b26 	beq	r2,r8,801cc8 <__svfscanf_r+0x170c>
  80165c:	8821883a 	mov	r16,r17
  801660:	a807883a 	mov	r3,r21
  801664:	e023883a 	mov	r17,fp
  801668:	b82b883a 	mov	r21,r23
  80166c:	302f883a 	mov	r23,r6
  801670:	003f7b06 	br	801460 <__alt_mem_onchip_ram+0xff7fd460>
  801674:	a8803fcc 	andi	r2,r21,255
  801678:	1080201c 	xori	r2,r2,128
  80167c:	10bfe004 	addi	r2,r2,-128
  801680:	02000084 	movi	r8,2
  801684:	123f701e 	bne	r2,r8,801448 <__alt_mem_onchip_ram+0xff7fd448>
  801688:	054000c4 	movi	r21,3
  80168c:	003f6306 	br	80141c <__alt_mem_onchip_ram+0xff7fd41c>
  801690:	a081400c 	andi	r2,r20,1280
  801694:	00c10004 	movi	r3,1024
  801698:	10c00326 	beq	r2,r3,8016a8 <__svfscanf_r+0x10ec>
  80169c:	a0c4703a 	and	r2,r20,r3
  8016a0:	103f6926 	beq	r2,zero,801448 <__alt_mem_onchip_ram+0xff7fd448>
  8016a4:	e03fed26 	beq	fp,zero,80165c <__alt_mem_onchip_ram+0xff7fd65c>
  8016a8:	a080800c 	andi	r2,r20,512
  8016ac:	1000041e 	bne	r2,zero,8016c0 <__svfscanf_r+0x1104>
  8016b0:	d8c09f17 	ldw	r3,636(sp)
  8016b4:	dc40a515 	stw	r17,660(sp)
  8016b8:	e0f9c83a 	sub	fp,fp,r3
  8016bc:	df00a415 	stw	fp,656(sp)
  8016c0:	00be1fc4 	movi	r2,-1921
  8016c4:	a0a8703a 	and	r20,r20,r2
  8016c8:	a5006014 	ori	r20,r20,384
  8016cc:	0039883a 	mov	fp,zero
  8016d0:	003f5206 	br	80141c <__alt_mem_onchip_ram+0xff7fd41c>
  8016d4:	00800044 	movi	r2,1
  8016d8:	b8bf5b1e 	bne	r23,r2,801448 <__alt_mem_onchip_ram+0xff7fd448>
  8016dc:	05c00084 	movi	r23,2
  8016e0:	003f4e06 	br	80141c <__alt_mem_onchip_ram+0xff7fd41c>
  8016e4:	d8c0a317 	ldw	r3,652(sp)
  8016e8:	2a003fcc 	andi	r8,r5,255
  8016ec:	18800003 	ldbu	r2,0(r3)
  8016f0:	40bf551e 	bne	r8,r2,801448 <__alt_mem_onchip_ram+0xff7fd448>
  8016f4:	a080800c 	andi	r2,r20,512
  8016f8:	103f5326 	beq	r2,zero,801448 <__alt_mem_onchip_ram+0xff7fd448>
  8016fc:	00bf5fc4 	movi	r2,-641
  801700:	a0a8703a 	and	r20,r20,r2
  801704:	df009f15 	stw	fp,636(sp)
  801708:	003f4406 	br	80141c <__alt_mem_onchip_ram+0xff7fd41c>
  80170c:	3009883a 	mov	r4,r6
  801710:	980b883a 	mov	r5,r19
  801714:	d980a915 	stw	r6,676(sp)
  801718:	d9c0aa15 	stw	r7,680(sp)
  80171c:	08040cc0 	call	8040cc <__srefill_r>
  801720:	d980a917 	ldw	r6,676(sp)
  801724:	d9c0aa17 	ldw	r7,680(sp)
  801728:	103f4626 	beq	r2,zero,801444 <__alt_mem_onchip_ram+0xff7fd444>
  80172c:	003f4606 	br	801448 <__alt_mem_onchip_ram+0xff7fd448>
  801730:	020000c4 	movi	r8,3
  801734:	123fbf26 	beq	r2,r8,801634 <__alt_mem_onchip_ram+0xff7fd634>
  801738:	02000144 	movi	r8,5
  80173c:	123fbd26 	beq	r2,r8,801634 <__alt_mem_onchip_ram+0xff7fd634>
  801740:	003f4106 	br	801448 <__alt_mem_onchip_ram+0xff7fd448>
  801744:	00800084 	movi	r2,2
  801748:	b8bfb31e 	bne	r23,r2,801618 <__alt_mem_onchip_ram+0xff7fd618>
  80174c:	05c000c4 	movi	r23,3
  801750:	003f3206 	br	80141c <__alt_mem_onchip_ram+0xff7fd41c>
  801754:	e000011e 	bne	fp,zero,80175c <__svfscanf_r+0x11a0>
  801758:	073fffc4 	movi	fp,-1
  80175c:	8900004c 	andi	r4,r17,1
  801760:	20011d1e 	bne	r4,zero,801bd8 <__svfscanf_r+0x161c>
  801764:	8c40040c 	andi	r17,r17,16
  801768:	8800da26 	beq	r17,zero,801ad4 <__svfscanf_r+0x1518>
  80176c:	0023883a 	mov	r17,zero
  801770:	00000306 	br	801780 <__svfscanf_r+0x11c4>
  801774:	18800003 	ldbu	r2,0(r3)
  801778:	8085883a 	add	r2,r16,r2
  80177c:	10800043 	ldbu	r2,1(r2)
  801780:	1080020c 	andi	r2,r2,8
  801784:	1000fc1e 	bne	r2,zero,801b78 <__svfscanf_r+0x15bc>
  801788:	98800117 	ldw	r2,4(r19)
  80178c:	18c00044 	addi	r3,r3,1
  801790:	8c400044 	addi	r17,r17,1
  801794:	10bfffc4 	addi	r2,r2,-1
  801798:	98800115 	stw	r2,4(r19)
  80179c:	98c00015 	stw	r3,0(r19)
  8017a0:	8f00f526 	beq	r17,fp,801b78 <__svfscanf_r+0x15bc>
  8017a4:	00bff316 	blt	zero,r2,801774 <__alt_mem_onchip_ram+0xff7fd774>
  8017a8:	980b883a 	mov	r5,r19
  8017ac:	b809883a 	mov	r4,r23
  8017b0:	08040cc0 	call	8040cc <__srefill_r>
  8017b4:	1000f01e 	bne	r2,zero,801b78 <__svfscanf_r+0x15bc>
  8017b8:	b4000017 	ldw	r16,0(r22)
  8017bc:	98c00017 	ldw	r3,0(r19)
  8017c0:	003fec06 	br	801774 <__alt_mem_onchip_ram+0xff7fd774>
  8017c4:	e0bfffc4 	addi	r2,fp,-1
  8017c8:	01405704 	movi	r5,348
  8017cc:	2880bf2e 	bgeu	r5,r2,801acc <__svfscanf_r+0x1510>
  8017d0:	e1ffa8c4 	addi	r7,fp,-349
  8017d4:	07005744 	movi	fp,349
  8017d8:	8c436014 	ori	r17,r17,3456
  8017dc:	9013883a 	mov	r9,r18
  8017e0:	8825883a 	mov	r18,r17
  8017e4:	dc409e17 	ldw	r17,632(sp)
  8017e8:	0029883a 	mov	r20,zero
  8017ec:	dc000104 	addi	r16,sp,4
  8017f0:	05401344 	movi	r21,77
  8017f4:	02c08004 	movi	r11,512
  8017f8:	01bf7fc4 	movi	r6,-513
  8017fc:	023fdfc4 	movi	r8,-129
  801800:	20bff544 	addi	r2,r4,-43
  801804:	10803fcc 	andi	r2,r2,255
  801808:	a8807236 	bltu	r21,r2,8019d4 <__svfscanf_r+0x1418>
  80180c:	100490ba 	slli	r2,r2,2
  801810:	01402034 	movhi	r5,128
  801814:	29460904 	addi	r5,r5,6180
  801818:	1145883a 	add	r2,r2,r5
  80181c:	10800017 	ldw	r2,0(r2)
  801820:	1000683a 	jmp	r2
  801824:	00801a58 	cmpnei	r2,zero,105
  801828:	008019d4 	movui	r2,103
  80182c:	00801a58 	cmpnei	r2,zero,105
  801830:	008019d4 	movui	r2,103
  801834:	008019d4 	movui	r2,103
  801838:	00801a30 	cmpltui	r2,zero,104
  80183c:	00801a10 	cmplti	r2,zero,104
  801840:	00801a10 	cmplti	r2,zero,104
  801844:	00801a10 	cmplti	r2,zero,104
  801848:	00801a10 	cmplti	r2,zero,104
  80184c:	00801a10 	cmplti	r2,zero,104
  801850:	00801a10 	cmplti	r2,zero,104
  801854:	00801a10 	cmplti	r2,zero,104
  801858:	008019b8 	rdprs	r2,zero,102
  80185c:	008019b8 	rdprs	r2,zero,102
  801860:	008019d4 	movui	r2,103
  801864:	008019d4 	movui	r2,103
  801868:	008019d4 	movui	r2,103
  80186c:	008019d4 	movui	r2,103
  801870:	008019d4 	movui	r2,103
  801874:	008019d4 	movui	r2,103
  801878:	008019d4 	movui	r2,103
  80187c:	008019a4 	muli	r2,zero,102
  801880:	008019a4 	muli	r2,zero,102
  801884:	008019a4 	muli	r2,zero,102
  801888:	008019a4 	muli	r2,zero,102
  80188c:	008019a4 	muli	r2,zero,102
  801890:	008019a4 	muli	r2,zero,102
  801894:	008019d4 	movui	r2,103
  801898:	008019d4 	movui	r2,103
  80189c:	008019d4 	movui	r2,103
  8018a0:	008019d4 	movui	r2,103
  8018a4:	008019d4 	movui	r2,103
  8018a8:	008019d4 	movui	r2,103
  8018ac:	008019d4 	movui	r2,103
  8018b0:	008019d4 	movui	r2,103
  8018b4:	008019d4 	movui	r2,103
  8018b8:	008019d4 	movui	r2,103
  8018bc:	008019d4 	movui	r2,103
  8018c0:	008019d4 	movui	r2,103
  8018c4:	008019d4 	movui	r2,103
  8018c8:	008019d4 	movui	r2,103
  8018cc:	008019d4 	movui	r2,103
  8018d0:	008019d4 	movui	r2,103
  8018d4:	008019d4 	movui	r2,103
  8018d8:	0080195c 	xori	r2,zero,101
  8018dc:	008019d4 	movui	r2,103
  8018e0:	008019d4 	movui	r2,103
  8018e4:	008019d4 	movui	r2,103
  8018e8:	008019d4 	movui	r2,103
  8018ec:	008019d4 	movui	r2,103
  8018f0:	008019d4 	movui	r2,103
  8018f4:	008019d4 	movui	r2,103
  8018f8:	008019d4 	movui	r2,103
  8018fc:	008019a4 	muli	r2,zero,102
  801900:	008019a4 	muli	r2,zero,102
  801904:	008019a4 	muli	r2,zero,102
  801908:	008019a4 	muli	r2,zero,102
  80190c:	008019a4 	muli	r2,zero,102
  801910:	008019a4 	muli	r2,zero,102
  801914:	008019d4 	movui	r2,103
  801918:	008019d4 	movui	r2,103
  80191c:	008019d4 	movui	r2,103
  801920:	008019d4 	movui	r2,103
  801924:	008019d4 	movui	r2,103
  801928:	008019d4 	movui	r2,103
  80192c:	008019d4 	movui	r2,103
  801930:	008019d4 	movui	r2,103
  801934:	008019d4 	movui	r2,103
  801938:	008019d4 	movui	r2,103
  80193c:	008019d4 	movui	r2,103
  801940:	008019d4 	movui	r2,103
  801944:	008019d4 	movui	r2,103
  801948:	008019d4 	movui	r2,103
  80194c:	008019d4 	movui	r2,103
  801950:	008019d4 	movui	r2,103
  801954:	008019d4 	movui	r2,103
  801958:	0080195c 	xori	r2,zero,101
  80195c:	9081800c 	andi	r2,r18,1536
  801960:	12c01c1e 	bne	r2,r11,8019d4 <__svfscanf_r+0x1418>
  801964:	91a4703a 	and	r18,r18,r6
  801968:	94814014 	ori	r18,r18,1280
  80196c:	04400404 	movi	r17,16
  801970:	81000005 	stb	r4,0(r16)
  801974:	84000044 	addi	r16,r16,1
  801978:	98800117 	ldw	r2,4(r19)
  80197c:	10bfffc4 	addi	r2,r2,-1
  801980:	98800115 	stw	r2,4(r19)
  801984:	0080380e 	bge	zero,r2,801a68 <__svfscanf_r+0x14ac>
  801988:	18c00044 	addi	r3,r3,1
  80198c:	98c00015 	stw	r3,0(r19)
  801990:	e73fffc4 	addi	fp,fp,-1
  801994:	e0000f26 	beq	fp,zero,8019d4 <__svfscanf_r+0x1418>
  801998:	98c00017 	ldw	r3,0(r19)
  80199c:	19000003 	ldbu	r4,0(r3)
  8019a0:	003f9706 	br	801800 <__alt_mem_onchip_ram+0xff7fd800>
  8019a4:	00800284 	movi	r2,10
  8019a8:	14400a0e 	bge	r2,r17,8019d4 <__svfscanf_r+0x1418>
  8019ac:	00bd1fc4 	movi	r2,-2945
  8019b0:	90a4703a 	and	r18,r18,r2
  8019b4:	003fee06 	br	801970 <__alt_mem_onchip_ram+0xff7fd970>
  8019b8:	01402074 	movhi	r5,129
  8019bc:	8c63883a 	add	r17,r17,r17
  8019c0:	29526984 	addi	r5,r5,18854
  8019c4:	2c45883a 	add	r2,r5,r17
  8019c8:	1440000f 	ldh	r17,0(r2)
  8019cc:	00800204 	movi	r2,8
  8019d0:	147ff616 	blt	r2,r17,8019ac <__alt_mem_onchip_ram+0xff7fd9ac>
  8019d4:	dc409e15 	stw	r17,632(sp)
  8019d8:	9023883a 	mov	r17,r18
  8019dc:	8880400c 	andi	r2,r17,256
  8019e0:	4825883a 	mov	r18,r9
  8019e4:	10000426 	beq	r2,zero,8019f8 <__svfscanf_r+0x143c>
  8019e8:	d8800104 	addi	r2,sp,4
  8019ec:	1400b036 	bltu	r2,r16,801cb0 <__svfscanf_r+0x16f4>
  8019f0:	d8c00104 	addi	r3,sp,4
  8019f4:	1c3b3226 	beq	r3,r16,8006c0 <__alt_mem_onchip_ram+0xff7fc6c0>
  8019f8:	8880040c 	andi	r2,r17,16
  8019fc:	10006226 	beq	r2,zero,801b88 <__svfscanf_r+0x15cc>
  801a00:	d8800104 	addi	r2,sp,4
  801a04:	80a1c83a 	sub	r16,r16,r2
  801a08:	8521883a 	add	r16,r16,r20
  801a0c:	003ca506 	br	800ca4 <__alt_mem_onchip_ram+0xff7fcca4>
  801a10:	01402074 	movhi	r5,129
  801a14:	8c63883a 	add	r17,r17,r17
  801a18:	29526984 	addi	r5,r5,18854
  801a1c:	2c45883a 	add	r2,r5,r17
  801a20:	1440000f 	ldh	r17,0(r2)
  801a24:	00bd1fc4 	movi	r2,-2945
  801a28:	90a4703a 	and	r18,r18,r2
  801a2c:	003fd006 	br	801970 <__alt_mem_onchip_ram+0xff7fd970>
  801a30:	9082000c 	andi	r2,r18,2048
  801a34:	103fce26 	beq	r2,zero,801970 <__alt_mem_onchip_ram+0xff7fd970>
  801a38:	8800021e 	bne	r17,zero,801a44 <__svfscanf_r+0x1488>
  801a3c:	94808014 	ori	r18,r18,512
  801a40:	04400204 	movi	r17,8
  801a44:	9081000c 	andi	r2,r18,1024
  801a48:	10008626 	beq	r2,zero,801c64 <__svfscanf_r+0x16a8>
  801a4c:	00be9fc4 	movi	r2,-1409
  801a50:	90a4703a 	and	r18,r18,r2
  801a54:	003fc606 	br	801970 <__alt_mem_onchip_ram+0xff7fd970>
  801a58:	9080200c 	andi	r2,r18,128
  801a5c:	103fdd26 	beq	r2,zero,8019d4 <__alt_mem_onchip_ram+0xff7fd9d4>
  801a60:	9224703a 	and	r18,r18,r8
  801a64:	003fc206 	br	801970 <__alt_mem_onchip_ram+0xff7fd970>
  801a68:	980b883a 	mov	r5,r19
  801a6c:	b809883a 	mov	r4,r23
  801a70:	d980a915 	stw	r6,676(sp)
  801a74:	d9c0aa15 	stw	r7,680(sp)
  801a78:	da00a715 	stw	r8,668(sp)
  801a7c:	da40a815 	stw	r9,672(sp)
  801a80:	dac0a615 	stw	r11,664(sp)
  801a84:	08040cc0 	call	8040cc <__srefill_r>
  801a88:	d980a917 	ldw	r6,676(sp)
  801a8c:	d9c0aa17 	ldw	r7,680(sp)
  801a90:	da00a717 	ldw	r8,668(sp)
  801a94:	da40a817 	ldw	r9,672(sp)
  801a98:	dac0a617 	ldw	r11,664(sp)
  801a9c:	103fbc26 	beq	r2,zero,801990 <__alt_mem_onchip_ram+0xff7fd990>
  801aa0:	003fcc06 	br	8019d4 <__alt_mem_onchip_ram+0xff7fd9d4>
  801aa4:	8821883a 	mov	r16,r17
  801aa8:	a807883a 	mov	r3,r21
  801aac:	e023883a 	mov	r17,fp
  801ab0:	b82b883a 	mov	r21,r23
  801ab4:	302f883a 	mov	r23,r6
  801ab8:	00bfbfc4 	movi	r2,-257
  801abc:	a0a8703a 	and	r20,r20,r2
  801ac0:	003e6706 	br	801460 <__alt_mem_onchip_ram+0xff7fd460>
  801ac4:	d800a215 	stw	zero,648(sp)
  801ac8:	003de306 	br	801258 <__alt_mem_onchip_ram+0xff7fd258>
  801acc:	000f883a 	mov	r7,zero
  801ad0:	003f4106 	br	8017d8 <__alt_mem_onchip_ram+0xff7fd7d8>
  801ad4:	d9409c17 	ldw	r5,624(sp)
  801ad8:	e2bfffc4 	addi	r10,fp,-1
  801adc:	2c400017 	ldw	r17,0(r5)
  801ae0:	2c000104 	addi	r16,r5,4
  801ae4:	8aa9883a 	add	r20,r17,r10
  801ae8:	880b883a 	mov	r5,r17
  801aec:	00000606 	br	801b08 <__svfscanf_r+0x154c>
  801af0:	98c00017 	ldw	r3,0(r19)
  801af4:	b1000017 	ldw	r4,0(r22)
  801af8:	a80b883a 	mov	r5,r21
  801afc:	18800003 	ldbu	r2,0(r3)
  801b00:	2085883a 	add	r2,r4,r2
  801b04:	10800043 	ldbu	r2,1(r2)
  801b08:	1080020c 	andi	r2,r2,8
  801b0c:	1000621e 	bne	r2,zero,801c98 <__svfscanf_r+0x16dc>
  801b10:	98800117 	ldw	r2,4(r19)
  801b14:	19000044 	addi	r4,r3,1
  801b18:	99000015 	stw	r4,0(r19)
  801b1c:	10bfffc4 	addi	r2,r2,-1
  801b20:	98800115 	stw	r2,4(r19)
  801b24:	18800003 	ldbu	r2,0(r3)
  801b28:	2d400044 	addi	r21,r5,1
  801b2c:	a839883a 	mov	fp,r21
  801b30:	28800005 	stb	r2,0(r5)
  801b34:	2d000626 	beq	r5,r20,801b50 <__svfscanf_r+0x1594>
  801b38:	98800117 	ldw	r2,4(r19)
  801b3c:	00bfec16 	blt	zero,r2,801af0 <__alt_mem_onchip_ram+0xff7fdaf0>
  801b40:	980b883a 	mov	r5,r19
  801b44:	b809883a 	mov	r4,r23
  801b48:	08040cc0 	call	8040cc <__srefill_r>
  801b4c:	103fe826 	beq	r2,zero,801af0 <__alt_mem_onchip_ram+0xff7fdaf0>
  801b50:	d880a017 	ldw	r2,640(sp)
  801b54:	dd009d17 	ldw	r20,628(sp)
  801b58:	e463c83a 	sub	r17,fp,r17
  801b5c:	10800044 	addi	r2,r2,1
  801b60:	e0000005 	stb	zero,0(fp)
  801b64:	9465883a 	add	r18,r18,r17
  801b68:	d880a015 	stw	r2,640(sp)
  801b6c:	dc009c15 	stw	r16,624(sp)
  801b70:	a00d883a 	mov	r6,r20
  801b74:	003ace06 	br	8006b0 <__alt_mem_onchip_ram+0xff7fc6b0>
  801b78:	dd009d17 	ldw	r20,628(sp)
  801b7c:	9465883a 	add	r18,r18,r17
  801b80:	a00d883a 	mov	r6,r20
  801b84:	003aca06 	br	8006b0 <__alt_mem_onchip_ram+0xff7fc6b0>
  801b88:	d8c0a117 	ldw	r3,644(sp)
  801b8c:	d9c09e17 	ldw	r7,632(sp)
  801b90:	000d883a 	mov	r6,zero
  801b94:	d9400104 	addi	r5,sp,4
  801b98:	b809883a 	mov	r4,r23
  801b9c:	80000005 	stb	zero,0(r16)
  801ba0:	183ee83a 	callr	r3
  801ba4:	88c0080c 	andi	r3,r17,32
  801ba8:	1800351e 	bne	r3,zero,801c80 <__svfscanf_r+0x16c4>
  801bac:	88c0010c 	andi	r3,r17,4
  801bb0:	18007026 	beq	r3,zero,801d74 <__svfscanf_r+0x17b8>
  801bb4:	d9409c17 	ldw	r5,624(sp)
  801bb8:	28c00017 	ldw	r3,0(r5)
  801bbc:	29400104 	addi	r5,r5,4
  801bc0:	d9409c15 	stw	r5,624(sp)
  801bc4:	1880000d 	sth	r2,0(r3)
  801bc8:	d940a017 	ldw	r5,640(sp)
  801bcc:	29400044 	addi	r5,r5,1
  801bd0:	d940a015 	stw	r5,640(sp)
  801bd4:	003f8a06 	br	801a00 <__alt_mem_onchip_ram+0xff7fda00>
  801bd8:	dd409904 	addi	r21,sp,612
  801bdc:	8c40040c 	andi	r17,r17,16
  801be0:	01800204 	movi	r6,8
  801be4:	000b883a 	mov	r5,zero
  801be8:	a809883a 	mov	r4,r21
  801bec:	0803f880 	call	803f88 <memset>
  801bf0:	8800391e 	bne	r17,zero,801cd8 <__svfscanf_r+0x171c>
  801bf4:	d8c09c17 	ldw	r3,624(sp)
  801bf8:	1d000017 	ldw	r20,0(r3)
  801bfc:	18c00104 	addi	r3,r3,4
  801c00:	d8c09c15 	stw	r3,624(sp)
  801c04:	000d883a 	mov	r6,zero
  801c08:	3021883a 	mov	r16,r6
  801c0c:	dc409f15 	stw	r17,636(sp)
  801c10:	98800017 	ldw	r2,0(r19)
  801c14:	b0c00017 	ldw	r3,0(r22)
  801c18:	10800003 	ldbu	r2,0(r2)
  801c1c:	1885883a 	add	r2,r3,r2
  801c20:	10800043 	ldbu	r2,1(r2)
  801c24:	1080020c 	andi	r2,r2,8
  801c28:	1000011e 	bne	r2,zero,801c30 <__svfscanf_r+0x1674>
  801c2c:	e000651e 	bne	fp,zero,801dc4 <__svfscanf_r+0x1808>
  801c30:	dc409f17 	ldw	r17,636(sp)
  801c34:	883c811e 	bne	r17,zero,800e3c <__alt_mem_onchip_ram+0xff7fce3c>
  801c38:	a0000015 	stw	zero,0(r20)
  801c3c:	003c7c06 	br	800e30 <__alt_mem_onchip_ram+0xff7fce30>
  801c40:	a2c0008c 	andi	r11,r20,2
  801c44:	58003c26 	beq	r11,zero,801d38 <__svfscanf_r+0x177c>
  801c48:	d9409c17 	ldw	r5,624(sp)
  801c4c:	28800017 	ldw	r2,0(r5)
  801c50:	29400104 	addi	r5,r5,4
  801c54:	d9409c15 	stw	r5,624(sp)
  801c58:	14000015 	stw	r16,0(r2)
  801c5c:	10c00115 	stw	r3,4(r2)
  801c60:	003e4406 	br	801574 <__alt_mem_onchip_ram+0xff7fd574>
  801c64:	00bf1fc4 	movi	r2,-897
  801c68:	90a4703a 	and	r18,r18,r2
  801c6c:	38000226 	beq	r7,zero,801c78 <__svfscanf_r+0x16bc>
  801c70:	39ffffc4 	addi	r7,r7,-1
  801c74:	e7000044 	addi	fp,fp,1
  801c78:	a5000044 	addi	r20,r20,1
  801c7c:	003f3e06 	br	801978 <__alt_mem_onchip_ram+0xff7fd978>
  801c80:	d9009c17 	ldw	r4,624(sp)
  801c84:	20c00017 	ldw	r3,0(r4)
  801c88:	21000104 	addi	r4,r4,4
  801c8c:	d9009c15 	stw	r4,624(sp)
  801c90:	18800015 	stw	r2,0(r3)
  801c94:	003fcc06 	br	801bc8 <__alt_mem_onchip_ram+0xff7fdbc8>
  801c98:	2839883a 	mov	fp,r5
  801c9c:	003fac06 	br	801b50 <__alt_mem_onchip_ram+0xff7fdb50>
  801ca0:	00be1fc4 	movi	r2,-1921
  801ca4:	a0a8703a 	and	r20,r20,r2
  801ca8:	05c00044 	movi	r23,1
  801cac:	003ddb06 	br	80141c <__alt_mem_onchip_ram+0xff7fd41c>
  801cb0:	817fffc7 	ldb	r5,-1(r16)
  801cb4:	980d883a 	mov	r6,r19
  801cb8:	b809883a 	mov	r4,r23
  801cbc:	843fffc4 	addi	r16,r16,-1
  801cc0:	0808d380 	call	808d38 <_ungetc_r>
  801cc4:	003f4a06 	br	8019f0 <__alt_mem_onchip_ram+0xff7fd9f0>
  801cc8:	00fe1fc4 	movi	r3,-1921
  801ccc:	a0e8703a 	and	r20,r20,r3
  801cd0:	05400044 	movi	r21,1
  801cd4:	003dd106 	br	80141c <__alt_mem_onchip_ram+0xff7fd41c>
  801cd8:	dd009b04 	addi	r20,sp,620
  801cdc:	003fc906 	br	801c04 <__alt_mem_onchip_ram+0xff7fdc04>
  801ce0:	d8c09f17 	ldw	r3,636(sp)
  801ce4:	88e3c83a 	sub	r17,r17,r3
  801ce8:	044dc83a 	sub	r6,zero,r17
  801cec:	883e1426 	beq	r17,zero,801540 <__alt_mem_onchip_ram+0xff7fd540>
  801cf0:	d88055c4 	addi	r2,sp,343
  801cf4:	80800136 	bltu	r16,r2,801cfc <__svfscanf_r+0x1740>
  801cf8:	dc005584 	addi	r16,sp,342
  801cfc:	01402074 	movhi	r5,129
  801d00:	29526804 	addi	r5,r5,18848
  801d04:	8009883a 	mov	r4,r16
  801d08:	08044980 	call	804498 <sprintf>
  801d0c:	003e0c06 	br	801540 <__alt_mem_onchip_ram+0xff7fd540>
  801d10:	d8c0a517 	ldw	r3,660(sp)
  801d14:	000d883a 	mov	r6,zero
  801d18:	01c00284 	movi	r7,10
  801d1c:	19400044 	addi	r5,r3,1
  801d20:	b809883a 	mov	r4,r23
  801d24:	0805e7c0 	call	805e7c <_strtol_r>
  801d28:	d8c0a417 	ldw	r3,656(sp)
  801d2c:	dc00a517 	ldw	r16,660(sp)
  801d30:	10cdc83a 	sub	r6,r2,r3
  801d34:	003fee06 	br	801cf0 <__alt_mem_onchip_ram+0xff7fdcf0>
  801d38:	d8809c17 	ldw	r2,624(sp)
  801d3c:	180b883a 	mov	r5,r3
  801d40:	8009883a 	mov	r4,r16
  801d44:	15000017 	ldw	r20,0(r2)
  801d48:	14400104 	addi	r17,r2,4
  801d4c:	d8c0a615 	stw	r3,664(sp)
  801d50:	08042a00 	call	8042a0 <__fpclassifyd>
  801d54:	d8c0a617 	ldw	r3,664(sp)
  801d58:	10007226 	beq	r2,zero,801f24 <__svfscanf_r+0x1968>
  801d5c:	8009883a 	mov	r4,r16
  801d60:	180b883a 	mov	r5,r3
  801d64:	0811fd40 	call	811fd4 <__truncdfsf2>
  801d68:	a0800015 	stw	r2,0(r20)
  801d6c:	dc409c15 	stw	r17,624(sp)
  801d70:	003e0006 	br	801574 <__alt_mem_onchip_ram+0xff7fd574>
  801d74:	88c0004c 	andi	r3,r17,1
  801d78:	183fc11e 	bne	r3,zero,801c80 <__alt_mem_onchip_ram+0xff7fdc80>
  801d7c:	8c40008c 	andi	r17,r17,2
  801d80:	883fbf26 	beq	r17,zero,801c80 <__alt_mem_onchip_ram+0xff7fdc80>
  801d84:	d940a117 	ldw	r5,644(sp)
  801d88:	00802034 	movhi	r2,128
  801d8c:	1098fd04 	addi	r2,r2,25588
  801d90:	d9c09e17 	ldw	r7,632(sp)
  801d94:	000d883a 	mov	r6,zero
  801d98:	28806726 	beq	r5,r2,801f38 <__svfscanf_r+0x197c>
  801d9c:	d9400104 	addi	r5,sp,4
  801da0:	b809883a 	mov	r4,r23
  801da4:	08060f00 	call	8060f0 <_strtoll_r>
  801da8:	d9409c17 	ldw	r5,624(sp)
  801dac:	29000017 	ldw	r4,0(r5)
  801db0:	29400104 	addi	r5,r5,4
  801db4:	d9409c15 	stw	r5,624(sp)
  801db8:	20800015 	stw	r2,0(r4)
  801dbc:	20c00115 	stw	r3,4(r4)
  801dc0:	003f8106 	br	801bc8 <__alt_mem_onchip_ram+0xff7fdbc8>
  801dc4:	08032000 	call	803200 <__locale_mb_cur_max>
  801dc8:	80bc5626 	beq	r16,r2,800f24 <__alt_mem_onchip_ram+0xff7fcf24>
  801dcc:	98800017 	ldw	r2,0(r19)
  801dd0:	99000117 	ldw	r4,4(r19)
  801dd4:	d9400104 	addi	r5,sp,4
  801dd8:	12000003 	ldbu	r8,0(r2)
  801ddc:	213fffc4 	addi	r4,r4,-1
  801de0:	10800044 	addi	r2,r2,1
  801de4:	99000115 	stw	r4,4(r19)
  801de8:	98800015 	stw	r2,0(r19)
  801dec:	84400044 	addi	r17,r16,1
  801df0:	dd400015 	stw	r21,0(sp)
  801df4:	2c21883a 	add	r16,r5,r16
  801df8:	280d883a 	mov	r6,r5
  801dfc:	880f883a 	mov	r7,r17
  801e00:	a00b883a 	mov	r5,r20
  801e04:	b809883a 	mov	r4,r23
  801e08:	82000005 	stb	r8,0(r16)
  801e0c:	0803c1c0 	call	803c1c <_mbrtowc_r>
  801e10:	00ffffc4 	movi	r3,-1
  801e14:	10fc4326 	beq	r2,r3,800f24 <__alt_mem_onchip_ram+0xff7fcf24>
  801e18:	103c371e 	bne	r2,zero,800ef8 <__alt_mem_onchip_ram+0xff7fcef8>
  801e1c:	a0000015 	stw	zero,0(r20)
  801e20:	0009883a 	mov	r4,zero
  801e24:	08031480 	call	803148 <iswspace>
  801e28:	10001b26 	beq	r2,zero,801e98 <__svfscanf_r+0x18dc>
  801e2c:	8821883a 	mov	r16,r17
  801e30:	dc409f17 	ldw	r17,636(sp)
  801e34:	803f7f26 	beq	r16,zero,801c34 <__alt_mem_onchip_ram+0xff7fdc34>
  801e38:	843fffc4 	addi	r16,r16,-1
  801e3c:	d9400104 	addi	r5,sp,4
  801e40:	2c2b883a 	add	r21,r5,r16
  801e44:	00000106 	br	801e4c <__svfscanf_r+0x1890>
  801e48:	843fffc4 	addi	r16,r16,-1
  801e4c:	a9400003 	ldbu	r5,0(r21)
  801e50:	980d883a 	mov	r6,r19
  801e54:	b809883a 	mov	r4,r23
  801e58:	0808d380 	call	808d38 <_ungetc_r>
  801e5c:	ad7fffc4 	addi	r21,r21,-1
  801e60:	803ff91e 	bne	r16,zero,801e48 <__alt_mem_onchip_ram+0xff7fde48>
  801e64:	003f7306 	br	801c34 <__alt_mem_onchip_ram+0xff7fdc34>
  801e68:	d9400104 	addi	r5,sp,4
  801e6c:	802b883a 	mov	r21,r16
  801e70:	9839883a 	mov	fp,r19
  801e74:	2c3a122e 	bgeu	r5,r16,8006c0 <__alt_mem_onchip_ram+0xff7fc6c0>
  801e78:	ad7fffc4 	addi	r21,r21,-1
  801e7c:	a9400007 	ldb	r5,0(r21)
  801e80:	e00d883a 	mov	r6,fp
  801e84:	b809883a 	mov	r4,r23
  801e88:	0808d380 	call	808d38 <_ungetc_r>
  801e8c:	d8800104 	addi	r2,sp,4
  801e90:	157ff91e 	bne	r2,r21,801e78 <__alt_mem_onchip_ram+0xff7fde78>
  801e94:	003a0a06 	br	8006c0 <__alt_mem_onchip_ram+0xff7fc6c0>
  801e98:	d8c09f17 	ldw	r3,636(sp)
  801e9c:	9465883a 	add	r18,r18,r17
  801ea0:	e73fffc4 	addi	fp,fp,-1
  801ea4:	1800051e 	bne	r3,zero,801ebc <__svfscanf_r+0x1900>
  801ea8:	a5000104 	addi	r20,r20,4
  801eac:	0021883a 	mov	r16,zero
  801eb0:	003c1406 	br	800f04 <__alt_mem_onchip_ram+0xff7fcf04>
  801eb4:	a1000017 	ldw	r4,0(r20)
  801eb8:	003fda06 	br	801e24 <__alt_mem_onchip_ram+0xff7fde24>
  801ebc:	0021883a 	mov	r16,zero
  801ec0:	003c1006 	br	800f04 <__alt_mem_onchip_ram+0xff7fcf04>
  801ec4:	d8c00104 	addi	r3,sp,4
  801ec8:	802b883a 	mov	r21,r16
  801ecc:	9839883a 	mov	fp,r19
  801ed0:	1c39fb2e 	bgeu	r3,r16,8006c0 <__alt_mem_onchip_ram+0xff7fc6c0>
  801ed4:	ad7fffc4 	addi	r21,r21,-1
  801ed8:	a9400007 	ldb	r5,0(r21)
  801edc:	b809883a 	mov	r4,r23
  801ee0:	e00d883a 	mov	r6,fp
  801ee4:	0808d380 	call	808d38 <_ungetc_r>
  801ee8:	d9000104 	addi	r4,sp,4
  801eec:	257ff91e 	bne	r4,r21,801ed4 <__alt_mem_onchip_ram+0xff7fded4>
  801ef0:	0039f306 	br	8006c0 <__alt_mem_onchip_ram+0xff7fc6c0>
  801ef4:	d8c00104 	addi	r3,sp,4
  801ef8:	802b883a 	mov	r21,r16
  801efc:	9839883a 	mov	fp,r19
  801f00:	1c39ef2e 	bgeu	r3,r16,8006c0 <__alt_mem_onchip_ram+0xff7fc6c0>
  801f04:	ad7fffc4 	addi	r21,r21,-1
  801f08:	a9400007 	ldb	r5,0(r21)
  801f0c:	b809883a 	mov	r4,r23
  801f10:	e00d883a 	mov	r6,fp
  801f14:	0808d380 	call	808d38 <_ungetc_r>
  801f18:	d9000104 	addi	r4,sp,4
  801f1c:	257ff91e 	bne	r4,r21,801f04 <__alt_mem_onchip_ram+0xff7fdf04>
  801f20:	0039e706 	br	8006c0 <__alt_mem_onchip_ram+0xff7fc6c0>
  801f24:	0009883a 	mov	r4,zero
  801f28:	08044380 	call	804438 <nanf>
  801f2c:	a0800015 	stw	r2,0(r20)
  801f30:	dc409c15 	stw	r17,624(sp)
  801f34:	003d8f06 	br	801574 <__alt_mem_onchip_ram+0xff7fd574>
  801f38:	d9400104 	addi	r5,sp,4
  801f3c:	b809883a 	mov	r4,r23
  801f40:	08066880 	call	806688 <_strtoull_r>
  801f44:	003f9806 	br	801da8 <__alt_mem_onchip_ram+0xff7fdda8>

00801f48 <vfscanf>:
  801f48:	00802074 	movhi	r2,129
  801f4c:	defffb04 	addi	sp,sp,-20
  801f50:	109ad304 	addi	r2,r2,27468
  801f54:	dc000215 	stw	r16,8(sp)
  801f58:	14000017 	ldw	r16,0(r2)
  801f5c:	dc400315 	stw	r17,12(sp)
  801f60:	dfc00415 	stw	ra,16(sp)
  801f64:	2023883a 	mov	r17,r4
  801f68:	80000826 	beq	r16,zero,801f8c <vfscanf+0x44>
  801f6c:	80800e17 	ldw	r2,56(r16)
  801f70:	1000061e 	bne	r2,zero,801f8c <vfscanf+0x44>
  801f74:	8009883a 	mov	r4,r16
  801f78:	d9400015 	stw	r5,0(sp)
  801f7c:	d9800115 	stw	r6,4(sp)
  801f80:	08028cc0 	call	8028cc <__sinit>
  801f84:	d9800117 	ldw	r6,4(sp)
  801f88:	d9400017 	ldw	r5,0(sp)
  801f8c:	300f883a 	mov	r7,r6
  801f90:	8009883a 	mov	r4,r16
  801f94:	280d883a 	mov	r6,r5
  801f98:	880b883a 	mov	r5,r17
  801f9c:	dfc00417 	ldw	ra,16(sp)
  801fa0:	dc400317 	ldw	r17,12(sp)
  801fa4:	dc000217 	ldw	r16,8(sp)
  801fa8:	dec00504 	addi	sp,sp,20
  801fac:	08005bc1 	jmpi	8005bc <__svfscanf_r>

00801fb0 <__svfscanf>:
  801fb0:	00802074 	movhi	r2,129
  801fb4:	109ad304 	addi	r2,r2,27468
  801fb8:	300f883a 	mov	r7,r6
  801fbc:	280d883a 	mov	r6,r5
  801fc0:	200b883a 	mov	r5,r4
  801fc4:	11000017 	ldw	r4,0(r2)
  801fc8:	08005bc1 	jmpi	8005bc <__svfscanf_r>

00801fcc <_vfscanf_r>:
  801fcc:	defffb04 	addi	sp,sp,-20
  801fd0:	dc000315 	stw	r16,12(sp)
  801fd4:	dfc00415 	stw	ra,16(sp)
  801fd8:	2021883a 	mov	r16,r4
  801fdc:	20000926 	beq	r4,zero,802004 <_vfscanf_r+0x38>
  801fe0:	20800e17 	ldw	r2,56(r4)
  801fe4:	1000071e 	bne	r2,zero,802004 <_vfscanf_r+0x38>
  801fe8:	d9400015 	stw	r5,0(sp)
  801fec:	d9800115 	stw	r6,4(sp)
  801ff0:	d9c00215 	stw	r7,8(sp)
  801ff4:	08028cc0 	call	8028cc <__sinit>
  801ff8:	d9c00217 	ldw	r7,8(sp)
  801ffc:	d9800117 	ldw	r6,4(sp)
  802000:	d9400017 	ldw	r5,0(sp)
  802004:	8009883a 	mov	r4,r16
  802008:	dfc00417 	ldw	ra,16(sp)
  80200c:	dc000317 	ldw	r16,12(sp)
  802010:	dec00504 	addi	sp,sp,20
  802014:	08005bc1 	jmpi	8005bc <__svfscanf_r>

00802018 <__swbuf_r>:
  802018:	defffb04 	addi	sp,sp,-20
  80201c:	dcc00315 	stw	r19,12(sp)
  802020:	dc800215 	stw	r18,8(sp)
  802024:	dc000015 	stw	r16,0(sp)
  802028:	dfc00415 	stw	ra,16(sp)
  80202c:	dc400115 	stw	r17,4(sp)
  802030:	2025883a 	mov	r18,r4
  802034:	2827883a 	mov	r19,r5
  802038:	3021883a 	mov	r16,r6
  80203c:	20000226 	beq	r4,zero,802048 <__swbuf_r+0x30>
  802040:	20800e17 	ldw	r2,56(r4)
  802044:	10004226 	beq	r2,zero,802150 <__swbuf_r+0x138>
  802048:	80800617 	ldw	r2,24(r16)
  80204c:	8100030b 	ldhu	r4,12(r16)
  802050:	80800215 	stw	r2,8(r16)
  802054:	2080020c 	andi	r2,r4,8
  802058:	10003626 	beq	r2,zero,802134 <__swbuf_r+0x11c>
  80205c:	80c00417 	ldw	r3,16(r16)
  802060:	18003426 	beq	r3,zero,802134 <__swbuf_r+0x11c>
  802064:	2088000c 	andi	r2,r4,8192
  802068:	9c403fcc 	andi	r17,r19,255
  80206c:	10001a26 	beq	r2,zero,8020d8 <__swbuf_r+0xc0>
  802070:	80800017 	ldw	r2,0(r16)
  802074:	81000517 	ldw	r4,20(r16)
  802078:	10c7c83a 	sub	r3,r2,r3
  80207c:	1900200e 	bge	r3,r4,802100 <__swbuf_r+0xe8>
  802080:	18c00044 	addi	r3,r3,1
  802084:	81000217 	ldw	r4,8(r16)
  802088:	11400044 	addi	r5,r2,1
  80208c:	81400015 	stw	r5,0(r16)
  802090:	213fffc4 	addi	r4,r4,-1
  802094:	81000215 	stw	r4,8(r16)
  802098:	14c00005 	stb	r19,0(r2)
  80209c:	80800517 	ldw	r2,20(r16)
  8020a0:	10c01e26 	beq	r2,r3,80211c <__swbuf_r+0x104>
  8020a4:	8080030b 	ldhu	r2,12(r16)
  8020a8:	1080004c 	andi	r2,r2,1
  8020ac:	10000226 	beq	r2,zero,8020b8 <__swbuf_r+0xa0>
  8020b0:	00800284 	movi	r2,10
  8020b4:	88801926 	beq	r17,r2,80211c <__swbuf_r+0x104>
  8020b8:	8805883a 	mov	r2,r17
  8020bc:	dfc00417 	ldw	ra,16(sp)
  8020c0:	dcc00317 	ldw	r19,12(sp)
  8020c4:	dc800217 	ldw	r18,8(sp)
  8020c8:	dc400117 	ldw	r17,4(sp)
  8020cc:	dc000017 	ldw	r16,0(sp)
  8020d0:	dec00504 	addi	sp,sp,20
  8020d4:	f800283a 	ret
  8020d8:	81401917 	ldw	r5,100(r16)
  8020dc:	00b7ffc4 	movi	r2,-8193
  8020e0:	21080014 	ori	r4,r4,8192
  8020e4:	2884703a 	and	r2,r5,r2
  8020e8:	80801915 	stw	r2,100(r16)
  8020ec:	80800017 	ldw	r2,0(r16)
  8020f0:	8100030d 	sth	r4,12(r16)
  8020f4:	81000517 	ldw	r4,20(r16)
  8020f8:	10c7c83a 	sub	r3,r2,r3
  8020fc:	193fe016 	blt	r3,r4,802080 <__alt_mem_onchip_ram+0xff7fe080>
  802100:	800b883a 	mov	r5,r16
  802104:	9009883a 	mov	r4,r18
  802108:	08024e00 	call	8024e0 <_fflush_r>
  80210c:	1000071e 	bne	r2,zero,80212c <__swbuf_r+0x114>
  802110:	80800017 	ldw	r2,0(r16)
  802114:	00c00044 	movi	r3,1
  802118:	003fda06 	br	802084 <__alt_mem_onchip_ram+0xff7fe084>
  80211c:	800b883a 	mov	r5,r16
  802120:	9009883a 	mov	r4,r18
  802124:	08024e00 	call	8024e0 <_fflush_r>
  802128:	103fe326 	beq	r2,zero,8020b8 <__alt_mem_onchip_ram+0xff7fe0b8>
  80212c:	00bfffc4 	movi	r2,-1
  802130:	003fe206 	br	8020bc <__alt_mem_onchip_ram+0xff7fe0bc>
  802134:	800b883a 	mov	r5,r16
  802138:	9009883a 	mov	r4,r18
  80213c:	08021700 	call	802170 <__swsetup_r>
  802140:	103ffa1e 	bne	r2,zero,80212c <__alt_mem_onchip_ram+0xff7fe12c>
  802144:	8100030b 	ldhu	r4,12(r16)
  802148:	80c00417 	ldw	r3,16(r16)
  80214c:	003fc506 	br	802064 <__alt_mem_onchip_ram+0xff7fe064>
  802150:	08028cc0 	call	8028cc <__sinit>
  802154:	003fbc06 	br	802048 <__alt_mem_onchip_ram+0xff7fe048>

00802158 <__swbuf>:
  802158:	00802074 	movhi	r2,129
  80215c:	109ad304 	addi	r2,r2,27468
  802160:	280d883a 	mov	r6,r5
  802164:	200b883a 	mov	r5,r4
  802168:	11000017 	ldw	r4,0(r2)
  80216c:	08020181 	jmpi	802018 <__swbuf_r>

00802170 <__swsetup_r>:
  802170:	00802074 	movhi	r2,129
  802174:	defffd04 	addi	sp,sp,-12
  802178:	109ad304 	addi	r2,r2,27468
  80217c:	dc400115 	stw	r17,4(sp)
  802180:	2023883a 	mov	r17,r4
  802184:	11000017 	ldw	r4,0(r2)
  802188:	dc000015 	stw	r16,0(sp)
  80218c:	dfc00215 	stw	ra,8(sp)
  802190:	2821883a 	mov	r16,r5
  802194:	20000226 	beq	r4,zero,8021a0 <__swsetup_r+0x30>
  802198:	20800e17 	ldw	r2,56(r4)
  80219c:	10003126 	beq	r2,zero,802264 <__swsetup_r+0xf4>
  8021a0:	8080030b 	ldhu	r2,12(r16)
  8021a4:	10c0020c 	andi	r3,r2,8
  8021a8:	1009883a 	mov	r4,r2
  8021ac:	18000f26 	beq	r3,zero,8021ec <__swsetup_r+0x7c>
  8021b0:	80c00417 	ldw	r3,16(r16)
  8021b4:	18001526 	beq	r3,zero,80220c <__swsetup_r+0x9c>
  8021b8:	1100004c 	andi	r4,r2,1
  8021bc:	20001c1e 	bne	r4,zero,802230 <__swsetup_r+0xc0>
  8021c0:	1080008c 	andi	r2,r2,2
  8021c4:	1000291e 	bne	r2,zero,80226c <__swsetup_r+0xfc>
  8021c8:	80800517 	ldw	r2,20(r16)
  8021cc:	80800215 	stw	r2,8(r16)
  8021d0:	18001c26 	beq	r3,zero,802244 <__swsetup_r+0xd4>
  8021d4:	0005883a 	mov	r2,zero
  8021d8:	dfc00217 	ldw	ra,8(sp)
  8021dc:	dc400117 	ldw	r17,4(sp)
  8021e0:	dc000017 	ldw	r16,0(sp)
  8021e4:	dec00304 	addi	sp,sp,12
  8021e8:	f800283a 	ret
  8021ec:	2080040c 	andi	r2,r4,16
  8021f0:	10002e26 	beq	r2,zero,8022ac <__swsetup_r+0x13c>
  8021f4:	2080010c 	andi	r2,r4,4
  8021f8:	10001e1e 	bne	r2,zero,802274 <__swsetup_r+0x104>
  8021fc:	80c00417 	ldw	r3,16(r16)
  802200:	20800214 	ori	r2,r4,8
  802204:	8080030d 	sth	r2,12(r16)
  802208:	183feb1e 	bne	r3,zero,8021b8 <__alt_mem_onchip_ram+0xff7fe1b8>
  80220c:	1100a00c 	andi	r4,r2,640
  802210:	01408004 	movi	r5,512
  802214:	217fe826 	beq	r4,r5,8021b8 <__alt_mem_onchip_ram+0xff7fe1b8>
  802218:	800b883a 	mov	r5,r16
  80221c:	8809883a 	mov	r4,r17
  802220:	08032540 	call	803254 <__smakebuf_r>
  802224:	8080030b 	ldhu	r2,12(r16)
  802228:	80c00417 	ldw	r3,16(r16)
  80222c:	003fe206 	br	8021b8 <__alt_mem_onchip_ram+0xff7fe1b8>
  802230:	80800517 	ldw	r2,20(r16)
  802234:	80000215 	stw	zero,8(r16)
  802238:	0085c83a 	sub	r2,zero,r2
  80223c:	80800615 	stw	r2,24(r16)
  802240:	183fe41e 	bne	r3,zero,8021d4 <__alt_mem_onchip_ram+0xff7fe1d4>
  802244:	80c0030b 	ldhu	r3,12(r16)
  802248:	0005883a 	mov	r2,zero
  80224c:	1900200c 	andi	r4,r3,128
  802250:	203fe126 	beq	r4,zero,8021d8 <__alt_mem_onchip_ram+0xff7fe1d8>
  802254:	18c01014 	ori	r3,r3,64
  802258:	80c0030d 	sth	r3,12(r16)
  80225c:	00bfffc4 	movi	r2,-1
  802260:	003fdd06 	br	8021d8 <__alt_mem_onchip_ram+0xff7fe1d8>
  802264:	08028cc0 	call	8028cc <__sinit>
  802268:	003fcd06 	br	8021a0 <__alt_mem_onchip_ram+0xff7fe1a0>
  80226c:	0005883a 	mov	r2,zero
  802270:	003fd606 	br	8021cc <__alt_mem_onchip_ram+0xff7fe1cc>
  802274:	81400c17 	ldw	r5,48(r16)
  802278:	28000626 	beq	r5,zero,802294 <__swsetup_r+0x124>
  80227c:	80801004 	addi	r2,r16,64
  802280:	28800326 	beq	r5,r2,802290 <__swsetup_r+0x120>
  802284:	8809883a 	mov	r4,r17
  802288:	0802cb00 	call	802cb0 <_free_r>
  80228c:	8100030b 	ldhu	r4,12(r16)
  802290:	80000c15 	stw	zero,48(r16)
  802294:	80c00417 	ldw	r3,16(r16)
  802298:	00bff6c4 	movi	r2,-37
  80229c:	1108703a 	and	r4,r2,r4
  8022a0:	80000115 	stw	zero,4(r16)
  8022a4:	80c00015 	stw	r3,0(r16)
  8022a8:	003fd506 	br	802200 <__alt_mem_onchip_ram+0xff7fe200>
  8022ac:	00800244 	movi	r2,9
  8022b0:	88800015 	stw	r2,0(r17)
  8022b4:	20801014 	ori	r2,r4,64
  8022b8:	8080030d 	sth	r2,12(r16)
  8022bc:	00bfffc4 	movi	r2,-1
  8022c0:	003fc506 	br	8021d8 <__alt_mem_onchip_ram+0xff7fe1d8>

008022c4 <__sflush_r>:
  8022c4:	2880030b 	ldhu	r2,12(r5)
  8022c8:	defffb04 	addi	sp,sp,-20
  8022cc:	dcc00315 	stw	r19,12(sp)
  8022d0:	dc400115 	stw	r17,4(sp)
  8022d4:	dfc00415 	stw	ra,16(sp)
  8022d8:	dc800215 	stw	r18,8(sp)
  8022dc:	dc000015 	stw	r16,0(sp)
  8022e0:	10c0020c 	andi	r3,r2,8
  8022e4:	2823883a 	mov	r17,r5
  8022e8:	2027883a 	mov	r19,r4
  8022ec:	1800311e 	bne	r3,zero,8023b4 <__sflush_r+0xf0>
  8022f0:	28c00117 	ldw	r3,4(r5)
  8022f4:	10820014 	ori	r2,r2,2048
  8022f8:	2880030d 	sth	r2,12(r5)
  8022fc:	00c04b0e 	bge	zero,r3,80242c <__sflush_r+0x168>
  802300:	8a000a17 	ldw	r8,40(r17)
  802304:	40002326 	beq	r8,zero,802394 <__sflush_r+0xd0>
  802308:	9c000017 	ldw	r16,0(r19)
  80230c:	10c4000c 	andi	r3,r2,4096
  802310:	98000015 	stw	zero,0(r19)
  802314:	18004826 	beq	r3,zero,802438 <__sflush_r+0x174>
  802318:	89801417 	ldw	r6,80(r17)
  80231c:	10c0010c 	andi	r3,r2,4
  802320:	18000626 	beq	r3,zero,80233c <__sflush_r+0x78>
  802324:	88c00117 	ldw	r3,4(r17)
  802328:	88800c17 	ldw	r2,48(r17)
  80232c:	30cdc83a 	sub	r6,r6,r3
  802330:	10000226 	beq	r2,zero,80233c <__sflush_r+0x78>
  802334:	88800f17 	ldw	r2,60(r17)
  802338:	308dc83a 	sub	r6,r6,r2
  80233c:	89400717 	ldw	r5,28(r17)
  802340:	000f883a 	mov	r7,zero
  802344:	9809883a 	mov	r4,r19
  802348:	403ee83a 	callr	r8
  80234c:	00ffffc4 	movi	r3,-1
  802350:	10c04426 	beq	r2,r3,802464 <__sflush_r+0x1a0>
  802354:	88c0030b 	ldhu	r3,12(r17)
  802358:	89000417 	ldw	r4,16(r17)
  80235c:	88000115 	stw	zero,4(r17)
  802360:	197dffcc 	andi	r5,r3,63487
  802364:	8940030d 	sth	r5,12(r17)
  802368:	89000015 	stw	r4,0(r17)
  80236c:	18c4000c 	andi	r3,r3,4096
  802370:	18002c1e 	bne	r3,zero,802424 <__sflush_r+0x160>
  802374:	89400c17 	ldw	r5,48(r17)
  802378:	9c000015 	stw	r16,0(r19)
  80237c:	28000526 	beq	r5,zero,802394 <__sflush_r+0xd0>
  802380:	88801004 	addi	r2,r17,64
  802384:	28800226 	beq	r5,r2,802390 <__sflush_r+0xcc>
  802388:	9809883a 	mov	r4,r19
  80238c:	0802cb00 	call	802cb0 <_free_r>
  802390:	88000c15 	stw	zero,48(r17)
  802394:	0005883a 	mov	r2,zero
  802398:	dfc00417 	ldw	ra,16(sp)
  80239c:	dcc00317 	ldw	r19,12(sp)
  8023a0:	dc800217 	ldw	r18,8(sp)
  8023a4:	dc400117 	ldw	r17,4(sp)
  8023a8:	dc000017 	ldw	r16,0(sp)
  8023ac:	dec00504 	addi	sp,sp,20
  8023b0:	f800283a 	ret
  8023b4:	2c800417 	ldw	r18,16(r5)
  8023b8:	903ff626 	beq	r18,zero,802394 <__alt_mem_onchip_ram+0xff7fe394>
  8023bc:	2c000017 	ldw	r16,0(r5)
  8023c0:	108000cc 	andi	r2,r2,3
  8023c4:	2c800015 	stw	r18,0(r5)
  8023c8:	84a1c83a 	sub	r16,r16,r18
  8023cc:	1000131e 	bne	r2,zero,80241c <__sflush_r+0x158>
  8023d0:	28800517 	ldw	r2,20(r5)
  8023d4:	88800215 	stw	r2,8(r17)
  8023d8:	04000316 	blt	zero,r16,8023e8 <__sflush_r+0x124>
  8023dc:	003fed06 	br	802394 <__alt_mem_onchip_ram+0xff7fe394>
  8023e0:	90a5883a 	add	r18,r18,r2
  8023e4:	043feb0e 	bge	zero,r16,802394 <__alt_mem_onchip_ram+0xff7fe394>
  8023e8:	88800917 	ldw	r2,36(r17)
  8023ec:	89400717 	ldw	r5,28(r17)
  8023f0:	800f883a 	mov	r7,r16
  8023f4:	900d883a 	mov	r6,r18
  8023f8:	9809883a 	mov	r4,r19
  8023fc:	103ee83a 	callr	r2
  802400:	80a1c83a 	sub	r16,r16,r2
  802404:	00bff616 	blt	zero,r2,8023e0 <__alt_mem_onchip_ram+0xff7fe3e0>
  802408:	88c0030b 	ldhu	r3,12(r17)
  80240c:	00bfffc4 	movi	r2,-1
  802410:	18c01014 	ori	r3,r3,64
  802414:	88c0030d 	sth	r3,12(r17)
  802418:	003fdf06 	br	802398 <__alt_mem_onchip_ram+0xff7fe398>
  80241c:	0005883a 	mov	r2,zero
  802420:	003fec06 	br	8023d4 <__alt_mem_onchip_ram+0xff7fe3d4>
  802424:	88801415 	stw	r2,80(r17)
  802428:	003fd206 	br	802374 <__alt_mem_onchip_ram+0xff7fe374>
  80242c:	28c00f17 	ldw	r3,60(r5)
  802430:	00ffb316 	blt	zero,r3,802300 <__alt_mem_onchip_ram+0xff7fe300>
  802434:	003fd706 	br	802394 <__alt_mem_onchip_ram+0xff7fe394>
  802438:	89400717 	ldw	r5,28(r17)
  80243c:	000d883a 	mov	r6,zero
  802440:	01c00044 	movi	r7,1
  802444:	9809883a 	mov	r4,r19
  802448:	403ee83a 	callr	r8
  80244c:	100d883a 	mov	r6,r2
  802450:	00bfffc4 	movi	r2,-1
  802454:	30801426 	beq	r6,r2,8024a8 <__sflush_r+0x1e4>
  802458:	8880030b 	ldhu	r2,12(r17)
  80245c:	8a000a17 	ldw	r8,40(r17)
  802460:	003fae06 	br	80231c <__alt_mem_onchip_ram+0xff7fe31c>
  802464:	98c00017 	ldw	r3,0(r19)
  802468:	183fba26 	beq	r3,zero,802354 <__alt_mem_onchip_ram+0xff7fe354>
  80246c:	01000744 	movi	r4,29
  802470:	19000626 	beq	r3,r4,80248c <__sflush_r+0x1c8>
  802474:	01000584 	movi	r4,22
  802478:	19000426 	beq	r3,r4,80248c <__sflush_r+0x1c8>
  80247c:	88c0030b 	ldhu	r3,12(r17)
  802480:	18c01014 	ori	r3,r3,64
  802484:	88c0030d 	sth	r3,12(r17)
  802488:	003fc306 	br	802398 <__alt_mem_onchip_ram+0xff7fe398>
  80248c:	8880030b 	ldhu	r2,12(r17)
  802490:	88c00417 	ldw	r3,16(r17)
  802494:	88000115 	stw	zero,4(r17)
  802498:	10bdffcc 	andi	r2,r2,63487
  80249c:	8880030d 	sth	r2,12(r17)
  8024a0:	88c00015 	stw	r3,0(r17)
  8024a4:	003fb306 	br	802374 <__alt_mem_onchip_ram+0xff7fe374>
  8024a8:	98800017 	ldw	r2,0(r19)
  8024ac:	103fea26 	beq	r2,zero,802458 <__alt_mem_onchip_ram+0xff7fe458>
  8024b0:	00c00744 	movi	r3,29
  8024b4:	10c00226 	beq	r2,r3,8024c0 <__sflush_r+0x1fc>
  8024b8:	00c00584 	movi	r3,22
  8024bc:	10c0031e 	bne	r2,r3,8024cc <__sflush_r+0x208>
  8024c0:	9c000015 	stw	r16,0(r19)
  8024c4:	0005883a 	mov	r2,zero
  8024c8:	003fb306 	br	802398 <__alt_mem_onchip_ram+0xff7fe398>
  8024cc:	88c0030b 	ldhu	r3,12(r17)
  8024d0:	3005883a 	mov	r2,r6
  8024d4:	18c01014 	ori	r3,r3,64
  8024d8:	88c0030d 	sth	r3,12(r17)
  8024dc:	003fae06 	br	802398 <__alt_mem_onchip_ram+0xff7fe398>

008024e0 <_fflush_r>:
  8024e0:	defffd04 	addi	sp,sp,-12
  8024e4:	dc000115 	stw	r16,4(sp)
  8024e8:	dfc00215 	stw	ra,8(sp)
  8024ec:	2021883a 	mov	r16,r4
  8024f0:	20000226 	beq	r4,zero,8024fc <_fflush_r+0x1c>
  8024f4:	20800e17 	ldw	r2,56(r4)
  8024f8:	10000c26 	beq	r2,zero,80252c <_fflush_r+0x4c>
  8024fc:	2880030f 	ldh	r2,12(r5)
  802500:	1000051e 	bne	r2,zero,802518 <_fflush_r+0x38>
  802504:	0005883a 	mov	r2,zero
  802508:	dfc00217 	ldw	ra,8(sp)
  80250c:	dc000117 	ldw	r16,4(sp)
  802510:	dec00304 	addi	sp,sp,12
  802514:	f800283a 	ret
  802518:	8009883a 	mov	r4,r16
  80251c:	dfc00217 	ldw	ra,8(sp)
  802520:	dc000117 	ldw	r16,4(sp)
  802524:	dec00304 	addi	sp,sp,12
  802528:	08022c41 	jmpi	8022c4 <__sflush_r>
  80252c:	d9400015 	stw	r5,0(sp)
  802530:	08028cc0 	call	8028cc <__sinit>
  802534:	d9400017 	ldw	r5,0(sp)
  802538:	003ff006 	br	8024fc <__alt_mem_onchip_ram+0xff7fe4fc>

0080253c <fflush>:
  80253c:	20000526 	beq	r4,zero,802554 <fflush+0x18>
  802540:	00802074 	movhi	r2,129
  802544:	109ad304 	addi	r2,r2,27468
  802548:	200b883a 	mov	r5,r4
  80254c:	11000017 	ldw	r4,0(r2)
  802550:	08024e01 	jmpi	8024e0 <_fflush_r>
  802554:	00802074 	movhi	r2,129
  802558:	109ad204 	addi	r2,r2,27464
  80255c:	11000017 	ldw	r4,0(r2)
  802560:	01402034 	movhi	r5,128
  802564:	29493804 	addi	r5,r5,9440
  802568:	08030841 	jmpi	803084 <_fwalk_reent>

0080256c <__fp_unlock>:
  80256c:	0005883a 	mov	r2,zero
  802570:	f800283a 	ret

00802574 <_cleanup_r>:
  802574:	01402074 	movhi	r5,129
  802578:	296a1204 	addi	r5,r5,-22456
  80257c:	08030841 	jmpi	803084 <_fwalk_reent>

00802580 <__sinit.part.1>:
  802580:	defff704 	addi	sp,sp,-36
  802584:	00c02034 	movhi	r3,128
  802588:	dfc00815 	stw	ra,32(sp)
  80258c:	ddc00715 	stw	r23,28(sp)
  802590:	dd800615 	stw	r22,24(sp)
  802594:	dd400515 	stw	r21,20(sp)
  802598:	dd000415 	stw	r20,16(sp)
  80259c:	dcc00315 	stw	r19,12(sp)
  8025a0:	dc800215 	stw	r18,8(sp)
  8025a4:	dc400115 	stw	r17,4(sp)
  8025a8:	dc000015 	stw	r16,0(sp)
  8025ac:	18c95d04 	addi	r3,r3,9588
  8025b0:	24000117 	ldw	r16,4(r4)
  8025b4:	20c00f15 	stw	r3,60(r4)
  8025b8:	2080bb04 	addi	r2,r4,748
  8025bc:	00c000c4 	movi	r3,3
  8025c0:	20c0b915 	stw	r3,740(r4)
  8025c4:	2080ba15 	stw	r2,744(r4)
  8025c8:	2000b815 	stw	zero,736(r4)
  8025cc:	05c00204 	movi	r23,8
  8025d0:	00800104 	movi	r2,4
  8025d4:	2025883a 	mov	r18,r4
  8025d8:	b80d883a 	mov	r6,r23
  8025dc:	81001704 	addi	r4,r16,92
  8025e0:	000b883a 	mov	r5,zero
  8025e4:	80000015 	stw	zero,0(r16)
  8025e8:	80000115 	stw	zero,4(r16)
  8025ec:	80000215 	stw	zero,8(r16)
  8025f0:	8080030d 	sth	r2,12(r16)
  8025f4:	80001915 	stw	zero,100(r16)
  8025f8:	8000038d 	sth	zero,14(r16)
  8025fc:	80000415 	stw	zero,16(r16)
  802600:	80000515 	stw	zero,20(r16)
  802604:	80000615 	stw	zero,24(r16)
  802608:	0803f880 	call	803f88 <memset>
  80260c:	05802034 	movhi	r22,128
  802610:	94400217 	ldw	r17,8(r18)
  802614:	05402034 	movhi	r21,128
  802618:	05002034 	movhi	r20,128
  80261c:	04c02034 	movhi	r19,128
  802620:	b5914104 	addi	r22,r22,17668
  802624:	ad515804 	addi	r21,r21,17760
  802628:	a5117704 	addi	r20,r20,17884
  80262c:	9cd18e04 	addi	r19,r19,17976
  802630:	85800815 	stw	r22,32(r16)
  802634:	85400915 	stw	r21,36(r16)
  802638:	85000a15 	stw	r20,40(r16)
  80263c:	84c00b15 	stw	r19,44(r16)
  802640:	84000715 	stw	r16,28(r16)
  802644:	00800284 	movi	r2,10
  802648:	8880030d 	sth	r2,12(r17)
  80264c:	00800044 	movi	r2,1
  802650:	b80d883a 	mov	r6,r23
  802654:	89001704 	addi	r4,r17,92
  802658:	000b883a 	mov	r5,zero
  80265c:	88000015 	stw	zero,0(r17)
  802660:	88000115 	stw	zero,4(r17)
  802664:	88000215 	stw	zero,8(r17)
  802668:	88001915 	stw	zero,100(r17)
  80266c:	8880038d 	sth	r2,14(r17)
  802670:	88000415 	stw	zero,16(r17)
  802674:	88000515 	stw	zero,20(r17)
  802678:	88000615 	stw	zero,24(r17)
  80267c:	0803f880 	call	803f88 <memset>
  802680:	94000317 	ldw	r16,12(r18)
  802684:	00800484 	movi	r2,18
  802688:	8c400715 	stw	r17,28(r17)
  80268c:	8d800815 	stw	r22,32(r17)
  802690:	8d400915 	stw	r21,36(r17)
  802694:	8d000a15 	stw	r20,40(r17)
  802698:	8cc00b15 	stw	r19,44(r17)
  80269c:	8080030d 	sth	r2,12(r16)
  8026a0:	00800084 	movi	r2,2
  8026a4:	80000015 	stw	zero,0(r16)
  8026a8:	80000115 	stw	zero,4(r16)
  8026ac:	80000215 	stw	zero,8(r16)
  8026b0:	80001915 	stw	zero,100(r16)
  8026b4:	8080038d 	sth	r2,14(r16)
  8026b8:	80000415 	stw	zero,16(r16)
  8026bc:	80000515 	stw	zero,20(r16)
  8026c0:	80000615 	stw	zero,24(r16)
  8026c4:	b80d883a 	mov	r6,r23
  8026c8:	000b883a 	mov	r5,zero
  8026cc:	81001704 	addi	r4,r16,92
  8026d0:	0803f880 	call	803f88 <memset>
  8026d4:	00800044 	movi	r2,1
  8026d8:	84000715 	stw	r16,28(r16)
  8026dc:	85800815 	stw	r22,32(r16)
  8026e0:	85400915 	stw	r21,36(r16)
  8026e4:	85000a15 	stw	r20,40(r16)
  8026e8:	84c00b15 	stw	r19,44(r16)
  8026ec:	90800e15 	stw	r2,56(r18)
  8026f0:	dfc00817 	ldw	ra,32(sp)
  8026f4:	ddc00717 	ldw	r23,28(sp)
  8026f8:	dd800617 	ldw	r22,24(sp)
  8026fc:	dd400517 	ldw	r21,20(sp)
  802700:	dd000417 	ldw	r20,16(sp)
  802704:	dcc00317 	ldw	r19,12(sp)
  802708:	dc800217 	ldw	r18,8(sp)
  80270c:	dc400117 	ldw	r17,4(sp)
  802710:	dc000017 	ldw	r16,0(sp)
  802714:	dec00904 	addi	sp,sp,36
  802718:	f800283a 	ret

0080271c <__fp_lock>:
  80271c:	0005883a 	mov	r2,zero
  802720:	f800283a 	ret

00802724 <__sfmoreglue>:
  802724:	defffc04 	addi	sp,sp,-16
  802728:	dc800215 	stw	r18,8(sp)
  80272c:	2825883a 	mov	r18,r5
  802730:	dc000015 	stw	r16,0(sp)
  802734:	01401a04 	movi	r5,104
  802738:	2021883a 	mov	r16,r4
  80273c:	913fffc4 	addi	r4,r18,-1
  802740:	dfc00315 	stw	ra,12(sp)
  802744:	dc400115 	stw	r17,4(sp)
  802748:	080f5740 	call	80f574 <__mulsi3>
  80274c:	8009883a 	mov	r4,r16
  802750:	11401d04 	addi	r5,r2,116
  802754:	1023883a 	mov	r17,r2
  802758:	08034100 	call	803410 <_malloc_r>
  80275c:	1021883a 	mov	r16,r2
  802760:	10000726 	beq	r2,zero,802780 <__sfmoreglue+0x5c>
  802764:	11000304 	addi	r4,r2,12
  802768:	10000015 	stw	zero,0(r2)
  80276c:	14800115 	stw	r18,4(r2)
  802770:	11000215 	stw	r4,8(r2)
  802774:	89801a04 	addi	r6,r17,104
  802778:	000b883a 	mov	r5,zero
  80277c:	0803f880 	call	803f88 <memset>
  802780:	8005883a 	mov	r2,r16
  802784:	dfc00317 	ldw	ra,12(sp)
  802788:	dc800217 	ldw	r18,8(sp)
  80278c:	dc400117 	ldw	r17,4(sp)
  802790:	dc000017 	ldw	r16,0(sp)
  802794:	dec00404 	addi	sp,sp,16
  802798:	f800283a 	ret

0080279c <__sfp>:
  80279c:	defffb04 	addi	sp,sp,-20
  8027a0:	dc000015 	stw	r16,0(sp)
  8027a4:	04002074 	movhi	r16,129
  8027a8:	841ad204 	addi	r16,r16,27464
  8027ac:	dcc00315 	stw	r19,12(sp)
  8027b0:	2027883a 	mov	r19,r4
  8027b4:	81000017 	ldw	r4,0(r16)
  8027b8:	dfc00415 	stw	ra,16(sp)
  8027bc:	dc800215 	stw	r18,8(sp)
  8027c0:	20800e17 	ldw	r2,56(r4)
  8027c4:	dc400115 	stw	r17,4(sp)
  8027c8:	1000021e 	bne	r2,zero,8027d4 <__sfp+0x38>
  8027cc:	08025800 	call	802580 <__sinit.part.1>
  8027d0:	81000017 	ldw	r4,0(r16)
  8027d4:	2480b804 	addi	r18,r4,736
  8027d8:	047fffc4 	movi	r17,-1
  8027dc:	91000117 	ldw	r4,4(r18)
  8027e0:	94000217 	ldw	r16,8(r18)
  8027e4:	213fffc4 	addi	r4,r4,-1
  8027e8:	20000a16 	blt	r4,zero,802814 <__sfp+0x78>
  8027ec:	8080030f 	ldh	r2,12(r16)
  8027f0:	10000c26 	beq	r2,zero,802824 <__sfp+0x88>
  8027f4:	80c01d04 	addi	r3,r16,116
  8027f8:	00000206 	br	802804 <__sfp+0x68>
  8027fc:	18bfe60f 	ldh	r2,-104(r3)
  802800:	10000826 	beq	r2,zero,802824 <__sfp+0x88>
  802804:	213fffc4 	addi	r4,r4,-1
  802808:	1c3ffd04 	addi	r16,r3,-12
  80280c:	18c01a04 	addi	r3,r3,104
  802810:	247ffa1e 	bne	r4,r17,8027fc <__alt_mem_onchip_ram+0xff7fe7fc>
  802814:	90800017 	ldw	r2,0(r18)
  802818:	10001d26 	beq	r2,zero,802890 <__sfp+0xf4>
  80281c:	1025883a 	mov	r18,r2
  802820:	003fee06 	br	8027dc <__alt_mem_onchip_ram+0xff7fe7dc>
  802824:	00bfffc4 	movi	r2,-1
  802828:	8080038d 	sth	r2,14(r16)
  80282c:	00800044 	movi	r2,1
  802830:	8080030d 	sth	r2,12(r16)
  802834:	80001915 	stw	zero,100(r16)
  802838:	80000015 	stw	zero,0(r16)
  80283c:	80000215 	stw	zero,8(r16)
  802840:	80000115 	stw	zero,4(r16)
  802844:	80000415 	stw	zero,16(r16)
  802848:	80000515 	stw	zero,20(r16)
  80284c:	80000615 	stw	zero,24(r16)
  802850:	01800204 	movi	r6,8
  802854:	000b883a 	mov	r5,zero
  802858:	81001704 	addi	r4,r16,92
  80285c:	0803f880 	call	803f88 <memset>
  802860:	8005883a 	mov	r2,r16
  802864:	80000c15 	stw	zero,48(r16)
  802868:	80000d15 	stw	zero,52(r16)
  80286c:	80001115 	stw	zero,68(r16)
  802870:	80001215 	stw	zero,72(r16)
  802874:	dfc00417 	ldw	ra,16(sp)
  802878:	dcc00317 	ldw	r19,12(sp)
  80287c:	dc800217 	ldw	r18,8(sp)
  802880:	dc400117 	ldw	r17,4(sp)
  802884:	dc000017 	ldw	r16,0(sp)
  802888:	dec00504 	addi	sp,sp,20
  80288c:	f800283a 	ret
  802890:	01400104 	movi	r5,4
  802894:	9809883a 	mov	r4,r19
  802898:	08027240 	call	802724 <__sfmoreglue>
  80289c:	90800015 	stw	r2,0(r18)
  8028a0:	103fde1e 	bne	r2,zero,80281c <__alt_mem_onchip_ram+0xff7fe81c>
  8028a4:	00800304 	movi	r2,12
  8028a8:	98800015 	stw	r2,0(r19)
  8028ac:	0005883a 	mov	r2,zero
  8028b0:	003ff006 	br	802874 <__alt_mem_onchip_ram+0xff7fe874>

008028b4 <_cleanup>:
  8028b4:	00802074 	movhi	r2,129
  8028b8:	109ad204 	addi	r2,r2,27464
  8028bc:	11000017 	ldw	r4,0(r2)
  8028c0:	01402074 	movhi	r5,129
  8028c4:	296a1204 	addi	r5,r5,-22456
  8028c8:	08030841 	jmpi	803084 <_fwalk_reent>

008028cc <__sinit>:
  8028cc:	20800e17 	ldw	r2,56(r4)
  8028d0:	10000126 	beq	r2,zero,8028d8 <__sinit+0xc>
  8028d4:	f800283a 	ret
  8028d8:	08025801 	jmpi	802580 <__sinit.part.1>

008028dc <__sfp_lock_acquire>:
  8028dc:	f800283a 	ret

008028e0 <__sfp_lock_release>:
  8028e0:	f800283a 	ret

008028e4 <__sinit_lock_acquire>:
  8028e4:	f800283a 	ret

008028e8 <__sinit_lock_release>:
  8028e8:	f800283a 	ret

008028ec <__fp_lock_all>:
  8028ec:	00802074 	movhi	r2,129
  8028f0:	109ad304 	addi	r2,r2,27468
  8028f4:	11000017 	ldw	r4,0(r2)
  8028f8:	01402034 	movhi	r5,128
  8028fc:	2949c704 	addi	r5,r5,10012
  802900:	0802fc01 	jmpi	802fc0 <_fwalk>

00802904 <__fp_unlock_all>:
  802904:	00802074 	movhi	r2,129
  802908:	109ad304 	addi	r2,r2,27468
  80290c:	11000017 	ldw	r4,0(r2)
  802910:	01402034 	movhi	r5,128
  802914:	29495b04 	addi	r5,r5,9580
  802918:	0802fc01 	jmpi	802fc0 <_fwalk>

0080291c <_fread_r>:
  80291c:	defff404 	addi	sp,sp,-48
  802920:	dd000615 	stw	r20,24(sp)
  802924:	dcc00515 	stw	r19,20(sp)
  802928:	2029883a 	mov	r20,r4
  80292c:	2827883a 	mov	r19,r5
  802930:	3809883a 	mov	r4,r7
  802934:	300b883a 	mov	r5,r6
  802938:	ddc00915 	stw	r23,36(sp)
  80293c:	dd400715 	stw	r21,28(sp)
  802940:	dc000215 	stw	r16,8(sp)
  802944:	dfc00b15 	stw	ra,44(sp)
  802948:	df000a15 	stw	fp,40(sp)
  80294c:	dd800815 	stw	r22,32(sp)
  802950:	dc800415 	stw	r18,16(sp)
  802954:	dc400315 	stw	r17,12(sp)
  802958:	302f883a 	mov	r23,r6
  80295c:	382b883a 	mov	r21,r7
  802960:	080f5740 	call	80f574 <__mulsi3>
  802964:	dc000c17 	ldw	r16,48(sp)
  802968:	10003826 	beq	r2,zero,802a4c <_fread_r+0x130>
  80296c:	102d883a 	mov	r22,r2
  802970:	a0000226 	beq	r20,zero,80297c <_fread_r+0x60>
  802974:	a0800e17 	ldw	r2,56(r20)
  802978:	10006e26 	beq	r2,zero,802b34 <_fread_r+0x218>
  80297c:	8080030b 	ldhu	r2,12(r16)
  802980:	10c8000c 	andi	r3,r2,8192
  802984:	1800061e 	bne	r3,zero,8029a0 <_fread_r+0x84>
  802988:	81001917 	ldw	r4,100(r16)
  80298c:	00f7ffc4 	movi	r3,-8193
  802990:	10880014 	ori	r2,r2,8192
  802994:	20c6703a 	and	r3,r4,r3
  802998:	8080030d 	sth	r2,12(r16)
  80299c:	80c01915 	stw	r3,100(r16)
  8029a0:	84400117 	ldw	r17,4(r16)
  8029a4:	88005f16 	blt	r17,zero,802b24 <_fread_r+0x208>
  8029a8:	8809883a 	mov	r4,r17
  8029ac:	1080008c 	andi	r2,r2,2
  8029b0:	1000281e 	bne	r2,zero,802a54 <_fread_r+0x138>
  8029b4:	b025883a 	mov	r18,r22
  8029b8:	00000b06 	br	8029e8 <_fread_r+0xcc>
  8029bc:	0803e400 	call	803e40 <memcpy>
  8029c0:	80800017 	ldw	r2,0(r16)
  8029c4:	9c67883a 	add	r19,r19,r17
  8029c8:	9465c83a 	sub	r18,r18,r17
  8029cc:	1463883a 	add	r17,r2,r17
  8029d0:	800b883a 	mov	r5,r16
  8029d4:	a009883a 	mov	r4,r20
  8029d8:	84400015 	stw	r17,0(r16)
  8029dc:	08040cc0 	call	8040cc <__srefill_r>
  8029e0:	10004c1e 	bne	r2,zero,802b14 <_fread_r+0x1f8>
  8029e4:	84400117 	ldw	r17,4(r16)
  8029e8:	880d883a 	mov	r6,r17
  8029ec:	9809883a 	mov	r4,r19
  8029f0:	81400017 	ldw	r5,0(r16)
  8029f4:	8cbff136 	bltu	r17,r18,8029bc <__alt_mem_onchip_ram+0xff7fe9bc>
  8029f8:	900d883a 	mov	r6,r18
  8029fc:	0803e400 	call	803e40 <memcpy>
  802a00:	80c00117 	ldw	r3,4(r16)
  802a04:	81000017 	ldw	r4,0(r16)
  802a08:	a805883a 	mov	r2,r21
  802a0c:	1c87c83a 	sub	r3,r3,r18
  802a10:	24a5883a 	add	r18,r4,r18
  802a14:	80c00115 	stw	r3,4(r16)
  802a18:	84800015 	stw	r18,0(r16)
  802a1c:	dfc00b17 	ldw	ra,44(sp)
  802a20:	df000a17 	ldw	fp,40(sp)
  802a24:	ddc00917 	ldw	r23,36(sp)
  802a28:	dd800817 	ldw	r22,32(sp)
  802a2c:	dd400717 	ldw	r21,28(sp)
  802a30:	dd000617 	ldw	r20,24(sp)
  802a34:	dcc00517 	ldw	r19,20(sp)
  802a38:	dc800417 	ldw	r18,16(sp)
  802a3c:	dc400317 	ldw	r17,12(sp)
  802a40:	dc000217 	ldw	r16,8(sp)
  802a44:	dec00c04 	addi	sp,sp,48
  802a48:	f800283a 	ret
  802a4c:	0005883a 	mov	r2,zero
  802a50:	003ff206 	br	802a1c <__alt_mem_onchip_ram+0xff7fea1c>
  802a54:	b007883a 	mov	r3,r22
  802a58:	2580012e 	bgeu	r4,r22,802a60 <_fread_r+0x144>
  802a5c:	2007883a 	mov	r3,r4
  802a60:	81400017 	ldw	r5,0(r16)
  802a64:	180d883a 	mov	r6,r3
  802a68:	9809883a 	mov	r4,r19
  802a6c:	d8c00115 	stw	r3,4(sp)
  802a70:	0803e400 	call	803e40 <memcpy>
  802a74:	d8c00117 	ldw	r3,4(sp)
  802a78:	84400017 	ldw	r17,0(r16)
  802a7c:	80800117 	ldw	r2,4(r16)
  802a80:	81400c17 	ldw	r5,48(r16)
  802a84:	88e3883a 	add	r17,r17,r3
  802a88:	10c5c83a 	sub	r2,r2,r3
  802a8c:	84400015 	stw	r17,0(r16)
  802a90:	80800115 	stw	r2,4(r16)
  802a94:	b0e5c83a 	sub	r18,r22,r3
  802a98:	28002c26 	beq	r5,zero,802b4c <_fread_r+0x230>
  802a9c:	90002c26 	beq	r18,zero,802b50 <_fread_r+0x234>
  802aa0:	80801004 	addi	r2,r16,64
  802aa4:	28800526 	beq	r5,r2,802abc <_fread_r+0x1a0>
  802aa8:	a009883a 	mov	r4,r20
  802aac:	d8c00115 	stw	r3,4(sp)
  802ab0:	0802cb00 	call	802cb0 <_free_r>
  802ab4:	d8c00117 	ldw	r3,4(sp)
  802ab8:	84400017 	ldw	r17,0(r16)
  802abc:	80000c15 	stw	zero,48(r16)
  802ac0:	80800517 	ldw	r2,20(r16)
  802ac4:	87000417 	ldw	fp,16(r16)
  802ac8:	98e7883a 	add	r19,r19,r3
  802acc:	d8800015 	stw	r2,0(sp)
  802ad0:	00000106 	br	802ad8 <_fread_r+0x1bc>
  802ad4:	90001e26 	beq	r18,zero,802b50 <_fread_r+0x234>
  802ad8:	84c00415 	stw	r19,16(r16)
  802adc:	84800515 	stw	r18,20(r16)
  802ae0:	84c00015 	stw	r19,0(r16)
  802ae4:	a009883a 	mov	r4,r20
  802ae8:	800b883a 	mov	r5,r16
  802aec:	08040cc0 	call	8040cc <__srefill_r>
  802af0:	d9000017 	ldw	r4,0(sp)
  802af4:	80c00117 	ldw	r3,4(r16)
  802af8:	87000415 	stw	fp,16(r16)
  802afc:	81000515 	stw	r4,20(r16)
  802b00:	84400015 	stw	r17,0(r16)
  802b04:	80000115 	stw	zero,4(r16)
  802b08:	90e5c83a 	sub	r18,r18,r3
  802b0c:	98e7883a 	add	r19,r19,r3
  802b10:	103ff026 	beq	r2,zero,802ad4 <__alt_mem_onchip_ram+0xff7fead4>
  802b14:	b80b883a 	mov	r5,r23
  802b18:	b489c83a 	sub	r4,r22,r18
  802b1c:	080f4b80 	call	80f4b8 <__udivsi3>
  802b20:	003fbe06 	br	802a1c <__alt_mem_onchip_ram+0xff7fea1c>
  802b24:	80000115 	stw	zero,4(r16)
  802b28:	0009883a 	mov	r4,zero
  802b2c:	0023883a 	mov	r17,zero
  802b30:	003f9e06 	br	8029ac <__alt_mem_onchip_ram+0xff7fe9ac>
  802b34:	a009883a 	mov	r4,r20
  802b38:	08028cc0 	call	8028cc <__sinit>
  802b3c:	8080030b 	ldhu	r2,12(r16)
  802b40:	10c8000c 	andi	r3,r2,8192
  802b44:	183f961e 	bne	r3,zero,8029a0 <__alt_mem_onchip_ram+0xff7fe9a0>
  802b48:	003f8f06 	br	802988 <__alt_mem_onchip_ram+0xff7fe988>
  802b4c:	903fdc1e 	bne	r18,zero,802ac0 <__alt_mem_onchip_ram+0xff7feac0>
  802b50:	a805883a 	mov	r2,r21
  802b54:	003fb106 	br	802a1c <__alt_mem_onchip_ram+0xff7fea1c>

00802b58 <fread>:
  802b58:	defffe04 	addi	sp,sp,-8
  802b5c:	00802074 	movhi	r2,129
  802b60:	d9c00015 	stw	r7,0(sp)
  802b64:	109ad304 	addi	r2,r2,27468
  802b68:	300f883a 	mov	r7,r6
  802b6c:	280d883a 	mov	r6,r5
  802b70:	200b883a 	mov	r5,r4
  802b74:	11000017 	ldw	r4,0(r2)
  802b78:	dfc00115 	stw	ra,4(sp)
  802b7c:	080291c0 	call	80291c <_fread_r>
  802b80:	dfc00117 	ldw	ra,4(sp)
  802b84:	dec00204 	addi	sp,sp,8
  802b88:	f800283a 	ret

00802b8c <_malloc_trim_r>:
  802b8c:	defffb04 	addi	sp,sp,-20
  802b90:	dcc00315 	stw	r19,12(sp)
  802b94:	04c02074 	movhi	r19,129
  802b98:	dc800215 	stw	r18,8(sp)
  802b9c:	dc400115 	stw	r17,4(sp)
  802ba0:	dc000015 	stw	r16,0(sp)
  802ba4:	dfc00415 	stw	ra,16(sp)
  802ba8:	2821883a 	mov	r16,r5
  802bac:	9cd54e04 	addi	r19,r19,21816
  802bb0:	2025883a 	mov	r18,r4
  802bb4:	08127cc0 	call	8127cc <__malloc_lock>
  802bb8:	98800217 	ldw	r2,8(r19)
  802bbc:	14400117 	ldw	r17,4(r2)
  802bc0:	00bfff04 	movi	r2,-4
  802bc4:	88a2703a 	and	r17,r17,r2
  802bc8:	8c21c83a 	sub	r16,r17,r16
  802bcc:	8403fbc4 	addi	r16,r16,4079
  802bd0:	8020d33a 	srli	r16,r16,12
  802bd4:	0083ffc4 	movi	r2,4095
  802bd8:	843fffc4 	addi	r16,r16,-1
  802bdc:	8020933a 	slli	r16,r16,12
  802be0:	1400060e 	bge	r2,r16,802bfc <_malloc_trim_r+0x70>
  802be4:	000b883a 	mov	r5,zero
  802be8:	9009883a 	mov	r4,r18
  802bec:	08043140 	call	804314 <_sbrk_r>
  802bf0:	98c00217 	ldw	r3,8(r19)
  802bf4:	1c47883a 	add	r3,r3,r17
  802bf8:	10c00a26 	beq	r2,r3,802c24 <_malloc_trim_r+0x98>
  802bfc:	9009883a 	mov	r4,r18
  802c00:	08127f00 	call	8127f0 <__malloc_unlock>
  802c04:	0005883a 	mov	r2,zero
  802c08:	dfc00417 	ldw	ra,16(sp)
  802c0c:	dcc00317 	ldw	r19,12(sp)
  802c10:	dc800217 	ldw	r18,8(sp)
  802c14:	dc400117 	ldw	r17,4(sp)
  802c18:	dc000017 	ldw	r16,0(sp)
  802c1c:	dec00504 	addi	sp,sp,20
  802c20:	f800283a 	ret
  802c24:	040bc83a 	sub	r5,zero,r16
  802c28:	9009883a 	mov	r4,r18
  802c2c:	08043140 	call	804314 <_sbrk_r>
  802c30:	00ffffc4 	movi	r3,-1
  802c34:	10c00d26 	beq	r2,r3,802c6c <_malloc_trim_r+0xe0>
  802c38:	00c020b4 	movhi	r3,130
  802c3c:	18e1ad04 	addi	r3,r3,-31052
  802c40:	18800017 	ldw	r2,0(r3)
  802c44:	99000217 	ldw	r4,8(r19)
  802c48:	8c23c83a 	sub	r17,r17,r16
  802c4c:	8c400054 	ori	r17,r17,1
  802c50:	1421c83a 	sub	r16,r2,r16
  802c54:	24400115 	stw	r17,4(r4)
  802c58:	9009883a 	mov	r4,r18
  802c5c:	1c000015 	stw	r16,0(r3)
  802c60:	08127f00 	call	8127f0 <__malloc_unlock>
  802c64:	00800044 	movi	r2,1
  802c68:	003fe706 	br	802c08 <__alt_mem_onchip_ram+0xff7fec08>
  802c6c:	000b883a 	mov	r5,zero
  802c70:	9009883a 	mov	r4,r18
  802c74:	08043140 	call	804314 <_sbrk_r>
  802c78:	99000217 	ldw	r4,8(r19)
  802c7c:	014003c4 	movi	r5,15
  802c80:	1107c83a 	sub	r3,r2,r4
  802c84:	28ffdd0e 	bge	r5,r3,802bfc <__alt_mem_onchip_ram+0xff7febfc>
  802c88:	01402074 	movhi	r5,129
  802c8c:	295ad604 	addi	r5,r5,27480
  802c90:	29400017 	ldw	r5,0(r5)
  802c94:	18c00054 	ori	r3,r3,1
  802c98:	20c00115 	stw	r3,4(r4)
  802c9c:	00c020b4 	movhi	r3,130
  802ca0:	1145c83a 	sub	r2,r2,r5
  802ca4:	18e1ad04 	addi	r3,r3,-31052
  802ca8:	18800015 	stw	r2,0(r3)
  802cac:	003fd306 	br	802bfc <__alt_mem_onchip_ram+0xff7febfc>

00802cb0 <_free_r>:
  802cb0:	28004126 	beq	r5,zero,802db8 <_free_r+0x108>
  802cb4:	defffd04 	addi	sp,sp,-12
  802cb8:	dc400115 	stw	r17,4(sp)
  802cbc:	dc000015 	stw	r16,0(sp)
  802cc0:	2023883a 	mov	r17,r4
  802cc4:	2821883a 	mov	r16,r5
  802cc8:	dfc00215 	stw	ra,8(sp)
  802ccc:	08127cc0 	call	8127cc <__malloc_lock>
  802cd0:	81ffff17 	ldw	r7,-4(r16)
  802cd4:	00bfff84 	movi	r2,-2
  802cd8:	01002074 	movhi	r4,129
  802cdc:	81bffe04 	addi	r6,r16,-8
  802ce0:	3884703a 	and	r2,r7,r2
  802ce4:	21154e04 	addi	r4,r4,21816
  802ce8:	308b883a 	add	r5,r6,r2
  802cec:	2a400117 	ldw	r9,4(r5)
  802cf0:	22000217 	ldw	r8,8(r4)
  802cf4:	00ffff04 	movi	r3,-4
  802cf8:	48c6703a 	and	r3,r9,r3
  802cfc:	2a005726 	beq	r5,r8,802e5c <_free_r+0x1ac>
  802d00:	28c00115 	stw	r3,4(r5)
  802d04:	39c0004c 	andi	r7,r7,1
  802d08:	3800091e 	bne	r7,zero,802d30 <_free_r+0x80>
  802d0c:	823ffe17 	ldw	r8,-8(r16)
  802d10:	22400204 	addi	r9,r4,8
  802d14:	320dc83a 	sub	r6,r6,r8
  802d18:	31c00217 	ldw	r7,8(r6)
  802d1c:	1205883a 	add	r2,r2,r8
  802d20:	3a406526 	beq	r7,r9,802eb8 <_free_r+0x208>
  802d24:	32000317 	ldw	r8,12(r6)
  802d28:	3a000315 	stw	r8,12(r7)
  802d2c:	41c00215 	stw	r7,8(r8)
  802d30:	28cf883a 	add	r7,r5,r3
  802d34:	39c00117 	ldw	r7,4(r7)
  802d38:	39c0004c 	andi	r7,r7,1
  802d3c:	38003a26 	beq	r7,zero,802e28 <_free_r+0x178>
  802d40:	10c00054 	ori	r3,r2,1
  802d44:	30c00115 	stw	r3,4(r6)
  802d48:	3087883a 	add	r3,r6,r2
  802d4c:	18800015 	stw	r2,0(r3)
  802d50:	00c07fc4 	movi	r3,511
  802d54:	18801936 	bltu	r3,r2,802dbc <_free_r+0x10c>
  802d58:	1004d0fa 	srli	r2,r2,3
  802d5c:	01c00044 	movi	r7,1
  802d60:	21400117 	ldw	r5,4(r4)
  802d64:	10c00044 	addi	r3,r2,1
  802d68:	18c7883a 	add	r3,r3,r3
  802d6c:	1005d0ba 	srai	r2,r2,2
  802d70:	18c7883a 	add	r3,r3,r3
  802d74:	18c7883a 	add	r3,r3,r3
  802d78:	1907883a 	add	r3,r3,r4
  802d7c:	3884983a 	sll	r2,r7,r2
  802d80:	19c00017 	ldw	r7,0(r3)
  802d84:	1a3ffe04 	addi	r8,r3,-8
  802d88:	1144b03a 	or	r2,r2,r5
  802d8c:	32000315 	stw	r8,12(r6)
  802d90:	31c00215 	stw	r7,8(r6)
  802d94:	20800115 	stw	r2,4(r4)
  802d98:	19800015 	stw	r6,0(r3)
  802d9c:	39800315 	stw	r6,12(r7)
  802da0:	8809883a 	mov	r4,r17
  802da4:	dfc00217 	ldw	ra,8(sp)
  802da8:	dc400117 	ldw	r17,4(sp)
  802dac:	dc000017 	ldw	r16,0(sp)
  802db0:	dec00304 	addi	sp,sp,12
  802db4:	08127f01 	jmpi	8127f0 <__malloc_unlock>
  802db8:	f800283a 	ret
  802dbc:	100ad27a 	srli	r5,r2,9
  802dc0:	00c00104 	movi	r3,4
  802dc4:	19404a36 	bltu	r3,r5,802ef0 <_free_r+0x240>
  802dc8:	100ad1ba 	srli	r5,r2,6
  802dcc:	28c00e44 	addi	r3,r5,57
  802dd0:	18c7883a 	add	r3,r3,r3
  802dd4:	29400e04 	addi	r5,r5,56
  802dd8:	18c7883a 	add	r3,r3,r3
  802ddc:	18c7883a 	add	r3,r3,r3
  802de0:	1909883a 	add	r4,r3,r4
  802de4:	20c00017 	ldw	r3,0(r4)
  802de8:	01c02074 	movhi	r7,129
  802dec:	213ffe04 	addi	r4,r4,-8
  802df0:	39d54e04 	addi	r7,r7,21816
  802df4:	20c04426 	beq	r4,r3,802f08 <_free_r+0x258>
  802df8:	01ffff04 	movi	r7,-4
  802dfc:	19400117 	ldw	r5,4(r3)
  802e00:	29ca703a 	and	r5,r5,r7
  802e04:	1140022e 	bgeu	r2,r5,802e10 <_free_r+0x160>
  802e08:	18c00217 	ldw	r3,8(r3)
  802e0c:	20fffb1e 	bne	r4,r3,802dfc <__alt_mem_onchip_ram+0xff7fedfc>
  802e10:	19000317 	ldw	r4,12(r3)
  802e14:	31000315 	stw	r4,12(r6)
  802e18:	30c00215 	stw	r3,8(r6)
  802e1c:	21800215 	stw	r6,8(r4)
  802e20:	19800315 	stw	r6,12(r3)
  802e24:	003fde06 	br	802da0 <__alt_mem_onchip_ram+0xff7feda0>
  802e28:	29c00217 	ldw	r7,8(r5)
  802e2c:	10c5883a 	add	r2,r2,r3
  802e30:	00c02074 	movhi	r3,129
  802e34:	18d55004 	addi	r3,r3,21824
  802e38:	38c03b26 	beq	r7,r3,802f28 <_free_r+0x278>
  802e3c:	2a000317 	ldw	r8,12(r5)
  802e40:	11400054 	ori	r5,r2,1
  802e44:	3087883a 	add	r3,r6,r2
  802e48:	3a000315 	stw	r8,12(r7)
  802e4c:	41c00215 	stw	r7,8(r8)
  802e50:	31400115 	stw	r5,4(r6)
  802e54:	18800015 	stw	r2,0(r3)
  802e58:	003fbd06 	br	802d50 <__alt_mem_onchip_ram+0xff7fed50>
  802e5c:	39c0004c 	andi	r7,r7,1
  802e60:	10c5883a 	add	r2,r2,r3
  802e64:	3800071e 	bne	r7,zero,802e84 <_free_r+0x1d4>
  802e68:	81fffe17 	ldw	r7,-8(r16)
  802e6c:	31cdc83a 	sub	r6,r6,r7
  802e70:	30c00317 	ldw	r3,12(r6)
  802e74:	31400217 	ldw	r5,8(r6)
  802e78:	11c5883a 	add	r2,r2,r7
  802e7c:	28c00315 	stw	r3,12(r5)
  802e80:	19400215 	stw	r5,8(r3)
  802e84:	10c00054 	ori	r3,r2,1
  802e88:	30c00115 	stw	r3,4(r6)
  802e8c:	00c02074 	movhi	r3,129
  802e90:	18dad704 	addi	r3,r3,27484
  802e94:	18c00017 	ldw	r3,0(r3)
  802e98:	21800215 	stw	r6,8(r4)
  802e9c:	10ffc036 	bltu	r2,r3,802da0 <__alt_mem_onchip_ram+0xff7feda0>
  802ea0:	008020b4 	movhi	r2,130
  802ea4:	10a1a404 	addi	r2,r2,-31088
  802ea8:	11400017 	ldw	r5,0(r2)
  802eac:	8809883a 	mov	r4,r17
  802eb0:	0802b8c0 	call	802b8c <_malloc_trim_r>
  802eb4:	003fba06 	br	802da0 <__alt_mem_onchip_ram+0xff7feda0>
  802eb8:	28c9883a 	add	r4,r5,r3
  802ebc:	21000117 	ldw	r4,4(r4)
  802ec0:	2100004c 	andi	r4,r4,1
  802ec4:	2000391e 	bne	r4,zero,802fac <_free_r+0x2fc>
  802ec8:	29c00217 	ldw	r7,8(r5)
  802ecc:	29000317 	ldw	r4,12(r5)
  802ed0:	1885883a 	add	r2,r3,r2
  802ed4:	10c00054 	ori	r3,r2,1
  802ed8:	39000315 	stw	r4,12(r7)
  802edc:	21c00215 	stw	r7,8(r4)
  802ee0:	30c00115 	stw	r3,4(r6)
  802ee4:	308d883a 	add	r6,r6,r2
  802ee8:	30800015 	stw	r2,0(r6)
  802eec:	003fac06 	br	802da0 <__alt_mem_onchip_ram+0xff7feda0>
  802ef0:	00c00504 	movi	r3,20
  802ef4:	19401536 	bltu	r3,r5,802f4c <_free_r+0x29c>
  802ef8:	28c01704 	addi	r3,r5,92
  802efc:	18c7883a 	add	r3,r3,r3
  802f00:	294016c4 	addi	r5,r5,91
  802f04:	003fb406 	br	802dd8 <__alt_mem_onchip_ram+0xff7fedd8>
  802f08:	280bd0ba 	srai	r5,r5,2
  802f0c:	00c00044 	movi	r3,1
  802f10:	38800117 	ldw	r2,4(r7)
  802f14:	194a983a 	sll	r5,r3,r5
  802f18:	2007883a 	mov	r3,r4
  802f1c:	2884b03a 	or	r2,r5,r2
  802f20:	38800115 	stw	r2,4(r7)
  802f24:	003fbb06 	br	802e14 <__alt_mem_onchip_ram+0xff7fee14>
  802f28:	21800515 	stw	r6,20(r4)
  802f2c:	21800415 	stw	r6,16(r4)
  802f30:	10c00054 	ori	r3,r2,1
  802f34:	31c00315 	stw	r7,12(r6)
  802f38:	31c00215 	stw	r7,8(r6)
  802f3c:	30c00115 	stw	r3,4(r6)
  802f40:	308d883a 	add	r6,r6,r2
  802f44:	30800015 	stw	r2,0(r6)
  802f48:	003f9506 	br	802da0 <__alt_mem_onchip_ram+0xff7feda0>
  802f4c:	00c01504 	movi	r3,84
  802f50:	19400536 	bltu	r3,r5,802f68 <_free_r+0x2b8>
  802f54:	100ad33a 	srli	r5,r2,12
  802f58:	28c01bc4 	addi	r3,r5,111
  802f5c:	18c7883a 	add	r3,r3,r3
  802f60:	29401b84 	addi	r5,r5,110
  802f64:	003f9c06 	br	802dd8 <__alt_mem_onchip_ram+0xff7fedd8>
  802f68:	00c05504 	movi	r3,340
  802f6c:	19400536 	bltu	r3,r5,802f84 <_free_r+0x2d4>
  802f70:	100ad3fa 	srli	r5,r2,15
  802f74:	28c01e04 	addi	r3,r5,120
  802f78:	18c7883a 	add	r3,r3,r3
  802f7c:	29401dc4 	addi	r5,r5,119
  802f80:	003f9506 	br	802dd8 <__alt_mem_onchip_ram+0xff7fedd8>
  802f84:	00c15504 	movi	r3,1364
  802f88:	19400536 	bltu	r3,r5,802fa0 <_free_r+0x2f0>
  802f8c:	100ad4ba 	srli	r5,r2,18
  802f90:	28c01f44 	addi	r3,r5,125
  802f94:	18c7883a 	add	r3,r3,r3
  802f98:	29401f04 	addi	r5,r5,124
  802f9c:	003f8e06 	br	802dd8 <__alt_mem_onchip_ram+0xff7fedd8>
  802fa0:	00c03f84 	movi	r3,254
  802fa4:	01401f84 	movi	r5,126
  802fa8:	003f8b06 	br	802dd8 <__alt_mem_onchip_ram+0xff7fedd8>
  802fac:	10c00054 	ori	r3,r2,1
  802fb0:	30c00115 	stw	r3,4(r6)
  802fb4:	308d883a 	add	r6,r6,r2
  802fb8:	30800015 	stw	r2,0(r6)
  802fbc:	003f7806 	br	802da0 <__alt_mem_onchip_ram+0xff7feda0>

00802fc0 <_fwalk>:
  802fc0:	defff704 	addi	sp,sp,-36
  802fc4:	dd000415 	stw	r20,16(sp)
  802fc8:	dfc00815 	stw	ra,32(sp)
  802fcc:	ddc00715 	stw	r23,28(sp)
  802fd0:	dd800615 	stw	r22,24(sp)
  802fd4:	dd400515 	stw	r21,20(sp)
  802fd8:	dcc00315 	stw	r19,12(sp)
  802fdc:	dc800215 	stw	r18,8(sp)
  802fe0:	dc400115 	stw	r17,4(sp)
  802fe4:	dc000015 	stw	r16,0(sp)
  802fe8:	2500b804 	addi	r20,r4,736
  802fec:	a0002326 	beq	r20,zero,80307c <_fwalk+0xbc>
  802ff0:	282b883a 	mov	r21,r5
  802ff4:	002f883a 	mov	r23,zero
  802ff8:	05800044 	movi	r22,1
  802ffc:	04ffffc4 	movi	r19,-1
  803000:	a4400117 	ldw	r17,4(r20)
  803004:	a4800217 	ldw	r18,8(r20)
  803008:	8c7fffc4 	addi	r17,r17,-1
  80300c:	88000d16 	blt	r17,zero,803044 <_fwalk+0x84>
  803010:	94000304 	addi	r16,r18,12
  803014:	94800384 	addi	r18,r18,14
  803018:	8080000b 	ldhu	r2,0(r16)
  80301c:	8c7fffc4 	addi	r17,r17,-1
  803020:	813ffd04 	addi	r4,r16,-12
  803024:	b080042e 	bgeu	r22,r2,803038 <_fwalk+0x78>
  803028:	9080000f 	ldh	r2,0(r18)
  80302c:	14c00226 	beq	r2,r19,803038 <_fwalk+0x78>
  803030:	a83ee83a 	callr	r21
  803034:	b8aeb03a 	or	r23,r23,r2
  803038:	84001a04 	addi	r16,r16,104
  80303c:	94801a04 	addi	r18,r18,104
  803040:	8cfff51e 	bne	r17,r19,803018 <__alt_mem_onchip_ram+0xff7ff018>
  803044:	a5000017 	ldw	r20,0(r20)
  803048:	a03fed1e 	bne	r20,zero,803000 <__alt_mem_onchip_ram+0xff7ff000>
  80304c:	b805883a 	mov	r2,r23
  803050:	dfc00817 	ldw	ra,32(sp)
  803054:	ddc00717 	ldw	r23,28(sp)
  803058:	dd800617 	ldw	r22,24(sp)
  80305c:	dd400517 	ldw	r21,20(sp)
  803060:	dd000417 	ldw	r20,16(sp)
  803064:	dcc00317 	ldw	r19,12(sp)
  803068:	dc800217 	ldw	r18,8(sp)
  80306c:	dc400117 	ldw	r17,4(sp)
  803070:	dc000017 	ldw	r16,0(sp)
  803074:	dec00904 	addi	sp,sp,36
  803078:	f800283a 	ret
  80307c:	002f883a 	mov	r23,zero
  803080:	003ff206 	br	80304c <__alt_mem_onchip_ram+0xff7ff04c>

00803084 <_fwalk_reent>:
  803084:	defff704 	addi	sp,sp,-36
  803088:	dd000415 	stw	r20,16(sp)
  80308c:	dfc00815 	stw	ra,32(sp)
  803090:	ddc00715 	stw	r23,28(sp)
  803094:	dd800615 	stw	r22,24(sp)
  803098:	dd400515 	stw	r21,20(sp)
  80309c:	dcc00315 	stw	r19,12(sp)
  8030a0:	dc800215 	stw	r18,8(sp)
  8030a4:	dc400115 	stw	r17,4(sp)
  8030a8:	dc000015 	stw	r16,0(sp)
  8030ac:	2500b804 	addi	r20,r4,736
  8030b0:	a0002326 	beq	r20,zero,803140 <_fwalk_reent+0xbc>
  8030b4:	282b883a 	mov	r21,r5
  8030b8:	2027883a 	mov	r19,r4
  8030bc:	002f883a 	mov	r23,zero
  8030c0:	05800044 	movi	r22,1
  8030c4:	04bfffc4 	movi	r18,-1
  8030c8:	a4400117 	ldw	r17,4(r20)
  8030cc:	a4000217 	ldw	r16,8(r20)
  8030d0:	8c7fffc4 	addi	r17,r17,-1
  8030d4:	88000c16 	blt	r17,zero,803108 <_fwalk_reent+0x84>
  8030d8:	84000304 	addi	r16,r16,12
  8030dc:	8080000b 	ldhu	r2,0(r16)
  8030e0:	8c7fffc4 	addi	r17,r17,-1
  8030e4:	817ffd04 	addi	r5,r16,-12
  8030e8:	b080052e 	bgeu	r22,r2,803100 <_fwalk_reent+0x7c>
  8030ec:	8080008f 	ldh	r2,2(r16)
  8030f0:	9809883a 	mov	r4,r19
  8030f4:	14800226 	beq	r2,r18,803100 <_fwalk_reent+0x7c>
  8030f8:	a83ee83a 	callr	r21
  8030fc:	b8aeb03a 	or	r23,r23,r2
  803100:	84001a04 	addi	r16,r16,104
  803104:	8cbff51e 	bne	r17,r18,8030dc <__alt_mem_onchip_ram+0xff7ff0dc>
  803108:	a5000017 	ldw	r20,0(r20)
  80310c:	a03fee1e 	bne	r20,zero,8030c8 <__alt_mem_onchip_ram+0xff7ff0c8>
  803110:	b805883a 	mov	r2,r23
  803114:	dfc00817 	ldw	ra,32(sp)
  803118:	ddc00717 	ldw	r23,28(sp)
  80311c:	dd800617 	ldw	r22,24(sp)
  803120:	dd400517 	ldw	r21,20(sp)
  803124:	dd000417 	ldw	r20,16(sp)
  803128:	dcc00317 	ldw	r19,12(sp)
  80312c:	dc800217 	ldw	r18,8(sp)
  803130:	dc400117 	ldw	r17,4(sp)
  803134:	dc000017 	ldw	r16,0(sp)
  803138:	dec00904 	addi	sp,sp,36
  80313c:	f800283a 	ret
  803140:	002f883a 	mov	r23,zero
  803144:	003ff206 	br	803110 <__alt_mem_onchip_ram+0xff7ff110>

00803148 <iswspace>:
  803148:	00803fc4 	movi	r2,255
  80314c:	11000836 	bltu	r2,r4,803170 <iswspace+0x28>
  803150:	00802074 	movhi	r2,129
  803154:	109ad404 	addi	r2,r2,27472
  803158:	10800017 	ldw	r2,0(r2)
  80315c:	1109883a 	add	r4,r2,r4
  803160:	20800043 	ldbu	r2,1(r4)
  803164:	1080020c 	andi	r2,r2,8
  803168:	10803fcc 	andi	r2,r2,255
  80316c:	f800283a 	ret
  803170:	0005883a 	mov	r2,zero
  803174:	f800283a 	ret

00803178 <_setlocale_r>:
  803178:	30001b26 	beq	r6,zero,8031e8 <_setlocale_r+0x70>
  80317c:	01402074 	movhi	r5,129
  803180:	defffe04 	addi	sp,sp,-8
  803184:	29531304 	addi	r5,r5,19532
  803188:	3009883a 	mov	r4,r6
  80318c:	dc000015 	stw	r16,0(sp)
  803190:	dfc00115 	stw	ra,4(sp)
  803194:	3021883a 	mov	r16,r6
  803198:	08046400 	call	804640 <strcmp>
  80319c:	1000061e 	bne	r2,zero,8031b8 <_setlocale_r+0x40>
  8031a0:	00802074 	movhi	r2,129
  8031a4:	10926704 	addi	r2,r2,18844
  8031a8:	dfc00117 	ldw	ra,4(sp)
  8031ac:	dc000017 	ldw	r16,0(sp)
  8031b0:	dec00204 	addi	sp,sp,8
  8031b4:	f800283a 	ret
  8031b8:	01402074 	movhi	r5,129
  8031bc:	29526704 	addi	r5,r5,18844
  8031c0:	8009883a 	mov	r4,r16
  8031c4:	08046400 	call	804640 <strcmp>
  8031c8:	103ff526 	beq	r2,zero,8031a0 <__alt_mem_onchip_ram+0xff7ff1a0>
  8031cc:	01402074 	movhi	r5,129
  8031d0:	29533604 	addi	r5,r5,19672
  8031d4:	8009883a 	mov	r4,r16
  8031d8:	08046400 	call	804640 <strcmp>
  8031dc:	103ff026 	beq	r2,zero,8031a0 <__alt_mem_onchip_ram+0xff7ff1a0>
  8031e0:	0005883a 	mov	r2,zero
  8031e4:	003ff006 	br	8031a8 <__alt_mem_onchip_ram+0xff7ff1a8>
  8031e8:	00802074 	movhi	r2,129
  8031ec:	10926704 	addi	r2,r2,18844
  8031f0:	f800283a 	ret

008031f4 <__locale_charset>:
  8031f4:	00802074 	movhi	r2,129
  8031f8:	10953804 	addi	r2,r2,21728
  8031fc:	f800283a 	ret

00803200 <__locale_mb_cur_max>:
  803200:	00802074 	movhi	r2,129
  803204:	109ad504 	addi	r2,r2,27476
  803208:	10800017 	ldw	r2,0(r2)
  80320c:	f800283a 	ret

00803210 <__locale_msgcharset>:
  803210:	00802074 	movhi	r2,129
  803214:	10953004 	addi	r2,r2,21696
  803218:	f800283a 	ret

0080321c <__locale_cjk_lang>:
  80321c:	0005883a 	mov	r2,zero
  803220:	f800283a 	ret

00803224 <_localeconv_r>:
  803224:	00802074 	movhi	r2,129
  803228:	10954004 	addi	r2,r2,21760
  80322c:	f800283a 	ret

00803230 <setlocale>:
  803230:	00802074 	movhi	r2,129
  803234:	109ad304 	addi	r2,r2,27468
  803238:	280d883a 	mov	r6,r5
  80323c:	200b883a 	mov	r5,r4
  803240:	11000017 	ldw	r4,0(r2)
  803244:	08031781 	jmpi	803178 <_setlocale_r>

00803248 <localeconv>:
  803248:	00802074 	movhi	r2,129
  80324c:	10954004 	addi	r2,r2,21760
  803250:	f800283a 	ret

00803254 <__smakebuf_r>:
  803254:	2880030b 	ldhu	r2,12(r5)
  803258:	10c0008c 	andi	r3,r2,2
  80325c:	1800411e 	bne	r3,zero,803364 <__smakebuf_r+0x110>
  803260:	deffec04 	addi	sp,sp,-80
  803264:	dc000f15 	stw	r16,60(sp)
  803268:	2821883a 	mov	r16,r5
  80326c:	2940038f 	ldh	r5,14(r5)
  803270:	dc401015 	stw	r17,64(sp)
  803274:	dfc01315 	stw	ra,76(sp)
  803278:	dcc01215 	stw	r19,72(sp)
  80327c:	dc801115 	stw	r18,68(sp)
  803280:	2023883a 	mov	r17,r4
  803284:	28001c16 	blt	r5,zero,8032f8 <__smakebuf_r+0xa4>
  803288:	d80d883a 	mov	r6,sp
  80328c:	080a94c0 	call	80a94c <_fstat_r>
  803290:	10001816 	blt	r2,zero,8032f4 <__smakebuf_r+0xa0>
  803294:	d8800117 	ldw	r2,4(sp)
  803298:	00e00014 	movui	r3,32768
  80329c:	10bc000c 	andi	r2,r2,61440
  8032a0:	14c80020 	cmpeqi	r19,r2,8192
  8032a4:	10c03726 	beq	r2,r3,803384 <__smakebuf_r+0x130>
  8032a8:	80c0030b 	ldhu	r3,12(r16)
  8032ac:	18c20014 	ori	r3,r3,2048
  8032b0:	80c0030d 	sth	r3,12(r16)
  8032b4:	00c80004 	movi	r3,8192
  8032b8:	10c0521e 	bne	r2,r3,803404 <__smakebuf_r+0x1b0>
  8032bc:	8140038f 	ldh	r5,14(r16)
  8032c0:	8809883a 	mov	r4,r17
  8032c4:	080b55c0 	call	80b55c <_isatty_r>
  8032c8:	10004c26 	beq	r2,zero,8033fc <__smakebuf_r+0x1a8>
  8032cc:	8080030b 	ldhu	r2,12(r16)
  8032d0:	80c010c4 	addi	r3,r16,67
  8032d4:	80c00015 	stw	r3,0(r16)
  8032d8:	10800054 	ori	r2,r2,1
  8032dc:	8080030d 	sth	r2,12(r16)
  8032e0:	00800044 	movi	r2,1
  8032e4:	80c00415 	stw	r3,16(r16)
  8032e8:	80800515 	stw	r2,20(r16)
  8032ec:	04810004 	movi	r18,1024
  8032f0:	00000706 	br	803310 <__smakebuf_r+0xbc>
  8032f4:	8080030b 	ldhu	r2,12(r16)
  8032f8:	10c0200c 	andi	r3,r2,128
  8032fc:	18001f1e 	bne	r3,zero,80337c <__smakebuf_r+0x128>
  803300:	04810004 	movi	r18,1024
  803304:	10820014 	ori	r2,r2,2048
  803308:	8080030d 	sth	r2,12(r16)
  80330c:	0027883a 	mov	r19,zero
  803310:	900b883a 	mov	r5,r18
  803314:	8809883a 	mov	r4,r17
  803318:	08034100 	call	803410 <_malloc_r>
  80331c:	10002c26 	beq	r2,zero,8033d0 <__smakebuf_r+0x17c>
  803320:	80c0030b 	ldhu	r3,12(r16)
  803324:	01002034 	movhi	r4,128
  803328:	21095d04 	addi	r4,r4,9588
  80332c:	89000f15 	stw	r4,60(r17)
  803330:	18c02014 	ori	r3,r3,128
  803334:	80c0030d 	sth	r3,12(r16)
  803338:	80800015 	stw	r2,0(r16)
  80333c:	80800415 	stw	r2,16(r16)
  803340:	84800515 	stw	r18,20(r16)
  803344:	98001a1e 	bne	r19,zero,8033b0 <__smakebuf_r+0x15c>
  803348:	dfc01317 	ldw	ra,76(sp)
  80334c:	dcc01217 	ldw	r19,72(sp)
  803350:	dc801117 	ldw	r18,68(sp)
  803354:	dc401017 	ldw	r17,64(sp)
  803358:	dc000f17 	ldw	r16,60(sp)
  80335c:	dec01404 	addi	sp,sp,80
  803360:	f800283a 	ret
  803364:	288010c4 	addi	r2,r5,67
  803368:	28800015 	stw	r2,0(r5)
  80336c:	28800415 	stw	r2,16(r5)
  803370:	00800044 	movi	r2,1
  803374:	28800515 	stw	r2,20(r5)
  803378:	f800283a 	ret
  80337c:	04801004 	movi	r18,64
  803380:	003fe006 	br	803304 <__alt_mem_onchip_ram+0xff7ff304>
  803384:	81000a17 	ldw	r4,40(r16)
  803388:	00c02034 	movhi	r3,128
  80338c:	18d17704 	addi	r3,r3,17884
  803390:	20ffc51e 	bne	r4,r3,8032a8 <__alt_mem_onchip_ram+0xff7ff2a8>
  803394:	8080030b 	ldhu	r2,12(r16)
  803398:	04810004 	movi	r18,1024
  80339c:	84801315 	stw	r18,76(r16)
  8033a0:	1484b03a 	or	r2,r2,r18
  8033a4:	8080030d 	sth	r2,12(r16)
  8033a8:	0027883a 	mov	r19,zero
  8033ac:	003fd806 	br	803310 <__alt_mem_onchip_ram+0xff7ff310>
  8033b0:	8140038f 	ldh	r5,14(r16)
  8033b4:	8809883a 	mov	r4,r17
  8033b8:	080b55c0 	call	80b55c <_isatty_r>
  8033bc:	103fe226 	beq	r2,zero,803348 <__alt_mem_onchip_ram+0xff7ff348>
  8033c0:	8080030b 	ldhu	r2,12(r16)
  8033c4:	10800054 	ori	r2,r2,1
  8033c8:	8080030d 	sth	r2,12(r16)
  8033cc:	003fde06 	br	803348 <__alt_mem_onchip_ram+0xff7ff348>
  8033d0:	8080030b 	ldhu	r2,12(r16)
  8033d4:	10c0800c 	andi	r3,r2,512
  8033d8:	183fdb1e 	bne	r3,zero,803348 <__alt_mem_onchip_ram+0xff7ff348>
  8033dc:	10800094 	ori	r2,r2,2
  8033e0:	80c010c4 	addi	r3,r16,67
  8033e4:	8080030d 	sth	r2,12(r16)
  8033e8:	00800044 	movi	r2,1
  8033ec:	80c00015 	stw	r3,0(r16)
  8033f0:	80c00415 	stw	r3,16(r16)
  8033f4:	80800515 	stw	r2,20(r16)
  8033f8:	003fd306 	br	803348 <__alt_mem_onchip_ram+0xff7ff348>
  8033fc:	04810004 	movi	r18,1024
  803400:	003fc306 	br	803310 <__alt_mem_onchip_ram+0xff7ff310>
  803404:	0027883a 	mov	r19,zero
  803408:	04810004 	movi	r18,1024
  80340c:	003fc006 	br	803310 <__alt_mem_onchip_ram+0xff7ff310>

00803410 <_malloc_r>:
  803410:	defff504 	addi	sp,sp,-44
  803414:	dc800315 	stw	r18,12(sp)
  803418:	dfc00a15 	stw	ra,40(sp)
  80341c:	df000915 	stw	fp,36(sp)
  803420:	ddc00815 	stw	r23,32(sp)
  803424:	dd800715 	stw	r22,28(sp)
  803428:	dd400615 	stw	r21,24(sp)
  80342c:	dd000515 	stw	r20,20(sp)
  803430:	dcc00415 	stw	r19,16(sp)
  803434:	dc400215 	stw	r17,8(sp)
  803438:	dc000115 	stw	r16,4(sp)
  80343c:	288002c4 	addi	r2,r5,11
  803440:	00c00584 	movi	r3,22
  803444:	2025883a 	mov	r18,r4
  803448:	18807f2e 	bgeu	r3,r2,803648 <_malloc_r+0x238>
  80344c:	047ffe04 	movi	r17,-8
  803450:	1462703a 	and	r17,r2,r17
  803454:	8800a316 	blt	r17,zero,8036e4 <_malloc_r+0x2d4>
  803458:	8940a236 	bltu	r17,r5,8036e4 <_malloc_r+0x2d4>
  80345c:	08127cc0 	call	8127cc <__malloc_lock>
  803460:	00807dc4 	movi	r2,503
  803464:	1441e92e 	bgeu	r2,r17,803c0c <_malloc_r+0x7fc>
  803468:	8804d27a 	srli	r2,r17,9
  80346c:	1000a126 	beq	r2,zero,8036f4 <_malloc_r+0x2e4>
  803470:	00c00104 	movi	r3,4
  803474:	18811e36 	bltu	r3,r2,8038f0 <_malloc_r+0x4e0>
  803478:	8804d1ba 	srli	r2,r17,6
  80347c:	12000e44 	addi	r8,r2,57
  803480:	11c00e04 	addi	r7,r2,56
  803484:	4209883a 	add	r4,r8,r8
  803488:	04c02074 	movhi	r19,129
  80348c:	2109883a 	add	r4,r4,r4
  803490:	9cd54e04 	addi	r19,r19,21816
  803494:	2109883a 	add	r4,r4,r4
  803498:	9909883a 	add	r4,r19,r4
  80349c:	24000117 	ldw	r16,4(r4)
  8034a0:	213ffe04 	addi	r4,r4,-8
  8034a4:	24009726 	beq	r4,r16,803704 <_malloc_r+0x2f4>
  8034a8:	80800117 	ldw	r2,4(r16)
  8034ac:	01bfff04 	movi	r6,-4
  8034b0:	014003c4 	movi	r5,15
  8034b4:	1184703a 	and	r2,r2,r6
  8034b8:	1447c83a 	sub	r3,r2,r17
  8034bc:	28c00716 	blt	r5,r3,8034dc <_malloc_r+0xcc>
  8034c0:	1800920e 	bge	r3,zero,80370c <_malloc_r+0x2fc>
  8034c4:	84000317 	ldw	r16,12(r16)
  8034c8:	24008e26 	beq	r4,r16,803704 <_malloc_r+0x2f4>
  8034cc:	80800117 	ldw	r2,4(r16)
  8034d0:	1184703a 	and	r2,r2,r6
  8034d4:	1447c83a 	sub	r3,r2,r17
  8034d8:	28fff90e 	bge	r5,r3,8034c0 <__alt_mem_onchip_ram+0xff7ff4c0>
  8034dc:	3809883a 	mov	r4,r7
  8034e0:	01802074 	movhi	r6,129
  8034e4:	9c000417 	ldw	r16,16(r19)
  8034e8:	31954e04 	addi	r6,r6,21816
  8034ec:	32000204 	addi	r8,r6,8
  8034f0:	82013426 	beq	r16,r8,8039c4 <_malloc_r+0x5b4>
  8034f4:	80c00117 	ldw	r3,4(r16)
  8034f8:	00bfff04 	movi	r2,-4
  8034fc:	188e703a 	and	r7,r3,r2
  803500:	3c45c83a 	sub	r2,r7,r17
  803504:	00c003c4 	movi	r3,15
  803508:	18811f16 	blt	r3,r2,803988 <_malloc_r+0x578>
  80350c:	32000515 	stw	r8,20(r6)
  803510:	32000415 	stw	r8,16(r6)
  803514:	10007f0e 	bge	r2,zero,803714 <_malloc_r+0x304>
  803518:	00807fc4 	movi	r2,511
  80351c:	11c0fd36 	bltu	r2,r7,803914 <_malloc_r+0x504>
  803520:	3806d0fa 	srli	r3,r7,3
  803524:	01c00044 	movi	r7,1
  803528:	30800117 	ldw	r2,4(r6)
  80352c:	19400044 	addi	r5,r3,1
  803530:	294b883a 	add	r5,r5,r5
  803534:	1807d0ba 	srai	r3,r3,2
  803538:	294b883a 	add	r5,r5,r5
  80353c:	294b883a 	add	r5,r5,r5
  803540:	298b883a 	add	r5,r5,r6
  803544:	38c6983a 	sll	r3,r7,r3
  803548:	29c00017 	ldw	r7,0(r5)
  80354c:	2a7ffe04 	addi	r9,r5,-8
  803550:	1886b03a 	or	r3,r3,r2
  803554:	82400315 	stw	r9,12(r16)
  803558:	81c00215 	stw	r7,8(r16)
  80355c:	30c00115 	stw	r3,4(r6)
  803560:	2c000015 	stw	r16,0(r5)
  803564:	3c000315 	stw	r16,12(r7)
  803568:	2005d0ba 	srai	r2,r4,2
  80356c:	01400044 	movi	r5,1
  803570:	288a983a 	sll	r5,r5,r2
  803574:	19406f36 	bltu	r3,r5,803734 <_malloc_r+0x324>
  803578:	28c4703a 	and	r2,r5,r3
  80357c:	10000a1e 	bne	r2,zero,8035a8 <_malloc_r+0x198>
  803580:	00bfff04 	movi	r2,-4
  803584:	294b883a 	add	r5,r5,r5
  803588:	2088703a 	and	r4,r4,r2
  80358c:	28c4703a 	and	r2,r5,r3
  803590:	21000104 	addi	r4,r4,4
  803594:	1000041e 	bne	r2,zero,8035a8 <_malloc_r+0x198>
  803598:	294b883a 	add	r5,r5,r5
  80359c:	28c4703a 	and	r2,r5,r3
  8035a0:	21000104 	addi	r4,r4,4
  8035a4:	103ffc26 	beq	r2,zero,803598 <__alt_mem_onchip_ram+0xff7ff598>
  8035a8:	02bfff04 	movi	r10,-4
  8035ac:	024003c4 	movi	r9,15
  8035b0:	21800044 	addi	r6,r4,1
  8035b4:	318d883a 	add	r6,r6,r6
  8035b8:	318d883a 	add	r6,r6,r6
  8035bc:	318d883a 	add	r6,r6,r6
  8035c0:	998d883a 	add	r6,r19,r6
  8035c4:	333ffe04 	addi	r12,r6,-8
  8035c8:	2017883a 	mov	r11,r4
  8035cc:	31800104 	addi	r6,r6,4
  8035d0:	34000017 	ldw	r16,0(r6)
  8035d4:	31fffd04 	addi	r7,r6,-12
  8035d8:	81c0041e 	bne	r16,r7,8035ec <_malloc_r+0x1dc>
  8035dc:	0000fb06 	br	8039cc <_malloc_r+0x5bc>
  8035e0:	1801030e 	bge	r3,zero,8039f0 <_malloc_r+0x5e0>
  8035e4:	84000317 	ldw	r16,12(r16)
  8035e8:	81c0f826 	beq	r16,r7,8039cc <_malloc_r+0x5bc>
  8035ec:	80800117 	ldw	r2,4(r16)
  8035f0:	1284703a 	and	r2,r2,r10
  8035f4:	1447c83a 	sub	r3,r2,r17
  8035f8:	48fff90e 	bge	r9,r3,8035e0 <__alt_mem_onchip_ram+0xff7ff5e0>
  8035fc:	80800317 	ldw	r2,12(r16)
  803600:	81000217 	ldw	r4,8(r16)
  803604:	89400054 	ori	r5,r17,1
  803608:	81400115 	stw	r5,4(r16)
  80360c:	20800315 	stw	r2,12(r4)
  803610:	11000215 	stw	r4,8(r2)
  803614:	8463883a 	add	r17,r16,r17
  803618:	9c400515 	stw	r17,20(r19)
  80361c:	9c400415 	stw	r17,16(r19)
  803620:	18800054 	ori	r2,r3,1
  803624:	88800115 	stw	r2,4(r17)
  803628:	8a000315 	stw	r8,12(r17)
  80362c:	8a000215 	stw	r8,8(r17)
  803630:	88e3883a 	add	r17,r17,r3
  803634:	88c00015 	stw	r3,0(r17)
  803638:	9009883a 	mov	r4,r18
  80363c:	08127f00 	call	8127f0 <__malloc_unlock>
  803640:	80800204 	addi	r2,r16,8
  803644:	00001b06 	br	8036b4 <_malloc_r+0x2a4>
  803648:	04400404 	movi	r17,16
  80364c:	89402536 	bltu	r17,r5,8036e4 <_malloc_r+0x2d4>
  803650:	08127cc0 	call	8127cc <__malloc_lock>
  803654:	00800184 	movi	r2,6
  803658:	01000084 	movi	r4,2
  80365c:	04c02074 	movhi	r19,129
  803660:	1085883a 	add	r2,r2,r2
  803664:	9cd54e04 	addi	r19,r19,21816
  803668:	1085883a 	add	r2,r2,r2
  80366c:	9885883a 	add	r2,r19,r2
  803670:	14000117 	ldw	r16,4(r2)
  803674:	10fffe04 	addi	r3,r2,-8
  803678:	80c0d926 	beq	r16,r3,8039e0 <_malloc_r+0x5d0>
  80367c:	80c00117 	ldw	r3,4(r16)
  803680:	81000317 	ldw	r4,12(r16)
  803684:	00bfff04 	movi	r2,-4
  803688:	1884703a 	and	r2,r3,r2
  80368c:	81400217 	ldw	r5,8(r16)
  803690:	8085883a 	add	r2,r16,r2
  803694:	10c00117 	ldw	r3,4(r2)
  803698:	29000315 	stw	r4,12(r5)
  80369c:	21400215 	stw	r5,8(r4)
  8036a0:	18c00054 	ori	r3,r3,1
  8036a4:	10c00115 	stw	r3,4(r2)
  8036a8:	9009883a 	mov	r4,r18
  8036ac:	08127f00 	call	8127f0 <__malloc_unlock>
  8036b0:	80800204 	addi	r2,r16,8
  8036b4:	dfc00a17 	ldw	ra,40(sp)
  8036b8:	df000917 	ldw	fp,36(sp)
  8036bc:	ddc00817 	ldw	r23,32(sp)
  8036c0:	dd800717 	ldw	r22,28(sp)
  8036c4:	dd400617 	ldw	r21,24(sp)
  8036c8:	dd000517 	ldw	r20,20(sp)
  8036cc:	dcc00417 	ldw	r19,16(sp)
  8036d0:	dc800317 	ldw	r18,12(sp)
  8036d4:	dc400217 	ldw	r17,8(sp)
  8036d8:	dc000117 	ldw	r16,4(sp)
  8036dc:	dec00b04 	addi	sp,sp,44
  8036e0:	f800283a 	ret
  8036e4:	00800304 	movi	r2,12
  8036e8:	90800015 	stw	r2,0(r18)
  8036ec:	0005883a 	mov	r2,zero
  8036f0:	003ff006 	br	8036b4 <__alt_mem_onchip_ram+0xff7ff6b4>
  8036f4:	01002004 	movi	r4,128
  8036f8:	02001004 	movi	r8,64
  8036fc:	01c00fc4 	movi	r7,63
  803700:	003f6106 	br	803488 <__alt_mem_onchip_ram+0xff7ff488>
  803704:	4009883a 	mov	r4,r8
  803708:	003f7506 	br	8034e0 <__alt_mem_onchip_ram+0xff7ff4e0>
  80370c:	81000317 	ldw	r4,12(r16)
  803710:	003fde06 	br	80368c <__alt_mem_onchip_ram+0xff7ff68c>
  803714:	81c5883a 	add	r2,r16,r7
  803718:	11400117 	ldw	r5,4(r2)
  80371c:	9009883a 	mov	r4,r18
  803720:	29400054 	ori	r5,r5,1
  803724:	11400115 	stw	r5,4(r2)
  803728:	08127f00 	call	8127f0 <__malloc_unlock>
  80372c:	80800204 	addi	r2,r16,8
  803730:	003fe006 	br	8036b4 <__alt_mem_onchip_ram+0xff7ff6b4>
  803734:	9c000217 	ldw	r16,8(r19)
  803738:	00bfff04 	movi	r2,-4
  80373c:	85800117 	ldw	r22,4(r16)
  803740:	b0ac703a 	and	r22,r22,r2
  803744:	b4400336 	bltu	r22,r17,803754 <_malloc_r+0x344>
  803748:	b445c83a 	sub	r2,r22,r17
  80374c:	00c003c4 	movi	r3,15
  803750:	18805d16 	blt	r3,r2,8038c8 <_malloc_r+0x4b8>
  803754:	05c02074 	movhi	r23,129
  803758:	008020b4 	movhi	r2,130
  80375c:	10a1a404 	addi	r2,r2,-31088
  803760:	bddad604 	addi	r23,r23,27480
  803764:	15400017 	ldw	r21,0(r2)
  803768:	b8c00017 	ldw	r3,0(r23)
  80376c:	00bfffc4 	movi	r2,-1
  803770:	858d883a 	add	r6,r16,r22
  803774:	8d6b883a 	add	r21,r17,r21
  803778:	1880ea26 	beq	r3,r2,803b24 <_malloc_r+0x714>
  80377c:	ad4403c4 	addi	r21,r21,4111
  803780:	00bc0004 	movi	r2,-4096
  803784:	a8aa703a 	and	r21,r21,r2
  803788:	a80b883a 	mov	r5,r21
  80378c:	9009883a 	mov	r4,r18
  803790:	d9800015 	stw	r6,0(sp)
  803794:	08043140 	call	804314 <_sbrk_r>
  803798:	1029883a 	mov	r20,r2
  80379c:	00bfffc4 	movi	r2,-1
  8037a0:	d9800017 	ldw	r6,0(sp)
  8037a4:	a080e826 	beq	r20,r2,803b48 <_malloc_r+0x738>
  8037a8:	a180a636 	bltu	r20,r6,803a44 <_malloc_r+0x634>
  8037ac:	070020b4 	movhi	fp,130
  8037b0:	e721ad04 	addi	fp,fp,-31052
  8037b4:	e0800017 	ldw	r2,0(fp)
  8037b8:	a887883a 	add	r3,r21,r2
  8037bc:	e0c00015 	stw	r3,0(fp)
  8037c0:	3500e626 	beq	r6,r20,803b5c <_malloc_r+0x74c>
  8037c4:	b9000017 	ldw	r4,0(r23)
  8037c8:	00bfffc4 	movi	r2,-1
  8037cc:	2080ee26 	beq	r4,r2,803b88 <_malloc_r+0x778>
  8037d0:	a185c83a 	sub	r2,r20,r6
  8037d4:	10c5883a 	add	r2,r2,r3
  8037d8:	e0800015 	stw	r2,0(fp)
  8037dc:	a0c001cc 	andi	r3,r20,7
  8037e0:	1800bc26 	beq	r3,zero,803ad4 <_malloc_r+0x6c4>
  8037e4:	a0e9c83a 	sub	r20,r20,r3
  8037e8:	00840204 	movi	r2,4104
  8037ec:	a5000204 	addi	r20,r20,8
  8037f0:	10c7c83a 	sub	r3,r2,r3
  8037f4:	a545883a 	add	r2,r20,r21
  8037f8:	1083ffcc 	andi	r2,r2,4095
  8037fc:	18abc83a 	sub	r21,r3,r2
  803800:	a80b883a 	mov	r5,r21
  803804:	9009883a 	mov	r4,r18
  803808:	08043140 	call	804314 <_sbrk_r>
  80380c:	00ffffc4 	movi	r3,-1
  803810:	10c0e126 	beq	r2,r3,803b98 <_malloc_r+0x788>
  803814:	1505c83a 	sub	r2,r2,r20
  803818:	1545883a 	add	r2,r2,r21
  80381c:	10800054 	ori	r2,r2,1
  803820:	e0c00017 	ldw	r3,0(fp)
  803824:	9d000215 	stw	r20,8(r19)
  803828:	a0800115 	stw	r2,4(r20)
  80382c:	a8c7883a 	add	r3,r21,r3
  803830:	e0c00015 	stw	r3,0(fp)
  803834:	84c00e26 	beq	r16,r19,803870 <_malloc_r+0x460>
  803838:	018003c4 	movi	r6,15
  80383c:	3580a72e 	bgeu	r6,r22,803adc <_malloc_r+0x6cc>
  803840:	81400117 	ldw	r5,4(r16)
  803844:	013ffe04 	movi	r4,-8
  803848:	b0bffd04 	addi	r2,r22,-12
  80384c:	1104703a 	and	r2,r2,r4
  803850:	2900004c 	andi	r4,r5,1
  803854:	2088b03a 	or	r4,r4,r2
  803858:	81000115 	stw	r4,4(r16)
  80385c:	01400144 	movi	r5,5
  803860:	8089883a 	add	r4,r16,r2
  803864:	21400115 	stw	r5,4(r4)
  803868:	21400215 	stw	r5,8(r4)
  80386c:	3080cd36 	bltu	r6,r2,803ba4 <_malloc_r+0x794>
  803870:	008020b4 	movhi	r2,130
  803874:	10a1a304 	addi	r2,r2,-31092
  803878:	11000017 	ldw	r4,0(r2)
  80387c:	20c0012e 	bgeu	r4,r3,803884 <_malloc_r+0x474>
  803880:	10c00015 	stw	r3,0(r2)
  803884:	008020b4 	movhi	r2,130
  803888:	10a1a204 	addi	r2,r2,-31096
  80388c:	11000017 	ldw	r4,0(r2)
  803890:	9c000217 	ldw	r16,8(r19)
  803894:	20c0012e 	bgeu	r4,r3,80389c <_malloc_r+0x48c>
  803898:	10c00015 	stw	r3,0(r2)
  80389c:	80c00117 	ldw	r3,4(r16)
  8038a0:	00bfff04 	movi	r2,-4
  8038a4:	1886703a 	and	r3,r3,r2
  8038a8:	1c45c83a 	sub	r2,r3,r17
  8038ac:	1c400236 	bltu	r3,r17,8038b8 <_malloc_r+0x4a8>
  8038b0:	00c003c4 	movi	r3,15
  8038b4:	18800416 	blt	r3,r2,8038c8 <_malloc_r+0x4b8>
  8038b8:	9009883a 	mov	r4,r18
  8038bc:	08127f00 	call	8127f0 <__malloc_unlock>
  8038c0:	0005883a 	mov	r2,zero
  8038c4:	003f7b06 	br	8036b4 <__alt_mem_onchip_ram+0xff7ff6b4>
  8038c8:	88c00054 	ori	r3,r17,1
  8038cc:	80c00115 	stw	r3,4(r16)
  8038d0:	8463883a 	add	r17,r16,r17
  8038d4:	10800054 	ori	r2,r2,1
  8038d8:	9c400215 	stw	r17,8(r19)
  8038dc:	88800115 	stw	r2,4(r17)
  8038e0:	9009883a 	mov	r4,r18
  8038e4:	08127f00 	call	8127f0 <__malloc_unlock>
  8038e8:	80800204 	addi	r2,r16,8
  8038ec:	003f7106 	br	8036b4 <__alt_mem_onchip_ram+0xff7ff6b4>
  8038f0:	00c00504 	movi	r3,20
  8038f4:	18804a2e 	bgeu	r3,r2,803a20 <_malloc_r+0x610>
  8038f8:	00c01504 	movi	r3,84
  8038fc:	18806e36 	bltu	r3,r2,803ab8 <_malloc_r+0x6a8>
  803900:	8804d33a 	srli	r2,r17,12
  803904:	12001bc4 	addi	r8,r2,111
  803908:	11c01b84 	addi	r7,r2,110
  80390c:	4209883a 	add	r4,r8,r8
  803910:	003edd06 	br	803488 <__alt_mem_onchip_ram+0xff7ff488>
  803914:	3804d27a 	srli	r2,r7,9
  803918:	00c00104 	movi	r3,4
  80391c:	1880442e 	bgeu	r3,r2,803a30 <_malloc_r+0x620>
  803920:	00c00504 	movi	r3,20
  803924:	18808136 	bltu	r3,r2,803b2c <_malloc_r+0x71c>
  803928:	11401704 	addi	r5,r2,92
  80392c:	10c016c4 	addi	r3,r2,91
  803930:	294b883a 	add	r5,r5,r5
  803934:	294b883a 	add	r5,r5,r5
  803938:	294b883a 	add	r5,r5,r5
  80393c:	994b883a 	add	r5,r19,r5
  803940:	28800017 	ldw	r2,0(r5)
  803944:	01802074 	movhi	r6,129
  803948:	297ffe04 	addi	r5,r5,-8
  80394c:	31954e04 	addi	r6,r6,21816
  803950:	28806526 	beq	r5,r2,803ae8 <_malloc_r+0x6d8>
  803954:	01bfff04 	movi	r6,-4
  803958:	10c00117 	ldw	r3,4(r2)
  80395c:	1986703a 	and	r3,r3,r6
  803960:	38c0022e 	bgeu	r7,r3,80396c <_malloc_r+0x55c>
  803964:	10800217 	ldw	r2,8(r2)
  803968:	28bffb1e 	bne	r5,r2,803958 <__alt_mem_onchip_ram+0xff7ff958>
  80396c:	11400317 	ldw	r5,12(r2)
  803970:	98c00117 	ldw	r3,4(r19)
  803974:	81400315 	stw	r5,12(r16)
  803978:	80800215 	stw	r2,8(r16)
  80397c:	2c000215 	stw	r16,8(r5)
  803980:	14000315 	stw	r16,12(r2)
  803984:	003ef806 	br	803568 <__alt_mem_onchip_ram+0xff7ff568>
  803988:	88c00054 	ori	r3,r17,1
  80398c:	80c00115 	stw	r3,4(r16)
  803990:	8463883a 	add	r17,r16,r17
  803994:	34400515 	stw	r17,20(r6)
  803998:	34400415 	stw	r17,16(r6)
  80399c:	10c00054 	ori	r3,r2,1
  8039a0:	8a000315 	stw	r8,12(r17)
  8039a4:	8a000215 	stw	r8,8(r17)
  8039a8:	88c00115 	stw	r3,4(r17)
  8039ac:	88a3883a 	add	r17,r17,r2
  8039b0:	88800015 	stw	r2,0(r17)
  8039b4:	9009883a 	mov	r4,r18
  8039b8:	08127f00 	call	8127f0 <__malloc_unlock>
  8039bc:	80800204 	addi	r2,r16,8
  8039c0:	003f3c06 	br	8036b4 <__alt_mem_onchip_ram+0xff7ff6b4>
  8039c4:	30c00117 	ldw	r3,4(r6)
  8039c8:	003ee706 	br	803568 <__alt_mem_onchip_ram+0xff7ff568>
  8039cc:	5ac00044 	addi	r11,r11,1
  8039d0:	588000cc 	andi	r2,r11,3
  8039d4:	31800204 	addi	r6,r6,8
  8039d8:	103efd1e 	bne	r2,zero,8035d0 <__alt_mem_onchip_ram+0xff7ff5d0>
  8039dc:	00002406 	br	803a70 <_malloc_r+0x660>
  8039e0:	14000317 	ldw	r16,12(r2)
  8039e4:	143f251e 	bne	r2,r16,80367c <__alt_mem_onchip_ram+0xff7ff67c>
  8039e8:	21000084 	addi	r4,r4,2
  8039ec:	003ebc06 	br	8034e0 <__alt_mem_onchip_ram+0xff7ff4e0>
  8039f0:	8085883a 	add	r2,r16,r2
  8039f4:	10c00117 	ldw	r3,4(r2)
  8039f8:	81000317 	ldw	r4,12(r16)
  8039fc:	81400217 	ldw	r5,8(r16)
  803a00:	18c00054 	ori	r3,r3,1
  803a04:	10c00115 	stw	r3,4(r2)
  803a08:	29000315 	stw	r4,12(r5)
  803a0c:	21400215 	stw	r5,8(r4)
  803a10:	9009883a 	mov	r4,r18
  803a14:	08127f00 	call	8127f0 <__malloc_unlock>
  803a18:	80800204 	addi	r2,r16,8
  803a1c:	003f2506 	br	8036b4 <__alt_mem_onchip_ram+0xff7ff6b4>
  803a20:	12001704 	addi	r8,r2,92
  803a24:	11c016c4 	addi	r7,r2,91
  803a28:	4209883a 	add	r4,r8,r8
  803a2c:	003e9606 	br	803488 <__alt_mem_onchip_ram+0xff7ff488>
  803a30:	3804d1ba 	srli	r2,r7,6
  803a34:	11400e44 	addi	r5,r2,57
  803a38:	10c00e04 	addi	r3,r2,56
  803a3c:	294b883a 	add	r5,r5,r5
  803a40:	003fbc06 	br	803934 <__alt_mem_onchip_ram+0xff7ff934>
  803a44:	84ff5926 	beq	r16,r19,8037ac <__alt_mem_onchip_ram+0xff7ff7ac>
  803a48:	00802074 	movhi	r2,129
  803a4c:	10954e04 	addi	r2,r2,21816
  803a50:	14000217 	ldw	r16,8(r2)
  803a54:	00bfff04 	movi	r2,-4
  803a58:	80c00117 	ldw	r3,4(r16)
  803a5c:	1886703a 	and	r3,r3,r2
  803a60:	003f9106 	br	8038a8 <__alt_mem_onchip_ram+0xff7ff8a8>
  803a64:	60800217 	ldw	r2,8(r12)
  803a68:	213fffc4 	addi	r4,r4,-1
  803a6c:	1300651e 	bne	r2,r12,803c04 <_malloc_r+0x7f4>
  803a70:	208000cc 	andi	r2,r4,3
  803a74:	633ffe04 	addi	r12,r12,-8
  803a78:	103ffa1e 	bne	r2,zero,803a64 <__alt_mem_onchip_ram+0xff7ffa64>
  803a7c:	98800117 	ldw	r2,4(r19)
  803a80:	0146303a 	nor	r3,zero,r5
  803a84:	1884703a 	and	r2,r3,r2
  803a88:	98800115 	stw	r2,4(r19)
  803a8c:	294b883a 	add	r5,r5,r5
  803a90:	117f2836 	bltu	r2,r5,803734 <__alt_mem_onchip_ram+0xff7ff734>
  803a94:	283f2726 	beq	r5,zero,803734 <__alt_mem_onchip_ram+0xff7ff734>
  803a98:	2886703a 	and	r3,r5,r2
  803a9c:	5809883a 	mov	r4,r11
  803aa0:	183ec31e 	bne	r3,zero,8035b0 <__alt_mem_onchip_ram+0xff7ff5b0>
  803aa4:	294b883a 	add	r5,r5,r5
  803aa8:	2886703a 	and	r3,r5,r2
  803aac:	21000104 	addi	r4,r4,4
  803ab0:	183ffc26 	beq	r3,zero,803aa4 <__alt_mem_onchip_ram+0xff7ffaa4>
  803ab4:	003ebe06 	br	8035b0 <__alt_mem_onchip_ram+0xff7ff5b0>
  803ab8:	00c05504 	movi	r3,340
  803abc:	18801236 	bltu	r3,r2,803b08 <_malloc_r+0x6f8>
  803ac0:	8804d3fa 	srli	r2,r17,15
  803ac4:	12001e04 	addi	r8,r2,120
  803ac8:	11c01dc4 	addi	r7,r2,119
  803acc:	4209883a 	add	r4,r8,r8
  803ad0:	003e6d06 	br	803488 <__alt_mem_onchip_ram+0xff7ff488>
  803ad4:	00c40004 	movi	r3,4096
  803ad8:	003f4606 	br	8037f4 <__alt_mem_onchip_ram+0xff7ff7f4>
  803adc:	00800044 	movi	r2,1
  803ae0:	a0800115 	stw	r2,4(r20)
  803ae4:	003f7406 	br	8038b8 <__alt_mem_onchip_ram+0xff7ff8b8>
  803ae8:	1805d0ba 	srai	r2,r3,2
  803aec:	01c00044 	movi	r7,1
  803af0:	30c00117 	ldw	r3,4(r6)
  803af4:	388e983a 	sll	r7,r7,r2
  803af8:	2805883a 	mov	r2,r5
  803afc:	38c6b03a 	or	r3,r7,r3
  803b00:	30c00115 	stw	r3,4(r6)
  803b04:	003f9b06 	br	803974 <__alt_mem_onchip_ram+0xff7ff974>
  803b08:	00c15504 	movi	r3,1364
  803b0c:	18801a36 	bltu	r3,r2,803b78 <_malloc_r+0x768>
  803b10:	8804d4ba 	srli	r2,r17,18
  803b14:	12001f44 	addi	r8,r2,125
  803b18:	11c01f04 	addi	r7,r2,124
  803b1c:	4209883a 	add	r4,r8,r8
  803b20:	003e5906 	br	803488 <__alt_mem_onchip_ram+0xff7ff488>
  803b24:	ad400404 	addi	r21,r21,16
  803b28:	003f1706 	br	803788 <__alt_mem_onchip_ram+0xff7ff788>
  803b2c:	00c01504 	movi	r3,84
  803b30:	18802336 	bltu	r3,r2,803bc0 <_malloc_r+0x7b0>
  803b34:	3804d33a 	srli	r2,r7,12
  803b38:	11401bc4 	addi	r5,r2,111
  803b3c:	10c01b84 	addi	r3,r2,110
  803b40:	294b883a 	add	r5,r5,r5
  803b44:	003f7b06 	br	803934 <__alt_mem_onchip_ram+0xff7ff934>
  803b48:	9c000217 	ldw	r16,8(r19)
  803b4c:	00bfff04 	movi	r2,-4
  803b50:	80c00117 	ldw	r3,4(r16)
  803b54:	1886703a 	and	r3,r3,r2
  803b58:	003f5306 	br	8038a8 <__alt_mem_onchip_ram+0xff7ff8a8>
  803b5c:	3083ffcc 	andi	r2,r6,4095
  803b60:	103f181e 	bne	r2,zero,8037c4 <__alt_mem_onchip_ram+0xff7ff7c4>
  803b64:	99000217 	ldw	r4,8(r19)
  803b68:	b545883a 	add	r2,r22,r21
  803b6c:	10800054 	ori	r2,r2,1
  803b70:	20800115 	stw	r2,4(r4)
  803b74:	003f3e06 	br	803870 <__alt_mem_onchip_ram+0xff7ff870>
  803b78:	01003f84 	movi	r4,254
  803b7c:	02001fc4 	movi	r8,127
  803b80:	01c01f84 	movi	r7,126
  803b84:	003e4006 	br	803488 <__alt_mem_onchip_ram+0xff7ff488>
  803b88:	00802074 	movhi	r2,129
  803b8c:	109ad604 	addi	r2,r2,27480
  803b90:	15000015 	stw	r20,0(r2)
  803b94:	003f1106 	br	8037dc <__alt_mem_onchip_ram+0xff7ff7dc>
  803b98:	00800044 	movi	r2,1
  803b9c:	002b883a 	mov	r21,zero
  803ba0:	003f1f06 	br	803820 <__alt_mem_onchip_ram+0xff7ff820>
  803ba4:	81400204 	addi	r5,r16,8
  803ba8:	9009883a 	mov	r4,r18
  803bac:	0802cb00 	call	802cb0 <_free_r>
  803bb0:	008020b4 	movhi	r2,130
  803bb4:	10a1ad04 	addi	r2,r2,-31052
  803bb8:	10c00017 	ldw	r3,0(r2)
  803bbc:	003f2c06 	br	803870 <__alt_mem_onchip_ram+0xff7ff870>
  803bc0:	00c05504 	movi	r3,340
  803bc4:	18800536 	bltu	r3,r2,803bdc <_malloc_r+0x7cc>
  803bc8:	3804d3fa 	srli	r2,r7,15
  803bcc:	11401e04 	addi	r5,r2,120
  803bd0:	10c01dc4 	addi	r3,r2,119
  803bd4:	294b883a 	add	r5,r5,r5
  803bd8:	003f5606 	br	803934 <__alt_mem_onchip_ram+0xff7ff934>
  803bdc:	00c15504 	movi	r3,1364
  803be0:	18800536 	bltu	r3,r2,803bf8 <_malloc_r+0x7e8>
  803be4:	3804d4ba 	srli	r2,r7,18
  803be8:	11401f44 	addi	r5,r2,125
  803bec:	10c01f04 	addi	r3,r2,124
  803bf0:	294b883a 	add	r5,r5,r5
  803bf4:	003f4f06 	br	803934 <__alt_mem_onchip_ram+0xff7ff934>
  803bf8:	01403f84 	movi	r5,254
  803bfc:	00c01f84 	movi	r3,126
  803c00:	003f4c06 	br	803934 <__alt_mem_onchip_ram+0xff7ff934>
  803c04:	98800117 	ldw	r2,4(r19)
  803c08:	003fa006 	br	803a8c <__alt_mem_onchip_ram+0xff7ffa8c>
  803c0c:	8808d0fa 	srli	r4,r17,3
  803c10:	20800044 	addi	r2,r4,1
  803c14:	1085883a 	add	r2,r2,r2
  803c18:	003e9006 	br	80365c <__alt_mem_onchip_ram+0xff7ff65c>

00803c1c <_mbrtowc_r>:
  803c1c:	defff704 	addi	sp,sp,-36
  803c20:	00802074 	movhi	r2,129
  803c24:	dc800715 	stw	r18,28(sp)
  803c28:	dc400615 	stw	r17,24(sp)
  803c2c:	dc000515 	stw	r16,20(sp)
  803c30:	109ad804 	addi	r2,r2,27488
  803c34:	dfc00815 	stw	ra,32(sp)
  803c38:	2021883a 	mov	r16,r4
  803c3c:	dc400917 	ldw	r17,36(sp)
  803c40:	14800017 	ldw	r18,0(r2)
  803c44:	30001626 	beq	r6,zero,803ca0 <_mbrtowc_r+0x84>
  803c48:	d9400215 	stw	r5,8(sp)
  803c4c:	d9800315 	stw	r6,12(sp)
  803c50:	d9c00415 	stw	r7,16(sp)
  803c54:	08031f40 	call	8031f4 <__locale_charset>
  803c58:	d9c00417 	ldw	r7,16(sp)
  803c5c:	d9800317 	ldw	r6,12(sp)
  803c60:	d9400217 	ldw	r5,8(sp)
  803c64:	d8800015 	stw	r2,0(sp)
  803c68:	dc400115 	stw	r17,4(sp)
  803c6c:	8009883a 	mov	r4,r16
  803c70:	903ee83a 	callr	r18
  803c74:	00ffffc4 	movi	r3,-1
  803c78:	10c0031e 	bne	r2,r3,803c88 <_mbrtowc_r+0x6c>
  803c7c:	88000015 	stw	zero,0(r17)
  803c80:	00c02284 	movi	r3,138
  803c84:	80c00015 	stw	r3,0(r16)
  803c88:	dfc00817 	ldw	ra,32(sp)
  803c8c:	dc800717 	ldw	r18,28(sp)
  803c90:	dc400617 	ldw	r17,24(sp)
  803c94:	dc000517 	ldw	r16,20(sp)
  803c98:	dec00904 	addi	sp,sp,36
  803c9c:	f800283a 	ret
  803ca0:	08031f40 	call	8031f4 <__locale_charset>
  803ca4:	01802074 	movhi	r6,129
  803ca8:	31933604 	addi	r6,r6,19672
  803cac:	dc400115 	stw	r17,4(sp)
  803cb0:	d8800015 	stw	r2,0(sp)
  803cb4:	01c00044 	movi	r7,1
  803cb8:	000b883a 	mov	r5,zero
  803cbc:	8009883a 	mov	r4,r16
  803cc0:	903ee83a 	callr	r18
  803cc4:	003feb06 	br	803c74 <__alt_mem_onchip_ram+0xff7ffc74>

00803cc8 <mbrtowc>:
  803cc8:	defff704 	addi	sp,sp,-36
  803ccc:	00802074 	movhi	r2,129
  803cd0:	dc800415 	stw	r18,16(sp)
  803cd4:	dc400315 	stw	r17,12(sp)
  803cd8:	109ad304 	addi	r2,r2,27468
  803cdc:	dfc00815 	stw	ra,32(sp)
  803ce0:	dd400715 	stw	r21,28(sp)
  803ce4:	dd000615 	stw	r20,24(sp)
  803ce8:	dcc00515 	stw	r19,20(sp)
  803cec:	dc000215 	stw	r16,8(sp)
  803cf0:	3825883a 	mov	r18,r7
  803cf4:	14400017 	ldw	r17,0(r2)
  803cf8:	28001c26 	beq	r5,zero,803d6c <mbrtowc+0xa4>
  803cfc:	00802074 	movhi	r2,129
  803d00:	109ad804 	addi	r2,r2,27488
  803d04:	15400017 	ldw	r21,0(r2)
  803d08:	2821883a 	mov	r16,r5
  803d0c:	2027883a 	mov	r19,r4
  803d10:	3029883a 	mov	r20,r6
  803d14:	08031f40 	call	8031f4 <__locale_charset>
  803d18:	d8800015 	stw	r2,0(sp)
  803d1c:	dc800115 	stw	r18,4(sp)
  803d20:	a00f883a 	mov	r7,r20
  803d24:	800d883a 	mov	r6,r16
  803d28:	980b883a 	mov	r5,r19
  803d2c:	8809883a 	mov	r4,r17
  803d30:	a83ee83a 	callr	r21
  803d34:	00ffffc4 	movi	r3,-1
  803d38:	10c0031e 	bne	r2,r3,803d48 <mbrtowc+0x80>
  803d3c:	90000015 	stw	zero,0(r18)
  803d40:	00c02284 	movi	r3,138
  803d44:	88c00015 	stw	r3,0(r17)
  803d48:	dfc00817 	ldw	ra,32(sp)
  803d4c:	dd400717 	ldw	r21,28(sp)
  803d50:	dd000617 	ldw	r20,24(sp)
  803d54:	dcc00517 	ldw	r19,20(sp)
  803d58:	dc800417 	ldw	r18,16(sp)
  803d5c:	dc400317 	ldw	r17,12(sp)
  803d60:	dc000217 	ldw	r16,8(sp)
  803d64:	dec00904 	addi	sp,sp,36
  803d68:	f800283a 	ret
  803d6c:	00802074 	movhi	r2,129
  803d70:	109ad804 	addi	r2,r2,27488
  803d74:	14000017 	ldw	r16,0(r2)
  803d78:	08031f40 	call	8031f4 <__locale_charset>
  803d7c:	01802074 	movhi	r6,129
  803d80:	31933604 	addi	r6,r6,19672
  803d84:	dc800115 	stw	r18,4(sp)
  803d88:	d8800015 	stw	r2,0(sp)
  803d8c:	01c00044 	movi	r7,1
  803d90:	000b883a 	mov	r5,zero
  803d94:	8809883a 	mov	r4,r17
  803d98:	803ee83a 	callr	r16
  803d9c:	003fe506 	br	803d34 <__alt_mem_onchip_ram+0xff7ffd34>

00803da0 <__ascii_mbtowc>:
  803da0:	deffff04 	addi	sp,sp,-4
  803da4:	28000826 	beq	r5,zero,803dc8 <__ascii_mbtowc+0x28>
  803da8:	30000926 	beq	r6,zero,803dd0 <__ascii_mbtowc+0x30>
  803dac:	38000b26 	beq	r7,zero,803ddc <__ascii_mbtowc+0x3c>
  803db0:	30800003 	ldbu	r2,0(r6)
  803db4:	28800015 	stw	r2,0(r5)
  803db8:	30800003 	ldbu	r2,0(r6)
  803dbc:	1004c03a 	cmpne	r2,r2,zero
  803dc0:	dec00104 	addi	sp,sp,4
  803dc4:	f800283a 	ret
  803dc8:	d80b883a 	mov	r5,sp
  803dcc:	303ff71e 	bne	r6,zero,803dac <__alt_mem_onchip_ram+0xff7ffdac>
  803dd0:	0005883a 	mov	r2,zero
  803dd4:	dec00104 	addi	sp,sp,4
  803dd8:	f800283a 	ret
  803ddc:	00bfff84 	movi	r2,-2
  803de0:	003ff706 	br	803dc0 <__alt_mem_onchip_ram+0xff7ffdc0>

00803de4 <_mbtowc_r>:
  803de4:	00802074 	movhi	r2,129
  803de8:	defff804 	addi	sp,sp,-32
  803dec:	109ad804 	addi	r2,r2,27488
  803df0:	dfc00715 	stw	ra,28(sp)
  803df4:	dc000615 	stw	r16,24(sp)
  803df8:	14000017 	ldw	r16,0(r2)
  803dfc:	d9000215 	stw	r4,8(sp)
  803e00:	d9400315 	stw	r5,12(sp)
  803e04:	d9800415 	stw	r6,16(sp)
  803e08:	d9c00515 	stw	r7,20(sp)
  803e0c:	08031f40 	call	8031f4 <__locale_charset>
  803e10:	d8800015 	stw	r2,0(sp)
  803e14:	d8800817 	ldw	r2,32(sp)
  803e18:	d9c00517 	ldw	r7,20(sp)
  803e1c:	d9800417 	ldw	r6,16(sp)
  803e20:	d9400317 	ldw	r5,12(sp)
  803e24:	d9000217 	ldw	r4,8(sp)
  803e28:	d8800115 	stw	r2,4(sp)
  803e2c:	803ee83a 	callr	r16
  803e30:	dfc00717 	ldw	ra,28(sp)
  803e34:	dc000617 	ldw	r16,24(sp)
  803e38:	dec00804 	addi	sp,sp,32
  803e3c:	f800283a 	ret

00803e40 <memcpy>:
  803e40:	defffd04 	addi	sp,sp,-12
  803e44:	dfc00215 	stw	ra,8(sp)
  803e48:	dc400115 	stw	r17,4(sp)
  803e4c:	dc000015 	stw	r16,0(sp)
  803e50:	00c003c4 	movi	r3,15
  803e54:	2005883a 	mov	r2,r4
  803e58:	1980452e 	bgeu	r3,r6,803f70 <memcpy+0x130>
  803e5c:	2906b03a 	or	r3,r5,r4
  803e60:	18c000cc 	andi	r3,r3,3
  803e64:	1800441e 	bne	r3,zero,803f78 <memcpy+0x138>
  803e68:	347ffc04 	addi	r17,r6,-16
  803e6c:	8822d13a 	srli	r17,r17,4
  803e70:	28c00104 	addi	r3,r5,4
  803e74:	23400104 	addi	r13,r4,4
  803e78:	8820913a 	slli	r16,r17,4
  803e7c:	2b000204 	addi	r12,r5,8
  803e80:	22c00204 	addi	r11,r4,8
  803e84:	84000504 	addi	r16,r16,20
  803e88:	2a800304 	addi	r10,r5,12
  803e8c:	22400304 	addi	r9,r4,12
  803e90:	2c21883a 	add	r16,r5,r16
  803e94:	2811883a 	mov	r8,r5
  803e98:	200f883a 	mov	r7,r4
  803e9c:	41000017 	ldw	r4,0(r8)
  803ea0:	1fc00017 	ldw	ra,0(r3)
  803ea4:	63c00017 	ldw	r15,0(r12)
  803ea8:	39000015 	stw	r4,0(r7)
  803eac:	53800017 	ldw	r14,0(r10)
  803eb0:	6fc00015 	stw	ra,0(r13)
  803eb4:	5bc00015 	stw	r15,0(r11)
  803eb8:	4b800015 	stw	r14,0(r9)
  803ebc:	18c00404 	addi	r3,r3,16
  803ec0:	39c00404 	addi	r7,r7,16
  803ec4:	42000404 	addi	r8,r8,16
  803ec8:	6b400404 	addi	r13,r13,16
  803ecc:	63000404 	addi	r12,r12,16
  803ed0:	5ac00404 	addi	r11,r11,16
  803ed4:	52800404 	addi	r10,r10,16
  803ed8:	4a400404 	addi	r9,r9,16
  803edc:	1c3fef1e 	bne	r3,r16,803e9c <__alt_mem_onchip_ram+0xff7ffe9c>
  803ee0:	89c00044 	addi	r7,r17,1
  803ee4:	380e913a 	slli	r7,r7,4
  803ee8:	310003cc 	andi	r4,r6,15
  803eec:	02c000c4 	movi	r11,3
  803ef0:	11c7883a 	add	r3,r2,r7
  803ef4:	29cb883a 	add	r5,r5,r7
  803ef8:	5900212e 	bgeu	r11,r4,803f80 <memcpy+0x140>
  803efc:	1813883a 	mov	r9,r3
  803f00:	2811883a 	mov	r8,r5
  803f04:	200f883a 	mov	r7,r4
  803f08:	42800017 	ldw	r10,0(r8)
  803f0c:	4a400104 	addi	r9,r9,4
  803f10:	39ffff04 	addi	r7,r7,-4
  803f14:	4abfff15 	stw	r10,-4(r9)
  803f18:	42000104 	addi	r8,r8,4
  803f1c:	59fffa36 	bltu	r11,r7,803f08 <__alt_mem_onchip_ram+0xff7fff08>
  803f20:	213fff04 	addi	r4,r4,-4
  803f24:	2008d0ba 	srli	r4,r4,2
  803f28:	318000cc 	andi	r6,r6,3
  803f2c:	21000044 	addi	r4,r4,1
  803f30:	2109883a 	add	r4,r4,r4
  803f34:	2109883a 	add	r4,r4,r4
  803f38:	1907883a 	add	r3,r3,r4
  803f3c:	290b883a 	add	r5,r5,r4
  803f40:	30000626 	beq	r6,zero,803f5c <memcpy+0x11c>
  803f44:	198d883a 	add	r6,r3,r6
  803f48:	29c00003 	ldbu	r7,0(r5)
  803f4c:	18c00044 	addi	r3,r3,1
  803f50:	29400044 	addi	r5,r5,1
  803f54:	19ffffc5 	stb	r7,-1(r3)
  803f58:	19bffb1e 	bne	r3,r6,803f48 <__alt_mem_onchip_ram+0xff7fff48>
  803f5c:	dfc00217 	ldw	ra,8(sp)
  803f60:	dc400117 	ldw	r17,4(sp)
  803f64:	dc000017 	ldw	r16,0(sp)
  803f68:	dec00304 	addi	sp,sp,12
  803f6c:	f800283a 	ret
  803f70:	2007883a 	mov	r3,r4
  803f74:	003ff206 	br	803f40 <__alt_mem_onchip_ram+0xff7fff40>
  803f78:	2007883a 	mov	r3,r4
  803f7c:	003ff106 	br	803f44 <__alt_mem_onchip_ram+0xff7fff44>
  803f80:	200d883a 	mov	r6,r4
  803f84:	003fee06 	br	803f40 <__alt_mem_onchip_ram+0xff7fff40>

00803f88 <memset>:
  803f88:	20c000cc 	andi	r3,r4,3
  803f8c:	2005883a 	mov	r2,r4
  803f90:	18004426 	beq	r3,zero,8040a4 <memset+0x11c>
  803f94:	31ffffc4 	addi	r7,r6,-1
  803f98:	30004026 	beq	r6,zero,80409c <memset+0x114>
  803f9c:	2813883a 	mov	r9,r5
  803fa0:	200d883a 	mov	r6,r4
  803fa4:	2007883a 	mov	r3,r4
  803fa8:	00000406 	br	803fbc <memset+0x34>
  803fac:	3a3fffc4 	addi	r8,r7,-1
  803fb0:	31800044 	addi	r6,r6,1
  803fb4:	38003926 	beq	r7,zero,80409c <memset+0x114>
  803fb8:	400f883a 	mov	r7,r8
  803fbc:	18c00044 	addi	r3,r3,1
  803fc0:	32400005 	stb	r9,0(r6)
  803fc4:	1a0000cc 	andi	r8,r3,3
  803fc8:	403ff81e 	bne	r8,zero,803fac <__alt_mem_onchip_ram+0xff7fffac>
  803fcc:	010000c4 	movi	r4,3
  803fd0:	21c02d2e 	bgeu	r4,r7,804088 <memset+0x100>
  803fd4:	29003fcc 	andi	r4,r5,255
  803fd8:	200c923a 	slli	r6,r4,8
  803fdc:	3108b03a 	or	r4,r6,r4
  803fe0:	200c943a 	slli	r6,r4,16
  803fe4:	218cb03a 	or	r6,r4,r6
  803fe8:	010003c4 	movi	r4,15
  803fec:	21c0182e 	bgeu	r4,r7,804050 <memset+0xc8>
  803ff0:	3b3ffc04 	addi	r12,r7,-16
  803ff4:	6018d13a 	srli	r12,r12,4
  803ff8:	1a000104 	addi	r8,r3,4
  803ffc:	1ac00204 	addi	r11,r3,8
  804000:	6008913a 	slli	r4,r12,4
  804004:	1a800304 	addi	r10,r3,12
  804008:	1813883a 	mov	r9,r3
  80400c:	21000504 	addi	r4,r4,20
  804010:	1909883a 	add	r4,r3,r4
  804014:	49800015 	stw	r6,0(r9)
  804018:	41800015 	stw	r6,0(r8)
  80401c:	59800015 	stw	r6,0(r11)
  804020:	51800015 	stw	r6,0(r10)
  804024:	42000404 	addi	r8,r8,16
  804028:	4a400404 	addi	r9,r9,16
  80402c:	5ac00404 	addi	r11,r11,16
  804030:	52800404 	addi	r10,r10,16
  804034:	413ff71e 	bne	r8,r4,804014 <__alt_mem_onchip_ram+0xff800014>
  804038:	63000044 	addi	r12,r12,1
  80403c:	6018913a 	slli	r12,r12,4
  804040:	39c003cc 	andi	r7,r7,15
  804044:	010000c4 	movi	r4,3
  804048:	1b07883a 	add	r3,r3,r12
  80404c:	21c00e2e 	bgeu	r4,r7,804088 <memset+0x100>
  804050:	1813883a 	mov	r9,r3
  804054:	3811883a 	mov	r8,r7
  804058:	010000c4 	movi	r4,3
  80405c:	49800015 	stw	r6,0(r9)
  804060:	423fff04 	addi	r8,r8,-4
  804064:	4a400104 	addi	r9,r9,4
  804068:	223ffc36 	bltu	r4,r8,80405c <__alt_mem_onchip_ram+0xff80005c>
  80406c:	393fff04 	addi	r4,r7,-4
  804070:	2008d0ba 	srli	r4,r4,2
  804074:	39c000cc 	andi	r7,r7,3
  804078:	21000044 	addi	r4,r4,1
  80407c:	2109883a 	add	r4,r4,r4
  804080:	2109883a 	add	r4,r4,r4
  804084:	1907883a 	add	r3,r3,r4
  804088:	38000526 	beq	r7,zero,8040a0 <memset+0x118>
  80408c:	19cf883a 	add	r7,r3,r7
  804090:	19400005 	stb	r5,0(r3)
  804094:	18c00044 	addi	r3,r3,1
  804098:	38fffd1e 	bne	r7,r3,804090 <__alt_mem_onchip_ram+0xff800090>
  80409c:	f800283a 	ret
  8040a0:	f800283a 	ret
  8040a4:	2007883a 	mov	r3,r4
  8040a8:	300f883a 	mov	r7,r6
  8040ac:	003fc706 	br	803fcc <__alt_mem_onchip_ram+0xff7fffcc>

008040b0 <lflush>:
  8040b0:	2080030b 	ldhu	r2,12(r4)
  8040b4:	00c00244 	movi	r3,9
  8040b8:	1080024c 	andi	r2,r2,9
  8040bc:	10c00226 	beq	r2,r3,8040c8 <lflush+0x18>
  8040c0:	0005883a 	mov	r2,zero
  8040c4:	f800283a 	ret
  8040c8:	080253c1 	jmpi	80253c <fflush>

008040cc <__srefill_r>:
  8040cc:	defffc04 	addi	sp,sp,-16
  8040d0:	dc400115 	stw	r17,4(sp)
  8040d4:	dc000015 	stw	r16,0(sp)
  8040d8:	dfc00315 	stw	ra,12(sp)
  8040dc:	dc800215 	stw	r18,8(sp)
  8040e0:	2023883a 	mov	r17,r4
  8040e4:	2821883a 	mov	r16,r5
  8040e8:	20000226 	beq	r4,zero,8040f4 <__srefill_r+0x28>
  8040ec:	20800e17 	ldw	r2,56(r4)
  8040f0:	10003c26 	beq	r2,zero,8041e4 <__srefill_r+0x118>
  8040f4:	80c0030b 	ldhu	r3,12(r16)
  8040f8:	1908000c 	andi	r4,r3,8192
  8040fc:	1805883a 	mov	r2,r3
  804100:	2000071e 	bne	r4,zero,804120 <__srefill_r+0x54>
  804104:	81001917 	ldw	r4,100(r16)
  804108:	18880014 	ori	r2,r3,8192
  80410c:	00f7ffc4 	movi	r3,-8193
  804110:	20c8703a 	and	r4,r4,r3
  804114:	8080030d 	sth	r2,12(r16)
  804118:	1007883a 	mov	r3,r2
  80411c:	81001915 	stw	r4,100(r16)
  804120:	80000115 	stw	zero,4(r16)
  804124:	1100080c 	andi	r4,r2,32
  804128:	2000571e 	bne	r4,zero,804288 <__srefill_r+0x1bc>
  80412c:	1100010c 	andi	r4,r2,4
  804130:	20001f26 	beq	r4,zero,8041b0 <__srefill_r+0xe4>
  804134:	81400c17 	ldw	r5,48(r16)
  804138:	28000826 	beq	r5,zero,80415c <__srefill_r+0x90>
  80413c:	80801004 	addi	r2,r16,64
  804140:	28800226 	beq	r5,r2,80414c <__srefill_r+0x80>
  804144:	8809883a 	mov	r4,r17
  804148:	0802cb00 	call	802cb0 <_free_r>
  80414c:	80800f17 	ldw	r2,60(r16)
  804150:	80000c15 	stw	zero,48(r16)
  804154:	80800115 	stw	r2,4(r16)
  804158:	1000391e 	bne	r2,zero,804240 <__srefill_r+0x174>
  80415c:	80800417 	ldw	r2,16(r16)
  804160:	10004b26 	beq	r2,zero,804290 <__srefill_r+0x1c4>
  804164:	8480030b 	ldhu	r18,12(r16)
  804168:	908000cc 	andi	r2,r18,3
  80416c:	10001f1e 	bne	r2,zero,8041ec <__srefill_r+0x120>
  804170:	81800417 	ldw	r6,16(r16)
  804174:	80800817 	ldw	r2,32(r16)
  804178:	81c00517 	ldw	r7,20(r16)
  80417c:	81400717 	ldw	r5,28(r16)
  804180:	81800015 	stw	r6,0(r16)
  804184:	8809883a 	mov	r4,r17
  804188:	103ee83a 	callr	r2
  80418c:	80800115 	stw	r2,4(r16)
  804190:	00800e0e 	bge	zero,r2,8041cc <__srefill_r+0x100>
  804194:	0005883a 	mov	r2,zero
  804198:	dfc00317 	ldw	ra,12(sp)
  80419c:	dc800217 	ldw	r18,8(sp)
  8041a0:	dc400117 	ldw	r17,4(sp)
  8041a4:	dc000017 	ldw	r16,0(sp)
  8041a8:	dec00404 	addi	sp,sp,16
  8041ac:	f800283a 	ret
  8041b0:	1100040c 	andi	r4,r2,16
  8041b4:	20003026 	beq	r4,zero,804278 <__srefill_r+0x1ac>
  8041b8:	1080020c 	andi	r2,r2,8
  8041bc:	1000241e 	bne	r2,zero,804250 <__srefill_r+0x184>
  8041c0:	18c00114 	ori	r3,r3,4
  8041c4:	80c0030d 	sth	r3,12(r16)
  8041c8:	003fe406 	br	80415c <__alt_mem_onchip_ram+0xff80015c>
  8041cc:	80c0030b 	ldhu	r3,12(r16)
  8041d0:	1000161e 	bne	r2,zero,80422c <__srefill_r+0x160>
  8041d4:	18c00814 	ori	r3,r3,32
  8041d8:	00bfffc4 	movi	r2,-1
  8041dc:	80c0030d 	sth	r3,12(r16)
  8041e0:	003fed06 	br	804198 <__alt_mem_onchip_ram+0xff800198>
  8041e4:	08028cc0 	call	8028cc <__sinit>
  8041e8:	003fc206 	br	8040f4 <__alt_mem_onchip_ram+0xff8000f4>
  8041ec:	00802074 	movhi	r2,129
  8041f0:	109ad204 	addi	r2,r2,27464
  8041f4:	11000017 	ldw	r4,0(r2)
  8041f8:	01402034 	movhi	r5,128
  8041fc:	00800044 	movi	r2,1
  804200:	29502c04 	addi	r5,r5,16560
  804204:	8080030d 	sth	r2,12(r16)
  804208:	0802fc00 	call	802fc0 <_fwalk>
  80420c:	00800244 	movi	r2,9
  804210:	8480030d 	sth	r18,12(r16)
  804214:	9480024c 	andi	r18,r18,9
  804218:	90bfd51e 	bne	r18,r2,804170 <__alt_mem_onchip_ram+0xff800170>
  80421c:	800b883a 	mov	r5,r16
  804220:	8809883a 	mov	r4,r17
  804224:	08022c40 	call	8022c4 <__sflush_r>
  804228:	003fd106 	br	804170 <__alt_mem_onchip_ram+0xff800170>
  80422c:	18c01014 	ori	r3,r3,64
  804230:	80000115 	stw	zero,4(r16)
  804234:	00bfffc4 	movi	r2,-1
  804238:	80c0030d 	sth	r3,12(r16)
  80423c:	003fd606 	br	804198 <__alt_mem_onchip_ram+0xff800198>
  804240:	80c00e17 	ldw	r3,56(r16)
  804244:	0005883a 	mov	r2,zero
  804248:	80c00015 	stw	r3,0(r16)
  80424c:	003fd206 	br	804198 <__alt_mem_onchip_ram+0xff800198>
  804250:	800b883a 	mov	r5,r16
  804254:	8809883a 	mov	r4,r17
  804258:	08024e00 	call	8024e0 <_fflush_r>
  80425c:	10000a1e 	bne	r2,zero,804288 <__srefill_r+0x1bc>
  804260:	8080030b 	ldhu	r2,12(r16)
  804264:	00fffdc4 	movi	r3,-9
  804268:	80000215 	stw	zero,8(r16)
  80426c:	1886703a 	and	r3,r3,r2
  804270:	80000615 	stw	zero,24(r16)
  804274:	003fd206 	br	8041c0 <__alt_mem_onchip_ram+0xff8001c0>
  804278:	00800244 	movi	r2,9
  80427c:	88800015 	stw	r2,0(r17)
  804280:	18c01014 	ori	r3,r3,64
  804284:	80c0030d 	sth	r3,12(r16)
  804288:	00bfffc4 	movi	r2,-1
  80428c:	003fc206 	br	804198 <__alt_mem_onchip_ram+0xff800198>
  804290:	800b883a 	mov	r5,r16
  804294:	8809883a 	mov	r4,r17
  804298:	08032540 	call	803254 <__smakebuf_r>
  80429c:	003fb106 	br	804164 <__alt_mem_onchip_ram+0xff800164>

008042a0 <__fpclassifyd>:
  8042a0:	00a00034 	movhi	r2,32768
  8042a4:	10bfffc4 	addi	r2,r2,-1
  8042a8:	2884703a 	and	r2,r5,r2
  8042ac:	10000726 	beq	r2,zero,8042cc <__fpclassifyd+0x2c>
  8042b0:	00fffc34 	movhi	r3,65520
  8042b4:	019ff834 	movhi	r6,32736
  8042b8:	28c7883a 	add	r3,r5,r3
  8042bc:	31bfffc4 	addi	r6,r6,-1
  8042c0:	30c00536 	bltu	r6,r3,8042d8 <__fpclassifyd+0x38>
  8042c4:	00800104 	movi	r2,4
  8042c8:	f800283a 	ret
  8042cc:	2000021e 	bne	r4,zero,8042d8 <__fpclassifyd+0x38>
  8042d0:	00800084 	movi	r2,2
  8042d4:	f800283a 	ret
  8042d8:	00dffc34 	movhi	r3,32752
  8042dc:	019ff834 	movhi	r6,32736
  8042e0:	28cb883a 	add	r5,r5,r3
  8042e4:	31bfffc4 	addi	r6,r6,-1
  8042e8:	317ff62e 	bgeu	r6,r5,8042c4 <__alt_mem_onchip_ram+0xff8002c4>
  8042ec:	01400434 	movhi	r5,16
  8042f0:	297fffc4 	addi	r5,r5,-1
  8042f4:	28800236 	bltu	r5,r2,804300 <__fpclassifyd+0x60>
  8042f8:	008000c4 	movi	r2,3
  8042fc:	f800283a 	ret
  804300:	10c00226 	beq	r2,r3,80430c <__fpclassifyd+0x6c>
  804304:	0005883a 	mov	r2,zero
  804308:	f800283a 	ret
  80430c:	2005003a 	cmpeq	r2,r4,zero
  804310:	f800283a 	ret

00804314 <_sbrk_r>:
  804314:	defffd04 	addi	sp,sp,-12
  804318:	dc000015 	stw	r16,0(sp)
  80431c:	040020b4 	movhi	r16,130
  804320:	dc400115 	stw	r17,4(sp)
  804324:	8421a504 	addi	r16,r16,-31084
  804328:	2023883a 	mov	r17,r4
  80432c:	2809883a 	mov	r4,r5
  804330:	dfc00215 	stw	ra,8(sp)
  804334:	80000015 	stw	zero,0(r16)
  804338:	08129ec0 	call	8129ec <sbrk>
  80433c:	00ffffc4 	movi	r3,-1
  804340:	10c00526 	beq	r2,r3,804358 <_sbrk_r+0x44>
  804344:	dfc00217 	ldw	ra,8(sp)
  804348:	dc400117 	ldw	r17,4(sp)
  80434c:	dc000017 	ldw	r16,0(sp)
  804350:	dec00304 	addi	sp,sp,12
  804354:	f800283a 	ret
  804358:	80c00017 	ldw	r3,0(r16)
  80435c:	183ff926 	beq	r3,zero,804344 <__alt_mem_onchip_ram+0xff800344>
  804360:	88c00015 	stw	r3,0(r17)
  804364:	003ff706 	br	804344 <__alt_mem_onchip_ram+0xff800344>

00804368 <__sccl>:
  804368:	2a000003 	ldbu	r8,0(r5)
  80436c:	00801784 	movi	r2,94
  804370:	40802a26 	beq	r8,r2,80441c <__sccl+0xb4>
  804374:	29400044 	addi	r5,r5,1
  804378:	000f883a 	mov	r7,zero
  80437c:	0013883a 	mov	r9,zero
  804380:	2007883a 	mov	r3,r4
  804384:	21804004 	addi	r6,r4,256
  804388:	19c00005 	stb	r7,0(r3)
  80438c:	18c00044 	addi	r3,r3,1
  804390:	19bffd1e 	bne	r3,r6,804388 <__alt_mem_onchip_ram+0xff800388>
  804394:	40001126 	beq	r8,zero,8043dc <__sccl+0x74>
  804398:	00800044 	movi	r2,1
  80439c:	124fc83a 	sub	r7,r2,r9
  8043a0:	02800b44 	movi	r10,45
  8043a4:	02c01744 	movi	r11,93
  8043a8:	2205883a 	add	r2,r4,r8
  8043ac:	11c00005 	stb	r7,0(r2)
  8043b0:	28800044 	addi	r2,r5,1
  8043b4:	28c00003 	ldbu	r3,0(r5)
  8043b8:	1a800a26 	beq	r3,r10,8043e4 <__sccl+0x7c>
  8043bc:	1ac00426 	beq	r3,r11,8043d0 <__sccl+0x68>
  8043c0:	18000426 	beq	r3,zero,8043d4 <__sccl+0x6c>
  8043c4:	1811883a 	mov	r8,r3
  8043c8:	100b883a 	mov	r5,r2
  8043cc:	003ff606 	br	8043a8 <__alt_mem_onchip_ram+0xff8003a8>
  8043d0:	f800283a 	ret
  8043d4:	2805883a 	mov	r2,r5
  8043d8:	f800283a 	ret
  8043dc:	28bfffc4 	addi	r2,r5,-1
  8043e0:	f800283a 	ret
  8043e4:	12400003 	ldbu	r9,0(r2)
  8043e8:	4ac01126 	beq	r9,r11,804430 <__sccl+0xc8>
  8043ec:	4a001016 	blt	r9,r8,804430 <__sccl+0xc8>
  8043f0:	41800044 	addi	r6,r8,1
  8043f4:	29400084 	addi	r5,r5,2
  8043f8:	2187883a 	add	r3,r4,r6
  8043fc:	00000106 	br	804404 <__sccl+0x9c>
  804400:	31800044 	addi	r6,r6,1
  804404:	19c00005 	stb	r7,0(r3)
  804408:	3011883a 	mov	r8,r6
  80440c:	18c00044 	addi	r3,r3,1
  804410:	327ffb16 	blt	r6,r9,804400 <__alt_mem_onchip_ram+0xff800400>
  804414:	10800084 	addi	r2,r2,2
  804418:	003fe606 	br	8043b4 <__alt_mem_onchip_ram+0xff8003b4>
  80441c:	2a000043 	ldbu	r8,1(r5)
  804420:	01c00044 	movi	r7,1
  804424:	29400084 	addi	r5,r5,2
  804428:	02400044 	movi	r9,1
  80442c:	003fd406 	br	804380 <__alt_mem_onchip_ram+0xff800380>
  804430:	5011883a 	mov	r8,r10
  804434:	003fe406 	br	8043c8 <__alt_mem_onchip_ram+0xff8003c8>

00804438 <nanf>:
  804438:	009ff034 	movhi	r2,32704
  80443c:	f800283a 	ret

00804440 <_sprintf_r>:
  804440:	deffe404 	addi	sp,sp,-112
  804444:	2807883a 	mov	r3,r5
  804448:	dfc01a15 	stw	ra,104(sp)
  80444c:	d9c01b15 	stw	r7,108(sp)
  804450:	00a00034 	movhi	r2,32768
  804454:	10bfffc4 	addi	r2,r2,-1
  804458:	02008204 	movi	r8,520
  80445c:	d8800215 	stw	r2,8(sp)
  804460:	d8800515 	stw	r2,20(sp)
  804464:	d9c01b04 	addi	r7,sp,108
  804468:	d80b883a 	mov	r5,sp
  80446c:	00bfffc4 	movi	r2,-1
  804470:	d8c00015 	stw	r3,0(sp)
  804474:	d8c00415 	stw	r3,16(sp)
  804478:	da00030d 	sth	r8,12(sp)
  80447c:	d880038d 	sth	r2,14(sp)
  804480:	08069a80 	call	8069a8 <___svfprintf_internal_r>
  804484:	d8c00017 	ldw	r3,0(sp)
  804488:	18000005 	stb	zero,0(r3)
  80448c:	dfc01a17 	ldw	ra,104(sp)
  804490:	dec01c04 	addi	sp,sp,112
  804494:	f800283a 	ret

00804498 <sprintf>:
  804498:	deffe304 	addi	sp,sp,-116
  80449c:	2007883a 	mov	r3,r4
  8044a0:	dfc01a15 	stw	ra,104(sp)
  8044a4:	d9801b15 	stw	r6,108(sp)
  8044a8:	d9c01c15 	stw	r7,112(sp)
  8044ac:	01002074 	movhi	r4,129
  8044b0:	211ad304 	addi	r4,r4,27468
  8044b4:	21000017 	ldw	r4,0(r4)
  8044b8:	00a00034 	movhi	r2,32768
  8044bc:	10bfffc4 	addi	r2,r2,-1
  8044c0:	280d883a 	mov	r6,r5
  8044c4:	02008204 	movi	r8,520
  8044c8:	d8800215 	stw	r2,8(sp)
  8044cc:	d8800515 	stw	r2,20(sp)
  8044d0:	d9c01b04 	addi	r7,sp,108
  8044d4:	d80b883a 	mov	r5,sp
  8044d8:	00bfffc4 	movi	r2,-1
  8044dc:	d8c00015 	stw	r3,0(sp)
  8044e0:	d8c00415 	stw	r3,16(sp)
  8044e4:	da00030d 	sth	r8,12(sp)
  8044e8:	d880038d 	sth	r2,14(sp)
  8044ec:	08069a80 	call	8069a8 <___svfprintf_internal_r>
  8044f0:	d8c00017 	ldw	r3,0(sp)
  8044f4:	18000005 	stb	zero,0(r3)
  8044f8:	dfc01a17 	ldw	ra,104(sp)
  8044fc:	dec01d04 	addi	sp,sp,116
  804500:	f800283a 	ret

00804504 <__sread>:
  804504:	defffe04 	addi	sp,sp,-8
  804508:	dc000015 	stw	r16,0(sp)
  80450c:	2821883a 	mov	r16,r5
  804510:	2940038f 	ldh	r5,14(r5)
  804514:	dfc00115 	stw	ra,4(sp)
  804518:	080c7ac0 	call	80c7ac <_read_r>
  80451c:	10000716 	blt	r2,zero,80453c <__sread+0x38>
  804520:	80c01417 	ldw	r3,80(r16)
  804524:	1887883a 	add	r3,r3,r2
  804528:	80c01415 	stw	r3,80(r16)
  80452c:	dfc00117 	ldw	ra,4(sp)
  804530:	dc000017 	ldw	r16,0(sp)
  804534:	dec00204 	addi	sp,sp,8
  804538:	f800283a 	ret
  80453c:	80c0030b 	ldhu	r3,12(r16)
  804540:	18fbffcc 	andi	r3,r3,61439
  804544:	80c0030d 	sth	r3,12(r16)
  804548:	dfc00117 	ldw	ra,4(sp)
  80454c:	dc000017 	ldw	r16,0(sp)
  804550:	dec00204 	addi	sp,sp,8
  804554:	f800283a 	ret

00804558 <__seofread>:
  804558:	0005883a 	mov	r2,zero
  80455c:	f800283a 	ret

00804560 <__swrite>:
  804560:	2880030b 	ldhu	r2,12(r5)
  804564:	defffb04 	addi	sp,sp,-20
  804568:	dcc00315 	stw	r19,12(sp)
  80456c:	dc800215 	stw	r18,8(sp)
  804570:	dc400115 	stw	r17,4(sp)
  804574:	dc000015 	stw	r16,0(sp)
  804578:	dfc00415 	stw	ra,16(sp)
  80457c:	10c0400c 	andi	r3,r2,256
  804580:	2821883a 	mov	r16,r5
  804584:	2023883a 	mov	r17,r4
  804588:	3025883a 	mov	r18,r6
  80458c:	3827883a 	mov	r19,r7
  804590:	18000526 	beq	r3,zero,8045a8 <__swrite+0x48>
  804594:	2940038f 	ldh	r5,14(r5)
  804598:	01c00084 	movi	r7,2
  80459c:	000d883a 	mov	r6,zero
  8045a0:	080b5b00 	call	80b5b0 <_lseek_r>
  8045a4:	8080030b 	ldhu	r2,12(r16)
  8045a8:	8140038f 	ldh	r5,14(r16)
  8045ac:	10bbffcc 	andi	r2,r2,61439
  8045b0:	980f883a 	mov	r7,r19
  8045b4:	900d883a 	mov	r6,r18
  8045b8:	8809883a 	mov	r4,r17
  8045bc:	8080030d 	sth	r2,12(r16)
  8045c0:	dfc00417 	ldw	ra,16(sp)
  8045c4:	dcc00317 	ldw	r19,12(sp)
  8045c8:	dc800217 	ldw	r18,8(sp)
  8045cc:	dc400117 	ldw	r17,4(sp)
  8045d0:	dc000017 	ldw	r16,0(sp)
  8045d4:	dec00504 	addi	sp,sp,20
  8045d8:	0808ee41 	jmpi	808ee4 <_write_r>

008045dc <__sseek>:
  8045dc:	defffe04 	addi	sp,sp,-8
  8045e0:	dc000015 	stw	r16,0(sp)
  8045e4:	2821883a 	mov	r16,r5
  8045e8:	2940038f 	ldh	r5,14(r5)
  8045ec:	dfc00115 	stw	ra,4(sp)
  8045f0:	080b5b00 	call	80b5b0 <_lseek_r>
  8045f4:	00ffffc4 	movi	r3,-1
  8045f8:	10c00826 	beq	r2,r3,80461c <__sseek+0x40>
  8045fc:	80c0030b 	ldhu	r3,12(r16)
  804600:	80801415 	stw	r2,80(r16)
  804604:	18c40014 	ori	r3,r3,4096
  804608:	80c0030d 	sth	r3,12(r16)
  80460c:	dfc00117 	ldw	ra,4(sp)
  804610:	dc000017 	ldw	r16,0(sp)
  804614:	dec00204 	addi	sp,sp,8
  804618:	f800283a 	ret
  80461c:	80c0030b 	ldhu	r3,12(r16)
  804620:	18fbffcc 	andi	r3,r3,61439
  804624:	80c0030d 	sth	r3,12(r16)
  804628:	dfc00117 	ldw	ra,4(sp)
  80462c:	dc000017 	ldw	r16,0(sp)
  804630:	dec00204 	addi	sp,sp,8
  804634:	f800283a 	ret

00804638 <__sclose>:
  804638:	2940038f 	ldh	r5,14(r5)
  80463c:	0808f441 	jmpi	808f44 <_close_r>

00804640 <strcmp>:
  804640:	2144b03a 	or	r2,r4,r5
  804644:	108000cc 	andi	r2,r2,3
  804648:	1000171e 	bne	r2,zero,8046a8 <strcmp+0x68>
  80464c:	20800017 	ldw	r2,0(r4)
  804650:	28c00017 	ldw	r3,0(r5)
  804654:	10c0141e 	bne	r2,r3,8046a8 <strcmp+0x68>
  804658:	027fbff4 	movhi	r9,65279
  80465c:	4a7fbfc4 	addi	r9,r9,-257
  804660:	0086303a 	nor	r3,zero,r2
  804664:	02202074 	movhi	r8,32897
  804668:	1245883a 	add	r2,r2,r9
  80466c:	42202004 	addi	r8,r8,-32640
  804670:	10c4703a 	and	r2,r2,r3
  804674:	1204703a 	and	r2,r2,r8
  804678:	10000226 	beq	r2,zero,804684 <strcmp+0x44>
  80467c:	00002306 	br	80470c <strcmp+0xcc>
  804680:	1000221e 	bne	r2,zero,80470c <strcmp+0xcc>
  804684:	21000104 	addi	r4,r4,4
  804688:	20c00017 	ldw	r3,0(r4)
  80468c:	29400104 	addi	r5,r5,4
  804690:	29800017 	ldw	r6,0(r5)
  804694:	1a4f883a 	add	r7,r3,r9
  804698:	00c4303a 	nor	r2,zero,r3
  80469c:	3884703a 	and	r2,r7,r2
  8046a0:	1204703a 	and	r2,r2,r8
  8046a4:	19bff626 	beq	r3,r6,804680 <__alt_mem_onchip_ram+0xff800680>
  8046a8:	20800003 	ldbu	r2,0(r4)
  8046ac:	10c03fcc 	andi	r3,r2,255
  8046b0:	18c0201c 	xori	r3,r3,128
  8046b4:	18ffe004 	addi	r3,r3,-128
  8046b8:	18000c26 	beq	r3,zero,8046ec <strcmp+0xac>
  8046bc:	29800007 	ldb	r6,0(r5)
  8046c0:	19800326 	beq	r3,r6,8046d0 <strcmp+0x90>
  8046c4:	00001306 	br	804714 <strcmp+0xd4>
  8046c8:	29800007 	ldb	r6,0(r5)
  8046cc:	11800b1e 	bne	r2,r6,8046fc <strcmp+0xbc>
  8046d0:	21000044 	addi	r4,r4,1
  8046d4:	20c00003 	ldbu	r3,0(r4)
  8046d8:	29400044 	addi	r5,r5,1
  8046dc:	18803fcc 	andi	r2,r3,255
  8046e0:	1080201c 	xori	r2,r2,128
  8046e4:	10bfe004 	addi	r2,r2,-128
  8046e8:	103ff71e 	bne	r2,zero,8046c8 <__alt_mem_onchip_ram+0xff8006c8>
  8046ec:	0007883a 	mov	r3,zero
  8046f0:	28800003 	ldbu	r2,0(r5)
  8046f4:	1885c83a 	sub	r2,r3,r2
  8046f8:	f800283a 	ret
  8046fc:	28800003 	ldbu	r2,0(r5)
  804700:	18c03fcc 	andi	r3,r3,255
  804704:	1885c83a 	sub	r2,r3,r2
  804708:	f800283a 	ret
  80470c:	0005883a 	mov	r2,zero
  804710:	f800283a 	ret
  804714:	10c03fcc 	andi	r3,r2,255
  804718:	003ff506 	br	8046f0 <__alt_mem_onchip_ram+0xff8006f0>

0080471c <sulp>:
  80471c:	defffd04 	addi	sp,sp,-12
  804720:	dc400115 	stw	r17,4(sp)
  804724:	3023883a 	mov	r17,r6
  804728:	dc000015 	stw	r16,0(sp)
  80472c:	dfc00215 	stw	ra,8(sp)
  804730:	2821883a 	mov	r16,r5
  804734:	080c2d40 	call	80c2d4 <__ulp>
  804738:	88000c26 	beq	r17,zero,80476c <sulp+0x50>
  80473c:	841ffc2c 	andhi	r16,r16,32752
  804740:	8020d53a 	srli	r16,r16,20
  804744:	01c01ac4 	movi	r7,107
  804748:	3c21c83a 	sub	r16,r7,r16
  80474c:	0400070e 	bge	zero,r16,80476c <sulp+0x50>
  804750:	8020953a 	slli	r16,r16,20
  804754:	01cffc34 	movhi	r7,16368
  804758:	000d883a 	mov	r6,zero
  80475c:	81cf883a 	add	r7,r16,r7
  804760:	1009883a 	mov	r4,r2
  804764:	180b883a 	mov	r5,r3
  804768:	0810c6c0 	call	810c6c <__muldf3>
  80476c:	dfc00217 	ldw	ra,8(sp)
  804770:	dc400117 	ldw	r17,4(sp)
  804774:	dc000017 	ldw	r16,0(sp)
  804778:	dec00304 	addi	sp,sp,12
  80477c:	f800283a 	ret

00804780 <_strtod_r>:
  804780:	deffe204 	addi	sp,sp,-120
  804784:	ddc01b15 	stw	r23,108(sp)
  804788:	dd801a15 	stw	r22,104(sp)
  80478c:	dc401515 	stw	r17,84(sp)
  804790:	dfc01d15 	stw	ra,116(sp)
  804794:	df001c15 	stw	fp,112(sp)
  804798:	dd401915 	stw	r21,100(sp)
  80479c:	dd001815 	stw	r20,96(sp)
  8047a0:	dcc01715 	stw	r19,92(sp)
  8047a4:	dc801615 	stw	r18,88(sp)
  8047a8:	dc001415 	stw	r16,80(sp)
  8047ac:	d8000515 	stw	zero,20(sp)
  8047b0:	d9400615 	stw	r5,24(sp)
  8047b4:	2807883a 	mov	r3,r5
  8047b8:	1f000003 	ldbu	fp,0(r3)
  8047bc:	01c02034 	movhi	r7,128
  8047c0:	2023883a 	mov	r17,r4
  8047c4:	d9400715 	stw	r5,28(sp)
  8047c8:	d9800915 	stw	r6,36(sp)
  8047cc:	01000b44 	movi	r4,45
  8047d0:	e0803fcc 	andi	r2,fp,255
  8047d4:	39d1fd04 	addi	r7,r7,18420
  8047d8:	002f883a 	mov	r23,zero
  8047dc:	002d883a 	mov	r22,zero
  8047e0:	20809c36 	bltu	r4,r2,804a54 <_strtod_r+0x2d4>
  8047e4:	100490ba 	slli	r2,r2,2
  8047e8:	11c5883a 	add	r2,r2,r7
  8047ec:	10800017 	ldw	r2,0(r2)
  8047f0:	1000683a 	jmp	r2
  8047f4:	008048b4 	movhi	r2,290
  8047f8:	00804a54 	movui	r2,297
  8047fc:	00804a54 	movui	r2,297
  804800:	00804a54 	movui	r2,297
  804804:	00804a54 	movui	r2,297
  804808:	00804a54 	movui	r2,297
  80480c:	00804a54 	movui	r2,297
  804810:	00804a54 	movui	r2,297
  804814:	00804a54 	movui	r2,297
  804818:	00804a40 	call	804a4 <__reset-0x77fb5c>
  80481c:	00804a40 	call	804a4 <__reset-0x77fb5c>
  804820:	00804a40 	call	804a4 <__reset-0x77fb5c>
  804824:	00804a40 	call	804a4 <__reset-0x77fb5c>
  804828:	00804a40 	call	804a4 <__reset-0x77fb5c>
  80482c:	00804a54 	movui	r2,297
  804830:	00804a54 	movui	r2,297
  804834:	00804a54 	movui	r2,297
  804838:	00804a54 	movui	r2,297
  80483c:	00804a54 	movui	r2,297
  804840:	00804a54 	movui	r2,297
  804844:	00804a54 	movui	r2,297
  804848:	00804a54 	movui	r2,297
  80484c:	00804a54 	movui	r2,297
  804850:	00804a54 	movui	r2,297
  804854:	00804a54 	movui	r2,297
  804858:	00804a54 	movui	r2,297
  80485c:	00804a54 	movui	r2,297
  804860:	00804a54 	movui	r2,297
  804864:	00804a54 	movui	r2,297
  804868:	00804a54 	movui	r2,297
  80486c:	00804a54 	movui	r2,297
  804870:	00804a54 	movui	r2,297
  804874:	00804a40 	call	804a4 <__reset-0x77fb5c>
  804878:	00804a54 	movui	r2,297
  80487c:	00804a54 	movui	r2,297
  804880:	00804a54 	movui	r2,297
  804884:	00804a54 	movui	r2,297
  804888:	00804a54 	movui	r2,297
  80488c:	00804a54 	movui	r2,297
  804890:	00804a54 	movui	r2,297
  804894:	00804a54 	movui	r2,297
  804898:	00804a54 	movui	r2,297
  80489c:	00804a54 	movui	r2,297
  8048a0:	00804918 	cmpnei	r2,zero,292
  8048a4:	00804a54 	movui	r2,297
  8048a8:	00804a34 	movhi	r2,296
  8048ac:	00801244 	movi	r2,73
  8048b0:	b8844726 	beq	r23,r2,8059d0 <_strtod_r+0x1250>
  8048b4:	d9000917 	ldw	r4,36(sp)
  8048b8:	d8000815 	stw	zero,32(sp)
  8048bc:	0039883a 	mov	fp,zero
  8048c0:	20000726 	beq	r4,zero,8048e0 <_strtod_r+0x160>
  8048c4:	dc800717 	ldw	r18,28(sp)
  8048c8:	d8000a15 	stw	zero,40(sp)
  8048cc:	d9400917 	ldw	r5,36(sp)
  8048d0:	2c800015 	stw	r18,0(r5)
  8048d4:	d8800a17 	ldw	r2,40(sp)
  8048d8:	10000126 	beq	r2,zero,8048e0 <_strtod_r+0x160>
  8048dc:	e720003c 	xorhi	fp,fp,32768
  8048e0:	d8800817 	ldw	r2,32(sp)
  8048e4:	e007883a 	mov	r3,fp
  8048e8:	dfc01d17 	ldw	ra,116(sp)
  8048ec:	df001c17 	ldw	fp,112(sp)
  8048f0:	ddc01b17 	ldw	r23,108(sp)
  8048f4:	dd801a17 	ldw	r22,104(sp)
  8048f8:	dd401917 	ldw	r21,100(sp)
  8048fc:	dd001817 	ldw	r20,96(sp)
  804900:	dcc01717 	ldw	r19,92(sp)
  804904:	dc801617 	ldw	r18,88(sp)
  804908:	dc401517 	ldw	r17,84(sp)
  80490c:	dc001417 	ldw	r16,80(sp)
  804910:	dec01e04 	addi	sp,sp,120
  804914:	f800283a 	ret
  804918:	d8000a15 	stw	zero,40(sp)
  80491c:	1c000044 	addi	r16,r3,1
  804920:	dc000615 	stw	r16,24(sp)
  804924:	1f000043 	ldbu	fp,1(r3)
  804928:	e0803fcc 	andi	r2,fp,255
  80492c:	1080201c 	xori	r2,r2,128
  804930:	10bfe004 	addi	r2,r2,-128
  804934:	103fdf26 	beq	r2,zero,8048b4 <__alt_mem_onchip_ram+0xff8008b4>
  804938:	e1003fcc 	andi	r4,fp,255
  80493c:	2100201c 	xori	r4,r4,128
  804940:	213fe004 	addi	r4,r4,-128
  804944:	00800c04 	movi	r2,48
  804948:	2080d426 	beq	r4,r2,804c9c <_strtod_r+0x51c>
  80494c:	dc000815 	stw	r16,32(sp)
  804950:	d8000c15 	stw	zero,48(sp)
  804954:	e0bff404 	addi	r2,fp,-48
  804958:	10803fcc 	andi	r2,r2,255
  80495c:	05400244 	movi	r21,9
  804960:	a8837836 	bltu	r21,r2,805744 <_strtod_r+0xfc4>
  804964:	dc800817 	ldw	r18,32(sp)
  804968:	0029883a 	mov	r20,zero
  80496c:	0027883a 	mov	r19,zero
  804970:	0021883a 	mov	r16,zero
  804974:	05800204 	movi	r22,8
  804978:	b4003916 	blt	r22,r16,804a60 <_strtod_r+0x2e0>
  80497c:	e7003fcc 	andi	fp,fp,255
  804980:	9809883a 	mov	r4,r19
  804984:	01400284 	movi	r5,10
  804988:	e700201c 	xori	fp,fp,128
  80498c:	080f5740 	call	80f574 <__mulsi3>
  804990:	e73fe004 	addi	fp,fp,-128
  804994:	1705883a 	add	r2,r2,fp
  804998:	14fff404 	addi	r19,r2,-48
  80499c:	94800044 	addi	r18,r18,1
  8049a0:	dc800615 	stw	r18,24(sp)
  8049a4:	97000003 	ldbu	fp,0(r18)
  8049a8:	84000044 	addi	r16,r16,1
  8049ac:	e0bff404 	addi	r2,fp,-48
  8049b0:	10803fcc 	andi	r2,r2,255
  8049b4:	a8bff02e 	bgeu	r21,r2,804978 <__alt_mem_onchip_ram+0xff800978>
  8049b8:	e5c03fcc 	andi	r23,fp,255
  8049bc:	bdc0201c 	xori	r23,r23,128
  8049c0:	bdffe004 	addi	r23,r23,-128
  8049c4:	8809883a 	mov	r4,r17
  8049c8:	08032240 	call	803224 <_localeconv_r>
  8049cc:	8809883a 	mov	r4,r17
  8049d0:	15400017 	ldw	r21,0(r2)
  8049d4:	08032240 	call	803224 <_localeconv_r>
  8049d8:	11000017 	ldw	r4,0(r2)
  8049dc:	080cd700 	call	80cd70 <strlen>
  8049e0:	100d883a 	mov	r6,r2
  8049e4:	a80b883a 	mov	r5,r21
  8049e8:	9009883a 	mov	r4,r18
  8049ec:	080ce080 	call	80ce08 <strncmp>
  8049f0:	1000bd26 	beq	r2,zero,804ce8 <_strtod_r+0x568>
  8049f4:	8039883a 	mov	fp,r16
  8049f8:	002d883a 	mov	r22,zero
  8049fc:	d8000b15 	stw	zero,44(sp)
  804a00:	0025883a 	mov	r18,zero
  804a04:	00801944 	movi	r2,101
  804a08:	b8806026 	beq	r23,r2,804b8c <_strtod_r+0x40c>
  804a0c:	00801144 	movi	r2,69
  804a10:	b8805e26 	beq	r23,r2,804b8c <_strtod_r+0x40c>
  804a14:	0009883a 	mov	r4,zero
  804a18:	e0001a1e 	bne	fp,zero,804a84 <_strtod_r+0x304>
  804a1c:	b000cd26 	beq	r22,zero,804d54 <_strtod_r+0x5d4>
  804a20:	d8000815 	stw	zero,32(sp)
  804a24:	d9000917 	ldw	r4,36(sp)
  804a28:	203faa26 	beq	r4,zero,8048d4 <__alt_mem_onchip_ram+0xff8008d4>
  804a2c:	dc800617 	ldw	r18,24(sp)
  804a30:	003fa606 	br	8048cc <__alt_mem_onchip_ram+0xff8008cc>
  804a34:	00800044 	movi	r2,1
  804a38:	d8800a15 	stw	r2,40(sp)
  804a3c:	003fb706 	br	80491c <__alt_mem_onchip_ram+0xff80091c>
  804a40:	18c00044 	addi	r3,r3,1
  804a44:	d8c00615 	stw	r3,24(sp)
  804a48:	1f000003 	ldbu	fp,0(r3)
  804a4c:	e0803fcc 	andi	r2,fp,255
  804a50:	20bf642e 	bgeu	r4,r2,8047e4 <__alt_mem_onchip_ram+0xff8007e4>
  804a54:	1821883a 	mov	r16,r3
  804a58:	d8000a15 	stw	zero,40(sp)
  804a5c:	003fb606 	br	804938 <__alt_mem_onchip_ram+0xff800938>
  804a60:	e7003fcc 	andi	fp,fp,255
  804a64:	a009883a 	mov	r4,r20
  804a68:	01400284 	movi	r5,10
  804a6c:	e700201c 	xori	fp,fp,128
  804a70:	080f5740 	call	80f574 <__mulsi3>
  804a74:	e73fe004 	addi	fp,fp,-128
  804a78:	1705883a 	add	r2,r2,fp
  804a7c:	153ff404 	addi	r20,r2,-48
  804a80:	003fc606 	br	80499c <__alt_mem_onchip_ram+0xff80099c>
  804a84:	d8c00b17 	ldw	r3,44(sp)
  804a88:	20ebc83a 	sub	r21,r4,r3
  804a8c:	8000011e 	bne	r16,zero,804a94 <_strtod_r+0x314>
  804a90:	e021883a 	mov	r16,fp
  804a94:	00800404 	movi	r2,16
  804a98:	e025883a 	mov	r18,fp
  804a9c:	1700010e 	bge	r2,fp,804aa4 <_strtod_r+0x324>
  804aa0:	1025883a 	mov	r18,r2
  804aa4:	9809883a 	mov	r4,r19
  804aa8:	0811f2c0 	call	811f2c <__floatunsidf>
  804aac:	102f883a 	mov	r23,r2
  804ab0:	00800244 	movi	r2,9
  804ab4:	182d883a 	mov	r22,r3
  804ab8:	1480150e 	bge	r2,r18,804b10 <_strtod_r+0x390>
  804abc:	90bffdc4 	addi	r2,r18,-9
  804ac0:	100490fa 	slli	r2,r2,3
  804ac4:	180b883a 	mov	r5,r3
  804ac8:	00c02074 	movhi	r3,129
  804acc:	18d3a204 	addi	r3,r3,20104
  804ad0:	1885883a 	add	r2,r3,r2
  804ad4:	11800017 	ldw	r6,0(r2)
  804ad8:	11c00117 	ldw	r7,4(r2)
  804adc:	b809883a 	mov	r4,r23
  804ae0:	0810c6c0 	call	810c6c <__muldf3>
  804ae4:	a009883a 	mov	r4,r20
  804ae8:	102f883a 	mov	r23,r2
  804aec:	182d883a 	mov	r22,r3
  804af0:	0811f2c0 	call	811f2c <__floatunsidf>
  804af4:	b809883a 	mov	r4,r23
  804af8:	b00b883a 	mov	r5,r22
  804afc:	100d883a 	mov	r6,r2
  804b00:	180f883a 	mov	r7,r3
  804b04:	080f7980 	call	80f798 <__adddf3>
  804b08:	102f883a 	mov	r23,r2
  804b0c:	182d883a 	mov	r22,r3
  804b10:	008003c4 	movi	r2,15
  804b14:	17009416 	blt	r2,fp,804d68 <_strtod_r+0x5e8>
  804b18:	a8001926 	beq	r21,zero,804b80 <_strtod_r+0x400>
  804b1c:	05439c0e 	bge	zero,r21,805990 <_strtod_r+0x1210>
  804b20:	00c00584 	movi	r3,22
  804b24:	1d430f16 	blt	r3,r21,805764 <_strtod_r+0xfe4>
  804b28:	a82a90fa 	slli	r21,r21,3
  804b2c:	00802074 	movhi	r2,129
  804b30:	1093a204 	addi	r2,r2,20104
  804b34:	1545883a 	add	r2,r2,r21
  804b38:	11000017 	ldw	r4,0(r2)
  804b3c:	11400117 	ldw	r5,4(r2)
  804b40:	b80d883a 	mov	r6,r23
  804b44:	b00f883a 	mov	r7,r22
  804b48:	0810c6c0 	call	810c6c <__muldf3>
  804b4c:	d8800815 	stw	r2,32(sp)
  804b50:	1839883a 	mov	fp,r3
  804b54:	003fb306 	br	804a24 <__alt_mem_onchip_ram+0xff800a24>
  804b58:	01402074 	movhi	r5,129
  804b5c:	29531a04 	addi	r5,r5,19560
  804b60:	d9800204 	addi	r6,sp,8
  804b64:	d9000604 	addi	r4,sp,24
  804b68:	080b2f80 	call	80b2f8 <__hexnan>
  804b6c:	00c00144 	movi	r3,5
  804b70:	10c2161e 	bne	r2,r3,8053cc <_strtod_r+0xc4c>
  804b74:	dd800317 	ldw	r22,12(sp)
  804b78:	ddc00217 	ldw	r23,8(sp)
  804b7c:	b59ffc34 	orhi	r22,r22,32752
  804b80:	ddc00815 	stw	r23,32(sp)
  804b84:	b039883a 	mov	fp,r22
  804b88:	003fa606 	br	804a24 <__alt_mem_onchip_ram+0xff800a24>
  804b8c:	e001a926 	beq	fp,zero,805234 <_strtod_r+0xab4>
  804b90:	d8c00617 	ldw	r3,24(sp)
  804b94:	18800044 	addi	r2,r3,1
  804b98:	d8800615 	stw	r2,24(sp)
  804b9c:	d8c00715 	stw	r3,28(sp)
  804ba0:	18c00047 	ldb	r3,1(r3)
  804ba4:	00800ac4 	movi	r2,43
  804ba8:	1881e526 	beq	r3,r2,805340 <_strtod_r+0xbc0>
  804bac:	00800b44 	movi	r2,45
  804bb0:	1881dc26 	beq	r3,r2,805324 <_strtod_r+0xba4>
  804bb4:	182f883a 	mov	r23,r3
  804bb8:	d8000e15 	stw	zero,56(sp)
  804bbc:	b8bff404 	addi	r2,r23,-48
  804bc0:	01000244 	movi	r4,9
  804bc4:	2081ab36 	bltu	r4,r2,805274 <_strtod_r+0xaf4>
  804bc8:	00800c04 	movi	r2,48
  804bcc:	b880071e 	bne	r23,r2,804bec <_strtod_r+0x46c>
  804bd0:	d8800617 	ldw	r2,24(sp)
  804bd4:	b809883a 	mov	r4,r23
  804bd8:	10800044 	addi	r2,r2,1
  804bdc:	d8800615 	stw	r2,24(sp)
  804be0:	15c00007 	ldb	r23,0(r2)
  804be4:	10800044 	addi	r2,r2,1
  804be8:	b93ffc26 	beq	r23,r4,804bdc <__alt_mem_onchip_ram+0xff800bdc>
  804bec:	b8bff3c4 	addi	r2,r23,-49
  804bf0:	01000204 	movi	r4,8
  804bf4:	20bf8736 	bltu	r4,r2,804a14 <__alt_mem_onchip_ram+0xff800a14>
  804bf8:	d8c00617 	ldw	r3,24(sp)
  804bfc:	b93ff404 	addi	r4,r23,-48
  804c00:	01400244 	movi	r5,9
  804c04:	1ac00044 	addi	r11,r3,1
  804c08:	dac00615 	stw	r11,24(sp)
  804c0c:	d8c00d15 	stw	r3,52(sp)
  804c10:	18c00043 	ldbu	r3,1(r3)
  804c14:	18bff404 	addi	r2,r3,-48
  804c18:	1dc03fcc 	andi	r23,r3,255
  804c1c:	bdc0201c 	xori	r23,r23,128
  804c20:	10803fcc 	andi	r2,r2,255
  804c24:	bdffe004 	addi	r23,r23,-128
  804c28:	28801136 	bltu	r5,r2,804c70 <_strtod_r+0x4f0>
  804c2c:	d8c00d17 	ldw	r3,52(sp)
  804c30:	1d400084 	addi	r21,r3,2
  804c34:	01400284 	movi	r5,10
  804c38:	080f5740 	call	80f574 <__mulsi3>
  804c3c:	dd400615 	stw	r21,24(sp)
  804c40:	a9400003 	ldbu	r5,0(r21)
  804c44:	15c5883a 	add	r2,r2,r23
  804c48:	a817883a 	mov	r11,r21
  804c4c:	28fff404 	addi	r3,r5,-48
  804c50:	2dc03fcc 	andi	r23,r5,255
  804c54:	bdc0201c 	xori	r23,r23,128
  804c58:	18c03fcc 	andi	r3,r3,255
  804c5c:	01400244 	movi	r5,9
  804c60:	113ff404 	addi	r4,r2,-48
  804c64:	bdffe004 	addi	r23,r23,-128
  804c68:	ad400044 	addi	r21,r21,1
  804c6c:	28fff12e 	bgeu	r5,r3,804c34 <__alt_mem_onchip_ram+0xff800c34>
  804c70:	d8c00d17 	ldw	r3,52(sp)
  804c74:	00800204 	movi	r2,8
  804c78:	58d7c83a 	sub	r11,r11,r3
  804c7c:	12c2ab16 	blt	r2,r11,80572c <_strtod_r+0xfac>
  804c80:	009387c4 	movi	r2,19999
  804c84:	1100010e 	bge	r2,r4,804c8c <_strtod_r+0x50c>
  804c88:	1009883a 	mov	r4,r2
  804c8c:	d8c00e17 	ldw	r3,56(sp)
  804c90:	183f6126 	beq	r3,zero,804a18 <__alt_mem_onchip_ram+0xff800a18>
  804c94:	0109c83a 	sub	r4,zero,r4
  804c98:	003f5f06 	br	804a18 <__alt_mem_onchip_ram+0xff800a18>
  804c9c:	80800047 	ldb	r2,1(r16)
  804ca0:	00c01604 	movi	r3,88
  804ca4:	10c20026 	beq	r2,r3,8054a8 <_strtod_r+0xd28>
  804ca8:	00c01e04 	movi	r3,120
  804cac:	10c1fe26 	beq	r2,r3,8054a8 <_strtod_r+0xd28>
  804cb0:	80800044 	addi	r2,r16,1
  804cb4:	1021883a 	mov	r16,r2
  804cb8:	d8800615 	stw	r2,24(sp)
  804cbc:	10800044 	addi	r2,r2,1
  804cc0:	173fffc3 	ldbu	fp,-1(r2)
  804cc4:	e0c03fcc 	andi	r3,fp,255
  804cc8:	18c0201c 	xori	r3,r3,128
  804ccc:	18ffe004 	addi	r3,r3,-128
  804cd0:	193ff826 	beq	r3,r4,804cb4 <__alt_mem_onchip_ram+0xff800cb4>
  804cd4:	18002126 	beq	r3,zero,804d5c <_strtod_r+0x5dc>
  804cd8:	00c00044 	movi	r3,1
  804cdc:	dc000815 	stw	r16,32(sp)
  804ce0:	d8c00c15 	stw	r3,48(sp)
  804ce4:	003f1b06 	br	804954 <__alt_mem_onchip_ram+0xff800954>
  804ce8:	8809883a 	mov	r4,r17
  804cec:	08032240 	call	803224 <_localeconv_r>
  804cf0:	11000017 	ldw	r4,0(r2)
  804cf4:	080cd700 	call	80cd70 <strlen>
  804cf8:	d8c00617 	ldw	r3,24(sp)
  804cfc:	1885883a 	add	r2,r3,r2
  804d00:	d8800615 	stw	r2,24(sp)
  804d04:	15c00007 	ldb	r23,0(r2)
  804d08:	8001771e 	bne	r16,zero,8052e8 <_strtod_r+0xb68>
  804d0c:	01000c04 	movi	r4,48
  804d10:	b903581e 	bne	r23,r4,805a74 <_strtod_r+0x12f4>
  804d14:	11000044 	addi	r4,r2,1
  804d18:	b80b883a 	mov	r5,r23
  804d1c:	d9000615 	stw	r4,24(sp)
  804d20:	25c00007 	ldb	r23,0(r4)
  804d24:	20adc83a 	sub	r22,r4,r2
  804d28:	21000044 	addi	r4,r4,1
  804d2c:	b97ffb26 	beq	r23,r5,804d1c <__alt_mem_onchip_ram+0xff800d1c>
  804d30:	b8bff3c4 	addi	r2,r23,-49
  804d34:	01000204 	movi	r4,8
  804d38:	2083002e 	bgeu	r4,r2,80593c <_strtod_r+0x11bc>
  804d3c:	00801944 	movi	r2,101
  804d40:	b8813a26 	beq	r23,r2,80522c <_strtod_r+0xaac>
  804d44:	0039883a 	mov	fp,zero
  804d48:	d8000b15 	stw	zero,44(sp)
  804d4c:	04800044 	movi	r18,1
  804d50:	003f2e06 	br	804a0c <__alt_mem_onchip_ram+0xff800a0c>
  804d54:	d8c00c17 	ldw	r3,48(sp)
  804d58:	18017d26 	beq	r3,zero,805350 <_strtod_r+0xbd0>
  804d5c:	d8000815 	stw	zero,32(sp)
  804d60:	0039883a 	mov	fp,zero
  804d64:	003f2f06 	br	804a24 <__alt_mem_onchip_ram+0xff800a24>
  804d68:	e4a5c83a 	sub	r18,fp,r18
  804d6c:	9565883a 	add	r18,r18,r21
  804d70:	0482370e 	bge	zero,r18,805650 <_strtod_r+0xed0>
  804d74:	908003cc 	andi	r2,r18,15
  804d78:	10000b26 	beq	r2,zero,804da8 <_strtod_r+0x628>
  804d7c:	100490fa 	slli	r2,r2,3
  804d80:	00c02074 	movhi	r3,129
  804d84:	18d3a204 	addi	r3,r3,20104
  804d88:	1885883a 	add	r2,r3,r2
  804d8c:	11000017 	ldw	r4,0(r2)
  804d90:	11400117 	ldw	r5,4(r2)
  804d94:	b80d883a 	mov	r6,r23
  804d98:	b00f883a 	mov	r7,r22
  804d9c:	0810c6c0 	call	810c6c <__muldf3>
  804da0:	102f883a 	mov	r23,r2
  804da4:	182d883a 	mov	r22,r3
  804da8:	053ffc04 	movi	r20,-16
  804dac:	9524703a 	and	r18,r18,r20
  804db0:	90003826 	beq	r18,zero,804e94 <_strtod_r+0x714>
  804db4:	00804d04 	movi	r2,308
  804db8:	1481eb16 	blt	r2,r18,805568 <_strtod_r+0xde8>
  804dbc:	9029d13a 	srai	r20,r18,4
  804dc0:	02c00044 	movi	r11,1
  804dc4:	5d03900e 	bge	r11,r20,805c08 <_strtod_r+0x1488>
  804dc8:	01002074 	movhi	r4,129
  804dcc:	21139804 	addi	r4,r4,20064
  804dd0:	2011883a 	mov	r8,r4
  804dd4:	0025883a 	mov	r18,zero
  804dd8:	880b883a 	mov	r5,r17
  804ddc:	d9000715 	stw	r4,28(sp)
  804de0:	dc000b15 	stw	r16,44(sp)
  804de4:	9023883a 	mov	r17,r18
  804de8:	b805883a 	mov	r2,r23
  804dec:	b007883a 	mov	r3,r22
  804df0:	0009883a 	mov	r4,zero
  804df4:	4021883a 	mov	r16,r8
  804df8:	2825883a 	mov	r18,r5
  804dfc:	a180004c 	andi	r6,r20,1
  804e00:	30000826 	beq	r6,zero,804e24 <_strtod_r+0x6a4>
  804e04:	81800017 	ldw	r6,0(r16)
  804e08:	81c00117 	ldw	r7,4(r16)
  804e0c:	1009883a 	mov	r4,r2
  804e10:	180b883a 	mov	r5,r3
  804e14:	dac01315 	stw	r11,76(sp)
  804e18:	0810c6c0 	call	810c6c <__muldf3>
  804e1c:	dac01317 	ldw	r11,76(sp)
  804e20:	01000044 	movi	r4,1
  804e24:	a029d07a 	srai	r20,r20,1
  804e28:	8c400044 	addi	r17,r17,1
  804e2c:	84000204 	addi	r16,r16,8
  804e30:	a2fff21e 	bne	r20,r11,804dfc <__alt_mem_onchip_ram+0xff800dfc>
  804e34:	900b883a 	mov	r5,r18
  804e38:	21003fcc 	andi	r4,r4,255
  804e3c:	8825883a 	mov	r18,r17
  804e40:	dc000b17 	ldw	r16,44(sp)
  804e44:	2823883a 	mov	r17,r5
  804e48:	2003c01e 	bne	r4,zero,805d4c <_strtod_r+0x15cc>
  804e4c:	901490fa 	slli	r10,r18,3
  804e50:	d8800717 	ldw	r2,28(sp)
  804e54:	01ff2c34 	movhi	r7,64688
  804e58:	b80d883a 	mov	r6,r23
  804e5c:	12a5883a 	add	r18,r2,r10
  804e60:	91000017 	ldw	r4,0(r18)
  804e64:	91400117 	ldw	r5,4(r18)
  804e68:	b1cf883a 	add	r7,r22,r7
  804e6c:	0810c6c0 	call	810c6c <__muldf3>
  804e70:	102f883a 	mov	r23,r2
  804e74:	011f2834 	movhi	r4,31904
  804e78:	189ffc2c 	andhi	r2,r3,32752
  804e7c:	2081ba36 	bltu	r4,r2,805568 <_strtod_r+0xde8>
  804e80:	011f2434 	movhi	r4,31888
  804e84:	20834a2e 	bgeu	r4,r2,805bb0 <_strtod_r+0x1430>
  804e88:	059ffc34 	movhi	r22,32752
  804e8c:	b5bfffc4 	addi	r22,r22,-1
  804e90:	05ffffc4 	movi	r23,-1
  804e94:	d8000715 	stw	zero,28(sp)
  804e98:	d9400817 	ldw	r5,32(sp)
  804e9c:	dcc00015 	stw	r19,0(sp)
  804ea0:	e00f883a 	mov	r7,fp
  804ea4:	800d883a 	mov	r6,r16
  804ea8:	8809883a 	mov	r4,r17
  804eac:	080b90c0 	call	80b90c <__s2b>
  804eb0:	d8800b15 	stw	r2,44(sp)
  804eb4:	1001ac26 	beq	r2,zero,805568 <_strtod_r+0xde8>
  804eb8:	a807d7fa 	srai	r3,r21,31
  804ebc:	0545c83a 	sub	r2,zero,r21
  804ec0:	dd400c15 	stw	r21,48(sp)
  804ec4:	1886703a 	and	r3,r3,r2
  804ec8:	d8c00e15 	stw	r3,56(sp)
  804ecc:	a8015916 	blt	r21,zero,805434 <_strtod_r+0xcb4>
  804ed0:	d9400b17 	ldw	r5,44(sp)
  804ed4:	0011883a 	mov	r8,zero
  804ed8:	0021883a 	mov	r16,zero
  804edc:	29400304 	addi	r5,r5,12
  804ee0:	d9401115 	stw	r5,68(sp)
  804ee4:	4025883a 	mov	r18,r8
  804ee8:	d8800b17 	ldw	r2,44(sp)
  804eec:	8809883a 	mov	r4,r17
  804ef0:	11400117 	ldw	r5,4(r2)
  804ef4:	080b6f40 	call	80b6f4 <_Balloc>
  804ef8:	1027883a 	mov	r19,r2
  804efc:	10015226 	beq	r2,zero,805448 <_strtod_r+0xcc8>
  804f00:	d8c00b17 	ldw	r3,44(sp)
  804f04:	d9401117 	ldw	r5,68(sp)
  804f08:	11000304 	addi	r4,r2,12
  804f0c:	19800417 	ldw	r6,16(r3)
  804f10:	31800084 	addi	r6,r6,2
  804f14:	318d883a 	add	r6,r6,r6
  804f18:	318d883a 	add	r6,r6,r6
  804f1c:	0803e400 	call	803e40 <memcpy>
  804f20:	d9000204 	addi	r4,sp,8
  804f24:	d9000015 	stw	r4,0(sp)
  804f28:	d9c00404 	addi	r7,sp,16
  804f2c:	b80b883a 	mov	r5,r23
  804f30:	b00d883a 	mov	r6,r22
  804f34:	8809883a 	mov	r4,r17
  804f38:	080c4440 	call	80c444 <__d2b>
  804f3c:	d8800515 	stw	r2,20(sp)
  804f40:	ddc00815 	stw	r23,32(sp)
  804f44:	dd801215 	stw	r22,72(sp)
  804f48:	10029f26 	beq	r2,zero,8059c8 <_strtod_r+0x1248>
  804f4c:	01400044 	movi	r5,1
  804f50:	8809883a 	mov	r4,r17
  804f54:	080bb280 	call	80bb28 <__i2b>
  804f58:	1021883a 	mov	r16,r2
  804f5c:	10013a26 	beq	r2,zero,805448 <_strtod_r+0xcc8>
  804f60:	d8800417 	ldw	r2,16(sp)
  804f64:	1000b816 	blt	r2,zero,805248 <_strtod_r+0xac8>
  804f68:	d9400e17 	ldw	r5,56(sp)
  804f6c:	d9000c17 	ldw	r4,48(sp)
  804f70:	28a9883a 	add	r20,r5,r2
  804f74:	d9400717 	ldw	r5,28(sp)
  804f78:	dd400217 	ldw	r21,8(sp)
  804f7c:	073f0084 	movi	fp,-1022
  804f80:	1147c83a 	sub	r3,r2,r5
  804f84:	1d47883a 	add	r3,r3,r21
  804f88:	00800d84 	movi	r2,54
  804f8c:	18ffffc4 	addi	r3,r3,-1
  804f90:	156bc83a 	sub	r21,r2,r21
  804f94:	1f00950e 	bge	r3,fp,8051ec <_strtod_r+0xa6c>
  804f98:	e0f9c83a 	sub	fp,fp,r3
  804f9c:	008007c4 	movi	r2,31
  804fa0:	af2bc83a 	sub	r21,r21,fp
  804fa4:	1700ac16 	blt	r2,fp,805258 <_strtod_r+0xad8>
  804fa8:	00800044 	movi	r2,1
  804fac:	1704983a 	sll	r2,r2,fp
  804fb0:	d8000d15 	stw	zero,52(sp)
  804fb4:	d8800f15 	stw	r2,60(sp)
  804fb8:	2547883a 	add	r3,r4,r21
  804fbc:	d9000717 	ldw	r4,28(sp)
  804fc0:	a56b883a 	add	r21,r20,r21
  804fc4:	20f9883a 	add	fp,r4,r3
  804fc8:	a009883a 	mov	r4,r20
  804fcc:	ad00010e 	bge	r21,r20,804fd4 <_strtod_r+0x854>
  804fd0:	a809883a 	mov	r4,r21
  804fd4:	e005883a 	mov	r2,fp
  804fd8:	2700010e 	bge	r4,fp,804fe0 <_strtod_r+0x860>
  804fdc:	2005883a 	mov	r2,r4
  804fe0:	0080030e 	bge	zero,r2,804ff0 <_strtod_r+0x870>
  804fe4:	a8abc83a 	sub	r21,r21,r2
  804fe8:	e0b9c83a 	sub	fp,fp,r2
  804fec:	a0a9c83a 	sub	r20,r20,r2
  804ff0:	d9400e17 	ldw	r5,56(sp)
  804ff4:	28001126 	beq	r5,zero,80503c <_strtod_r+0x8bc>
  804ff8:	280d883a 	mov	r6,r5
  804ffc:	8809883a 	mov	r4,r17
  805000:	800b883a 	mov	r5,r16
  805004:	080bdf00 	call	80bdf0 <__pow5mult>
  805008:	1021883a 	mov	r16,r2
  80500c:	10010e26 	beq	r2,zero,805448 <_strtod_r+0xcc8>
  805010:	d9800517 	ldw	r6,20(sp)
  805014:	100b883a 	mov	r5,r2
  805018:	8809883a 	mov	r4,r17
  80501c:	080bb640 	call	80bb64 <__multiply>
  805020:	10010926 	beq	r2,zero,805448 <_strtod_r+0xcc8>
  805024:	d9400517 	ldw	r5,20(sp)
  805028:	8809883a 	mov	r4,r17
  80502c:	d8801315 	stw	r2,76(sp)
  805030:	080b79c0 	call	80b79c <_Bfree>
  805034:	d8801317 	ldw	r2,76(sp)
  805038:	d8800515 	stw	r2,20(sp)
  80503c:	0540060e 	bge	zero,r21,805058 <_strtod_r+0x8d8>
  805040:	d9400517 	ldw	r5,20(sp)
  805044:	a80d883a 	mov	r6,r21
  805048:	8809883a 	mov	r4,r17
  80504c:	080bf300 	call	80bf30 <__lshift>
  805050:	d8800515 	stw	r2,20(sp)
  805054:	10025c26 	beq	r2,zero,8059c8 <_strtod_r+0x1248>
  805058:	d8800c17 	ldw	r2,48(sp)
  80505c:	10000626 	beq	r2,zero,805078 <_strtod_r+0x8f8>
  805060:	d9800c17 	ldw	r6,48(sp)
  805064:	980b883a 	mov	r5,r19
  805068:	8809883a 	mov	r4,r17
  80506c:	080bdf00 	call	80bdf0 <__pow5mult>
  805070:	1027883a 	mov	r19,r2
  805074:	1000f426 	beq	r2,zero,805448 <_strtod_r+0xcc8>
  805078:	0700060e 	bge	zero,fp,805094 <_strtod_r+0x914>
  80507c:	980b883a 	mov	r5,r19
  805080:	e00d883a 	mov	r6,fp
  805084:	8809883a 	mov	r4,r17
  805088:	080bf300 	call	80bf30 <__lshift>
  80508c:	1027883a 	mov	r19,r2
  805090:	1000ed26 	beq	r2,zero,805448 <_strtod_r+0xcc8>
  805094:	0500060e 	bge	zero,r20,8050b0 <_strtod_r+0x930>
  805098:	800b883a 	mov	r5,r16
  80509c:	a00d883a 	mov	r6,r20
  8050a0:	8809883a 	mov	r4,r17
  8050a4:	080bf300 	call	80bf30 <__lshift>
  8050a8:	1021883a 	mov	r16,r2
  8050ac:	1000e626 	beq	r2,zero,805448 <_strtod_r+0xcc8>
  8050b0:	d9400517 	ldw	r5,20(sp)
  8050b4:	980d883a 	mov	r6,r19
  8050b8:	8809883a 	mov	r4,r17
  8050bc:	080c0d80 	call	80c0d8 <__mdiff>
  8050c0:	1025883a 	mov	r18,r2
  8050c4:	1000e026 	beq	r2,zero,805448 <_strtod_r+0xcc8>
  8050c8:	15400317 	ldw	r21,12(r2)
  8050cc:	800b883a 	mov	r5,r16
  8050d0:	10000315 	stw	zero,12(r2)
  8050d4:	1009883a 	mov	r4,r2
  8050d8:	080c0780 	call	80c078 <__mcmp>
  8050dc:	10026716 	blt	r2,zero,805a7c <_strtod_r+0x12fc>
  8050e0:	10029626 	beq	r2,zero,805b3c <_strtod_r+0x13bc>
  8050e4:	800b883a 	mov	r5,r16
  8050e8:	9009883a 	mov	r4,r18
  8050ec:	080c5900 	call	80c590 <__ratio>
  8050f0:	000d883a 	mov	r6,zero
  8050f4:	01d00034 	movhi	r7,16384
  8050f8:	1009883a 	mov	r4,r2
  8050fc:	180b883a 	mov	r5,r3
  805100:	1039883a 	mov	fp,r2
  805104:	1829883a 	mov	r20,r3
  805108:	0810b780 	call	810b78 <__ledf2>
  80510c:	00803b16 	blt	zero,r2,8051fc <_strtod_r+0xa7c>
  805110:	a8005e26 	beq	r21,zero,80528c <_strtod_r+0xb0c>
  805114:	050ffc34 	movhi	r20,16368
  805118:	d8000f15 	stw	zero,60(sp)
  80511c:	d8001015 	stw	zero,64(sp)
  805120:	dd000d15 	stw	r20,52(sp)
  805124:	b71ffc2c 	andhi	fp,r22,32752
  805128:	009ff834 	movhi	r2,32736
  80512c:	e080f226 	beq	fp,r2,8054f8 <_strtod_r+0xd78>
  805130:	d9000717 	ldw	r4,28(sp)
  805134:	20000c26 	beq	r4,zero,805168 <_strtod_r+0x9e8>
  805138:	0081a834 	movhi	r2,1696
  80513c:	17000a36 	bltu	r2,fp,805168 <_strtod_r+0x9e8>
  805140:	d9001017 	ldw	r4,64(sp)
  805144:	d9400d17 	ldw	r5,52(sp)
  805148:	01d07834 	movhi	r7,16864
  80514c:	39ffffc4 	addi	r7,r7,-1
  805150:	01bff034 	movhi	r6,65472
  805154:	0810b780 	call	810b78 <__ledf2>
  805158:	0080a70e 	bge	zero,r2,8053f8 <_strtod_r+0xc78>
  80515c:	0081ac34 	movhi	r2,1712
  805160:	a091883a 	add	r8,r20,r2
  805164:	4729c83a 	sub	r20,r8,fp
  805168:	b809883a 	mov	r4,r23
  80516c:	b00b883a 	mov	r5,r22
  805170:	080c2d40 	call	80c2d4 <__ulp>
  805174:	d9000f17 	ldw	r4,60(sp)
  805178:	a00b883a 	mov	r5,r20
  80517c:	100d883a 	mov	r6,r2
  805180:	180f883a 	mov	r7,r3
  805184:	0810c6c0 	call	810c6c <__muldf3>
  805188:	b80d883a 	mov	r6,r23
  80518c:	b00f883a 	mov	r7,r22
  805190:	1009883a 	mov	r4,r2
  805194:	180b883a 	mov	r5,r3
  805198:	080f7980 	call	80f798 <__adddf3>
  80519c:	102f883a 	mov	r23,r2
  8051a0:	182d883a 	mov	r22,r3
  8051a4:	1829883a 	mov	r20,r3
  8051a8:	d9000717 	ldw	r4,28(sp)
  8051ac:	2000021e 	bne	r4,zero,8051b8 <_strtod_r+0xa38>
  8051b0:	a09ffc2c 	andhi	r2,r20,32752
  8051b4:	e080f126 	beq	fp,r2,80557c <_strtod_r+0xdfc>
  8051b8:	d9400517 	ldw	r5,20(sp)
  8051bc:	8809883a 	mov	r4,r17
  8051c0:	080b79c0 	call	80b79c <_Bfree>
  8051c4:	980b883a 	mov	r5,r19
  8051c8:	8809883a 	mov	r4,r17
  8051cc:	080b79c0 	call	80b79c <_Bfree>
  8051d0:	800b883a 	mov	r5,r16
  8051d4:	8809883a 	mov	r4,r17
  8051d8:	080b79c0 	call	80b79c <_Bfree>
  8051dc:	900b883a 	mov	r5,r18
  8051e0:	8809883a 	mov	r4,r17
  8051e4:	080b79c0 	call	80b79c <_Bfree>
  8051e8:	003f3f06 	br	804ee8 <__alt_mem_onchip_ram+0xff800ee8>
  8051ec:	00c00044 	movi	r3,1
  8051f0:	d8000d15 	stw	zero,52(sp)
  8051f4:	d8c00f15 	stw	r3,60(sp)
  8051f8:	003f6f06 	br	804fb8 <__alt_mem_onchip_ram+0xff800fb8>
  8051fc:	000d883a 	mov	r6,zero
  805200:	01cff834 	movhi	r7,16352
  805204:	e009883a 	mov	r4,fp
  805208:	a00b883a 	mov	r5,r20
  80520c:	0810c6c0 	call	810c6c <__muldf3>
  805210:	d8801015 	stw	r2,64(sp)
  805214:	d8c00d15 	stw	r3,52(sp)
  805218:	a8001a1e 	bne	r21,zero,805284 <_strtod_r+0xb04>
  80521c:	1a20003c 	xorhi	r8,r3,32768
  805220:	d8800f15 	stw	r2,60(sp)
  805224:	4029883a 	mov	r20,r8
  805228:	003fbe06 	br	805124 <__alt_mem_onchip_ram+0xff801124>
  80522c:	d8000b15 	stw	zero,44(sp)
  805230:	04800044 	movi	r18,1
  805234:	b000021e 	bne	r22,zero,805240 <_strtod_r+0xac0>
  805238:	d8c00c17 	ldw	r3,48(sp)
  80523c:	183d9d26 	beq	r3,zero,8048b4 <__alt_mem_onchip_ram+0xff8008b4>
  805240:	0039883a 	mov	fp,zero
  805244:	003e5206 	br	804b90 <__alt_mem_onchip_ram+0xff800b90>
  805248:	d8c00c17 	ldw	r3,48(sp)
  80524c:	dd000e17 	ldw	r20,56(sp)
  805250:	1889c83a 	sub	r4,r3,r2
  805254:	003f4706 	br	804f74 <__alt_mem_onchip_ram+0xff800f74>
  805258:	00bef884 	movi	r2,-1054
  80525c:	07000044 	movi	fp,1
  805260:	10c5c83a 	sub	r2,r2,r3
  805264:	e084983a 	sll	r2,fp,r2
  805268:	df000f15 	stw	fp,60(sp)
  80526c:	d8800d15 	stw	r2,52(sp)
  805270:	003f5106 	br	804fb8 <__alt_mem_onchip_ram+0xff800fb8>
  805274:	d8c00717 	ldw	r3,28(sp)
  805278:	0009883a 	mov	r4,zero
  80527c:	d8c00615 	stw	r3,24(sp)
  805280:	003de506 	br	804a18 <__alt_mem_onchip_ram+0xff800a18>
  805284:	da000d17 	ldw	r8,52(sp)
  805288:	003fe506 	br	805220 <__alt_mem_onchip_ram+0xff801220>
  80528c:	b800521e 	bne	r23,zero,8053d8 <_strtod_r+0xc58>
  805290:	01000434 	movhi	r4,16
  805294:	213fffc4 	addi	r4,r4,-1
  805298:	b104703a 	and	r2,r22,r4
  80529c:	1000501e 	bne	r2,zero,8053e0 <_strtod_r+0xc60>
  8052a0:	000d883a 	mov	r6,zero
  8052a4:	01cffc34 	movhi	r7,16368
  8052a8:	e009883a 	mov	r4,fp
  8052ac:	a00b883a 	mov	r5,r20
  8052b0:	0810b780 	call	810b78 <__ledf2>
  8052b4:	10024216 	blt	r2,zero,805bc0 <_strtod_r+0x1440>
  8052b8:	a00b883a 	mov	r5,r20
  8052bc:	000d883a 	mov	r6,zero
  8052c0:	01cff834 	movhi	r7,16352
  8052c4:	e009883a 	mov	r4,fp
  8052c8:	0810c6c0 	call	810c6c <__muldf3>
  8052cc:	d8801015 	stw	r2,64(sp)
  8052d0:	d8c00d15 	stw	r3,52(sp)
  8052d4:	1029883a 	mov	r20,r2
  8052d8:	1a20003c 	xorhi	r8,r3,32768
  8052dc:	dd000f15 	stw	r20,60(sp)
  8052e0:	4029883a 	mov	r20,r8
  8052e4:	003f8f06 	br	805124 <__alt_mem_onchip_ram+0xff801124>
  8052e8:	8039883a 	mov	fp,r16
  8052ec:	002d883a 	mov	r22,zero
  8052f0:	d8000b15 	stw	zero,44(sp)
  8052f4:	bd7ff404 	addi	r21,r23,-48
  8052f8:	00800244 	movi	r2,9
  8052fc:	15401236 	bltu	r2,r21,805348 <_strtod_r+0xbc8>
  805300:	dd400e15 	stw	r21,56(sp)
  805304:	b0800044 	addi	r2,r22,1
  805308:	a801701e 	bne	r21,zero,8058cc <_strtod_r+0x114c>
  80530c:	ddc00617 	ldw	r23,24(sp)
  805310:	102d883a 	mov	r22,r2
  805314:	b8800044 	addi	r2,r23,1
  805318:	d8800615 	stw	r2,24(sp)
  80531c:	bdc00047 	ldb	r23,1(r23)
  805320:	003ff406 	br	8052f4 <__alt_mem_onchip_ram+0xff8012f4>
  805324:	00c00044 	movi	r3,1
  805328:	d8c00e15 	stw	r3,56(sp)
  80532c:	d8c00717 	ldw	r3,28(sp)
  805330:	18800084 	addi	r2,r3,2
  805334:	d8800615 	stw	r2,24(sp)
  805338:	1dc00087 	ldb	r23,2(r3)
  80533c:	003e1f06 	br	804bbc <__alt_mem_onchip_ram+0xff800bbc>
  805340:	d8000e15 	stw	zero,56(sp)
  805344:	003ff906 	br	80532c <__alt_mem_onchip_ram+0xff80132c>
  805348:	04800044 	movi	r18,1
  80534c:	003dad06 	br	804a04 <__alt_mem_onchip_ram+0xff800a04>
  805350:	903d581e 	bne	r18,zero,8048b4 <__alt_mem_onchip_ram+0xff8008b4>
  805354:	00801384 	movi	r2,78
  805358:	b8800526 	beq	r23,r2,805370 <_strtod_r+0xbf0>
  80535c:	15fd530e 	bge	r2,r23,8048ac <__alt_mem_onchip_ram+0xff8008ac>
  805360:	00801a44 	movi	r2,105
  805364:	b8819a26 	beq	r23,r2,8059d0 <_strtod_r+0x1250>
  805368:	00801b84 	movi	r2,110
  80536c:	b8bd511e 	bne	r23,r2,8048b4 <__alt_mem_onchip_ram+0xff8008b4>
  805370:	01402074 	movhi	r5,129
  805374:	d9000617 	ldw	r4,24(sp)
  805378:	29531904 	addi	r5,r5,19556
  80537c:	01c00644 	movi	r7,25
  805380:	00000b06 	br	8053b0 <_strtod_r+0xc30>
  805384:	21000044 	addi	r4,r4,1
  805388:	20800003 	ldbu	r2,0(r4)
  80538c:	10ffefc4 	addi	r3,r2,-65
  805390:	10803fcc 	andi	r2,r2,255
  805394:	1080201c 	xori	r2,r2,128
  805398:	18c03fcc 	andi	r3,r3,255
  80539c:	10bfe004 	addi	r2,r2,-128
  8053a0:	38c00136 	bltu	r7,r3,8053a8 <_strtod_r+0xc28>
  8053a4:	10800804 	addi	r2,r2,32
  8053a8:	29400044 	addi	r5,r5,1
  8053ac:	11bd411e 	bne	r2,r6,8048b4 <__alt_mem_onchip_ram+0xff8008b4>
  8053b0:	29800007 	ldb	r6,0(r5)
  8053b4:	303ff31e 	bne	r6,zero,805384 <__alt_mem_onchip_ram+0xff801384>
  8053b8:	20800044 	addi	r2,r4,1
  8053bc:	d8800615 	stw	r2,24(sp)
  8053c0:	20c00047 	ldb	r3,1(r4)
  8053c4:	00800a04 	movi	r2,40
  8053c8:	18bde326 	beq	r3,r2,804b58 <__alt_mem_onchip_ram+0xff800b58>
  8053cc:	05bffe34 	movhi	r22,65528
  8053d0:	002f883a 	mov	r23,zero
  8053d4:	003dea06 	br	804b80 <__alt_mem_onchip_ram+0xff800b80>
  8053d8:	00800044 	movi	r2,1
  8053dc:	b880ff26 	beq	r23,r2,8057dc <_strtod_r+0x105c>
  8053e0:	014ffc34 	movhi	r5,16368
  8053e4:	d8000f15 	stw	zero,60(sp)
  8053e8:	052ffc34 	movhi	r20,49136
  8053ec:	d8001015 	stw	zero,64(sp)
  8053f0:	d9400d15 	stw	r5,52(sp)
  8053f4:	003f4b06 	br	805124 <__alt_mem_onchip_ram+0xff801124>
  8053f8:	d9001017 	ldw	r4,64(sp)
  8053fc:	d9400d17 	ldw	r5,52(sp)
  805400:	080e78c0 	call	80e78c <__fixunsdfsi>
  805404:	1000f126 	beq	r2,zero,8057cc <_strtod_r+0x104c>
  805408:	1009883a 	mov	r4,r2
  80540c:	0811f2c0 	call	811f2c <__floatunsidf>
  805410:	d8801015 	stw	r2,64(sp)
  805414:	d8c00d15 	stw	r3,52(sp)
  805418:	a800ea1e 	bne	r21,zero,8057c4 <_strtod_r+0x1044>
  80541c:	d8800d17 	ldw	r2,52(sp)
  805420:	1220003c 	xorhi	r8,r2,32768
  805424:	d8c01017 	ldw	r3,64(sp)
  805428:	4029883a 	mov	r20,r8
  80542c:	d8c00f15 	stw	r3,60(sp)
  805430:	003f4a06 	br	80515c <__alt_mem_onchip_ram+0xff80115c>
  805434:	d8000c15 	stw	zero,48(sp)
  805438:	003ea506 	br	804ed0 <__alt_mem_onchip_ram+0xff800ed0>
  80543c:	d8c00817 	ldw	r3,32(sp)
  805440:	00bfffc4 	movi	r2,-1
  805444:	1880441e 	bne	r3,r2,805558 <_strtod_r+0xdd8>
  805448:	9011883a 	mov	r8,r18
  80544c:	d8800517 	ldw	r2,20(sp)
  805450:	00c00884 	movi	r3,34
  805454:	88c00015 	stw	r3,0(r17)
  805458:	d8000815 	stw	zero,32(sp)
  80545c:	071ffc34 	movhi	fp,32752
  805460:	100b883a 	mov	r5,r2
  805464:	8809883a 	mov	r4,r17
  805468:	da001315 	stw	r8,76(sp)
  80546c:	080b79c0 	call	80b79c <_Bfree>
  805470:	980b883a 	mov	r5,r19
  805474:	8809883a 	mov	r4,r17
  805478:	080b79c0 	call	80b79c <_Bfree>
  80547c:	800b883a 	mov	r5,r16
  805480:	8809883a 	mov	r4,r17
  805484:	080b79c0 	call	80b79c <_Bfree>
  805488:	d9400b17 	ldw	r5,44(sp)
  80548c:	8809883a 	mov	r4,r17
  805490:	080b79c0 	call	80b79c <_Bfree>
  805494:	da001317 	ldw	r8,76(sp)
  805498:	8809883a 	mov	r4,r17
  80549c:	400b883a 	mov	r5,r8
  8054a0:	080b79c0 	call	80b79c <_Bfree>
  8054a4:	003d5f06 	br	804a24 <__alt_mem_onchip_ram+0xff800a24>
  8054a8:	d8c00a17 	ldw	r3,40(sp)
  8054ac:	d8800504 	addi	r2,sp,20
  8054b0:	01802074 	movhi	r6,129
  8054b4:	31931f04 	addi	r6,r6,19580
  8054b8:	d8c00115 	stw	r3,4(sp)
  8054bc:	d8800015 	stw	r2,0(sp)
  8054c0:	d9c00404 	addi	r7,sp,16
  8054c4:	d9400604 	addi	r5,sp,24
  8054c8:	8809883a 	mov	r4,r17
  8054cc:	080aaa80 	call	80aaa8 <__gethex>
  8054d0:	148001cc 	andi	r18,r2,7
  8054d4:	903e2126 	beq	r18,zero,804d5c <__alt_mem_onchip_ram+0xff800d5c>
  8054d8:	00c00184 	movi	r3,6
  8054dc:	90c0c71e 	bne	r18,r3,8057fc <_strtod_r+0x107c>
  8054e0:	84000044 	addi	r16,r16,1
  8054e4:	dc000615 	stw	r16,24(sp)
  8054e8:	d8000815 	stw	zero,32(sp)
  8054ec:	0039883a 	mov	fp,zero
  8054f0:	d8000a15 	stw	zero,40(sp)
  8054f4:	003d4b06 	br	804a24 <__alt_mem_onchip_ram+0xff800a24>
  8054f8:	00bf2c34 	movhi	r2,64688
  8054fc:	b0ad883a 	add	r22,r22,r2
  805500:	b809883a 	mov	r4,r23
  805504:	b00b883a 	mov	r5,r22
  805508:	080c2d40 	call	80c2d4 <__ulp>
  80550c:	d9000f17 	ldw	r4,60(sp)
  805510:	100d883a 	mov	r6,r2
  805514:	180f883a 	mov	r7,r3
  805518:	a00b883a 	mov	r5,r20
  80551c:	0810c6c0 	call	810c6c <__muldf3>
  805520:	b80d883a 	mov	r6,r23
  805524:	1009883a 	mov	r4,r2
  805528:	b00f883a 	mov	r7,r22
  80552c:	180b883a 	mov	r5,r3
  805530:	080f7980 	call	80f798 <__adddf3>
  805534:	011f2834 	movhi	r4,31904
  805538:	102f883a 	mov	r23,r2
  80553c:	213fffc4 	addi	r4,r4,-1
  805540:	189ffc2c 	andhi	r2,r3,32752
  805544:	20807b2e 	bgeu	r4,r2,805734 <_strtod_r+0xfb4>
  805548:	d9401217 	ldw	r5,72(sp)
  80554c:	009ffc34 	movhi	r2,32752
  805550:	10bfffc4 	addi	r2,r2,-1
  805554:	28bfb926 	beq	r5,r2,80543c <__alt_mem_onchip_ram+0xff80143c>
  805558:	059ffc34 	movhi	r22,32752
  80555c:	b5bfffc4 	addi	r22,r22,-1
  805560:	05ffffc4 	movi	r23,-1
  805564:	003f1406 	br	8051b8 <__alt_mem_onchip_ram+0xff8011b8>
  805568:	00800884 	movi	r2,34
  80556c:	88800015 	stw	r2,0(r17)
  805570:	d8000815 	stw	zero,32(sp)
  805574:	071ffc34 	movhi	fp,32752
  805578:	003d2a06 	br	804a24 <__alt_mem_onchip_ram+0xff800a24>
  80557c:	d9400d17 	ldw	r5,52(sp)
  805580:	d9001017 	ldw	r4,64(sp)
  805584:	0811dd00 	call	811dd0 <__fixdfsi>
  805588:	1009883a 	mov	r4,r2
  80558c:	0811e500 	call	811e50 <__floatsidf>
  805590:	d9001017 	ldw	r4,64(sp)
  805594:	d9400d17 	ldw	r5,52(sp)
  805598:	100d883a 	mov	r6,r2
  80559c:	180f883a 	mov	r7,r3
  8055a0:	08114d40 	call	8114d4 <__subdf3>
  8055a4:	1011883a 	mov	r8,r2
  8055a8:	1839883a 	mov	fp,r3
  8055ac:	a800121e 	bne	r21,zero,8055f8 <_strtod_r+0xe78>
  8055b0:	b800111e 	bne	r23,zero,8055f8 <_strtod_r+0xe78>
  8055b4:	01400434 	movhi	r5,16
  8055b8:	297fffc4 	addi	r5,r5,-1
  8055bc:	a168703a 	and	r20,r20,r5
  8055c0:	a0000d1e 	bne	r20,zero,8055f8 <_strtod_r+0xe78>
  8055c4:	01a52834 	movhi	r6,38048
  8055c8:	01cff434 	movhi	r7,16336
  8055cc:	318d6544 	addi	r6,r6,13717
  8055d0:	39ffffc4 	addi	r7,r7,-1
  8055d4:	1009883a 	mov	r4,r2
  8055d8:	180b883a 	mov	r5,r3
  8055dc:	0810b780 	call	810b78 <__ledf2>
  8055e0:	103ef50e 	bge	r2,zero,8051b8 <__alt_mem_onchip_ram+0xff8011b8>
  8055e4:	9011883a 	mov	r8,r18
  8055e8:	d8800517 	ldw	r2,20(sp)
  8055ec:	d8000815 	stw	zero,32(sp)
  8055f0:	b039883a 	mov	fp,r22
  8055f4:	003f9a06 	br	805460 <__alt_mem_onchip_ram+0xff801460>
  8055f8:	01a52834 	movhi	r6,38048
  8055fc:	01cff834 	movhi	r7,16352
  805600:	4009883a 	mov	r4,r8
  805604:	318d6544 	addi	r6,r6,13717
  805608:	39ffffc4 	addi	r7,r7,-1
  80560c:	e00b883a 	mov	r5,fp
  805610:	da001315 	stw	r8,76(sp)
  805614:	0810b780 	call	810b78 <__ledf2>
  805618:	da001317 	ldw	r8,76(sp)
  80561c:	10000716 	blt	r2,zero,80563c <_strtod_r+0xebc>
  805620:	018d6c34 	movhi	r6,13744
  805624:	31b94d44 	addi	r6,r6,-6859
  805628:	01cff834 	movhi	r7,16352
  80562c:	4009883a 	mov	r4,r8
  805630:	e00b883a 	mov	r5,fp
  805634:	0810a9c0 	call	810a9c <__gedf2>
  805638:	00bedf0e 	bge	zero,r2,8051b8 <__alt_mem_onchip_ram+0xff8011b8>
  80563c:	9011883a 	mov	r8,r18
  805640:	d8800517 	ldw	r2,20(sp)
  805644:	ddc00815 	stw	r23,32(sp)
  805648:	b039883a 	mov	fp,r22
  80564c:	003f8406 	br	805460 <__alt_mem_onchip_ram+0xff801460>
  805650:	903e1026 	beq	r18,zero,804e94 <__alt_mem_onchip_ram+0xff800e94>
  805654:	04a5c83a 	sub	r18,zero,r18
  805658:	908003cc 	andi	r2,r18,15
  80565c:	10000b26 	beq	r2,zero,80568c <_strtod_r+0xf0c>
  805660:	100490fa 	slli	r2,r2,3
  805664:	00c02074 	movhi	r3,129
  805668:	18d3a204 	addi	r3,r3,20104
  80566c:	1885883a 	add	r2,r3,r2
  805670:	11800017 	ldw	r6,0(r2)
  805674:	11c00117 	ldw	r7,4(r2)
  805678:	b809883a 	mov	r4,r23
  80567c:	b00b883a 	mov	r5,r22
  805680:	08100440 	call	810044 <__divdf3>
  805684:	102f883a 	mov	r23,r2
  805688:	182d883a 	mov	r22,r3
  80568c:	9025d13a 	srai	r18,r18,4
  805690:	903e0026 	beq	r18,zero,804e94 <__alt_mem_onchip_ram+0xff800e94>
  805694:	008007c4 	movi	r2,31
  805698:	14801f16 	blt	r2,r18,805718 <_strtod_r+0xf98>
  80569c:	9080040c 	andi	r2,r18,16
  8056a0:	10018d26 	beq	r2,zero,805cd8 <_strtod_r+0x1558>
  8056a4:	00c01a84 	movi	r3,106
  8056a8:	d8c00715 	stw	r3,28(sp)
  8056ac:	04817e0e 	bge	zero,r18,805ca8 <_strtod_r+0x1528>
  8056b0:	05002074 	movhi	r20,129
  8056b4:	a5132404 	addi	r20,r20,19600
  8056b8:	b805883a 	mov	r2,r23
  8056bc:	b007883a 	mov	r3,r22
  8056c0:	0009883a 	mov	r4,zero
  8056c4:	9180004c 	andi	r6,r18,1
  8056c8:	30000626 	beq	r6,zero,8056e4 <_strtod_r+0xf64>
  8056cc:	a1800017 	ldw	r6,0(r20)
  8056d0:	a1c00117 	ldw	r7,4(r20)
  8056d4:	1009883a 	mov	r4,r2
  8056d8:	180b883a 	mov	r5,r3
  8056dc:	0810c6c0 	call	810c6c <__muldf3>
  8056e0:	01000044 	movi	r4,1
  8056e4:	9025d07a 	srai	r18,r18,1
  8056e8:	a5000204 	addi	r20,r20,8
  8056ec:	903ff51e 	bne	r18,zero,8056c4 <__alt_mem_onchip_ram+0xff8016c4>
  8056f0:	21003fcc 	andi	r4,r4,255
  8056f4:	2001891e 	bne	r4,zero,805d1c <_strtod_r+0x159c>
  8056f8:	d9000717 	ldw	r4,28(sp)
  8056fc:	20016a1e 	bne	r4,zero,805ca8 <_strtod_r+0x1528>
  805700:	000d883a 	mov	r6,zero
  805704:	000f883a 	mov	r7,zero
  805708:	b809883a 	mov	r4,r23
  80570c:	b00b883a 	mov	r5,r22
  805710:	0810a140 	call	810a14 <__eqdf2>
  805714:	103de01e 	bne	r2,zero,804e98 <__alt_mem_onchip_ram+0xff800e98>
  805718:	00800884 	movi	r2,34
  80571c:	88800015 	stw	r2,0(r17)
  805720:	d8000815 	stw	zero,32(sp)
  805724:	0039883a 	mov	fp,zero
  805728:	003cbe06 	br	804a24 <__alt_mem_onchip_ram+0xff800a24>
  80572c:	011387c4 	movi	r4,19999
  805730:	003d5606 	br	804c8c <__alt_mem_onchip_ram+0xff800c8c>
  805734:	0580d434 	movhi	r22,848
  805738:	1dad883a 	add	r22,r3,r22
  80573c:	b029883a 	mov	r20,r22
  805740:	003e9906 	br	8051a8 <__alt_mem_onchip_ram+0xff8011a8>
  805744:	e5c03fcc 	andi	r23,fp,255
  805748:	bdc0201c 	xori	r23,r23,128
  80574c:	bdffe004 	addi	r23,r23,-128
  805750:	dc800817 	ldw	r18,32(sp)
  805754:	0029883a 	mov	r20,zero
  805758:	0027883a 	mov	r19,zero
  80575c:	0021883a 	mov	r16,zero
  805760:	003c9806 	br	8049c4 <__alt_mem_onchip_ram+0xff8009c4>
  805764:	00c00944 	movi	r3,37
  805768:	1f07c83a 	sub	r3,r3,fp
  80576c:	1d7d7e16 	blt	r3,r21,804d68 <__alt_mem_onchip_ram+0xff800d68>
  805770:	1721c83a 	sub	r16,r2,fp
  805774:	800490fa 	slli	r2,r16,3
  805778:	04402074 	movhi	r17,129
  80577c:	8c53a204 	addi	r17,r17,20104
  805780:	8885883a 	add	r2,r17,r2
  805784:	11000017 	ldw	r4,0(r2)
  805788:	11400117 	ldw	r5,4(r2)
  80578c:	b80d883a 	mov	r6,r23
  805790:	b00f883a 	mov	r7,r22
  805794:	0810c6c0 	call	810c6c <__muldf3>
  805798:	ac2bc83a 	sub	r21,r21,r16
  80579c:	a80c90fa 	slli	r6,r21,3
  8057a0:	1009883a 	mov	r4,r2
  8057a4:	180b883a 	mov	r5,r3
  8057a8:	8985883a 	add	r2,r17,r6
  8057ac:	11800017 	ldw	r6,0(r2)
  8057b0:	11c00117 	ldw	r7,4(r2)
  8057b4:	0810c6c0 	call	810c6c <__muldf3>
  8057b8:	d8800815 	stw	r2,32(sp)
  8057bc:	1839883a 	mov	fp,r3
  8057c0:	003c9806 	br	804a24 <__alt_mem_onchip_ram+0xff800a24>
  8057c4:	da000d17 	ldw	r8,52(sp)
  8057c8:	003f1606 	br	805424 <__alt_mem_onchip_ram+0xff801424>
  8057cc:	014ffc34 	movhi	r5,16368
  8057d0:	d8001015 	stw	zero,64(sp)
  8057d4:	d9400d15 	stw	r5,52(sp)
  8057d8:	003f0f06 	br	805418 <__alt_mem_onchip_ram+0xff801418>
  8057dc:	b03f001e 	bne	r22,zero,8053e0 <__alt_mem_onchip_ram+0xff8013e0>
  8057e0:	9011883a 	mov	r8,r18
  8057e4:	00800884 	movi	r2,34
  8057e8:	88800015 	stw	r2,0(r17)
  8057ec:	d8000815 	stw	zero,32(sp)
  8057f0:	d8800517 	ldw	r2,20(sp)
  8057f4:	0039883a 	mov	fp,zero
  8057f8:	003f1906 	br	805460 <__alt_mem_onchip_ram+0xff801460>
  8057fc:	d9800517 	ldw	r6,20(sp)
  805800:	30000826 	beq	r6,zero,805824 <_strtod_r+0x10a4>
  805804:	01400d44 	movi	r5,53
  805808:	d9000204 	addi	r4,sp,8
  80580c:	d8801315 	stw	r2,76(sp)
  805810:	080c6a80 	call	80c6a8 <__copybits>
  805814:	d9400517 	ldw	r5,20(sp)
  805818:	8809883a 	mov	r4,r17
  80581c:	080b79c0 	call	80b79c <_Bfree>
  805820:	d8801317 	ldw	r2,76(sp)
  805824:	00c00184 	movi	r3,6
  805828:	1c800f36 	bltu	r3,r18,805868 <_strtod_r+0x10e8>
  80582c:	902490ba 	slli	r18,r18,2
  805830:	00c02034 	movhi	r3,128
  805834:	18d61104 	addi	r3,r3,22596
  805838:	90e5883a 	add	r18,r18,r3
  80583c:	90c00017 	ldw	r3,0(r18)
  805840:	1800683a 	jmp	r3
  805844:	008058c0 	call	8058c <__reset-0x77fa74>
  805848:	00805898 	cmpnei	r2,zero,354
  80584c:	0080587c 	xorhi	r2,zero,353
  805850:	00805860 	cmpeqi	r2,zero,353
  805854:	00805888 	cmpgei	r2,zero,354
  805858:	00805898 	cmpnei	r2,zero,354
  80585c:	008058c0 	call	8058c <__reset-0x77fa74>
  805860:	059ffc34 	movhi	r22,32752
  805864:	002f883a 	mov	r23,zero
  805868:	1080020c 	andi	r2,r2,8
  80586c:	ddc00815 	stw	r23,32(sp)
  805870:	103cc426 	beq	r2,zero,804b84 <__alt_mem_onchip_ram+0xff800b84>
  805874:	b7200034 	orhi	fp,r22,32768
  805878:	003c6a06 	br	804a24 <__alt_mem_onchip_ram+0xff800a24>
  80587c:	ddc00217 	ldw	r23,8(sp)
  805880:	dd800317 	ldw	r22,12(sp)
  805884:	003ff806 	br	805868 <__alt_mem_onchip_ram+0xff801868>
  805888:	05a00034 	movhi	r22,32768
  80588c:	b5bfffc4 	addi	r22,r22,-1
  805890:	05ffffc4 	movi	r23,-1
  805894:	003ff406 	br	805868 <__alt_mem_onchip_ram+0xff801868>
  805898:	d8c00417 	ldw	r3,16(sp)
  80589c:	dd800317 	ldw	r22,12(sp)
  8058a0:	013ffc34 	movhi	r4,65520
  8058a4:	18c10cc4 	addi	r3,r3,1075
  8058a8:	1806953a 	slli	r3,r3,20
  8058ac:	213fffc4 	addi	r4,r4,-1
  8058b0:	b12c703a 	and	r22,r22,r4
  8058b4:	ddc00217 	ldw	r23,8(sp)
  8058b8:	b0ecb03a 	or	r22,r22,r3
  8058bc:	003fea06 	br	805868 <__alt_mem_onchip_ram+0xff801868>
  8058c0:	002d883a 	mov	r22,zero
  8058c4:	002f883a 	mov	r23,zero
  8058c8:	003fe706 	br	805868 <__alt_mem_onchip_ram+0xff801868>
  8058cc:	d8c00b17 	ldw	r3,44(sp)
  8058d0:	b72d883a 	add	r22,r22,fp
  8058d4:	1887883a 	add	r3,r3,r2
  8058d8:	d8c00b15 	stw	r3,44(sp)
  8058dc:	00c00044 	movi	r3,1
  8058e0:	10c11126 	beq	r2,r3,805d28 <_strtod_r+0x15a8>
  8058e4:	05c00204 	movi	r23,8
  8058e8:	04800404 	movi	r18,16
  8058ec:	e7000044 	addi	fp,fp,1
  8058f0:	e0bfffc4 	addi	r2,fp,-1
  8058f4:	b8802016 	blt	r23,r2,805978 <_strtod_r+0x11f8>
  8058f8:	9809883a 	mov	r4,r19
  8058fc:	01400284 	movi	r5,10
  805900:	080f5740 	call	80f574 <__mulsi3>
  805904:	1027883a 	mov	r19,r2
  805908:	e5bff81e 	bne	fp,r22,8058ec <__alt_mem_onchip_ram+0xff8018ec>
  80590c:	ddc00617 	ldw	r23,24(sp)
  805910:	e7000044 	addi	fp,fp,1
  805914:	00800204 	movi	r2,8
  805918:	1580100e 	bge	r2,r22,80595c <_strtod_r+0x11dc>
  80591c:	00800404 	movi	r2,16
  805920:	002d883a 	mov	r22,zero
  805924:	173e7b16 	blt	r2,fp,805314 <__alt_mem_onchip_ram+0xff801314>
  805928:	a009883a 	mov	r4,r20
  80592c:	01400284 	movi	r5,10
  805930:	080f5740 	call	80f574 <__mulsi3>
  805934:	a8a9883a 	add	r20,r21,r2
  805938:	003e7606 	br	805314 <__alt_mem_onchip_ram+0xff801314>
  80593c:	d9000617 	ldw	r4,24(sp)
  805940:	bdfff404 	addi	r23,r23,-48
  805944:	b5800044 	addi	r22,r22,1
  805948:	ddc00e15 	stw	r23,56(sp)
  80594c:	d9000815 	stw	r4,32(sp)
  805950:	dd800b15 	stw	r22,44(sp)
  805954:	202f883a 	mov	r23,r4
  805958:	07000044 	movi	fp,1
  80595c:	9809883a 	mov	r4,r19
  805960:	01400284 	movi	r5,10
  805964:	080f5740 	call	80f574 <__mulsi3>
  805968:	d8c00e17 	ldw	r3,56(sp)
  80596c:	002d883a 	mov	r22,zero
  805970:	18a7883a 	add	r19,r3,r2
  805974:	003e6706 	br	805314 <__alt_mem_onchip_ram+0xff801314>
  805978:	973fe316 	blt	r18,fp,805908 <__alt_mem_onchip_ram+0xff801908>
  80597c:	a009883a 	mov	r4,r20
  805980:	01400284 	movi	r5,10
  805984:	080f5740 	call	80f574 <__mulsi3>
  805988:	1029883a 	mov	r20,r2
  80598c:	003fde06 	br	805908 <__alt_mem_onchip_ram+0xff801908>
  805990:	00bffa84 	movi	r2,-22
  805994:	a8bcf416 	blt	r21,r2,804d68 <__alt_mem_onchip_ram+0xff800d68>
  805998:	a82a90fa 	slli	r21,r21,3
  80599c:	00802074 	movhi	r2,129
  8059a0:	1093a204 	addi	r2,r2,20104
  8059a4:	1545c83a 	sub	r2,r2,r21
  8059a8:	11800017 	ldw	r6,0(r2)
  8059ac:	11c00117 	ldw	r7,4(r2)
  8059b0:	b809883a 	mov	r4,r23
  8059b4:	b00b883a 	mov	r5,r22
  8059b8:	08100440 	call	810044 <__divdf3>
  8059bc:	d8800815 	stw	r2,32(sp)
  8059c0:	1839883a 	mov	fp,r3
  8059c4:	003c1706 	br	804a24 <__alt_mem_onchip_ram+0xff800a24>
  8059c8:	9011883a 	mov	r8,r18
  8059cc:	003ea006 	br	805450 <__alt_mem_onchip_ram+0xff801450>
  8059d0:	01402074 	movhi	r5,129
  8059d4:	d9000617 	ldw	r4,24(sp)
  8059d8:	29531604 	addi	r5,r5,19544
  8059dc:	01c00644 	movi	r7,25
  8059e0:	00000b06 	br	805a10 <_strtod_r+0x1290>
  8059e4:	21000044 	addi	r4,r4,1
  8059e8:	20800003 	ldbu	r2,0(r4)
  8059ec:	10ffefc4 	addi	r3,r2,-65
  8059f0:	10803fcc 	andi	r2,r2,255
  8059f4:	1080201c 	xori	r2,r2,128
  8059f8:	18c03fcc 	andi	r3,r3,255
  8059fc:	10bfe004 	addi	r2,r2,-128
  805a00:	38c00136 	bltu	r7,r3,805a08 <_strtod_r+0x1288>
  805a04:	10800804 	addi	r2,r2,32
  805a08:	29400044 	addi	r5,r5,1
  805a0c:	11bba91e 	bne	r2,r6,8048b4 <__alt_mem_onchip_ram+0xff8008b4>
  805a10:	29800007 	ldb	r6,0(r5)
  805a14:	303ff31e 	bne	r6,zero,8059e4 <__alt_mem_onchip_ram+0xff8019e4>
  805a18:	01802074 	movhi	r6,129
  805a1c:	d9000615 	stw	r4,24(sp)
  805a20:	31931704 	addi	r6,r6,19548
  805a24:	200b883a 	mov	r5,r4
  805a28:	02000644 	movi	r8,25
  805a2c:	00000a06 	br	805a58 <_strtod_r+0x12d8>
  805a30:	28800003 	ldbu	r2,0(r5)
  805a34:	10ffefc4 	addi	r3,r2,-65
  805a38:	10803fcc 	andi	r2,r2,255
  805a3c:	1080201c 	xori	r2,r2,128
  805a40:	18c03fcc 	andi	r3,r3,255
  805a44:	10bfe004 	addi	r2,r2,-128
  805a48:	40c00136 	bltu	r8,r3,805a50 <_strtod_r+0x12d0>
  805a4c:	10800804 	addi	r2,r2,32
  805a50:	31800044 	addi	r6,r6,1
  805a54:	11c0691e 	bne	r2,r7,805bfc <_strtod_r+0x147c>
  805a58:	31c00007 	ldb	r7,0(r6)
  805a5c:	29400044 	addi	r5,r5,1
  805a60:	383ff31e 	bne	r7,zero,805a30 <__alt_mem_onchip_ram+0xff801a30>
  805a64:	d9400615 	stw	r5,24(sp)
  805a68:	059ffc34 	movhi	r22,32752
  805a6c:	002f883a 	mov	r23,zero
  805a70:	003c4306 	br	804b80 <__alt_mem_onchip_ram+0xff800b80>
  805a74:	002d883a 	mov	r22,zero
  805a78:	003cad06 	br	804d30 <__alt_mem_onchip_ram+0xff800d30>
  805a7c:	9011883a 	mov	r8,r18
  805a80:	df001217 	ldw	fp,72(sp)
  805a84:	a800461e 	bne	r21,zero,805ba0 <_strtod_r+0x1420>
  805a88:	b800451e 	bne	r23,zero,805ba0 <_strtod_r+0x1420>
  805a8c:	00800434 	movhi	r2,16
  805a90:	10bfffc4 	addi	r2,r2,-1
  805a94:	b084703a 	and	r2,r22,r2
  805a98:	1000411e 	bne	r2,zero,805ba0 <_strtod_r+0x1420>
  805a9c:	b49ffc2c 	andhi	r18,r22,32752
  805aa0:	0081ac34 	movhi	r2,1712
  805aa4:	14803e2e 	bgeu	r2,r18,805ba0 <_strtod_r+0x1420>
  805aa8:	40800517 	ldw	r2,20(r8)
  805aac:	1000031e 	bne	r2,zero,805abc <_strtod_r+0x133c>
  805ab0:	40800417 	ldw	r2,16(r8)
  805ab4:	00c00044 	movi	r3,1
  805ab8:	1880390e 	bge	r3,r2,805ba0 <_strtod_r+0x1420>
  805abc:	400b883a 	mov	r5,r8
  805ac0:	01800044 	movi	r6,1
  805ac4:	8809883a 	mov	r4,r17
  805ac8:	080bf300 	call	80bf30 <__lshift>
  805acc:	800b883a 	mov	r5,r16
  805ad0:	1009883a 	mov	r4,r2
  805ad4:	d8801315 	stw	r2,76(sp)
  805ad8:	080c0780 	call	80c078 <__mcmp>
  805adc:	da001317 	ldw	r8,76(sp)
  805ae0:	00802f0e 	bge	zero,r2,805ba0 <_strtod_r+0x1420>
  805ae4:	d9000717 	ldw	r4,28(sp)
  805ae8:	20008026 	beq	r4,zero,805cec <_strtod_r+0x156c>
  805aec:	0081ac34 	movhi	r2,1712
  805af0:	14807e16 	blt	r2,r18,805cec <_strtod_r+0x156c>
  805af4:	0080dc34 	movhi	r2,880
  805af8:	14bf3a0e 	bge	r2,r18,8057e4 <__alt_mem_onchip_ram+0xff8017e4>
  805afc:	d9000817 	ldw	r4,32(sp)
  805b00:	e00b883a 	mov	r5,fp
  805b04:	000d883a 	mov	r6,zero
  805b08:	01ce5434 	movhi	r7,14672
  805b0c:	da001315 	stw	r8,76(sp)
  805b10:	0810c6c0 	call	810c6c <__muldf3>
  805b14:	d8800815 	stw	r2,32(sp)
  805b18:	1839883a 	mov	fp,r3
  805b1c:	da001317 	ldw	r8,76(sp)
  805b20:	1800211e 	bne	r3,zero,805ba8 <_strtod_r+0x1428>
  805b24:	d8c00817 	ldw	r3,32(sp)
  805b28:	d8800517 	ldw	r2,20(sp)
  805b2c:	183e4c1e 	bne	r3,zero,805460 <__alt_mem_onchip_ram+0xff801460>
  805b30:	00c00884 	movi	r3,34
  805b34:	88c00015 	stw	r3,0(r17)
  805b38:	003e4906 	br	805460 <__alt_mem_onchip_ram+0xff801460>
  805b3c:	00800434 	movhi	r2,16
  805b40:	9011883a 	mov	r8,r18
  805b44:	df001217 	ldw	fp,72(sp)
  805b48:	10bfffc4 	addi	r2,r2,-1
  805b4c:	a8002226 	beq	r21,zero,805bd8 <_strtod_r+0x1458>
  805b50:	b086703a 	and	r3,r22,r2
  805b54:	18804126 	beq	r3,r2,805c5c <_strtod_r+0x14dc>
  805b58:	d8c00d17 	ldw	r3,52(sp)
  805b5c:	18002326 	beq	r3,zero,805bec <_strtod_r+0x146c>
  805b60:	1da4703a 	and	r18,r3,r22
  805b64:	90000e26 	beq	r18,zero,805ba0 <_strtod_r+0x1420>
  805b68:	da001315 	stw	r8,76(sp)
  805b6c:	d9800717 	ldw	r6,28(sp)
  805b70:	b809883a 	mov	r4,r23
  805b74:	b00b883a 	mov	r5,r22
  805b78:	a8002826 	beq	r21,zero,805c1c <_strtod_r+0x149c>
  805b7c:	080471c0 	call	80471c <sulp>
  805b80:	100d883a 	mov	r6,r2
  805b84:	180f883a 	mov	r7,r3
  805b88:	b809883a 	mov	r4,r23
  805b8c:	b00b883a 	mov	r5,r22
  805b90:	080f7980 	call	80f798 <__adddf3>
  805b94:	da001317 	ldw	r8,76(sp)
  805b98:	d8800815 	stw	r2,32(sp)
  805b9c:	1839883a 	mov	fp,r3
  805ba0:	d8800717 	ldw	r2,28(sp)
  805ba4:	103fd51e 	bne	r2,zero,805afc <__alt_mem_onchip_ram+0xff801afc>
  805ba8:	d8800517 	ldw	r2,20(sp)
  805bac:	003e2c06 	br	805460 <__alt_mem_onchip_ram+0xff801460>
  805bb0:	0580d434 	movhi	r22,848
  805bb4:	1dad883a 	add	r22,r3,r22
  805bb8:	d8000715 	stw	zero,28(sp)
  805bbc:	003cb606 	br	804e98 <__alt_mem_onchip_ram+0xff800e98>
  805bc0:	008ff834 	movhi	r2,16352
  805bc4:	0029883a 	mov	r20,zero
  805bc8:	022ff834 	movhi	r8,49120
  805bcc:	d8001015 	stw	zero,64(sp)
  805bd0:	d8800d15 	stw	r2,52(sp)
  805bd4:	003dc106 	br	8052dc <__alt_mem_onchip_ram+0xff8012dc>
  805bd8:	b084703a 	and	r2,r22,r2
  805bdc:	103fde1e 	bne	r2,zero,805b58 <__alt_mem_onchip_ram+0xff801b58>
  805be0:	b83fdd1e 	bne	r23,zero,805b58 <__alt_mem_onchip_ram+0xff801b58>
  805be4:	b49ffc2c 	andhi	r18,r22,32752
  805be8:	003fbe06 	br	805ae4 <__alt_mem_onchip_ram+0xff801ae4>
  805bec:	d8c00f17 	ldw	r3,60(sp)
  805bf0:	1de8703a 	and	r20,r3,r23
  805bf4:	a03fea26 	beq	r20,zero,805ba0 <__alt_mem_onchip_ram+0xff801ba0>
  805bf8:	003fdb06 	br	805b68 <__alt_mem_onchip_ram+0xff801b68>
  805bfc:	21000044 	addi	r4,r4,1
  805c00:	d9000615 	stw	r4,24(sp)
  805c04:	003f9806 	br	805a68 <__alt_mem_onchip_ram+0xff801a68>
  805c08:	01402074 	movhi	r5,129
  805c0c:	29539804 	addi	r5,r5,20064
  805c10:	d9400715 	stw	r5,28(sp)
  805c14:	0025883a 	mov	r18,zero
  805c18:	003c8c06 	br	804e4c <__alt_mem_onchip_ram+0xff800e4c>
  805c1c:	080471c0 	call	80471c <sulp>
  805c20:	100d883a 	mov	r6,r2
  805c24:	180f883a 	mov	r7,r3
  805c28:	b809883a 	mov	r4,r23
  805c2c:	b00b883a 	mov	r5,r22
  805c30:	08114d40 	call	8114d4 <__subdf3>
  805c34:	000d883a 	mov	r6,zero
  805c38:	000f883a 	mov	r7,zero
  805c3c:	1009883a 	mov	r4,r2
  805c40:	180b883a 	mov	r5,r3
  805c44:	d8800815 	stw	r2,32(sp)
  805c48:	1839883a 	mov	fp,r3
  805c4c:	0810a140 	call	810a14 <__eqdf2>
  805c50:	da001317 	ldw	r8,76(sp)
  805c54:	103ee326 	beq	r2,zero,8057e4 <__alt_mem_onchip_ram+0xff8017e4>
  805c58:	003fd106 	br	805ba0 <__alt_mem_onchip_ram+0xff801ba0>
  805c5c:	d8c00717 	ldw	r3,28(sp)
  805c60:	18002026 	beq	r3,zero,805ce4 <_strtod_r+0x1564>
  805c64:	b09ffc2c 	andhi	r2,r22,32752
  805c68:	00c1a834 	movhi	r3,1696
  805c6c:	18801d36 	bltu	r3,r2,805ce4 <_strtod_r+0x1564>
  805c70:	1004d53a 	srli	r2,r2,20
  805c74:	00c01ac4 	movi	r3,107
  805c78:	1887c83a 	sub	r3,r3,r2
  805c7c:	00bfffc4 	movi	r2,-1
  805c80:	10c4983a 	sll	r2,r2,r3
  805c84:	15ffb41e 	bne	r2,r23,805b58 <__alt_mem_onchip_ram+0xff801b58>
  805c88:	00dffc34 	movhi	r3,32752
  805c8c:	18ffffc4 	addi	r3,r3,-1
  805c90:	b0c03126 	beq	r22,r3,805d58 <_strtod_r+0x15d8>
  805c94:	b59ffc2c 	andhi	r22,r22,32752
  805c98:	00800434 	movhi	r2,16
  805c9c:	d8000815 	stw	zero,32(sp)
  805ca0:	b0b9883a 	add	fp,r22,r2
  805ca4:	003fbe06 	br	805ba0 <__alt_mem_onchip_ram+0xff801ba0>
  805ca8:	b49ffc2c 	andhi	r18,r22,32752
  805cac:	9024d53a 	srli	r18,r18,20
  805cb0:	00801ac4 	movi	r2,107
  805cb4:	14a5c83a 	sub	r18,r2,r18
  805cb8:	04be910e 	bge	zero,r18,805700 <__alt_mem_onchip_ram+0xff801700>
  805cbc:	008007c4 	movi	r2,31
  805cc0:	1480120e 	bge	r2,r18,805d0c <_strtod_r+0x158c>
  805cc4:	00800d04 	movi	r2,52
  805cc8:	002f883a 	mov	r23,zero
  805ccc:	14801a0e 	bge	r2,r18,805d38 <_strtod_r+0x15b8>
  805cd0:	0580dc34 	movhi	r22,880
  805cd4:	003e8a06 	br	805700 <__alt_mem_onchip_ram+0xff801700>
  805cd8:	d8000715 	stw	zero,28(sp)
  805cdc:	04be7416 	blt	zero,r18,8056b0 <__alt_mem_onchip_ram+0xff8016b0>
  805ce0:	003e8706 	br	805700 <__alt_mem_onchip_ram+0xff801700>
  805ce4:	00bfffc4 	movi	r2,-1
  805ce8:	003fe606 	br	805c84 <__alt_mem_onchip_ram+0xff801c84>
  805cec:	073ffc34 	movhi	fp,65520
  805cf0:	9725883a 	add	r18,r18,fp
  805cf4:	017fffc4 	movi	r5,-1
  805cf8:	07000434 	movhi	fp,16
  805cfc:	e179883a 	add	fp,fp,r5
  805d00:	d9400815 	stw	r5,32(sp)
  805d04:	9738b03a 	or	fp,r18,fp
  805d08:	003fa506 	br	805ba0 <__alt_mem_onchip_ram+0xff801ba0>
  805d0c:	00bfffc4 	movi	r2,-1
  805d10:	14a4983a 	sll	r18,r2,r18
  805d14:	95ee703a 	and	r23,r18,r23
  805d18:	003e7906 	br	805700 <__alt_mem_onchip_ram+0xff801700>
  805d1c:	102f883a 	mov	r23,r2
  805d20:	182d883a 	mov	r22,r3
  805d24:	003e7406 	br	8056f8 <__alt_mem_onchip_ram+0xff8016f8>
  805d28:	e02d883a 	mov	r22,fp
  805d2c:	ddc00617 	ldw	r23,24(sp)
  805d30:	e0f9883a 	add	fp,fp,r3
  805d34:	003ef706 	br	805914 <__alt_mem_onchip_ram+0xff801914>
  805d38:	94bff804 	addi	r18,r18,-32
  805d3c:	00bfffc4 	movi	r2,-1
  805d40:	14a4983a 	sll	r18,r2,r18
  805d44:	95ac703a 	and	r22,r18,r22
  805d48:	003e6d06 	br	805700 <__alt_mem_onchip_ram+0xff801700>
  805d4c:	102f883a 	mov	r23,r2
  805d50:	182d883a 	mov	r22,r3
  805d54:	003c3d06 	br	804e4c <__alt_mem_onchip_ram+0xff800e4c>
  805d58:	00ffffc4 	movi	r3,-1
  805d5c:	10ffcd1e 	bne	r2,r3,805c94 <__alt_mem_onchip_ram+0xff801c94>
  805d60:	003dba06 	br	80544c <__alt_mem_onchip_ram+0xff80144c>

00805d64 <strtod>:
  805d64:	00802074 	movhi	r2,129
  805d68:	109ad304 	addi	r2,r2,27468
  805d6c:	280d883a 	mov	r6,r5
  805d70:	200b883a 	mov	r5,r4
  805d74:	11000017 	ldw	r4,0(r2)
  805d78:	08047801 	jmpi	804780 <_strtod_r>

00805d7c <strtof>:
  805d7c:	defffb04 	addi	sp,sp,-20
  805d80:	dcc00315 	stw	r19,12(sp)
  805d84:	04c02074 	movhi	r19,129
  805d88:	9cdad304 	addi	r19,r19,27468
  805d8c:	280d883a 	mov	r6,r5
  805d90:	200b883a 	mov	r5,r4
  805d94:	99000017 	ldw	r4,0(r19)
  805d98:	dfc00415 	stw	ra,16(sp)
  805d9c:	dc800215 	stw	r18,8(sp)
  805da0:	dc400115 	stw	r17,4(sp)
  805da4:	dc000015 	stw	r16,0(sp)
  805da8:	08047800 	call	804780 <_strtod_r>
  805dac:	1009883a 	mov	r4,r2
  805db0:	180b883a 	mov	r5,r3
  805db4:	1025883a 	mov	r18,r2
  805db8:	1823883a 	mov	r17,r3
  805dbc:	0811fd40 	call	811fd4 <__truncdfsf2>
  805dc0:	000b883a 	mov	r5,zero
  805dc4:	1009883a 	mov	r4,r2
  805dc8:	1021883a 	mov	r16,r2
  805dcc:	080f59c0 	call	80f59c <__eqsf2>
  805dd0:	1000111e 	bne	r2,zero,805e18 <strtof+0x9c>
  805dd4:	000d883a 	mov	r6,zero
  805dd8:	000f883a 	mov	r7,zero
  805ddc:	9009883a 	mov	r4,r18
  805de0:	880b883a 	mov	r5,r17
  805de4:	0810a140 	call	810a14 <__eqdf2>
  805de8:	10000b26 	beq	r2,zero,805e18 <strtof+0x9c>
  805dec:	98800017 	ldw	r2,0(r19)
  805df0:	00c00884 	movi	r3,34
  805df4:	10c00015 	stw	r3,0(r2)
  805df8:	8005883a 	mov	r2,r16
  805dfc:	dfc00417 	ldw	ra,16(sp)
  805e00:	dcc00317 	ldw	r19,12(sp)
  805e04:	dc800217 	ldw	r18,8(sp)
  805e08:	dc400117 	ldw	r17,4(sp)
  805e0c:	dc000017 	ldw	r16,0(sp)
  805e10:	dec00504 	addi	sp,sp,20
  805e14:	f800283a 	ret
  805e18:	015fe034 	movhi	r5,32640
  805e1c:	297fffc4 	addi	r5,r5,-1
  805e20:	8009883a 	mov	r4,r16
  805e24:	080f6140 	call	80f614 <__gesf2>
  805e28:	0080070e 	bge	zero,r2,805e48 <strtof+0xcc>
  805e2c:	01dffc34 	movhi	r7,32752
  805e30:	39ffffc4 	addi	r7,r7,-1
  805e34:	01bfffc4 	movi	r6,-1
  805e38:	9009883a 	mov	r4,r18
  805e3c:	880b883a 	mov	r5,r17
  805e40:	0810a9c0 	call	810a9c <__gedf2>
  805e44:	00bfe90e 	bge	zero,r2,805dec <__alt_mem_onchip_ram+0xff801dec>
  805e48:	017fe034 	movhi	r5,65408
  805e4c:	297fffc4 	addi	r5,r5,-1
  805e50:	8009883a 	mov	r4,r16
  805e54:	080f6d00 	call	80f6d0 <__lesf2>
  805e58:	103fe70e 	bge	r2,zero,805df8 <__alt_mem_onchip_ram+0xff801df8>
  805e5c:	01fffc34 	movhi	r7,65520
  805e60:	39ffffc4 	addi	r7,r7,-1
  805e64:	01bfffc4 	movi	r6,-1
  805e68:	9009883a 	mov	r4,r18
  805e6c:	880b883a 	mov	r5,r17
  805e70:	0810b780 	call	810b78 <__ledf2>
  805e74:	103fdd0e 	bge	r2,zero,805dec <__alt_mem_onchip_ram+0xff801dec>
  805e78:	003fdf06 	br	805df8 <__alt_mem_onchip_ram+0xff801df8>

00805e7c <_strtol_r>:
  805e7c:	00802074 	movhi	r2,129
  805e80:	defff204 	addi	sp,sp,-56
  805e84:	109ad404 	addi	r2,r2,27472
  805e88:	dd800a15 	stw	r22,40(sp)
  805e8c:	15800017 	ldw	r22,0(r2)
  805e90:	df000c15 	stw	fp,48(sp)
  805e94:	d9000315 	stw	r4,12(sp)
  805e98:	dfc00d15 	stw	ra,52(sp)
  805e9c:	ddc00b15 	stw	r23,44(sp)
  805ea0:	dd400915 	stw	r21,36(sp)
  805ea4:	dd000815 	stw	r20,32(sp)
  805ea8:	dcc00715 	stw	r19,28(sp)
  805eac:	dc800615 	stw	r18,24(sp)
  805eb0:	dc400515 	stw	r17,20(sp)
  805eb4:	dc000415 	stw	r16,16(sp)
  805eb8:	d9400215 	stw	r5,8(sp)
  805ebc:	d9800015 	stw	r6,0(sp)
  805ec0:	3839883a 	mov	fp,r7
  805ec4:	2809883a 	mov	r4,r5
  805ec8:	24000003 	ldbu	r16,0(r4)
  805ecc:	24400044 	addi	r17,r4,1
  805ed0:	2007883a 	mov	r3,r4
  805ed4:	b405883a 	add	r2,r22,r16
  805ed8:	10800043 	ldbu	r2,1(r2)
  805edc:	8809883a 	mov	r4,r17
  805ee0:	1080020c 	andi	r2,r2,8
  805ee4:	103ff81e 	bne	r2,zero,805ec8 <__alt_mem_onchip_ram+0xff801ec8>
  805ee8:	00800b44 	movi	r2,45
  805eec:	80805526 	beq	r16,r2,806044 <_strtol_r+0x1c8>
  805ef0:	00800ac4 	movi	r2,43
  805ef4:	80806026 	beq	r16,r2,806078 <_strtol_r+0x1fc>
  805ef8:	0029883a 	mov	r20,zero
  805efc:	e0004726 	beq	fp,zero,80601c <_strtol_r+0x1a0>
  805f00:	00800404 	movi	r2,16
  805f04:	e0806626 	beq	fp,r2,8060a0 <_strtol_r+0x224>
  805f08:	e027883a 	mov	r19,fp
  805f0c:	00a00034 	movhi	r2,32768
  805f10:	a025003a 	cmpeq	r18,r20,zero
  805f14:	14a5c83a 	sub	r18,r2,r18
  805f18:	9009883a 	mov	r4,r18
  805f1c:	980b883a 	mov	r5,r19
  805f20:	080f51c0 	call	80f51c <__umodsi3>
  805f24:	9009883a 	mov	r4,r18
  805f28:	980b883a 	mov	r5,r19
  805f2c:	d8800115 	stw	r2,4(sp)
  805f30:	080f4b80 	call	80f4b8 <__udivsi3>
  805f34:	b407883a 	add	r3,r22,r16
  805f38:	18c00043 	ldbu	r3,1(r3)
  805f3c:	102b883a 	mov	r21,r2
  805f40:	0009883a 	mov	r4,zero
  805f44:	1940010c 	andi	r5,r3,4
  805f48:	0005883a 	mov	r2,zero
  805f4c:	04800044 	movi	r18,1
  805f50:	05ffffc4 	movi	r23,-1
  805f54:	28000f26 	beq	r5,zero,805f94 <_strtol_r+0x118>
  805f58:	843ff404 	addi	r16,r16,-48
  805f5c:	8700130e 	bge	r16,fp,805fac <_strtol_r+0x130>
  805f60:	15c00626 	beq	r2,r23,805f7c <_strtol_r+0x100>
  805f64:	a9002936 	bltu	r21,r4,80600c <_strtol_r+0x190>
  805f68:	25402626 	beq	r4,r21,806004 <_strtol_r+0x188>
  805f6c:	980b883a 	mov	r5,r19
  805f70:	080f5740 	call	80f574 <__mulsi3>
  805f74:	8089883a 	add	r4,r16,r2
  805f78:	00800044 	movi	r2,1
  805f7c:	8c000003 	ldbu	r16,0(r17)
  805f80:	8c400044 	addi	r17,r17,1
  805f84:	b407883a 	add	r3,r22,r16
  805f88:	18c00043 	ldbu	r3,1(r3)
  805f8c:	1940010c 	andi	r5,r3,4
  805f90:	283ff11e 	bne	r5,zero,805f58 <__alt_mem_onchip_ram+0xff801f58>
  805f94:	18c000cc 	andi	r3,r3,3
  805f98:	18000426 	beq	r3,zero,805fac <_strtol_r+0x130>
  805f9c:	1c801d26 	beq	r3,r18,806014 <_strtol_r+0x198>
  805fa0:	00c015c4 	movi	r3,87
  805fa4:	80e1c83a 	sub	r16,r16,r3
  805fa8:	873fed16 	blt	r16,fp,805f60 <__alt_mem_onchip_ram+0xff801f60>
  805fac:	00ffffc4 	movi	r3,-1
  805fb0:	10c02826 	beq	r2,r3,806054 <_strtol_r+0x1d8>
  805fb4:	a0001e1e 	bne	r20,zero,806030 <_strtol_r+0x1b4>
  805fb8:	d8c00017 	ldw	r3,0(sp)
  805fbc:	18004326 	beq	r3,zero,8060cc <_strtol_r+0x250>
  805fc0:	10001d1e 	bne	r2,zero,806038 <_strtol_r+0x1bc>
  805fc4:	dd800217 	ldw	r22,8(sp)
  805fc8:	2005883a 	mov	r2,r4
  805fcc:	d8c00017 	ldw	r3,0(sp)
  805fd0:	1d800015 	stw	r22,0(r3)
  805fd4:	dfc00d17 	ldw	ra,52(sp)
  805fd8:	df000c17 	ldw	fp,48(sp)
  805fdc:	ddc00b17 	ldw	r23,44(sp)
  805fe0:	dd800a17 	ldw	r22,40(sp)
  805fe4:	dd400917 	ldw	r21,36(sp)
  805fe8:	dd000817 	ldw	r20,32(sp)
  805fec:	dcc00717 	ldw	r19,28(sp)
  805ff0:	dc800617 	ldw	r18,24(sp)
  805ff4:	dc400517 	ldw	r17,20(sp)
  805ff8:	dc000417 	ldw	r16,16(sp)
  805ffc:	dec00e04 	addi	sp,sp,56
  806000:	f800283a 	ret
  806004:	d8c00117 	ldw	r3,4(sp)
  806008:	1c3fd80e 	bge	r3,r16,805f6c <__alt_mem_onchip_ram+0xff801f6c>
  80600c:	00bfffc4 	movi	r2,-1
  806010:	003fda06 	br	805f7c <__alt_mem_onchip_ram+0xff801f7c>
  806014:	00c00dc4 	movi	r3,55
  806018:	003fe206 	br	805fa4 <__alt_mem_onchip_ram+0xff801fa4>
  80601c:	00800c04 	movi	r2,48
  806020:	80801926 	beq	r16,r2,806088 <_strtol_r+0x20c>
  806024:	07000284 	movi	fp,10
  806028:	e027883a 	mov	r19,fp
  80602c:	003fb706 	br	805f0c <__alt_mem_onchip_ram+0xff801f0c>
  806030:	0109c83a 	sub	r4,zero,r4
  806034:	003fe006 	br	805fb8 <__alt_mem_onchip_ram+0xff801fb8>
  806038:	2005883a 	mov	r2,r4
  80603c:	8dbfffc4 	addi	r22,r17,-1
  806040:	003fe206 	br	805fcc <__alt_mem_onchip_ram+0xff801fcc>
  806044:	1c400084 	addi	r17,r3,2
  806048:	1c000043 	ldbu	r16,1(r3)
  80604c:	05000044 	movi	r20,1
  806050:	003faa06 	br	805efc <__alt_mem_onchip_ram+0xff801efc>
  806054:	d9000317 	ldw	r4,12(sp)
  806058:	00c00884 	movi	r3,34
  80605c:	a005003a 	cmpeq	r2,r20,zero
  806060:	20c00015 	stw	r3,0(r4)
  806064:	00e00034 	movhi	r3,32768
  806068:	1885c83a 	sub	r2,r3,r2
  80606c:	d8c00017 	ldw	r3,0(sp)
  806070:	183ff21e 	bne	r3,zero,80603c <__alt_mem_onchip_ram+0xff80203c>
  806074:	003fd706 	br	805fd4 <__alt_mem_onchip_ram+0xff801fd4>
  806078:	1c400084 	addi	r17,r3,2
  80607c:	1c000043 	ldbu	r16,1(r3)
  806080:	0029883a 	mov	r20,zero
  806084:	003f9d06 	br	805efc <__alt_mem_onchip_ram+0xff801efc>
  806088:	88800003 	ldbu	r2,0(r17)
  80608c:	00c01604 	movi	r3,88
  806090:	108037cc 	andi	r2,r2,223
  806094:	10c00826 	beq	r2,r3,8060b8 <_strtol_r+0x23c>
  806098:	07000204 	movi	fp,8
  80609c:	003f9a06 	br	805f08 <__alt_mem_onchip_ram+0xff801f08>
  8060a0:	00800c04 	movi	r2,48
  8060a4:	80bf981e 	bne	r16,r2,805f08 <__alt_mem_onchip_ram+0xff801f08>
  8060a8:	88800003 	ldbu	r2,0(r17)
  8060ac:	00c01604 	movi	r3,88
  8060b0:	108037cc 	andi	r2,r2,223
  8060b4:	10ff941e 	bne	r2,r3,805f08 <__alt_mem_onchip_ram+0xff801f08>
  8060b8:	04c00404 	movi	r19,16
  8060bc:	8c000043 	ldbu	r16,1(r17)
  8060c0:	9839883a 	mov	fp,r19
  8060c4:	8c400084 	addi	r17,r17,2
  8060c8:	003f9006 	br	805f0c <__alt_mem_onchip_ram+0xff801f0c>
  8060cc:	2005883a 	mov	r2,r4
  8060d0:	003fc006 	br	805fd4 <__alt_mem_onchip_ram+0xff801fd4>

008060d4 <strtol>:
  8060d4:	00802074 	movhi	r2,129
  8060d8:	109ad304 	addi	r2,r2,27468
  8060dc:	300f883a 	mov	r7,r6
  8060e0:	280d883a 	mov	r6,r5
  8060e4:	200b883a 	mov	r5,r4
  8060e8:	11000017 	ldw	r4,0(r2)
  8060ec:	0805e7c1 	jmpi	805e7c <_strtol_r>

008060f0 <_strtoll_r>:
  8060f0:	00802074 	movhi	r2,129
  8060f4:	deffef04 	addi	sp,sp,-68
  8060f8:	109ad404 	addi	r2,r2,27472
  8060fc:	dd800d15 	stw	r22,52(sp)
  806100:	15800017 	ldw	r22,0(r2)
  806104:	df000f15 	stw	fp,60(sp)
  806108:	d9000515 	stw	r4,20(sp)
  80610c:	dfc01015 	stw	ra,64(sp)
  806110:	ddc00e15 	stw	r23,56(sp)
  806114:	dd400c15 	stw	r21,48(sp)
  806118:	dd000b15 	stw	r20,44(sp)
  80611c:	dcc00a15 	stw	r19,40(sp)
  806120:	dc800915 	stw	r18,36(sp)
  806124:	dc400815 	stw	r17,32(sp)
  806128:	dc000715 	stw	r16,28(sp)
  80612c:	d9400415 	stw	r5,16(sp)
  806130:	d9800215 	stw	r6,8(sp)
  806134:	3839883a 	mov	fp,r7
  806138:	2809883a 	mov	r4,r5
  80613c:	22000003 	ldbu	r8,0(r4)
  806140:	24400044 	addi	r17,r4,1
  806144:	2007883a 	mov	r3,r4
  806148:	b205883a 	add	r2,r22,r8
  80614c:	10800043 	ldbu	r2,1(r2)
  806150:	8809883a 	mov	r4,r17
  806154:	1080020c 	andi	r2,r2,8
  806158:	103ff81e 	bne	r2,zero,80613c <__alt_mem_onchip_ram+0xff80213c>
  80615c:	00800b44 	movi	r2,45
  806160:	40807e26 	beq	r8,r2,80635c <_strtoll_r+0x26c>
  806164:	00800ac4 	movi	r2,43
  806168:	40808126 	beq	r8,r2,806370 <_strtoll_r+0x280>
  80616c:	d8000115 	stw	zero,4(sp)
  806170:	e0000b26 	beq	fp,zero,8061a0 <_strtoll_r+0xb0>
  806174:	00800404 	movi	r2,16
  806178:	e0808926 	beq	fp,r2,8063a0 <_strtoll_r+0x2b0>
  80617c:	e00bd7fa 	srai	r5,fp,31
  806180:	d9000117 	ldw	r4,4(sp)
  806184:	e025883a 	mov	r18,fp
  806188:	d9400015 	stw	r5,0(sp)
  80618c:	20000b1e 	bne	r4,zero,8061bc <_strtoll_r+0xcc>
  806190:	04200034 	movhi	r16,32768
  806194:	843fffc4 	addi	r16,r16,-1
  806198:	053fffc4 	movi	r20,-1
  80619c:	00000906 	br	8061c4 <_strtoll_r+0xd4>
  8061a0:	00800c04 	movi	r2,48
  8061a4:	40807626 	beq	r8,r2,806380 <_strtoll_r+0x290>
  8061a8:	04800284 	movi	r18,10
  8061ac:	d8000015 	stw	zero,0(sp)
  8061b0:	9039883a 	mov	fp,r18
  8061b4:	d9000117 	ldw	r4,4(sp)
  8061b8:	203ff526 	beq	r4,zero,806190 <__alt_mem_onchip_ram+0xff802190>
  8061bc:	0029883a 	mov	r20,zero
  8061c0:	04200034 	movhi	r16,32768
  8061c4:	d9c00017 	ldw	r7,0(sp)
  8061c8:	a009883a 	mov	r4,r20
  8061cc:	800b883a 	mov	r5,r16
  8061d0:	900d883a 	mov	r6,r18
  8061d4:	da000615 	stw	r8,24(sp)
  8061d8:	080edfc0 	call	80edfc <__umoddi3>
  8061dc:	d9c00017 	ldw	r7,0(sp)
  8061e0:	a009883a 	mov	r4,r20
  8061e4:	800b883a 	mov	r5,r16
  8061e8:	900d883a 	mov	r6,r18
  8061ec:	d8800315 	stw	r2,12(sp)
  8061f0:	080e8000 	call	80e800 <__udivdi3>
  8061f4:	da000617 	ldw	r8,24(sp)
  8061f8:	1829883a 	mov	r20,r3
  8061fc:	882f883a 	mov	r23,r17
  806200:	b207883a 	add	r3,r22,r8
  806204:	19800043 	ldbu	r6,1(r3)
  806208:	1021883a 	mov	r16,r2
  80620c:	000f883a 	mov	r7,zero
  806210:	30c0010c 	andi	r3,r6,4
  806214:	0009883a 	mov	r4,zero
  806218:	000b883a 	mov	r5,zero
  80621c:	04400044 	movi	r17,1
  806220:	057fffc4 	movi	r21,-1
  806224:	18000d26 	beq	r3,zero,80625c <_strtoll_r+0x16c>
  806228:	44fff404 	addi	r19,r8,-48
  80622c:	9f00110e 	bge	r19,fp,806274 <_strtoll_r+0x184>
  806230:	3d400426 	beq	r7,r21,806244 <_strtoll_r+0x154>
  806234:	a1400236 	bltu	r20,r5,806240 <_strtoll_r+0x150>
  806238:	2d002a1e 	bne	r5,r20,8062e4 <_strtoll_r+0x1f4>
  80623c:	8100292e 	bgeu	r16,r4,8062e4 <_strtoll_r+0x1f4>
  806240:	01ffffc4 	movi	r7,-1
  806244:	ba000003 	ldbu	r8,0(r23)
  806248:	bdc00044 	addi	r23,r23,1
  80624c:	b207883a 	add	r3,r22,r8
  806250:	19800043 	ldbu	r6,1(r3)
  806254:	30c0010c 	andi	r3,r6,4
  806258:	183ff31e 	bne	r3,zero,806228 <__alt_mem_onchip_ram+0xff802228>
  80625c:	318000cc 	andi	r6,r6,3
  806260:	30000426 	beq	r6,zero,806274 <_strtoll_r+0x184>
  806264:	34402b26 	beq	r6,r17,806314 <_strtoll_r+0x224>
  806268:	00c015c4 	movi	r3,87
  80626c:	40e7c83a 	sub	r19,r8,r3
  806270:	9f3fef16 	blt	r19,fp,806230 <__alt_mem_onchip_ram+0xff802230>
  806274:	00bfffc4 	movi	r2,-1
  806278:	38802c26 	beq	r7,r2,80632c <_strtoll_r+0x23c>
  80627c:	d8800117 	ldw	r2,4(sp)
  806280:	10000426 	beq	r2,zero,806294 <_strtoll_r+0x1a4>
  806284:	0109c83a 	sub	r4,zero,r4
  806288:	2004c03a 	cmpne	r2,r4,zero
  80628c:	0151c83a 	sub	r8,zero,r5
  806290:	408bc83a 	sub	r5,r8,r2
  806294:	d8800217 	ldw	r2,8(sp)
  806298:	10005026 	beq	r2,zero,8063dc <_strtoll_r+0x2ec>
  80629c:	2005883a 	mov	r2,r4
  8062a0:	2807883a 	mov	r3,r5
  8062a4:	38002b1e 	bne	r7,zero,806354 <_strtoll_r+0x264>
  8062a8:	dd800417 	ldw	r22,16(sp)
  8062ac:	d9000217 	ldw	r4,8(sp)
  8062b0:	25800015 	stw	r22,0(r4)
  8062b4:	dfc01017 	ldw	ra,64(sp)
  8062b8:	df000f17 	ldw	fp,60(sp)
  8062bc:	ddc00e17 	ldw	r23,56(sp)
  8062c0:	dd800d17 	ldw	r22,52(sp)
  8062c4:	dd400c17 	ldw	r21,48(sp)
  8062c8:	dd000b17 	ldw	r20,44(sp)
  8062cc:	dcc00a17 	ldw	r19,40(sp)
  8062d0:	dc800917 	ldw	r18,36(sp)
  8062d4:	dc400817 	ldw	r17,32(sp)
  8062d8:	dc000717 	ldw	r16,28(sp)
  8062dc:	dec01104 	addi	sp,sp,68
  8062e0:	f800283a 	ret
  8062e4:	24000d26 	beq	r4,r16,80631c <_strtoll_r+0x22c>
  8062e8:	d9c00017 	ldw	r7,0(sp)
  8062ec:	900d883a 	mov	r6,r18
  8062f0:	080e6800 	call	80e680 <__muldi3>
  8062f4:	980bd7fa 	srai	r5,r19,31
  8062f8:	9885883a 	add	r2,r19,r2
  8062fc:	14d1803a 	cmpltu	r8,r2,r19
  806300:	28c7883a 	add	r3,r5,r3
  806304:	1009883a 	mov	r4,r2
  806308:	40cb883a 	add	r5,r8,r3
  80630c:	01c00044 	movi	r7,1
  806310:	003fcc06 	br	806244 <__alt_mem_onchip_ram+0xff802244>
  806314:	00c00dc4 	movi	r3,55
  806318:	003fd406 	br	80626c <__alt_mem_onchip_ram+0xff80226c>
  80631c:	2d3ff21e 	bne	r5,r20,8062e8 <__alt_mem_onchip_ram+0xff8022e8>
  806320:	d8800317 	ldw	r2,12(sp)
  806324:	14ffc616 	blt	r2,r19,806240 <__alt_mem_onchip_ram+0xff802240>
  806328:	003fef06 	br	8062e8 <__alt_mem_onchip_ram+0xff8022e8>
  80632c:	d9000117 	ldw	r4,4(sp)
  806330:	2000271e 	bne	r4,zero,8063d0 <_strtoll_r+0x2e0>
  806334:	00e00034 	movhi	r3,32768
  806338:	18ffffc4 	addi	r3,r3,-1
  80633c:	3805883a 	mov	r2,r7
  806340:	d9400517 	ldw	r5,20(sp)
  806344:	01000884 	movi	r4,34
  806348:	29000015 	stw	r4,0(r5)
  80634c:	d9000217 	ldw	r4,8(sp)
  806350:	203fd826 	beq	r4,zero,8062b4 <__alt_mem_onchip_ram+0xff8022b4>
  806354:	bdbfffc4 	addi	r22,r23,-1
  806358:	003fd406 	br	8062ac <__alt_mem_onchip_ram+0xff8022ac>
  80635c:	00800044 	movi	r2,1
  806360:	1c400084 	addi	r17,r3,2
  806364:	1a000043 	ldbu	r8,1(r3)
  806368:	d8800115 	stw	r2,4(sp)
  80636c:	003f8006 	br	806170 <__alt_mem_onchip_ram+0xff802170>
  806370:	1c400084 	addi	r17,r3,2
  806374:	1a000043 	ldbu	r8,1(r3)
  806378:	d8000115 	stw	zero,4(sp)
  80637c:	003f7c06 	br	806170 <__alt_mem_onchip_ram+0xff802170>
  806380:	88800003 	ldbu	r2,0(r17)
  806384:	00c01604 	movi	r3,88
  806388:	108037cc 	andi	r2,r2,223
  80638c:	10c00a26 	beq	r2,r3,8063b8 <_strtoll_r+0x2c8>
  806390:	04800204 	movi	r18,8
  806394:	d8000015 	stw	zero,0(sp)
  806398:	9039883a 	mov	fp,r18
  80639c:	003f8506 	br	8061b4 <__alt_mem_onchip_ram+0xff8021b4>
  8063a0:	00800c04 	movi	r2,48
  8063a4:	4080101e 	bne	r8,r2,8063e8 <_strtoll_r+0x2f8>
  8063a8:	88800003 	ldbu	r2,0(r17)
  8063ac:	00c01604 	movi	r3,88
  8063b0:	108037cc 	andi	r2,r2,223
  8063b4:	10c00c1e 	bne	r2,r3,8063e8 <_strtoll_r+0x2f8>
  8063b8:	04800404 	movi	r18,16
  8063bc:	8a000043 	ldbu	r8,1(r17)
  8063c0:	d8000015 	stw	zero,0(sp)
  8063c4:	8c400084 	addi	r17,r17,2
  8063c8:	9039883a 	mov	fp,r18
  8063cc:	003f7906 	br	8061b4 <__alt_mem_onchip_ram+0xff8021b4>
  8063d0:	0005883a 	mov	r2,zero
  8063d4:	00e00034 	movhi	r3,32768
  8063d8:	003fd906 	br	806340 <__alt_mem_onchip_ram+0xff802340>
  8063dc:	2005883a 	mov	r2,r4
  8063e0:	2807883a 	mov	r3,r5
  8063e4:	003fb306 	br	8062b4 <__alt_mem_onchip_ram+0xff8022b4>
  8063e8:	e025883a 	mov	r18,fp
  8063ec:	d8000015 	stw	zero,0(sp)
  8063f0:	003f7006 	br	8061b4 <__alt_mem_onchip_ram+0xff8021b4>

008063f4 <_strtoul_r>:
  8063f4:	00802074 	movhi	r2,129
  8063f8:	defff204 	addi	sp,sp,-56
  8063fc:	109ad404 	addi	r2,r2,27472
  806400:	dd800a15 	stw	r22,40(sp)
  806404:	15800017 	ldw	r22,0(r2)
  806408:	df000c15 	stw	fp,48(sp)
  80640c:	dd400915 	stw	r21,36(sp)
  806410:	d9000315 	stw	r4,12(sp)
  806414:	dfc00d15 	stw	ra,52(sp)
  806418:	ddc00b15 	stw	r23,44(sp)
  80641c:	dd000815 	stw	r20,32(sp)
  806420:	dcc00715 	stw	r19,28(sp)
  806424:	dc800615 	stw	r18,24(sp)
  806428:	dc400515 	stw	r17,20(sp)
  80642c:	dc000415 	stw	r16,16(sp)
  806430:	d9400015 	stw	r5,0(sp)
  806434:	302b883a 	mov	r21,r6
  806438:	3839883a 	mov	fp,r7
  80643c:	2809883a 	mov	r4,r5
  806440:	24000003 	ldbu	r16,0(r4)
  806444:	24400044 	addi	r17,r4,1
  806448:	2007883a 	mov	r3,r4
  80644c:	b405883a 	add	r2,r22,r16
  806450:	10800043 	ldbu	r2,1(r2)
  806454:	8809883a 	mov	r4,r17
  806458:	1080020c 	andi	r2,r2,8
  80645c:	103ff81e 	bne	r2,zero,806440 <__alt_mem_onchip_ram+0xff802440>
  806460:	00800b44 	movi	r2,45
  806464:	80805826 	beq	r16,r2,8065c8 <_strtoul_r+0x1d4>
  806468:	00800ac4 	movi	r2,43
  80646c:	80805b26 	beq	r16,r2,8065dc <_strtoul_r+0x1e8>
  806470:	d8000215 	stw	zero,8(sp)
  806474:	e0000d26 	beq	fp,zero,8064ac <_strtoul_r+0xb8>
  806478:	00800404 	movi	r2,16
  80647c:	e0806626 	beq	fp,r2,806618 <_strtoul_r+0x224>
  806480:	013fffc4 	movi	r4,-1
  806484:	e00b883a 	mov	r5,fp
  806488:	080f4b80 	call	80f4b8 <__udivsi3>
  80648c:	e00b883a 	mov	r5,fp
  806490:	013fffc4 	movi	r4,-1
  806494:	1025883a 	mov	r18,r2
  806498:	080f51c0 	call	80f51c <__umodsi3>
  80649c:	d8800115 	stw	r2,4(sp)
  8064a0:	e027883a 	mov	r19,fp
  8064a4:	902f883a 	mov	r23,r18
  8064a8:	00000806 	br	8064cc <_strtoul_r+0xd8>
  8064ac:	00800c04 	movi	r2,48
  8064b0:	80804e26 	beq	r16,r2,8065ec <_strtoul_r+0x1f8>
  8064b4:	07000284 	movi	fp,10
  8064b8:	00c00144 	movi	r3,5
  8064bc:	05c666b4 	movhi	r23,6554
  8064c0:	d8c00115 	stw	r3,4(sp)
  8064c4:	bde66644 	addi	r23,r23,-26215
  8064c8:	e027883a 	mov	r19,fp
  8064cc:	b407883a 	add	r3,r22,r16
  8064d0:	18c00043 	ldbu	r3,1(r3)
  8064d4:	0005883a 	mov	r2,zero
  8064d8:	0009883a 	mov	r4,zero
  8064dc:	1940010c 	andi	r5,r3,4
  8064e0:	04800044 	movi	r18,1
  8064e4:	053fffc4 	movi	r20,-1
  8064e8:	28000f26 	beq	r5,zero,806528 <_strtoul_r+0x134>
  8064ec:	843ff404 	addi	r16,r16,-48
  8064f0:	8700130e 	bge	r16,fp,806540 <_strtoul_r+0x14c>
  8064f4:	15000626 	beq	r2,r20,806510 <_strtoul_r+0x11c>
  8064f8:	b9002836 	bltu	r23,r4,80659c <_strtoul_r+0x1a8>
  8064fc:	25c02526 	beq	r4,r23,806594 <_strtoul_r+0x1a0>
  806500:	980b883a 	mov	r5,r19
  806504:	080f5740 	call	80f574 <__mulsi3>
  806508:	8089883a 	add	r4,r16,r2
  80650c:	00800044 	movi	r2,1
  806510:	8c000003 	ldbu	r16,0(r17)
  806514:	8c400044 	addi	r17,r17,1
  806518:	b407883a 	add	r3,r22,r16
  80651c:	18c00043 	ldbu	r3,1(r3)
  806520:	1940010c 	andi	r5,r3,4
  806524:	283ff11e 	bne	r5,zero,8064ec <__alt_mem_onchip_ram+0xff8024ec>
  806528:	18c000cc 	andi	r3,r3,3
  80652c:	18000426 	beq	r3,zero,806540 <_strtoul_r+0x14c>
  806530:	1c801c26 	beq	r3,r18,8065a4 <_strtoul_r+0x1b0>
  806534:	00c015c4 	movi	r3,87
  806538:	80e1c83a 	sub	r16,r16,r3
  80653c:	873fed16 	blt	r16,fp,8064f4 <__alt_mem_onchip_ram+0xff8024f4>
  806540:	10001a16 	blt	r2,zero,8065ac <_strtoul_r+0x1b8>
  806544:	d8c00217 	ldw	r3,8(sp)
  806548:	18000126 	beq	r3,zero,806550 <_strtoul_r+0x15c>
  80654c:	0109c83a 	sub	r4,zero,r4
  806550:	a8000326 	beq	r21,zero,806560 <_strtoul_r+0x16c>
  806554:	dd000017 	ldw	r20,0(sp)
  806558:	1000191e 	bne	r2,zero,8065c0 <_strtoul_r+0x1cc>
  80655c:	ad000015 	stw	r20,0(r21)
  806560:	2005883a 	mov	r2,r4
  806564:	dfc00d17 	ldw	ra,52(sp)
  806568:	df000c17 	ldw	fp,48(sp)
  80656c:	ddc00b17 	ldw	r23,44(sp)
  806570:	dd800a17 	ldw	r22,40(sp)
  806574:	dd400917 	ldw	r21,36(sp)
  806578:	dd000817 	ldw	r20,32(sp)
  80657c:	dcc00717 	ldw	r19,28(sp)
  806580:	dc800617 	ldw	r18,24(sp)
  806584:	dc400517 	ldw	r17,20(sp)
  806588:	dc000417 	ldw	r16,16(sp)
  80658c:	dec00e04 	addi	sp,sp,56
  806590:	f800283a 	ret
  806594:	d8c00117 	ldw	r3,4(sp)
  806598:	1c3fd90e 	bge	r3,r16,806500 <__alt_mem_onchip_ram+0xff802500>
  80659c:	00bfffc4 	movi	r2,-1
  8065a0:	003fdb06 	br	806510 <__alt_mem_onchip_ram+0xff802510>
  8065a4:	00c00dc4 	movi	r3,55
  8065a8:	003fe306 	br	806538 <__alt_mem_onchip_ram+0xff802538>
  8065ac:	d8c00317 	ldw	r3,12(sp)
  8065b0:	00800884 	movi	r2,34
  8065b4:	013fffc4 	movi	r4,-1
  8065b8:	18800015 	stw	r2,0(r3)
  8065bc:	a83fe826 	beq	r21,zero,806560 <__alt_mem_onchip_ram+0xff802560>
  8065c0:	8d3fffc4 	addi	r20,r17,-1
  8065c4:	003fe506 	br	80655c <__alt_mem_onchip_ram+0xff80255c>
  8065c8:	1c400084 	addi	r17,r3,2
  8065cc:	1c000043 	ldbu	r16,1(r3)
  8065d0:	00c00044 	movi	r3,1
  8065d4:	d8c00215 	stw	r3,8(sp)
  8065d8:	003fa606 	br	806474 <__alt_mem_onchip_ram+0xff802474>
  8065dc:	1c400084 	addi	r17,r3,2
  8065e0:	1c000043 	ldbu	r16,1(r3)
  8065e4:	d8000215 	stw	zero,8(sp)
  8065e8:	003fa206 	br	806474 <__alt_mem_onchip_ram+0xff802474>
  8065ec:	88800003 	ldbu	r2,0(r17)
  8065f0:	00c01604 	movi	r3,88
  8065f4:	108037cc 	andi	r2,r2,223
  8065f8:	10c00d26 	beq	r2,r3,806630 <_strtoul_r+0x23c>
  8065fc:	07000204 	movi	fp,8
  806600:	00c001c4 	movi	r3,7
  806604:	05c80034 	movhi	r23,8192
  806608:	d8c00115 	stw	r3,4(sp)
  80660c:	bdffffc4 	addi	r23,r23,-1
  806610:	e027883a 	mov	r19,fp
  806614:	003fad06 	br	8064cc <__alt_mem_onchip_ram+0xff8024cc>
  806618:	00800c04 	movi	r2,48
  80661c:	80800d1e 	bne	r16,r2,806654 <_strtoul_r+0x260>
  806620:	88800003 	ldbu	r2,0(r17)
  806624:	00c01604 	movi	r3,88
  806628:	108037cc 	andi	r2,r2,223
  80662c:	10c0091e 	bne	r2,r3,806654 <_strtoul_r+0x260>
  806630:	04c00404 	movi	r19,16
  806634:	00c003c4 	movi	r3,15
  806638:	04840034 	movhi	r18,4096
  80663c:	8c000043 	ldbu	r16,1(r17)
  806640:	d8c00115 	stw	r3,4(sp)
  806644:	8c400084 	addi	r17,r17,2
  806648:	94bfffc4 	addi	r18,r18,-1
  80664c:	9839883a 	mov	fp,r19
  806650:	003f9406 	br	8064a4 <__alt_mem_onchip_ram+0xff8024a4>
  806654:	00c003c4 	movi	r3,15
  806658:	05c40034 	movhi	r23,4096
  80665c:	d8c00115 	stw	r3,4(sp)
  806660:	bdffffc4 	addi	r23,r23,-1
  806664:	e027883a 	mov	r19,fp
  806668:	003f9806 	br	8064cc <__alt_mem_onchip_ram+0xff8024cc>

0080666c <strtoul>:
  80666c:	00802074 	movhi	r2,129
  806670:	109ad304 	addi	r2,r2,27468
  806674:	300f883a 	mov	r7,r6
  806678:	280d883a 	mov	r6,r5
  80667c:	200b883a 	mov	r5,r4
  806680:	11000017 	ldw	r4,0(r2)
  806684:	08063f41 	jmpi	8063f4 <_strtoul_r>

00806688 <_strtoull_r>:
  806688:	00802074 	movhi	r2,129
  80668c:	deffef04 	addi	sp,sp,-68
  806690:	109ad404 	addi	r2,r2,27472
  806694:	dd800d15 	stw	r22,52(sp)
  806698:	15800017 	ldw	r22,0(r2)
  80669c:	df000f15 	stw	fp,60(sp)
  8066a0:	d9000515 	stw	r4,20(sp)
  8066a4:	dfc01015 	stw	ra,64(sp)
  8066a8:	ddc00e15 	stw	r23,56(sp)
  8066ac:	dd400c15 	stw	r21,48(sp)
  8066b0:	dd000b15 	stw	r20,44(sp)
  8066b4:	dcc00a15 	stw	r19,40(sp)
  8066b8:	dc800915 	stw	r18,36(sp)
  8066bc:	dc400815 	stw	r17,32(sp)
  8066c0:	dc000715 	stw	r16,28(sp)
  8066c4:	d9400215 	stw	r5,8(sp)
  8066c8:	d9800115 	stw	r6,4(sp)
  8066cc:	3839883a 	mov	fp,r7
  8066d0:	2809883a 	mov	r4,r5
  8066d4:	22000003 	ldbu	r8,0(r4)
  8066d8:	24400044 	addi	r17,r4,1
  8066dc:	2007883a 	mov	r3,r4
  8066e0:	b205883a 	add	r2,r22,r8
  8066e4:	10800043 	ldbu	r2,1(r2)
  8066e8:	8809883a 	mov	r4,r17
  8066ec:	1080020c 	andi	r2,r2,8
  8066f0:	103ff81e 	bne	r2,zero,8066d4 <__alt_mem_onchip_ram+0xff8026d4>
  8066f4:	00800b44 	movi	r2,45
  8066f8:	40807726 	beq	r8,r2,8068d8 <_strtoull_r+0x250>
  8066fc:	00800ac4 	movi	r2,43
  806700:	40807a26 	beq	r8,r2,8068ec <_strtoull_r+0x264>
  806704:	d8000415 	stw	zero,16(sp)
  806708:	e0001426 	beq	fp,zero,80675c <_strtoull_r+0xd4>
  80670c:	00800404 	movi	r2,16
  806710:	e0808826 	beq	fp,r2,806934 <_strtoull_r+0x2ac>
  806714:	e025d7fa 	srai	r18,fp,31
  806718:	013fffc4 	movi	r4,-1
  80671c:	200b883a 	mov	r5,r4
  806720:	e00d883a 	mov	r6,fp
  806724:	900f883a 	mov	r7,r18
  806728:	da000615 	stw	r8,24(sp)
  80672c:	080e8000 	call	80e800 <__udivdi3>
  806730:	013fffc4 	movi	r4,-1
  806734:	e00d883a 	mov	r6,fp
  806738:	900f883a 	mov	r7,r18
  80673c:	200b883a 	mov	r5,r4
  806740:	1021883a 	mov	r16,r2
  806744:	182f883a 	mov	r23,r3
  806748:	080edfc0 	call	80edfc <__umoddi3>
  80674c:	d8800315 	stw	r2,12(sp)
  806750:	df000015 	stw	fp,0(sp)
  806754:	da000617 	ldw	r8,24(sp)
  806758:	00000c06 	br	80678c <_strtoull_r+0x104>
  80675c:	00800c04 	movi	r2,48
  806760:	40806626 	beq	r8,r2,8068fc <_strtoull_r+0x274>
  806764:	00800284 	movi	r2,10
  806768:	00c00144 	movi	r3,5
  80676c:	042666b4 	movhi	r16,39322
  806770:	05c666b4 	movhi	r23,6554
  806774:	d8800015 	stw	r2,0(sp)
  806778:	d8c00315 	stw	r3,12(sp)
  80677c:	84266644 	addi	r16,r16,-26215
  806780:	bde66644 	addi	r23,r23,-26215
  806784:	0025883a 	mov	r18,zero
  806788:	1039883a 	mov	fp,r2
  80678c:	b205883a 	add	r2,r22,r8
  806790:	11800043 	ldbu	r6,1(r2)
  806794:	882b883a 	mov	r21,r17
  806798:	000f883a 	mov	r7,zero
  80679c:	3080010c 	andi	r2,r6,4
  8067a0:	0009883a 	mov	r4,zero
  8067a4:	000b883a 	mov	r5,zero
  8067a8:	04400044 	movi	r17,1
  8067ac:	053fffc4 	movi	r20,-1
  8067b0:	10000d26 	beq	r2,zero,8067e8 <_strtoull_r+0x160>
  8067b4:	44fff404 	addi	r19,r8,-48
  8067b8:	9f00110e 	bge	r19,fp,806800 <_strtoull_r+0x178>
  8067bc:	3d000426 	beq	r7,r20,8067d0 <_strtoull_r+0x148>
  8067c0:	b9400236 	bltu	r23,r5,8067cc <_strtoull_r+0x144>
  8067c4:	2dc0291e 	bne	r5,r23,80686c <_strtoull_r+0x1e4>
  8067c8:	8100282e 	bgeu	r16,r4,80686c <_strtoull_r+0x1e4>
  8067cc:	01ffffc4 	movi	r7,-1
  8067d0:	aa000003 	ldbu	r8,0(r21)
  8067d4:	ad400044 	addi	r21,r21,1
  8067d8:	b205883a 	add	r2,r22,r8
  8067dc:	11800043 	ldbu	r6,1(r2)
  8067e0:	3080010c 	andi	r2,r6,4
  8067e4:	103ff31e 	bne	r2,zero,8067b4 <__alt_mem_onchip_ram+0xff8027b4>
  8067e8:	318000cc 	andi	r6,r6,3
  8067ec:	30000426 	beq	r6,zero,806800 <_strtoull_r+0x178>
  8067f0:	34402a26 	beq	r6,r17,80689c <_strtoull_r+0x214>
  8067f4:	00c015c4 	movi	r3,87
  8067f8:	40e7c83a 	sub	r19,r8,r3
  8067fc:	9f3fef16 	blt	r19,fp,8067bc <__alt_mem_onchip_ram+0xff8027bc>
  806800:	38002c16 	blt	r7,zero,8068b4 <_strtoull_r+0x22c>
  806804:	d8c00417 	ldw	r3,16(sp)
  806808:	18000426 	beq	r3,zero,80681c <_strtoull_r+0x194>
  80680c:	0109c83a 	sub	r4,zero,r4
  806810:	2004c03a 	cmpne	r2,r4,zero
  806814:	0151c83a 	sub	r8,zero,r5
  806818:	408bc83a 	sub	r5,r8,r2
  80681c:	d8800117 	ldw	r2,4(sp)
  806820:	10000426 	beq	r2,zero,806834 <_strtoull_r+0x1ac>
  806824:	dd000217 	ldw	r20,8(sp)
  806828:	3800291e 	bne	r7,zero,8068d0 <_strtoull_r+0x248>
  80682c:	d8c00117 	ldw	r3,4(sp)
  806830:	1d000015 	stw	r20,0(r3)
  806834:	2005883a 	mov	r2,r4
  806838:	2807883a 	mov	r3,r5
  80683c:	dfc01017 	ldw	ra,64(sp)
  806840:	df000f17 	ldw	fp,60(sp)
  806844:	ddc00e17 	ldw	r23,56(sp)
  806848:	dd800d17 	ldw	r22,52(sp)
  80684c:	dd400c17 	ldw	r21,48(sp)
  806850:	dd000b17 	ldw	r20,44(sp)
  806854:	dcc00a17 	ldw	r19,40(sp)
  806858:	dc800917 	ldw	r18,36(sp)
  80685c:	dc400817 	ldw	r17,32(sp)
  806860:	dc000717 	ldw	r16,28(sp)
  806864:	dec01104 	addi	sp,sp,68
  806868:	f800283a 	ret
  80686c:	24000d26 	beq	r4,r16,8068a4 <_strtoull_r+0x21c>
  806870:	d9800017 	ldw	r6,0(sp)
  806874:	900f883a 	mov	r7,r18
  806878:	080e6800 	call	80e680 <__muldi3>
  80687c:	980bd7fa 	srai	r5,r19,31
  806880:	9885883a 	add	r2,r19,r2
  806884:	14d1803a 	cmpltu	r8,r2,r19
  806888:	28c7883a 	add	r3,r5,r3
  80688c:	1009883a 	mov	r4,r2
  806890:	40cb883a 	add	r5,r8,r3
  806894:	01c00044 	movi	r7,1
  806898:	003fcd06 	br	8067d0 <__alt_mem_onchip_ram+0xff8027d0>
  80689c:	00c00dc4 	movi	r3,55
  8068a0:	003fd506 	br	8067f8 <__alt_mem_onchip_ram+0xff8027f8>
  8068a4:	2dfff21e 	bne	r5,r23,806870 <__alt_mem_onchip_ram+0xff802870>
  8068a8:	d8c00317 	ldw	r3,12(sp)
  8068ac:	1cffc716 	blt	r3,r19,8067cc <__alt_mem_onchip_ram+0xff8027cc>
  8068b0:	003fef06 	br	806870 <__alt_mem_onchip_ram+0xff802870>
  8068b4:	d8c00517 	ldw	r3,20(sp)
  8068b8:	00800884 	movi	r2,34
  8068bc:	013fffc4 	movi	r4,-1
  8068c0:	18800015 	stw	r2,0(r3)
  8068c4:	d8800117 	ldw	r2,4(sp)
  8068c8:	200b883a 	mov	r5,r4
  8068cc:	103fd926 	beq	r2,zero,806834 <__alt_mem_onchip_ram+0xff802834>
  8068d0:	ad3fffc4 	addi	r20,r21,-1
  8068d4:	003fd506 	br	80682c <__alt_mem_onchip_ram+0xff80282c>
  8068d8:	00800044 	movi	r2,1
  8068dc:	1c400084 	addi	r17,r3,2
  8068e0:	1a000043 	ldbu	r8,1(r3)
  8068e4:	d8800415 	stw	r2,16(sp)
  8068e8:	003f8706 	br	806708 <__alt_mem_onchip_ram+0xff802708>
  8068ec:	1c400084 	addi	r17,r3,2
  8068f0:	1a000043 	ldbu	r8,1(r3)
  8068f4:	d8000415 	stw	zero,16(sp)
  8068f8:	003f8306 	br	806708 <__alt_mem_onchip_ram+0xff802708>
  8068fc:	88800003 	ldbu	r2,0(r17)
  806900:	00c01604 	movi	r3,88
  806904:	108037cc 	andi	r2,r2,223
  806908:	10c01026 	beq	r2,r3,80694c <_strtoull_r+0x2c4>
  80690c:	00c00204 	movi	r3,8
  806910:	008001c4 	movi	r2,7
  806914:	043fffc4 	movi	r16,-1
  806918:	05c80034 	movhi	r23,8192
  80691c:	d8c00015 	stw	r3,0(sp)
  806920:	d8800315 	stw	r2,12(sp)
  806924:	bc2f883a 	add	r23,r23,r16
  806928:	0025883a 	mov	r18,zero
  80692c:	1839883a 	mov	fp,r3
  806930:	003f9606 	br	80678c <__alt_mem_onchip_ram+0xff80278c>
  806934:	00800c04 	movi	r2,48
  806938:	4080101e 	bne	r8,r2,80697c <_strtoull_r+0x2f4>
  80693c:	88800003 	ldbu	r2,0(r17)
  806940:	00c01604 	movi	r3,88
  806944:	108037cc 	andi	r2,r2,223
  806948:	10c0141e 	bne	r2,r3,80699c <_strtoull_r+0x314>
  80694c:	00c00404 	movi	r3,16
  806950:	008003c4 	movi	r2,15
  806954:	043fffc4 	movi	r16,-1
  806958:	05c40034 	movhi	r23,4096
  80695c:	8a000043 	ldbu	r8,1(r17)
  806960:	d8c00015 	stw	r3,0(sp)
  806964:	d8800315 	stw	r2,12(sp)
  806968:	8c400084 	addi	r17,r17,2
  80696c:	bc2f883a 	add	r23,r23,r16
  806970:	0025883a 	mov	r18,zero
  806974:	1839883a 	mov	fp,r3
  806978:	003f8406 	br	80678c <__alt_mem_onchip_ram+0xff80278c>
  80697c:	008003c4 	movi	r2,15
  806980:	d8800315 	stw	r2,12(sp)
  806984:	043fffc4 	movi	r16,-1
  806988:	05c40034 	movhi	r23,4096
  80698c:	bc2f883a 	add	r23,r23,r16
  806990:	df000015 	stw	fp,0(sp)
  806994:	0025883a 	mov	r18,zero
  806998:	003f7c06 	br	80678c <__alt_mem_onchip_ram+0xff80278c>
  80699c:	00c003c4 	movi	r3,15
  8069a0:	d8c00315 	stw	r3,12(sp)
  8069a4:	003ff706 	br	806984 <__alt_mem_onchip_ram+0xff802984>

008069a8 <___svfprintf_internal_r>:
  8069a8:	deffb704 	addi	sp,sp,-292
  8069ac:	dfc04815 	stw	ra,288(sp)
  8069b0:	ddc04615 	stw	r23,280(sp)
  8069b4:	d9402d15 	stw	r5,180(sp)
  8069b8:	d9003915 	stw	r4,228(sp)
  8069bc:	302f883a 	mov	r23,r6
  8069c0:	d9c02e15 	stw	r7,184(sp)
  8069c4:	df004715 	stw	fp,284(sp)
  8069c8:	dd804515 	stw	r22,276(sp)
  8069cc:	dd404415 	stw	r21,272(sp)
  8069d0:	dd004315 	stw	r20,268(sp)
  8069d4:	dcc04215 	stw	r19,264(sp)
  8069d8:	dc804115 	stw	r18,260(sp)
  8069dc:	dc404015 	stw	r17,256(sp)
  8069e0:	dc003f15 	stw	r16,252(sp)
  8069e4:	08032240 	call	803224 <_localeconv_r>
  8069e8:	10800017 	ldw	r2,0(r2)
  8069ec:	1009883a 	mov	r4,r2
  8069f0:	d8803415 	stw	r2,208(sp)
  8069f4:	080cd700 	call	80cd70 <strlen>
  8069f8:	d8c02d17 	ldw	r3,180(sp)
  8069fc:	d8803815 	stw	r2,224(sp)
  806a00:	1880030b 	ldhu	r2,12(r3)
  806a04:	1080200c 	andi	r2,r2,128
  806a08:	10000226 	beq	r2,zero,806a14 <___svfprintf_internal_r+0x6c>
  806a0c:	18800417 	ldw	r2,16(r3)
  806a10:	1006b126 	beq	r2,zero,8084d8 <___svfprintf_internal_r+0x1b30>
  806a14:	dcc03917 	ldw	r19,228(sp)
  806a18:	d8c00404 	addi	r3,sp,16
  806a1c:	05402074 	movhi	r21,129
  806a20:	d9001e04 	addi	r4,sp,120
  806a24:	ad533e84 	addi	r21,r21,19706
  806a28:	d8c01e15 	stw	r3,120(sp)
  806a2c:	d8002015 	stw	zero,128(sp)
  806a30:	d8001f15 	stw	zero,124(sp)
  806a34:	d8003315 	stw	zero,204(sp)
  806a38:	d8003615 	stw	zero,216(sp)
  806a3c:	d8003715 	stw	zero,220(sp)
  806a40:	1811883a 	mov	r8,r3
  806a44:	d8003a15 	stw	zero,232(sp)
  806a48:	d8003b15 	stw	zero,236(sp)
  806a4c:	d8002f15 	stw	zero,188(sp)
  806a50:	d9002815 	stw	r4,160(sp)
  806a54:	b8800007 	ldb	r2,0(r23)
  806a58:	10027726 	beq	r2,zero,807438 <___svfprintf_internal_r+0xa90>
  806a5c:	00c00944 	movi	r3,37
  806a60:	b823883a 	mov	r17,r23
  806a64:	10c0021e 	bne	r2,r3,806a70 <___svfprintf_internal_r+0xc8>
  806a68:	00001406 	br	806abc <___svfprintf_internal_r+0x114>
  806a6c:	10c00326 	beq	r2,r3,806a7c <___svfprintf_internal_r+0xd4>
  806a70:	8c400044 	addi	r17,r17,1
  806a74:	88800007 	ldb	r2,0(r17)
  806a78:	103ffc1e 	bne	r2,zero,806a6c <__alt_mem_onchip_ram+0xff802a6c>
  806a7c:	8de1c83a 	sub	r16,r17,r23
  806a80:	80000e26 	beq	r16,zero,806abc <___svfprintf_internal_r+0x114>
  806a84:	d8c02017 	ldw	r3,128(sp)
  806a88:	d8801f17 	ldw	r2,124(sp)
  806a8c:	45c00015 	stw	r23,0(r8)
  806a90:	1c07883a 	add	r3,r3,r16
  806a94:	10800044 	addi	r2,r2,1
  806a98:	d8c02015 	stw	r3,128(sp)
  806a9c:	44000115 	stw	r16,4(r8)
  806aa0:	d8801f15 	stw	r2,124(sp)
  806aa4:	00c001c4 	movi	r3,7
  806aa8:	18809916 	blt	r3,r2,806d10 <___svfprintf_internal_r+0x368>
  806aac:	42000204 	addi	r8,r8,8
  806ab0:	d9402f17 	ldw	r5,188(sp)
  806ab4:	2c0b883a 	add	r5,r5,r16
  806ab8:	d9402f15 	stw	r5,188(sp)
  806abc:	88800007 	ldb	r2,0(r17)
  806ac0:	10009a26 	beq	r2,zero,806d2c <___svfprintf_internal_r+0x384>
  806ac4:	8dc00044 	addi	r23,r17,1
  806ac8:	8c400047 	ldb	r17,1(r17)
  806acc:	0021883a 	mov	r16,zero
  806ad0:	00bfffc4 	movi	r2,-1
  806ad4:	0025883a 	mov	r18,zero
  806ad8:	dc002905 	stb	r16,164(sp)
  806adc:	d8002785 	stb	zero,158(sp)
  806ae0:	d8002b05 	stb	zero,172(sp)
  806ae4:	d8802a15 	stw	r2,168(sp)
  806ae8:	d8003115 	stw	zero,196(sp)
  806aec:	05001604 	movi	r20,88
  806af0:	05800244 	movi	r22,9
  806af4:	4039883a 	mov	fp,r8
  806af8:	9021883a 	mov	r16,r18
  806afc:	bdc00044 	addi	r23,r23,1
  806b00:	88bff804 	addi	r2,r17,-32
  806b04:	a0831e36 	bltu	r20,r2,807780 <___svfprintf_internal_r+0xdd8>
  806b08:	100490ba 	slli	r2,r2,2
  806b0c:	00c02034 	movhi	r3,128
  806b10:	18dac804 	addi	r3,r3,27424
  806b14:	10c5883a 	add	r2,r2,r3
  806b18:	10800017 	ldw	r2,0(r2)
  806b1c:	1000683a 	jmp	r2
  806b20:	008076c8 	cmpgei	r2,zero,475
  806b24:	00807780 	call	80778 <__reset-0x77f888>
  806b28:	00807780 	call	80778 <__reset-0x77f888>
  806b2c:	008076bc 	xorhi	r2,zero,474
  806b30:	00807780 	call	80778 <__reset-0x77f888>
  806b34:	00807780 	call	80778 <__reset-0x77f888>
  806b38:	00807780 	call	80778 <__reset-0x77f888>
  806b3c:	00807780 	call	80778 <__reset-0x77f888>
  806b40:	00807780 	call	80778 <__reset-0x77f888>
  806b44:	00807780 	call	80778 <__reset-0x77f888>
  806b48:	00806d88 	cmpgei	r2,zero,438
  806b4c:	008075cc 	andi	r2,zero,471
  806b50:	00807780 	call	80778 <__reset-0x77f888>
  806b54:	00806c94 	movui	r2,434
  806b58:	00806dac 	andhi	r2,zero,438
  806b5c:	00807780 	call	80778 <__reset-0x77f888>
  806b60:	00806e38 	rdprs	r2,zero,440
  806b64:	00806dfc 	xorhi	r2,zero,439
  806b68:	00806dfc 	xorhi	r2,zero,439
  806b6c:	00806dfc 	xorhi	r2,zero,439
  806b70:	00806dfc 	xorhi	r2,zero,439
  806b74:	00806dfc 	xorhi	r2,zero,439
  806b78:	00806dfc 	xorhi	r2,zero,439
  806b7c:	00806dfc 	xorhi	r2,zero,439
  806b80:	00806dfc 	xorhi	r2,zero,439
  806b84:	00806dfc 	xorhi	r2,zero,439
  806b88:	00807780 	call	80778 <__reset-0x77f888>
  806b8c:	00807780 	call	80778 <__reset-0x77f888>
  806b90:	00807780 	call	80778 <__reset-0x77f888>
  806b94:	00807780 	call	80778 <__reset-0x77f888>
  806b98:	00807780 	call	80778 <__reset-0x77f888>
  806b9c:	00807780 	call	80778 <__reset-0x77f888>
  806ba0:	00807780 	call	80778 <__reset-0x77f888>
  806ba4:	00807780 	call	80778 <__reset-0x77f888>
  806ba8:	00807780 	call	80778 <__reset-0x77f888>
  806bac:	00807780 	call	80778 <__reset-0x77f888>
  806bb0:	00806efc 	xorhi	r2,zero,443
  806bb4:	00806e44 	movi	r2,441
  806bb8:	00807780 	call	80778 <__reset-0x77f888>
  806bbc:	00806e44 	movi	r2,441
  806bc0:	00807780 	call	80778 <__reset-0x77f888>
  806bc4:	00807780 	call	80778 <__reset-0x77f888>
  806bc8:	00807780 	call	80778 <__reset-0x77f888>
  806bcc:	00807780 	call	80778 <__reset-0x77f888>
  806bd0:	00806ef0 	cmpltui	r2,zero,443
  806bd4:	00807780 	call	80778 <__reset-0x77f888>
  806bd8:	00807780 	call	80778 <__reset-0x77f888>
  806bdc:	00806fc4 	movi	r2,447
  806be0:	00807780 	call	80778 <__reset-0x77f888>
  806be4:	00807780 	call	80778 <__reset-0x77f888>
  806be8:	00807780 	call	80778 <__reset-0x77f888>
  806bec:	00807780 	call	80778 <__reset-0x77f888>
  806bf0:	00807780 	call	80778 <__reset-0x77f888>
  806bf4:	00807440 	call	80744 <__reset-0x77f8bc>
  806bf8:	00807780 	call	80778 <__reset-0x77f888>
  806bfc:	00807780 	call	80778 <__reset-0x77f888>
  806c00:	008074ac 	andhi	r2,zero,466
  806c04:	00807780 	call	80778 <__reset-0x77f888>
  806c08:	00807780 	call	80778 <__reset-0x77f888>
  806c0c:	00807780 	call	80778 <__reset-0x77f888>
  806c10:	00807780 	call	80778 <__reset-0x77f888>
  806c14:	00807780 	call	80778 <__reset-0x77f888>
  806c18:	00807780 	call	80778 <__reset-0x77f888>
  806c1c:	00807780 	call	80778 <__reset-0x77f888>
  806c20:	00807780 	call	80778 <__reset-0x77f888>
  806c24:	00807780 	call	80778 <__reset-0x77f888>
  806c28:	00807780 	call	80778 <__reset-0x77f888>
  806c2c:	00807568 	cmpgeui	r2,zero,469
  806c30:	008076e8 	cmpgeui	r2,zero,475
  806c34:	00806e44 	movi	r2,441
  806c38:	00806e44 	movi	r2,441
  806c3c:	00806e44 	movi	r2,441
  806c40:	0080775c 	xori	r2,zero,477
  806c44:	008076e8 	cmpgeui	r2,zero,475
  806c48:	00807780 	call	80778 <__reset-0x77f888>
  806c4c:	00807780 	call	80778 <__reset-0x77f888>
  806c50:	00807708 	cmpgei	r2,zero,476
  806c54:	00807780 	call	80778 <__reset-0x77f888>
  806c58:	0080771c 	xori	r2,zero,476
  806c5c:	008075ac 	andhi	r2,zero,470
  806c60:	00806ca0 	cmpeqi	r2,zero,434
  806c64:	008075e4 	muli	r2,zero,471
  806c68:	00807780 	call	80778 <__reset-0x77f888>
  806c6c:	008075f0 	cmpltui	r2,zero,471
  806c70:	00807780 	call	80778 <__reset-0x77f888>
  806c74:	00807654 	movui	r2,473
  806c78:	00807780 	call	80778 <__reset-0x77f888>
  806c7c:	00807780 	call	80778 <__reset-0x77f888>
  806c80:	00807674 	movhi	r2,473
  806c84:	d8c03117 	ldw	r3,196(sp)
  806c88:	d8802e15 	stw	r2,184(sp)
  806c8c:	00c7c83a 	sub	r3,zero,r3
  806c90:	d8c03115 	stw	r3,196(sp)
  806c94:	84000114 	ori	r16,r16,4
  806c98:	bc400007 	ldb	r17,0(r23)
  806c9c:	003f9706 	br	806afc <__alt_mem_onchip_ram+0xff802afc>
  806ca0:	00800c04 	movi	r2,48
  806ca4:	d8802705 	stb	r2,156(sp)
  806ca8:	00801e04 	movi	r2,120
  806cac:	d8802745 	stb	r2,157(sp)
  806cb0:	d9002a17 	ldw	r4,168(sp)
  806cb4:	d8802e17 	ldw	r2,184(sp)
  806cb8:	d8002785 	stb	zero,158(sp)
  806cbc:	e011883a 	mov	r8,fp
  806cc0:	10c00104 	addi	r3,r2,4
  806cc4:	15000017 	ldw	r20,0(r2)
  806cc8:	002d883a 	mov	r22,zero
  806ccc:	80800094 	ori	r2,r16,2
  806cd0:	2002b616 	blt	r4,zero,8077ac <___svfprintf_internal_r+0xe04>
  806cd4:	00bfdfc4 	movi	r2,-129
  806cd8:	80a4703a 	and	r18,r16,r2
  806cdc:	d8c02e15 	stw	r3,184(sp)
  806ce0:	94800094 	ori	r18,r18,2
  806ce4:	a002a01e 	bne	r20,zero,807768 <___svfprintf_internal_r+0xdc0>
  806ce8:	01402074 	movhi	r5,129
  806cec:	29533704 	addi	r5,r5,19676
  806cf0:	d9403a15 	stw	r5,232(sp)
  806cf4:	04401e04 	movi	r17,120
  806cf8:	d8c02a17 	ldw	r3,168(sp)
  806cfc:	0039883a 	mov	fp,zero
  806d00:	1801e626 	beq	r3,zero,80749c <___svfprintf_internal_r+0xaf4>
  806d04:	0029883a 	mov	r20,zero
  806d08:	002d883a 	mov	r22,zero
  806d0c:	00020506 	br	807524 <___svfprintf_internal_r+0xb7c>
  806d10:	d9402d17 	ldw	r5,180(sp)
  806d14:	d9801e04 	addi	r6,sp,120
  806d18:	9809883a 	mov	r4,r19
  806d1c:	080ced80 	call	80ced8 <__ssprint_r>
  806d20:	1000081e 	bne	r2,zero,806d44 <___svfprintf_internal_r+0x39c>
  806d24:	da000404 	addi	r8,sp,16
  806d28:	003f6106 	br	806ab0 <__alt_mem_onchip_ram+0xff802ab0>
  806d2c:	d8802017 	ldw	r2,128(sp)
  806d30:	10000426 	beq	r2,zero,806d44 <___svfprintf_internal_r+0x39c>
  806d34:	d9402d17 	ldw	r5,180(sp)
  806d38:	d9003917 	ldw	r4,228(sp)
  806d3c:	d9801e04 	addi	r6,sp,120
  806d40:	080ced80 	call	80ced8 <__ssprint_r>
  806d44:	d8802d17 	ldw	r2,180(sp)
  806d48:	10c0030b 	ldhu	r3,12(r2)
  806d4c:	d8802f17 	ldw	r2,188(sp)
  806d50:	18c0100c 	andi	r3,r3,64
  806d54:	1806251e 	bne	r3,zero,8085ec <___svfprintf_internal_r+0x1c44>
  806d58:	dfc04817 	ldw	ra,288(sp)
  806d5c:	df004717 	ldw	fp,284(sp)
  806d60:	ddc04617 	ldw	r23,280(sp)
  806d64:	dd804517 	ldw	r22,276(sp)
  806d68:	dd404417 	ldw	r21,272(sp)
  806d6c:	dd004317 	ldw	r20,268(sp)
  806d70:	dcc04217 	ldw	r19,264(sp)
  806d74:	dc804117 	ldw	r18,260(sp)
  806d78:	dc404017 	ldw	r17,256(sp)
  806d7c:	dc003f17 	ldw	r16,252(sp)
  806d80:	dec04904 	addi	sp,sp,292
  806d84:	f800283a 	ret
  806d88:	d9002e17 	ldw	r4,184(sp)
  806d8c:	d9402e17 	ldw	r5,184(sp)
  806d90:	21000017 	ldw	r4,0(r4)
  806d94:	28800104 	addi	r2,r5,4
  806d98:	d9003115 	stw	r4,196(sp)
  806d9c:	203fb916 	blt	r4,zero,806c84 <__alt_mem_onchip_ram+0xff802c84>
  806da0:	d8802e15 	stw	r2,184(sp)
  806da4:	bc400007 	ldb	r17,0(r23)
  806da8:	003f5406 	br	806afc <__alt_mem_onchip_ram+0xff802afc>
  806dac:	bc400007 	ldb	r17,0(r23)
  806db0:	01000a84 	movi	r4,42
  806db4:	b8c00044 	addi	r3,r23,1
  806db8:	89076926 	beq	r17,r4,808b60 <___svfprintf_internal_r+0x21b8>
  806dbc:	8cbff404 	addi	r18,r17,-48
  806dc0:	b486b936 	bltu	r22,r18,8088a8 <___svfprintf_internal_r+0x1f00>
  806dc4:	0009883a 	mov	r4,zero
  806dc8:	1823883a 	mov	r17,r3
  806dcc:	01400284 	movi	r5,10
  806dd0:	080f5740 	call	80f574 <__mulsi3>
  806dd4:	88c00007 	ldb	r3,0(r17)
  806dd8:	1489883a 	add	r4,r2,r18
  806ddc:	8dc00044 	addi	r23,r17,1
  806de0:	1cbff404 	addi	r18,r3,-48
  806de4:	b823883a 	mov	r17,r23
  806de8:	b4bff82e 	bgeu	r22,r18,806dcc <__alt_mem_onchip_ram+0xff802dcc>
  806dec:	1823883a 	mov	r17,r3
  806df0:	20060416 	blt	r4,zero,808604 <___svfprintf_internal_r+0x1c5c>
  806df4:	d9002a15 	stw	r4,168(sp)
  806df8:	003f4106 	br	806b00 <__alt_mem_onchip_ram+0xff802b00>
  806dfc:	8cbff404 	addi	r18,r17,-48
  806e00:	d8003115 	stw	zero,196(sp)
  806e04:	0009883a 	mov	r4,zero
  806e08:	b823883a 	mov	r17,r23
  806e0c:	01400284 	movi	r5,10
  806e10:	080f5740 	call	80f574 <__mulsi3>
  806e14:	88c00007 	ldb	r3,0(r17)
  806e18:	9089883a 	add	r4,r18,r2
  806e1c:	bdc00044 	addi	r23,r23,1
  806e20:	1cbff404 	addi	r18,r3,-48
  806e24:	b823883a 	mov	r17,r23
  806e28:	b4bff82e 	bgeu	r22,r18,806e0c <__alt_mem_onchip_ram+0xff802e0c>
  806e2c:	1823883a 	mov	r17,r3
  806e30:	d9003115 	stw	r4,196(sp)
  806e34:	003f3206 	br	806b00 <__alt_mem_onchip_ram+0xff802b00>
  806e38:	84002014 	ori	r16,r16,128
  806e3c:	bc400007 	ldb	r17,0(r23)
  806e40:	003f2e06 	br	806afc <__alt_mem_onchip_ram+0xff802afc>
  806e44:	8025883a 	mov	r18,r16
  806e48:	dc002903 	ldbu	r16,164(sp)
  806e4c:	e011883a 	mov	r8,fp
  806e50:	84003fcc 	andi	r16,r16,255
  806e54:	8007721e 	bne	r16,zero,808c20 <___svfprintf_internal_r+0x2278>
  806e58:	9080020c 	andi	r2,r18,8
  806e5c:	1004a526 	beq	r2,zero,8080f4 <___svfprintf_internal_r+0x174c>
  806e60:	d9002e17 	ldw	r4,184(sp)
  806e64:	d9402e17 	ldw	r5,184(sp)
  806e68:	d8802e17 	ldw	r2,184(sp)
  806e6c:	21000017 	ldw	r4,0(r4)
  806e70:	29400117 	ldw	r5,4(r5)
  806e74:	10800204 	addi	r2,r2,8
  806e78:	d9003615 	stw	r4,216(sp)
  806e7c:	d9403715 	stw	r5,220(sp)
  806e80:	d8802e15 	stw	r2,184(sp)
  806e84:	d9003617 	ldw	r4,216(sp)
  806e88:	d9403717 	ldw	r5,220(sp)
  806e8c:	da003e15 	stw	r8,248(sp)
  806e90:	04000044 	movi	r16,1
  806e94:	08042a00 	call	8042a0 <__fpclassifyd>
  806e98:	da003e17 	ldw	r8,248(sp)
  806e9c:	1404731e 	bne	r2,r16,80806c <___svfprintf_internal_r+0x16c4>
  806ea0:	d9003617 	ldw	r4,216(sp)
  806ea4:	d9403717 	ldw	r5,220(sp)
  806ea8:	000d883a 	mov	r6,zero
  806eac:	000f883a 	mov	r7,zero
  806eb0:	0810b780 	call	810b78 <__ledf2>
  806eb4:	da003e17 	ldw	r8,248(sp)
  806eb8:	10061b16 	blt	r2,zero,808728 <___svfprintf_internal_r+0x1d80>
  806ebc:	df002783 	ldbu	fp,158(sp)
  806ec0:	008011c4 	movi	r2,71
  806ec4:	1445810e 	bge	r2,r17,8084cc <___svfprintf_internal_r+0x1b24>
  806ec8:	04002074 	movhi	r16,129
  806ecc:	84132f04 	addi	r16,r16,19644
  806ed0:	00c000c4 	movi	r3,3
  806ed4:	00bfdfc4 	movi	r2,-129
  806ed8:	d8c02915 	stw	r3,164(sp)
  806edc:	90a4703a 	and	r18,r18,r2
  806ee0:	d8c02b15 	stw	r3,172(sp)
  806ee4:	d8002a15 	stw	zero,168(sp)
  806ee8:	d8003215 	stw	zero,200(sp)
  806eec:	00006c06 	br	8070a0 <___svfprintf_internal_r+0x6f8>
  806ef0:	84000214 	ori	r16,r16,8
  806ef4:	bc400007 	ldb	r17,0(r23)
  806ef8:	003f0006 	br	806afc <__alt_mem_onchip_ram+0xff802afc>
  806efc:	8025883a 	mov	r18,r16
  806f00:	dc002903 	ldbu	r16,164(sp)
  806f04:	e011883a 	mov	r8,fp
  806f08:	84003fcc 	andi	r16,r16,255
  806f0c:	80073f1e 	bne	r16,zero,808c0c <___svfprintf_internal_r+0x2264>
  806f10:	94800414 	ori	r18,r18,16
  806f14:	9080080c 	andi	r2,r18,32
  806f18:	1003bb26 	beq	r2,zero,807e08 <___svfprintf_internal_r+0x1460>
  806f1c:	d9002e17 	ldw	r4,184(sp)
  806f20:	20800117 	ldw	r2,4(r4)
  806f24:	25000017 	ldw	r20,0(r4)
  806f28:	21000204 	addi	r4,r4,8
  806f2c:	d9002e15 	stw	r4,184(sp)
  806f30:	102d883a 	mov	r22,r2
  806f34:	1003bd16 	blt	r2,zero,807e2c <___svfprintf_internal_r+0x1484>
  806f38:	d9002a17 	ldw	r4,168(sp)
  806f3c:	df002783 	ldbu	fp,158(sp)
  806f40:	2003d016 	blt	r4,zero,807e84 <___svfprintf_internal_r+0x14dc>
  806f44:	00ffdfc4 	movi	r3,-129
  806f48:	a584b03a 	or	r2,r20,r22
  806f4c:	90e4703a 	and	r18,r18,r3
  806f50:	10015026 	beq	r2,zero,807494 <___svfprintf_internal_r+0xaec>
  806f54:	b0037026 	beq	r22,zero,807d18 <___svfprintf_internal_r+0x1370>
  806f58:	dc402915 	stw	r17,164(sp)
  806f5c:	dc001e04 	addi	r16,sp,120
  806f60:	b023883a 	mov	r17,r22
  806f64:	402d883a 	mov	r22,r8
  806f68:	a009883a 	mov	r4,r20
  806f6c:	880b883a 	mov	r5,r17
  806f70:	01800284 	movi	r6,10
  806f74:	000f883a 	mov	r7,zero
  806f78:	080edfc0 	call	80edfc <__umoddi3>
  806f7c:	10800c04 	addi	r2,r2,48
  806f80:	843fffc4 	addi	r16,r16,-1
  806f84:	a009883a 	mov	r4,r20
  806f88:	880b883a 	mov	r5,r17
  806f8c:	80800005 	stb	r2,0(r16)
  806f90:	01800284 	movi	r6,10
  806f94:	000f883a 	mov	r7,zero
  806f98:	080e8000 	call	80e800 <__udivdi3>
  806f9c:	1029883a 	mov	r20,r2
  806fa0:	10c4b03a 	or	r2,r2,r3
  806fa4:	1823883a 	mov	r17,r3
  806fa8:	103fef1e 	bne	r2,zero,806f68 <__alt_mem_onchip_ram+0xff802f68>
  806fac:	d8c02817 	ldw	r3,160(sp)
  806fb0:	dc402917 	ldw	r17,164(sp)
  806fb4:	b011883a 	mov	r8,r22
  806fb8:	1c07c83a 	sub	r3,r3,r16
  806fbc:	d8c02b15 	stw	r3,172(sp)
  806fc0:	00003106 	br	807088 <___svfprintf_internal_r+0x6e0>
  806fc4:	8025883a 	mov	r18,r16
  806fc8:	dc002903 	ldbu	r16,164(sp)
  806fcc:	e011883a 	mov	r8,fp
  806fd0:	84003fcc 	andi	r16,r16,255
  806fd4:	80070a1e 	bne	r16,zero,808c00 <___svfprintf_internal_r+0x2258>
  806fd8:	94800414 	ori	r18,r18,16
  806fdc:	9080080c 	andi	r2,r18,32
  806fe0:	1002f626 	beq	r2,zero,807bbc <___svfprintf_internal_r+0x1214>
  806fe4:	d9002e17 	ldw	r4,184(sp)
  806fe8:	d9402a17 	ldw	r5,168(sp)
  806fec:	d8002785 	stb	zero,158(sp)
  806ff0:	20800204 	addi	r2,r4,8
  806ff4:	25000017 	ldw	r20,0(r4)
  806ff8:	25800117 	ldw	r22,4(r4)
  806ffc:	28043716 	blt	r5,zero,8080dc <___svfprintf_internal_r+0x1734>
  807000:	013fdfc4 	movi	r4,-129
  807004:	a586b03a 	or	r3,r20,r22
  807008:	d8802e15 	stw	r2,184(sp)
  80700c:	9124703a 	and	r18,r18,r4
  807010:	1802f71e 	bne	r3,zero,807bf0 <___svfprintf_internal_r+0x1248>
  807014:	d9402a17 	ldw	r5,168(sp)
  807018:	0039883a 	mov	fp,zero
  80701c:	2806df26 	beq	r5,zero,808b9c <___svfprintf_internal_r+0x21f4>
  807020:	0029883a 	mov	r20,zero
  807024:	002d883a 	mov	r22,zero
  807028:	dc001e04 	addi	r16,sp,120
  80702c:	a006d0fa 	srli	r3,r20,3
  807030:	b008977a 	slli	r4,r22,29
  807034:	b02cd0fa 	srli	r22,r22,3
  807038:	a50001cc 	andi	r20,r20,7
  80703c:	a0800c04 	addi	r2,r20,48
  807040:	843fffc4 	addi	r16,r16,-1
  807044:	20e8b03a 	or	r20,r4,r3
  807048:	80800005 	stb	r2,0(r16)
  80704c:	a586b03a 	or	r3,r20,r22
  807050:	183ff61e 	bne	r3,zero,80702c <__alt_mem_onchip_ram+0xff80302c>
  807054:	90c0004c 	andi	r3,r18,1
  807058:	18013f26 	beq	r3,zero,807558 <___svfprintf_internal_r+0xbb0>
  80705c:	10803fcc 	andi	r2,r2,255
  807060:	1080201c 	xori	r2,r2,128
  807064:	10bfe004 	addi	r2,r2,-128
  807068:	00c00c04 	movi	r3,48
  80706c:	10c13a26 	beq	r2,r3,807558 <___svfprintf_internal_r+0xbb0>
  807070:	80ffffc5 	stb	r3,-1(r16)
  807074:	d8c02817 	ldw	r3,160(sp)
  807078:	80bfffc4 	addi	r2,r16,-1
  80707c:	1021883a 	mov	r16,r2
  807080:	1887c83a 	sub	r3,r3,r2
  807084:	d8c02b15 	stw	r3,172(sp)
  807088:	d8802b17 	ldw	r2,172(sp)
  80708c:	d9002a17 	ldw	r4,168(sp)
  807090:	1100010e 	bge	r2,r4,807098 <___svfprintf_internal_r+0x6f0>
  807094:	2005883a 	mov	r2,r4
  807098:	d8802915 	stw	r2,164(sp)
  80709c:	d8003215 	stw	zero,200(sp)
  8070a0:	e7003fcc 	andi	fp,fp,255
  8070a4:	e700201c 	xori	fp,fp,128
  8070a8:	e73fe004 	addi	fp,fp,-128
  8070ac:	e0000326 	beq	fp,zero,8070bc <___svfprintf_internal_r+0x714>
  8070b0:	d8c02917 	ldw	r3,164(sp)
  8070b4:	18c00044 	addi	r3,r3,1
  8070b8:	d8c02915 	stw	r3,164(sp)
  8070bc:	90c0008c 	andi	r3,r18,2
  8070c0:	d8c02c15 	stw	r3,176(sp)
  8070c4:	18000326 	beq	r3,zero,8070d4 <___svfprintf_internal_r+0x72c>
  8070c8:	d8c02917 	ldw	r3,164(sp)
  8070cc:	18c00084 	addi	r3,r3,2
  8070d0:	d8c02915 	stw	r3,164(sp)
  8070d4:	90c0210c 	andi	r3,r18,132
  8070d8:	d8c03015 	stw	r3,192(sp)
  8070dc:	1801c31e 	bne	r3,zero,8077ec <___svfprintf_internal_r+0xe44>
  8070e0:	d9003117 	ldw	r4,196(sp)
  8070e4:	d8c02917 	ldw	r3,164(sp)
  8070e8:	20e9c83a 	sub	r20,r4,r3
  8070ec:	0501bf0e 	bge	zero,r20,8077ec <___svfprintf_internal_r+0xe44>
  8070f0:	02400404 	movi	r9,16
  8070f4:	d8c02017 	ldw	r3,128(sp)
  8070f8:	d8801f17 	ldw	r2,124(sp)
  8070fc:	4d053d0e 	bge	r9,r20,8085f4 <___svfprintf_internal_r+0x1c4c>
  807100:	01402074 	movhi	r5,129
  807104:	29534284 	addi	r5,r5,19722
  807108:	dc403c15 	stw	r17,240(sp)
  80710c:	d9403515 	stw	r5,212(sp)
  807110:	a023883a 	mov	r17,r20
  807114:	482d883a 	mov	r22,r9
  807118:	9029883a 	mov	r20,r18
  80711c:	070001c4 	movi	fp,7
  807120:	8025883a 	mov	r18,r16
  807124:	dc002d17 	ldw	r16,180(sp)
  807128:	00000306 	br	807138 <___svfprintf_internal_r+0x790>
  80712c:	8c7ffc04 	addi	r17,r17,-16
  807130:	42000204 	addi	r8,r8,8
  807134:	b440130e 	bge	r22,r17,807184 <___svfprintf_internal_r+0x7dc>
  807138:	01002074 	movhi	r4,129
  80713c:	18c00404 	addi	r3,r3,16
  807140:	10800044 	addi	r2,r2,1
  807144:	21134284 	addi	r4,r4,19722
  807148:	41000015 	stw	r4,0(r8)
  80714c:	45800115 	stw	r22,4(r8)
  807150:	d8c02015 	stw	r3,128(sp)
  807154:	d8801f15 	stw	r2,124(sp)
  807158:	e0bff40e 	bge	fp,r2,80712c <__alt_mem_onchip_ram+0xff80312c>
  80715c:	d9801e04 	addi	r6,sp,120
  807160:	800b883a 	mov	r5,r16
  807164:	9809883a 	mov	r4,r19
  807168:	080ced80 	call	80ced8 <__ssprint_r>
  80716c:	103ef51e 	bne	r2,zero,806d44 <__alt_mem_onchip_ram+0xff802d44>
  807170:	8c7ffc04 	addi	r17,r17,-16
  807174:	d8c02017 	ldw	r3,128(sp)
  807178:	d8801f17 	ldw	r2,124(sp)
  80717c:	da000404 	addi	r8,sp,16
  807180:	b47fed16 	blt	r22,r17,807138 <__alt_mem_onchip_ram+0xff803138>
  807184:	9021883a 	mov	r16,r18
  807188:	a025883a 	mov	r18,r20
  80718c:	8829883a 	mov	r20,r17
  807190:	dc403c17 	ldw	r17,240(sp)
  807194:	d9403517 	ldw	r5,212(sp)
  807198:	a0c7883a 	add	r3,r20,r3
  80719c:	10800044 	addi	r2,r2,1
  8071a0:	41400015 	stw	r5,0(r8)
  8071a4:	45000115 	stw	r20,4(r8)
  8071a8:	d8c02015 	stw	r3,128(sp)
  8071ac:	d8801f15 	stw	r2,124(sp)
  8071b0:	010001c4 	movi	r4,7
  8071b4:	2082c116 	blt	r4,r2,807cbc <___svfprintf_internal_r+0x1314>
  8071b8:	df002787 	ldb	fp,158(sp)
  8071bc:	42000204 	addi	r8,r8,8
  8071c0:	e0000c26 	beq	fp,zero,8071f4 <___svfprintf_internal_r+0x84c>
  8071c4:	d8801f17 	ldw	r2,124(sp)
  8071c8:	d9002784 	addi	r4,sp,158
  8071cc:	18c00044 	addi	r3,r3,1
  8071d0:	10800044 	addi	r2,r2,1
  8071d4:	41000015 	stw	r4,0(r8)
  8071d8:	01000044 	movi	r4,1
  8071dc:	41000115 	stw	r4,4(r8)
  8071e0:	d8c02015 	stw	r3,128(sp)
  8071e4:	d8801f15 	stw	r2,124(sp)
  8071e8:	010001c4 	movi	r4,7
  8071ec:	20825a16 	blt	r4,r2,807b58 <___svfprintf_internal_r+0x11b0>
  8071f0:	42000204 	addi	r8,r8,8
  8071f4:	d8802c17 	ldw	r2,176(sp)
  8071f8:	10000c26 	beq	r2,zero,80722c <___svfprintf_internal_r+0x884>
  8071fc:	d8801f17 	ldw	r2,124(sp)
  807200:	d9002704 	addi	r4,sp,156
  807204:	18c00084 	addi	r3,r3,2
  807208:	10800044 	addi	r2,r2,1
  80720c:	41000015 	stw	r4,0(r8)
  807210:	01000084 	movi	r4,2
  807214:	41000115 	stw	r4,4(r8)
  807218:	d8c02015 	stw	r3,128(sp)
  80721c:	d8801f15 	stw	r2,124(sp)
  807220:	010001c4 	movi	r4,7
  807224:	20825416 	blt	r4,r2,807b78 <___svfprintf_internal_r+0x11d0>
  807228:	42000204 	addi	r8,r8,8
  80722c:	d9003017 	ldw	r4,192(sp)
  807230:	00802004 	movi	r2,128
  807234:	2081b926 	beq	r4,r2,80791c <___svfprintf_internal_r+0xf74>
  807238:	d9402a17 	ldw	r5,168(sp)
  80723c:	d8802b17 	ldw	r2,172(sp)
  807240:	28adc83a 	sub	r22,r5,r2
  807244:	05802f0e 	bge	zero,r22,807304 <___svfprintf_internal_r+0x95c>
  807248:	07000404 	movi	fp,16
  80724c:	d8801f17 	ldw	r2,124(sp)
  807250:	e583e20e 	bge	fp,r22,8081dc <___svfprintf_internal_r+0x1834>
  807254:	01402074 	movhi	r5,129
  807258:	29533e84 	addi	r5,r5,19706
  80725c:	dc402a15 	stw	r17,168(sp)
  807260:	d9402c15 	stw	r5,176(sp)
  807264:	b023883a 	mov	r17,r22
  807268:	050001c4 	movi	r20,7
  80726c:	902d883a 	mov	r22,r18
  807270:	8025883a 	mov	r18,r16
  807274:	dc002d17 	ldw	r16,180(sp)
  807278:	00000306 	br	807288 <___svfprintf_internal_r+0x8e0>
  80727c:	8c7ffc04 	addi	r17,r17,-16
  807280:	42000204 	addi	r8,r8,8
  807284:	e440110e 	bge	fp,r17,8072cc <___svfprintf_internal_r+0x924>
  807288:	18c00404 	addi	r3,r3,16
  80728c:	10800044 	addi	r2,r2,1
  807290:	45400015 	stw	r21,0(r8)
  807294:	47000115 	stw	fp,4(r8)
  807298:	d8c02015 	stw	r3,128(sp)
  80729c:	d8801f15 	stw	r2,124(sp)
  8072a0:	a0bff60e 	bge	r20,r2,80727c <__alt_mem_onchip_ram+0xff80327c>
  8072a4:	d9801e04 	addi	r6,sp,120
  8072a8:	800b883a 	mov	r5,r16
  8072ac:	9809883a 	mov	r4,r19
  8072b0:	080ced80 	call	80ced8 <__ssprint_r>
  8072b4:	103ea31e 	bne	r2,zero,806d44 <__alt_mem_onchip_ram+0xff802d44>
  8072b8:	8c7ffc04 	addi	r17,r17,-16
  8072bc:	d8c02017 	ldw	r3,128(sp)
  8072c0:	d8801f17 	ldw	r2,124(sp)
  8072c4:	da000404 	addi	r8,sp,16
  8072c8:	e47fef16 	blt	fp,r17,807288 <__alt_mem_onchip_ram+0xff803288>
  8072cc:	9021883a 	mov	r16,r18
  8072d0:	b025883a 	mov	r18,r22
  8072d4:	882d883a 	mov	r22,r17
  8072d8:	dc402a17 	ldw	r17,168(sp)
  8072dc:	d9002c17 	ldw	r4,176(sp)
  8072e0:	1d87883a 	add	r3,r3,r22
  8072e4:	10800044 	addi	r2,r2,1
  8072e8:	41000015 	stw	r4,0(r8)
  8072ec:	45800115 	stw	r22,4(r8)
  8072f0:	d8c02015 	stw	r3,128(sp)
  8072f4:	d8801f15 	stw	r2,124(sp)
  8072f8:	010001c4 	movi	r4,7
  8072fc:	20820e16 	blt	r4,r2,807b38 <___svfprintf_internal_r+0x1190>
  807300:	42000204 	addi	r8,r8,8
  807304:	9080400c 	andi	r2,r18,256
  807308:	10013a1e 	bne	r2,zero,8077f4 <___svfprintf_internal_r+0xe4c>
  80730c:	d9402b17 	ldw	r5,172(sp)
  807310:	d8801f17 	ldw	r2,124(sp)
  807314:	44000015 	stw	r16,0(r8)
  807318:	1947883a 	add	r3,r3,r5
  80731c:	10800044 	addi	r2,r2,1
  807320:	41400115 	stw	r5,4(r8)
  807324:	d8c02015 	stw	r3,128(sp)
  807328:	d8801f15 	stw	r2,124(sp)
  80732c:	010001c4 	movi	r4,7
  807330:	2081f316 	blt	r4,r2,807b00 <___svfprintf_internal_r+0x1158>
  807334:	42000204 	addi	r8,r8,8
  807338:	9480010c 	andi	r18,r18,4
  80733c:	90003226 	beq	r18,zero,807408 <___svfprintf_internal_r+0xa60>
  807340:	d9403117 	ldw	r5,196(sp)
  807344:	d8802917 	ldw	r2,164(sp)
  807348:	28a1c83a 	sub	r16,r5,r2
  80734c:	04002e0e 	bge	zero,r16,807408 <___svfprintf_internal_r+0xa60>
  807350:	04400404 	movi	r17,16
  807354:	d8801f17 	ldw	r2,124(sp)
  807358:	8c04db0e 	bge	r17,r16,8086c8 <___svfprintf_internal_r+0x1d20>
  80735c:	01402074 	movhi	r5,129
  807360:	29534284 	addi	r5,r5,19722
  807364:	d9403515 	stw	r5,212(sp)
  807368:	048001c4 	movi	r18,7
  80736c:	dd002d17 	ldw	r20,180(sp)
  807370:	00000306 	br	807380 <___svfprintf_internal_r+0x9d8>
  807374:	843ffc04 	addi	r16,r16,-16
  807378:	42000204 	addi	r8,r8,8
  80737c:	8c00130e 	bge	r17,r16,8073cc <___svfprintf_internal_r+0xa24>
  807380:	01002074 	movhi	r4,129
  807384:	18c00404 	addi	r3,r3,16
  807388:	10800044 	addi	r2,r2,1
  80738c:	21134284 	addi	r4,r4,19722
  807390:	41000015 	stw	r4,0(r8)
  807394:	44400115 	stw	r17,4(r8)
  807398:	d8c02015 	stw	r3,128(sp)
  80739c:	d8801f15 	stw	r2,124(sp)
  8073a0:	90bff40e 	bge	r18,r2,807374 <__alt_mem_onchip_ram+0xff803374>
  8073a4:	d9801e04 	addi	r6,sp,120
  8073a8:	a00b883a 	mov	r5,r20
  8073ac:	9809883a 	mov	r4,r19
  8073b0:	080ced80 	call	80ced8 <__ssprint_r>
  8073b4:	103e631e 	bne	r2,zero,806d44 <__alt_mem_onchip_ram+0xff802d44>
  8073b8:	843ffc04 	addi	r16,r16,-16
  8073bc:	d8c02017 	ldw	r3,128(sp)
  8073c0:	d8801f17 	ldw	r2,124(sp)
  8073c4:	da000404 	addi	r8,sp,16
  8073c8:	8c3fed16 	blt	r17,r16,807380 <__alt_mem_onchip_ram+0xff803380>
  8073cc:	d9403517 	ldw	r5,212(sp)
  8073d0:	1c07883a 	add	r3,r3,r16
  8073d4:	10800044 	addi	r2,r2,1
  8073d8:	41400015 	stw	r5,0(r8)
  8073dc:	44000115 	stw	r16,4(r8)
  8073e0:	d8c02015 	stw	r3,128(sp)
  8073e4:	d8801f15 	stw	r2,124(sp)
  8073e8:	010001c4 	movi	r4,7
  8073ec:	2080060e 	bge	r4,r2,807408 <___svfprintf_internal_r+0xa60>
  8073f0:	d9402d17 	ldw	r5,180(sp)
  8073f4:	d9801e04 	addi	r6,sp,120
  8073f8:	9809883a 	mov	r4,r19
  8073fc:	080ced80 	call	80ced8 <__ssprint_r>
  807400:	103e501e 	bne	r2,zero,806d44 <__alt_mem_onchip_ram+0xff802d44>
  807404:	d8c02017 	ldw	r3,128(sp)
  807408:	d8803117 	ldw	r2,196(sp)
  80740c:	d9002917 	ldw	r4,164(sp)
  807410:	1100010e 	bge	r2,r4,807418 <___svfprintf_internal_r+0xa70>
  807414:	2005883a 	mov	r2,r4
  807418:	d9402f17 	ldw	r5,188(sp)
  80741c:	288b883a 	add	r5,r5,r2
  807420:	d9402f15 	stw	r5,188(sp)
  807424:	1801be1e 	bne	r3,zero,807b20 <___svfprintf_internal_r+0x1178>
  807428:	b8800007 	ldb	r2,0(r23)
  80742c:	d8001f15 	stw	zero,124(sp)
  807430:	da000404 	addi	r8,sp,16
  807434:	103d891e 	bne	r2,zero,806a5c <__alt_mem_onchip_ram+0xff802a5c>
  807438:	b823883a 	mov	r17,r23
  80743c:	003d9f06 	br	806abc <__alt_mem_onchip_ram+0xff802abc>
  807440:	8025883a 	mov	r18,r16
  807444:	dc002903 	ldbu	r16,164(sp)
  807448:	e011883a 	mov	r8,fp
  80744c:	84003fcc 	andi	r16,r16,255
  807450:	8005e61e 	bne	r16,zero,808bec <___svfprintf_internal_r+0x2244>
  807454:	94800414 	ori	r18,r18,16
  807458:	9080080c 	andi	r2,r18,32
  80745c:	10022026 	beq	r2,zero,807ce0 <___svfprintf_internal_r+0x1338>
  807460:	d9002e17 	ldw	r4,184(sp)
  807464:	d9402a17 	ldw	r5,168(sp)
  807468:	d8002785 	stb	zero,158(sp)
  80746c:	20c00204 	addi	r3,r4,8
  807470:	25000017 	ldw	r20,0(r4)
  807474:	25800117 	ldw	r22,4(r4)
  807478:	2803ad16 	blt	r5,zero,808330 <___svfprintf_internal_r+0x1988>
  80747c:	013fdfc4 	movi	r4,-129
  807480:	a584b03a 	or	r2,r20,r22
  807484:	d8c02e15 	stw	r3,184(sp)
  807488:	9124703a 	and	r18,r18,r4
  80748c:	0039883a 	mov	fp,zero
  807490:	103eb01e 	bne	r2,zero,806f54 <__alt_mem_onchip_ram+0xff802f54>
  807494:	d8802a17 	ldw	r2,168(sp)
  807498:	1002e71e 	bne	r2,zero,808038 <___svfprintf_internal_r+0x1690>
  80749c:	d8002a15 	stw	zero,168(sp)
  8074a0:	d8002b15 	stw	zero,172(sp)
  8074a4:	dc001e04 	addi	r16,sp,120
  8074a8:	003ef706 	br	807088 <__alt_mem_onchip_ram+0xff803088>
  8074ac:	8025883a 	mov	r18,r16
  8074b0:	dc002903 	ldbu	r16,164(sp)
  8074b4:	e011883a 	mov	r8,fp
  8074b8:	84003fcc 	andi	r16,r16,255
  8074bc:	8005c81e 	bne	r16,zero,808be0 <___svfprintf_internal_r+0x2238>
  8074c0:	01002074 	movhi	r4,129
  8074c4:	21133204 	addi	r4,r4,19656
  8074c8:	d9003a15 	stw	r4,232(sp)
  8074cc:	9080080c 	andi	r2,r18,32
  8074d0:	10007226 	beq	r2,zero,80769c <___svfprintf_internal_r+0xcf4>
  8074d4:	d9402e17 	ldw	r5,184(sp)
  8074d8:	2d000017 	ldw	r20,0(r5)
  8074dc:	2d800117 	ldw	r22,4(r5)
  8074e0:	29400204 	addi	r5,r5,8
  8074e4:	d9402e15 	stw	r5,184(sp)
  8074e8:	9080004c 	andi	r2,r18,1
  8074ec:	1001aa26 	beq	r2,zero,807b98 <___svfprintf_internal_r+0x11f0>
  8074f0:	a584b03a 	or	r2,r20,r22
  8074f4:	10032526 	beq	r2,zero,80818c <___svfprintf_internal_r+0x17e4>
  8074f8:	d8c02a17 	ldw	r3,168(sp)
  8074fc:	00800c04 	movi	r2,48
  807500:	d8802705 	stb	r2,156(sp)
  807504:	dc402745 	stb	r17,157(sp)
  807508:	d8002785 	stb	zero,158(sp)
  80750c:	90800094 	ori	r2,r18,2
  807510:	1804a316 	blt	r3,zero,8087a0 <___svfprintf_internal_r+0x1df8>
  807514:	00bfdfc4 	movi	r2,-129
  807518:	90a4703a 	and	r18,r18,r2
  80751c:	94800094 	ori	r18,r18,2
  807520:	0039883a 	mov	fp,zero
  807524:	d9003a17 	ldw	r4,232(sp)
  807528:	dc001e04 	addi	r16,sp,120
  80752c:	a08003cc 	andi	r2,r20,15
  807530:	b006973a 	slli	r3,r22,28
  807534:	2085883a 	add	r2,r4,r2
  807538:	a028d13a 	srli	r20,r20,4
  80753c:	10800003 	ldbu	r2,0(r2)
  807540:	b02cd13a 	srli	r22,r22,4
  807544:	843fffc4 	addi	r16,r16,-1
  807548:	1d28b03a 	or	r20,r3,r20
  80754c:	80800005 	stb	r2,0(r16)
  807550:	a584b03a 	or	r2,r20,r22
  807554:	103ff51e 	bne	r2,zero,80752c <__alt_mem_onchip_ram+0xff80352c>
  807558:	d8c02817 	ldw	r3,160(sp)
  80755c:	1c07c83a 	sub	r3,r3,r16
  807560:	d8c02b15 	stw	r3,172(sp)
  807564:	003ec806 	br	807088 <__alt_mem_onchip_ram+0xff803088>
  807568:	d8c02e17 	ldw	r3,184(sp)
  80756c:	d9002e17 	ldw	r4,184(sp)
  807570:	8025883a 	mov	r18,r16
  807574:	18800017 	ldw	r2,0(r3)
  807578:	21000104 	addi	r4,r4,4
  80757c:	00c00044 	movi	r3,1
  807580:	e011883a 	mov	r8,fp
  807584:	d8c02915 	stw	r3,164(sp)
  807588:	d8002785 	stb	zero,158(sp)
  80758c:	d8801405 	stb	r2,80(sp)
  807590:	d9002e15 	stw	r4,184(sp)
  807594:	d8c02b15 	stw	r3,172(sp)
  807598:	d8002a15 	stw	zero,168(sp)
  80759c:	d8003215 	stw	zero,200(sp)
  8075a0:	dc001404 	addi	r16,sp,80
  8075a4:	0039883a 	mov	fp,zero
  8075a8:	003ec406 	br	8070bc <__alt_mem_onchip_ram+0xff8030bc>
  8075ac:	8025883a 	mov	r18,r16
  8075b0:	dc002903 	ldbu	r16,164(sp)
  8075b4:	e011883a 	mov	r8,fp
  8075b8:	84003fcc 	andi	r16,r16,255
  8075bc:	803e8726 	beq	r16,zero,806fdc <__alt_mem_onchip_ram+0xff802fdc>
  8075c0:	d8c02b03 	ldbu	r3,172(sp)
  8075c4:	d8c02785 	stb	r3,158(sp)
  8075c8:	003e8406 	br	806fdc <__alt_mem_onchip_ram+0xff802fdc>
  8075cc:	00c00044 	movi	r3,1
  8075d0:	d8c02905 	stb	r3,164(sp)
  8075d4:	00c00ac4 	movi	r3,43
  8075d8:	d8c02b05 	stb	r3,172(sp)
  8075dc:	bc400007 	ldb	r17,0(r23)
  8075e0:	003d4606 	br	806afc <__alt_mem_onchip_ram+0xff802afc>
  8075e4:	84000814 	ori	r16,r16,32
  8075e8:	bc400007 	ldb	r17,0(r23)
  8075ec:	003d4306 	br	806afc <__alt_mem_onchip_ram+0xff802afc>
  8075f0:	d8802e17 	ldw	r2,184(sp)
  8075f4:	8025883a 	mov	r18,r16
  8075f8:	d8002785 	stb	zero,158(sp)
  8075fc:	14000017 	ldw	r16,0(r2)
  807600:	e011883a 	mov	r8,fp
  807604:	15000104 	addi	r20,r2,4
  807608:	80042126 	beq	r16,zero,808690 <___svfprintf_internal_r+0x1ce8>
  80760c:	d8c02a17 	ldw	r3,168(sp)
  807610:	1803ee16 	blt	r3,zero,8085cc <___svfprintf_internal_r+0x1c24>
  807614:	180d883a 	mov	r6,r3
  807618:	000b883a 	mov	r5,zero
  80761c:	8009883a 	mov	r4,r16
  807620:	df003e15 	stw	fp,248(sp)
  807624:	080b6100 	call	80b610 <memchr>
  807628:	da003e17 	ldw	r8,248(sp)
  80762c:	10046a26 	beq	r2,zero,8087d8 <___svfprintf_internal_r+0x1e30>
  807630:	1405c83a 	sub	r2,r2,r16
  807634:	d8802b15 	stw	r2,172(sp)
  807638:	1003ea16 	blt	r2,zero,8085e4 <___svfprintf_internal_r+0x1c3c>
  80763c:	df002783 	ldbu	fp,158(sp)
  807640:	d8802915 	stw	r2,164(sp)
  807644:	dd002e15 	stw	r20,184(sp)
  807648:	d8002a15 	stw	zero,168(sp)
  80764c:	d8003215 	stw	zero,200(sp)
  807650:	003e9306 	br	8070a0 <__alt_mem_onchip_ram+0xff8030a0>
  807654:	8025883a 	mov	r18,r16
  807658:	dc002903 	ldbu	r16,164(sp)
  80765c:	e011883a 	mov	r8,fp
  807660:	84003fcc 	andi	r16,r16,255
  807664:	803f7c26 	beq	r16,zero,807458 <__alt_mem_onchip_ram+0xff803458>
  807668:	d8c02b03 	ldbu	r3,172(sp)
  80766c:	d8c02785 	stb	r3,158(sp)
  807670:	003f7906 	br	807458 <__alt_mem_onchip_ram+0xff803458>
  807674:	8025883a 	mov	r18,r16
  807678:	dc002903 	ldbu	r16,164(sp)
  80767c:	e011883a 	mov	r8,fp
  807680:	84003fcc 	andi	r16,r16,255
  807684:	8005741e 	bne	r16,zero,808c58 <___svfprintf_internal_r+0x22b0>
  807688:	01002074 	movhi	r4,129
  80768c:	21133704 	addi	r4,r4,19676
  807690:	d9003a15 	stw	r4,232(sp)
  807694:	9080080c 	andi	r2,r18,32
  807698:	103f8e1e 	bne	r2,zero,8074d4 <__alt_mem_onchip_ram+0xff8034d4>
  80769c:	9080040c 	andi	r2,r18,16
  8076a0:	1002a726 	beq	r2,zero,808140 <___svfprintf_internal_r+0x1798>
  8076a4:	d8802e17 	ldw	r2,184(sp)
  8076a8:	002d883a 	mov	r22,zero
  8076ac:	15000017 	ldw	r20,0(r2)
  8076b0:	10800104 	addi	r2,r2,4
  8076b4:	d8802e15 	stw	r2,184(sp)
  8076b8:	003f8b06 	br	8074e8 <__alt_mem_onchip_ram+0xff8034e8>
  8076bc:	84000054 	ori	r16,r16,1
  8076c0:	bc400007 	ldb	r17,0(r23)
  8076c4:	003d0d06 	br	806afc <__alt_mem_onchip_ram+0xff802afc>
  8076c8:	d8802b07 	ldb	r2,172(sp)
  8076cc:	1002a41e 	bne	r2,zero,808160 <___svfprintf_internal_r+0x17b8>
  8076d0:	00c00044 	movi	r3,1
  8076d4:	d8c02905 	stb	r3,164(sp)
  8076d8:	00c00804 	movi	r3,32
  8076dc:	d8c02b05 	stb	r3,172(sp)
  8076e0:	bc400007 	ldb	r17,0(r23)
  8076e4:	003d0506 	br	806afc <__alt_mem_onchip_ram+0xff802afc>
  8076e8:	8025883a 	mov	r18,r16
  8076ec:	dc002903 	ldbu	r16,164(sp)
  8076f0:	e011883a 	mov	r8,fp
  8076f4:	84003fcc 	andi	r16,r16,255
  8076f8:	803e0626 	beq	r16,zero,806f14 <__alt_mem_onchip_ram+0xff802f14>
  8076fc:	d8c02b03 	ldbu	r3,172(sp)
  807700:	d8c02785 	stb	r3,158(sp)
  807704:	003e0306 	br	806f14 <__alt_mem_onchip_ram+0xff802f14>
  807708:	bc400007 	ldb	r17,0(r23)
  80770c:	00801b04 	movi	r2,108
  807710:	88830a26 	beq	r17,r2,80833c <___svfprintf_internal_r+0x1994>
  807714:	84000414 	ori	r16,r16,16
  807718:	003cf806 	br	806afc <__alt_mem_onchip_ram+0xff802afc>
  80771c:	8025883a 	mov	r18,r16
  807720:	dc002903 	ldbu	r16,164(sp)
  807724:	e011883a 	mov	r8,fp
  807728:	84003fcc 	andi	r16,r16,255
  80772c:	8005471e 	bne	r16,zero,808c4c <___svfprintf_internal_r+0x22a4>
  807730:	9080080c 	andi	r2,r18,32
  807734:	10028c26 	beq	r2,zero,808168 <___svfprintf_internal_r+0x17c0>
  807738:	d9002e17 	ldw	r4,184(sp)
  80773c:	d9402f17 	ldw	r5,188(sp)
  807740:	20800017 	ldw	r2,0(r4)
  807744:	2807d7fa 	srai	r3,r5,31
  807748:	21000104 	addi	r4,r4,4
  80774c:	d9002e15 	stw	r4,184(sp)
  807750:	11400015 	stw	r5,0(r2)
  807754:	10c00115 	stw	r3,4(r2)
  807758:	003cbe06 	br	806a54 <__alt_mem_onchip_ram+0xff802a54>
  80775c:	84001014 	ori	r16,r16,64
  807760:	bc400007 	ldb	r17,0(r23)
  807764:	003ce506 	br	806afc <__alt_mem_onchip_ram+0xff802afc>
  807768:	01002074 	movhi	r4,129
  80776c:	21133704 	addi	r4,r4,19676
  807770:	0039883a 	mov	fp,zero
  807774:	d9003a15 	stw	r4,232(sp)
  807778:	04401e04 	movi	r17,120
  80777c:	003f6906 	br	807524 <__alt_mem_onchip_ram+0xff803524>
  807780:	8025883a 	mov	r18,r16
  807784:	dc002903 	ldbu	r16,164(sp)
  807788:	e011883a 	mov	r8,fp
  80778c:	84003fcc 	andi	r16,r16,255
  807790:	8005261e 	bne	r16,zero,808c2c <___svfprintf_internal_r+0x2284>
  807794:	883d6526 	beq	r17,zero,806d2c <__alt_mem_onchip_ram+0xff802d2c>
  807798:	00c00044 	movi	r3,1
  80779c:	d8c02915 	stw	r3,164(sp)
  8077a0:	dc401405 	stb	r17,80(sp)
  8077a4:	d8002785 	stb	zero,158(sp)
  8077a8:	003f7a06 	br	807594 <__alt_mem_onchip_ram+0xff803594>
  8077ac:	01002074 	movhi	r4,129
  8077b0:	21133704 	addi	r4,r4,19676
  8077b4:	d9003a15 	stw	r4,232(sp)
  8077b8:	d8c02e15 	stw	r3,184(sp)
  8077bc:	1025883a 	mov	r18,r2
  8077c0:	04401e04 	movi	r17,120
  8077c4:	a584b03a 	or	r2,r20,r22
  8077c8:	1000fa1e 	bne	r2,zero,807bb4 <___svfprintf_internal_r+0x120c>
  8077cc:	0039883a 	mov	fp,zero
  8077d0:	00800084 	movi	r2,2
  8077d4:	10803fcc 	andi	r2,r2,255
  8077d8:	00c00044 	movi	r3,1
  8077dc:	10c21626 	beq	r2,r3,808038 <___svfprintf_internal_r+0x1690>
  8077e0:	00c00084 	movi	r3,2
  8077e4:	10fe0e1e 	bne	r2,r3,807020 <__alt_mem_onchip_ram+0xff803020>
  8077e8:	003d4606 	br	806d04 <__alt_mem_onchip_ram+0xff802d04>
  8077ec:	d8c02017 	ldw	r3,128(sp)
  8077f0:	003e7306 	br	8071c0 <__alt_mem_onchip_ram+0xff8031c0>
  8077f4:	00801944 	movi	r2,101
  8077f8:	14407c0e 	bge	r2,r17,8079ec <___svfprintf_internal_r+0x1044>
  8077fc:	d9003617 	ldw	r4,216(sp)
  807800:	d9403717 	ldw	r5,220(sp)
  807804:	000d883a 	mov	r6,zero
  807808:	000f883a 	mov	r7,zero
  80780c:	d8c03d15 	stw	r3,244(sp)
  807810:	da003e15 	stw	r8,248(sp)
  807814:	0810a140 	call	810a14 <__eqdf2>
  807818:	d8c03d17 	ldw	r3,244(sp)
  80781c:	da003e17 	ldw	r8,248(sp)
  807820:	1000f51e 	bne	r2,zero,807bf8 <___svfprintf_internal_r+0x1250>
  807824:	d8801f17 	ldw	r2,124(sp)
  807828:	01002074 	movhi	r4,129
  80782c:	21133e04 	addi	r4,r4,19704
  807830:	18c00044 	addi	r3,r3,1
  807834:	10800044 	addi	r2,r2,1
  807838:	41000015 	stw	r4,0(r8)
  80783c:	01000044 	movi	r4,1
  807840:	41000115 	stw	r4,4(r8)
  807844:	d8c02015 	stw	r3,128(sp)
  807848:	d8801f15 	stw	r2,124(sp)
  80784c:	010001c4 	movi	r4,7
  807850:	20826616 	blt	r4,r2,8081ec <___svfprintf_internal_r+0x1844>
  807854:	42000204 	addi	r8,r8,8
  807858:	d8802617 	ldw	r2,152(sp)
  80785c:	d9403317 	ldw	r5,204(sp)
  807860:	11400216 	blt	r2,r5,80786c <___svfprintf_internal_r+0xec4>
  807864:	9080004c 	andi	r2,r18,1
  807868:	103eb326 	beq	r2,zero,807338 <__alt_mem_onchip_ram+0xff803338>
  80786c:	d8803817 	ldw	r2,224(sp)
  807870:	d9003417 	ldw	r4,208(sp)
  807874:	d9403817 	ldw	r5,224(sp)
  807878:	1887883a 	add	r3,r3,r2
  80787c:	d8801f17 	ldw	r2,124(sp)
  807880:	41000015 	stw	r4,0(r8)
  807884:	41400115 	stw	r5,4(r8)
  807888:	10800044 	addi	r2,r2,1
  80788c:	d8c02015 	stw	r3,128(sp)
  807890:	d8801f15 	stw	r2,124(sp)
  807894:	010001c4 	movi	r4,7
  807898:	2082af16 	blt	r4,r2,808358 <___svfprintf_internal_r+0x19b0>
  80789c:	42000204 	addi	r8,r8,8
  8078a0:	d8803317 	ldw	r2,204(sp)
  8078a4:	143fffc4 	addi	r16,r2,-1
  8078a8:	043ea30e 	bge	zero,r16,807338 <__alt_mem_onchip_ram+0xff803338>
  8078ac:	04400404 	movi	r17,16
  8078b0:	d8801f17 	ldw	r2,124(sp)
  8078b4:	8c00860e 	bge	r17,r16,807ad0 <___svfprintf_internal_r+0x1128>
  8078b8:	01402074 	movhi	r5,129
  8078bc:	29533e84 	addi	r5,r5,19706
  8078c0:	d9402c15 	stw	r5,176(sp)
  8078c4:	058001c4 	movi	r22,7
  8078c8:	dd002d17 	ldw	r20,180(sp)
  8078cc:	00000306 	br	8078dc <___svfprintf_internal_r+0xf34>
  8078d0:	42000204 	addi	r8,r8,8
  8078d4:	843ffc04 	addi	r16,r16,-16
  8078d8:	8c00800e 	bge	r17,r16,807adc <___svfprintf_internal_r+0x1134>
  8078dc:	18c00404 	addi	r3,r3,16
  8078e0:	10800044 	addi	r2,r2,1
  8078e4:	45400015 	stw	r21,0(r8)
  8078e8:	44400115 	stw	r17,4(r8)
  8078ec:	d8c02015 	stw	r3,128(sp)
  8078f0:	d8801f15 	stw	r2,124(sp)
  8078f4:	b0bff60e 	bge	r22,r2,8078d0 <__alt_mem_onchip_ram+0xff8038d0>
  8078f8:	d9801e04 	addi	r6,sp,120
  8078fc:	a00b883a 	mov	r5,r20
  807900:	9809883a 	mov	r4,r19
  807904:	080ced80 	call	80ced8 <__ssprint_r>
  807908:	103d0e1e 	bne	r2,zero,806d44 <__alt_mem_onchip_ram+0xff802d44>
  80790c:	d8c02017 	ldw	r3,128(sp)
  807910:	d8801f17 	ldw	r2,124(sp)
  807914:	da000404 	addi	r8,sp,16
  807918:	003fee06 	br	8078d4 <__alt_mem_onchip_ram+0xff8038d4>
  80791c:	d9403117 	ldw	r5,196(sp)
  807920:	d8802917 	ldw	r2,164(sp)
  807924:	28adc83a 	sub	r22,r5,r2
  807928:	05be430e 	bge	zero,r22,807238 <__alt_mem_onchip_ram+0xff803238>
  80792c:	07000404 	movi	fp,16
  807930:	d8801f17 	ldw	r2,124(sp)
  807934:	e583a20e 	bge	fp,r22,8087c0 <___svfprintf_internal_r+0x1e18>
  807938:	01402074 	movhi	r5,129
  80793c:	29533e84 	addi	r5,r5,19706
  807940:	dc403015 	stw	r17,192(sp)
  807944:	d9402c15 	stw	r5,176(sp)
  807948:	b023883a 	mov	r17,r22
  80794c:	050001c4 	movi	r20,7
  807950:	902d883a 	mov	r22,r18
  807954:	8025883a 	mov	r18,r16
  807958:	dc002d17 	ldw	r16,180(sp)
  80795c:	00000306 	br	80796c <___svfprintf_internal_r+0xfc4>
  807960:	8c7ffc04 	addi	r17,r17,-16
  807964:	42000204 	addi	r8,r8,8
  807968:	e440110e 	bge	fp,r17,8079b0 <___svfprintf_internal_r+0x1008>
  80796c:	18c00404 	addi	r3,r3,16
  807970:	10800044 	addi	r2,r2,1
  807974:	45400015 	stw	r21,0(r8)
  807978:	47000115 	stw	fp,4(r8)
  80797c:	d8c02015 	stw	r3,128(sp)
  807980:	d8801f15 	stw	r2,124(sp)
  807984:	a0bff60e 	bge	r20,r2,807960 <__alt_mem_onchip_ram+0xff803960>
  807988:	d9801e04 	addi	r6,sp,120
  80798c:	800b883a 	mov	r5,r16
  807990:	9809883a 	mov	r4,r19
  807994:	080ced80 	call	80ced8 <__ssprint_r>
  807998:	103cea1e 	bne	r2,zero,806d44 <__alt_mem_onchip_ram+0xff802d44>
  80799c:	8c7ffc04 	addi	r17,r17,-16
  8079a0:	d8c02017 	ldw	r3,128(sp)
  8079a4:	d8801f17 	ldw	r2,124(sp)
  8079a8:	da000404 	addi	r8,sp,16
  8079ac:	e47fef16 	blt	fp,r17,80796c <__alt_mem_onchip_ram+0xff80396c>
  8079b0:	9021883a 	mov	r16,r18
  8079b4:	b025883a 	mov	r18,r22
  8079b8:	882d883a 	mov	r22,r17
  8079bc:	dc403017 	ldw	r17,192(sp)
  8079c0:	d9002c17 	ldw	r4,176(sp)
  8079c4:	1d87883a 	add	r3,r3,r22
  8079c8:	10800044 	addi	r2,r2,1
  8079cc:	41000015 	stw	r4,0(r8)
  8079d0:	45800115 	stw	r22,4(r8)
  8079d4:	d8c02015 	stw	r3,128(sp)
  8079d8:	d8801f15 	stw	r2,124(sp)
  8079dc:	010001c4 	movi	r4,7
  8079e0:	20819a16 	blt	r4,r2,80804c <___svfprintf_internal_r+0x16a4>
  8079e4:	42000204 	addi	r8,r8,8
  8079e8:	003e1306 	br	807238 <__alt_mem_onchip_ram+0xff803238>
  8079ec:	d9403317 	ldw	r5,204(sp)
  8079f0:	00800044 	movi	r2,1
  8079f4:	18c00044 	addi	r3,r3,1
  8079f8:	1141710e 	bge	r2,r5,807fc0 <___svfprintf_internal_r+0x1618>
  8079fc:	dc401f17 	ldw	r17,124(sp)
  807a00:	00800044 	movi	r2,1
  807a04:	40800115 	stw	r2,4(r8)
  807a08:	8c400044 	addi	r17,r17,1
  807a0c:	44000015 	stw	r16,0(r8)
  807a10:	d8c02015 	stw	r3,128(sp)
  807a14:	dc401f15 	stw	r17,124(sp)
  807a18:	008001c4 	movi	r2,7
  807a1c:	14417416 	blt	r2,r17,807ff0 <___svfprintf_internal_r+0x1648>
  807a20:	42000204 	addi	r8,r8,8
  807a24:	d8803817 	ldw	r2,224(sp)
  807a28:	d9003417 	ldw	r4,208(sp)
  807a2c:	8c400044 	addi	r17,r17,1
  807a30:	10c7883a 	add	r3,r2,r3
  807a34:	40800115 	stw	r2,4(r8)
  807a38:	41000015 	stw	r4,0(r8)
  807a3c:	d8c02015 	stw	r3,128(sp)
  807a40:	dc401f15 	stw	r17,124(sp)
  807a44:	008001c4 	movi	r2,7
  807a48:	14417216 	blt	r2,r17,808014 <___svfprintf_internal_r+0x166c>
  807a4c:	45800204 	addi	r22,r8,8
  807a50:	d9003617 	ldw	r4,216(sp)
  807a54:	d9403717 	ldw	r5,220(sp)
  807a58:	000d883a 	mov	r6,zero
  807a5c:	000f883a 	mov	r7,zero
  807a60:	d8c03d15 	stw	r3,244(sp)
  807a64:	0810a140 	call	810a14 <__eqdf2>
  807a68:	d8c03d17 	ldw	r3,244(sp)
  807a6c:	1000b326 	beq	r2,zero,807d3c <___svfprintf_internal_r+0x1394>
  807a70:	d9403317 	ldw	r5,204(sp)
  807a74:	84000044 	addi	r16,r16,1
  807a78:	8c400044 	addi	r17,r17,1
  807a7c:	28bfffc4 	addi	r2,r5,-1
  807a80:	1887883a 	add	r3,r3,r2
  807a84:	b0800115 	stw	r2,4(r22)
  807a88:	b4000015 	stw	r16,0(r22)
  807a8c:	d8c02015 	stw	r3,128(sp)
  807a90:	dc401f15 	stw	r17,124(sp)
  807a94:	008001c4 	movi	r2,7
  807a98:	1440d216 	blt	r2,r17,807de4 <___svfprintf_internal_r+0x143c>
  807a9c:	b5800204 	addi	r22,r22,8
  807aa0:	d9003b17 	ldw	r4,236(sp)
  807aa4:	df0022c4 	addi	fp,sp,139
  807aa8:	8c400044 	addi	r17,r17,1
  807aac:	20c7883a 	add	r3,r4,r3
  807ab0:	b7000015 	stw	fp,0(r22)
  807ab4:	b1000115 	stw	r4,4(r22)
  807ab8:	d8c02015 	stw	r3,128(sp)
  807abc:	dc401f15 	stw	r17,124(sp)
  807ac0:	008001c4 	movi	r2,7
  807ac4:	14400e16 	blt	r2,r17,807b00 <___svfprintf_internal_r+0x1158>
  807ac8:	b2000204 	addi	r8,r22,8
  807acc:	003e1a06 	br	807338 <__alt_mem_onchip_ram+0xff803338>
  807ad0:	01002074 	movhi	r4,129
  807ad4:	21133e84 	addi	r4,r4,19706
  807ad8:	d9002c15 	stw	r4,176(sp)
  807adc:	d9002c17 	ldw	r4,176(sp)
  807ae0:	1c07883a 	add	r3,r3,r16
  807ae4:	44000115 	stw	r16,4(r8)
  807ae8:	41000015 	stw	r4,0(r8)
  807aec:	10800044 	addi	r2,r2,1
  807af0:	d8c02015 	stw	r3,128(sp)
  807af4:	d8801f15 	stw	r2,124(sp)
  807af8:	010001c4 	movi	r4,7
  807afc:	20be0d0e 	bge	r4,r2,807334 <__alt_mem_onchip_ram+0xff803334>
  807b00:	d9402d17 	ldw	r5,180(sp)
  807b04:	d9801e04 	addi	r6,sp,120
  807b08:	9809883a 	mov	r4,r19
  807b0c:	080ced80 	call	80ced8 <__ssprint_r>
  807b10:	103c8c1e 	bne	r2,zero,806d44 <__alt_mem_onchip_ram+0xff802d44>
  807b14:	d8c02017 	ldw	r3,128(sp)
  807b18:	da000404 	addi	r8,sp,16
  807b1c:	003e0606 	br	807338 <__alt_mem_onchip_ram+0xff803338>
  807b20:	d9402d17 	ldw	r5,180(sp)
  807b24:	d9801e04 	addi	r6,sp,120
  807b28:	9809883a 	mov	r4,r19
  807b2c:	080ced80 	call	80ced8 <__ssprint_r>
  807b30:	103e3d26 	beq	r2,zero,807428 <__alt_mem_onchip_ram+0xff803428>
  807b34:	003c8306 	br	806d44 <__alt_mem_onchip_ram+0xff802d44>
  807b38:	d9402d17 	ldw	r5,180(sp)
  807b3c:	d9801e04 	addi	r6,sp,120
  807b40:	9809883a 	mov	r4,r19
  807b44:	080ced80 	call	80ced8 <__ssprint_r>
  807b48:	103c7e1e 	bne	r2,zero,806d44 <__alt_mem_onchip_ram+0xff802d44>
  807b4c:	d8c02017 	ldw	r3,128(sp)
  807b50:	da000404 	addi	r8,sp,16
  807b54:	003deb06 	br	807304 <__alt_mem_onchip_ram+0xff803304>
  807b58:	d9402d17 	ldw	r5,180(sp)
  807b5c:	d9801e04 	addi	r6,sp,120
  807b60:	9809883a 	mov	r4,r19
  807b64:	080ced80 	call	80ced8 <__ssprint_r>
  807b68:	103c761e 	bne	r2,zero,806d44 <__alt_mem_onchip_ram+0xff802d44>
  807b6c:	d8c02017 	ldw	r3,128(sp)
  807b70:	da000404 	addi	r8,sp,16
  807b74:	003d9f06 	br	8071f4 <__alt_mem_onchip_ram+0xff8031f4>
  807b78:	d9402d17 	ldw	r5,180(sp)
  807b7c:	d9801e04 	addi	r6,sp,120
  807b80:	9809883a 	mov	r4,r19
  807b84:	080ced80 	call	80ced8 <__ssprint_r>
  807b88:	103c6e1e 	bne	r2,zero,806d44 <__alt_mem_onchip_ram+0xff802d44>
  807b8c:	d8c02017 	ldw	r3,128(sp)
  807b90:	da000404 	addi	r8,sp,16
  807b94:	003da506 	br	80722c <__alt_mem_onchip_ram+0xff80322c>
  807b98:	d9402a17 	ldw	r5,168(sp)
  807b9c:	d8002785 	stb	zero,158(sp)
  807ba0:	283f0816 	blt	r5,zero,8077c4 <__alt_mem_onchip_ram+0xff8037c4>
  807ba4:	00ffdfc4 	movi	r3,-129
  807ba8:	a584b03a 	or	r2,r20,r22
  807bac:	90e4703a 	and	r18,r18,r3
  807bb0:	103c5126 	beq	r2,zero,806cf8 <__alt_mem_onchip_ram+0xff802cf8>
  807bb4:	0039883a 	mov	fp,zero
  807bb8:	003e5a06 	br	807524 <__alt_mem_onchip_ram+0xff803524>
  807bbc:	9080040c 	andi	r2,r18,16
  807bc0:	10013d26 	beq	r2,zero,8080b8 <___svfprintf_internal_r+0x1710>
  807bc4:	d8c02e17 	ldw	r3,184(sp)
  807bc8:	d9002a17 	ldw	r4,168(sp)
  807bcc:	d8002785 	stb	zero,158(sp)
  807bd0:	18800104 	addi	r2,r3,4
  807bd4:	1d000017 	ldw	r20,0(r3)
  807bd8:	002d883a 	mov	r22,zero
  807bdc:	20013f16 	blt	r4,zero,8080dc <___svfprintf_internal_r+0x1734>
  807be0:	00ffdfc4 	movi	r3,-129
  807be4:	d8802e15 	stw	r2,184(sp)
  807be8:	90e4703a 	and	r18,r18,r3
  807bec:	a03d0926 	beq	r20,zero,807014 <__alt_mem_onchip_ram+0xff803014>
  807bf0:	0039883a 	mov	fp,zero
  807bf4:	003d0c06 	br	807028 <__alt_mem_onchip_ram+0xff803028>
  807bf8:	dc402617 	ldw	r17,152(sp)
  807bfc:	0441830e 	bge	zero,r17,80820c <___svfprintf_internal_r+0x1864>
  807c00:	dc403217 	ldw	r17,200(sp)
  807c04:	d8803317 	ldw	r2,204(sp)
  807c08:	1440010e 	bge	r2,r17,807c10 <___svfprintf_internal_r+0x1268>
  807c0c:	1023883a 	mov	r17,r2
  807c10:	04400a0e 	bge	zero,r17,807c3c <___svfprintf_internal_r+0x1294>
  807c14:	d8801f17 	ldw	r2,124(sp)
  807c18:	1c47883a 	add	r3,r3,r17
  807c1c:	44000015 	stw	r16,0(r8)
  807c20:	10800044 	addi	r2,r2,1
  807c24:	44400115 	stw	r17,4(r8)
  807c28:	d8c02015 	stw	r3,128(sp)
  807c2c:	d8801f15 	stw	r2,124(sp)
  807c30:	010001c4 	movi	r4,7
  807c34:	20827516 	blt	r4,r2,80860c <___svfprintf_internal_r+0x1c64>
  807c38:	42000204 	addi	r8,r8,8
  807c3c:	88027b16 	blt	r17,zero,80862c <___svfprintf_internal_r+0x1c84>
  807c40:	d9003217 	ldw	r4,200(sp)
  807c44:	2463c83a 	sub	r17,r4,r17
  807c48:	0440990e 	bge	zero,r17,807eb0 <___svfprintf_internal_r+0x1508>
  807c4c:	05800404 	movi	r22,16
  807c50:	d8801f17 	ldw	r2,124(sp)
  807c54:	b441530e 	bge	r22,r17,8081a4 <___svfprintf_internal_r+0x17fc>
  807c58:	01002074 	movhi	r4,129
  807c5c:	21133e84 	addi	r4,r4,19706
  807c60:	d9002c15 	stw	r4,176(sp)
  807c64:	070001c4 	movi	fp,7
  807c68:	dd002d17 	ldw	r20,180(sp)
  807c6c:	00000306 	br	807c7c <___svfprintf_internal_r+0x12d4>
  807c70:	42000204 	addi	r8,r8,8
  807c74:	8c7ffc04 	addi	r17,r17,-16
  807c78:	b4414d0e 	bge	r22,r17,8081b0 <___svfprintf_internal_r+0x1808>
  807c7c:	18c00404 	addi	r3,r3,16
  807c80:	10800044 	addi	r2,r2,1
  807c84:	45400015 	stw	r21,0(r8)
  807c88:	45800115 	stw	r22,4(r8)
  807c8c:	d8c02015 	stw	r3,128(sp)
  807c90:	d8801f15 	stw	r2,124(sp)
  807c94:	e0bff60e 	bge	fp,r2,807c70 <__alt_mem_onchip_ram+0xff803c70>
  807c98:	d9801e04 	addi	r6,sp,120
  807c9c:	a00b883a 	mov	r5,r20
  807ca0:	9809883a 	mov	r4,r19
  807ca4:	080ced80 	call	80ced8 <__ssprint_r>
  807ca8:	103c261e 	bne	r2,zero,806d44 <__alt_mem_onchip_ram+0xff802d44>
  807cac:	d8c02017 	ldw	r3,128(sp)
  807cb0:	d8801f17 	ldw	r2,124(sp)
  807cb4:	da000404 	addi	r8,sp,16
  807cb8:	003fee06 	br	807c74 <__alt_mem_onchip_ram+0xff803c74>
  807cbc:	d9402d17 	ldw	r5,180(sp)
  807cc0:	d9801e04 	addi	r6,sp,120
  807cc4:	9809883a 	mov	r4,r19
  807cc8:	080ced80 	call	80ced8 <__ssprint_r>
  807ccc:	103c1d1e 	bne	r2,zero,806d44 <__alt_mem_onchip_ram+0xff802d44>
  807cd0:	d8c02017 	ldw	r3,128(sp)
  807cd4:	df002787 	ldb	fp,158(sp)
  807cd8:	da000404 	addi	r8,sp,16
  807cdc:	003d3806 	br	8071c0 <__alt_mem_onchip_ram+0xff8031c0>
  807ce0:	9080040c 	andi	r2,r18,16
  807ce4:	10005c26 	beq	r2,zero,807e58 <___svfprintf_internal_r+0x14b0>
  807ce8:	d8c02e17 	ldw	r3,184(sp)
  807cec:	d9002a17 	ldw	r4,168(sp)
  807cf0:	d8002785 	stb	zero,158(sp)
  807cf4:	18800104 	addi	r2,r3,4
  807cf8:	1d000017 	ldw	r20,0(r3)
  807cfc:	002d883a 	mov	r22,zero
  807d00:	20005e16 	blt	r4,zero,807e7c <___svfprintf_internal_r+0x14d4>
  807d04:	00ffdfc4 	movi	r3,-129
  807d08:	d8802e15 	stw	r2,184(sp)
  807d0c:	90e4703a 	and	r18,r18,r3
  807d10:	0039883a 	mov	fp,zero
  807d14:	a03ddf26 	beq	r20,zero,807494 <__alt_mem_onchip_ram+0xff803494>
  807d18:	00800244 	movi	r2,9
  807d1c:	153c8e36 	bltu	r2,r20,806f58 <__alt_mem_onchip_ram+0xff802f58>
  807d20:	a5000c04 	addi	r20,r20,48
  807d24:	dc001dc4 	addi	r16,sp,119
  807d28:	dd001dc5 	stb	r20,119(sp)
  807d2c:	d8c02817 	ldw	r3,160(sp)
  807d30:	1c07c83a 	sub	r3,r3,r16
  807d34:	d8c02b15 	stw	r3,172(sp)
  807d38:	003cd306 	br	807088 <__alt_mem_onchip_ram+0xff803088>
  807d3c:	d8803317 	ldw	r2,204(sp)
  807d40:	143fffc4 	addi	r16,r2,-1
  807d44:	043f560e 	bge	zero,r16,807aa0 <__alt_mem_onchip_ram+0xff803aa0>
  807d48:	07000404 	movi	fp,16
  807d4c:	e403530e 	bge	fp,r16,808a9c <___svfprintf_internal_r+0x20f4>
  807d50:	01402074 	movhi	r5,129
  807d54:	29533e84 	addi	r5,r5,19706
  807d58:	d9402c15 	stw	r5,176(sp)
  807d5c:	01c001c4 	movi	r7,7
  807d60:	dd002d17 	ldw	r20,180(sp)
  807d64:	00000306 	br	807d74 <___svfprintf_internal_r+0x13cc>
  807d68:	843ffc04 	addi	r16,r16,-16
  807d6c:	b5800204 	addi	r22,r22,8
  807d70:	e400130e 	bge	fp,r16,807dc0 <___svfprintf_internal_r+0x1418>
  807d74:	18c00404 	addi	r3,r3,16
  807d78:	8c400044 	addi	r17,r17,1
  807d7c:	b5400015 	stw	r21,0(r22)
  807d80:	b7000115 	stw	fp,4(r22)
  807d84:	d8c02015 	stw	r3,128(sp)
  807d88:	dc401f15 	stw	r17,124(sp)
  807d8c:	3c7ff60e 	bge	r7,r17,807d68 <__alt_mem_onchip_ram+0xff803d68>
  807d90:	d9801e04 	addi	r6,sp,120
  807d94:	a00b883a 	mov	r5,r20
  807d98:	9809883a 	mov	r4,r19
  807d9c:	d9c03d15 	stw	r7,244(sp)
  807da0:	080ced80 	call	80ced8 <__ssprint_r>
  807da4:	d9c03d17 	ldw	r7,244(sp)
  807da8:	103be61e 	bne	r2,zero,806d44 <__alt_mem_onchip_ram+0xff802d44>
  807dac:	843ffc04 	addi	r16,r16,-16
  807db0:	d8c02017 	ldw	r3,128(sp)
  807db4:	dc401f17 	ldw	r17,124(sp)
  807db8:	dd800404 	addi	r22,sp,16
  807dbc:	e43fed16 	blt	fp,r16,807d74 <__alt_mem_onchip_ram+0xff803d74>
  807dc0:	d8802c17 	ldw	r2,176(sp)
  807dc4:	1c07883a 	add	r3,r3,r16
  807dc8:	8c400044 	addi	r17,r17,1
  807dcc:	b0800015 	stw	r2,0(r22)
  807dd0:	b4000115 	stw	r16,4(r22)
  807dd4:	d8c02015 	stw	r3,128(sp)
  807dd8:	dc401f15 	stw	r17,124(sp)
  807ddc:	008001c4 	movi	r2,7
  807de0:	147f2e0e 	bge	r2,r17,807a9c <__alt_mem_onchip_ram+0xff803a9c>
  807de4:	d9402d17 	ldw	r5,180(sp)
  807de8:	d9801e04 	addi	r6,sp,120
  807dec:	9809883a 	mov	r4,r19
  807df0:	080ced80 	call	80ced8 <__ssprint_r>
  807df4:	103bd31e 	bne	r2,zero,806d44 <__alt_mem_onchip_ram+0xff802d44>
  807df8:	d8c02017 	ldw	r3,128(sp)
  807dfc:	dc401f17 	ldw	r17,124(sp)
  807e00:	dd800404 	addi	r22,sp,16
  807e04:	003f2606 	br	807aa0 <__alt_mem_onchip_ram+0xff803aa0>
  807e08:	9080040c 	andi	r2,r18,16
  807e0c:	1000c326 	beq	r2,zero,80811c <___svfprintf_internal_r+0x1774>
  807e10:	d9402e17 	ldw	r5,184(sp)
  807e14:	2d000017 	ldw	r20,0(r5)
  807e18:	29400104 	addi	r5,r5,4
  807e1c:	d9402e15 	stw	r5,184(sp)
  807e20:	a02dd7fa 	srai	r22,r20,31
  807e24:	b005883a 	mov	r2,r22
  807e28:	103c430e 	bge	r2,zero,806f38 <__alt_mem_onchip_ram+0xff802f38>
  807e2c:	d9402a17 	ldw	r5,168(sp)
  807e30:	0529c83a 	sub	r20,zero,r20
  807e34:	07000b44 	movi	fp,45
  807e38:	a004c03a 	cmpne	r2,r20,zero
  807e3c:	05adc83a 	sub	r22,zero,r22
  807e40:	df002785 	stb	fp,158(sp)
  807e44:	b0adc83a 	sub	r22,r22,r2
  807e48:	28022e16 	blt	r5,zero,808704 <___svfprintf_internal_r+0x1d5c>
  807e4c:	00bfdfc4 	movi	r2,-129
  807e50:	90a4703a 	and	r18,r18,r2
  807e54:	003c3f06 	br	806f54 <__alt_mem_onchip_ram+0xff802f54>
  807e58:	9080100c 	andi	r2,r18,64
  807e5c:	d8002785 	stb	zero,158(sp)
  807e60:	10012526 	beq	r2,zero,8082f8 <___svfprintf_internal_r+0x1950>
  807e64:	d9402e17 	ldw	r5,184(sp)
  807e68:	d8c02a17 	ldw	r3,168(sp)
  807e6c:	002d883a 	mov	r22,zero
  807e70:	28800104 	addi	r2,r5,4
  807e74:	2d00000b 	ldhu	r20,0(r5)
  807e78:	183fa20e 	bge	r3,zero,807d04 <__alt_mem_onchip_ram+0xff803d04>
  807e7c:	d8802e15 	stw	r2,184(sp)
  807e80:	0039883a 	mov	fp,zero
  807e84:	a584b03a 	or	r2,r20,r22
  807e88:	103c321e 	bne	r2,zero,806f54 <__alt_mem_onchip_ram+0xff802f54>
  807e8c:	00800044 	movi	r2,1
  807e90:	003e5006 	br	8077d4 <__alt_mem_onchip_ram+0xff8037d4>
  807e94:	d9402d17 	ldw	r5,180(sp)
  807e98:	d9801e04 	addi	r6,sp,120
  807e9c:	9809883a 	mov	r4,r19
  807ea0:	080ced80 	call	80ced8 <__ssprint_r>
  807ea4:	103ba71e 	bne	r2,zero,806d44 <__alt_mem_onchip_ram+0xff802d44>
  807ea8:	d8c02017 	ldw	r3,128(sp)
  807eac:	da000404 	addi	r8,sp,16
  807eb0:	d9003217 	ldw	r4,200(sp)
  807eb4:	d8802617 	ldw	r2,152(sp)
  807eb8:	d9403317 	ldw	r5,204(sp)
  807ebc:	8123883a 	add	r17,r16,r4
  807ec0:	11400216 	blt	r2,r5,807ecc <___svfprintf_internal_r+0x1524>
  807ec4:	9100004c 	andi	r4,r18,1
  807ec8:	20000d26 	beq	r4,zero,807f00 <___svfprintf_internal_r+0x1558>
  807ecc:	d9003817 	ldw	r4,224(sp)
  807ed0:	d9403417 	ldw	r5,208(sp)
  807ed4:	1907883a 	add	r3,r3,r4
  807ed8:	d9001f17 	ldw	r4,124(sp)
  807edc:	41400015 	stw	r5,0(r8)
  807ee0:	d9403817 	ldw	r5,224(sp)
  807ee4:	21000044 	addi	r4,r4,1
  807ee8:	d8c02015 	stw	r3,128(sp)
  807eec:	41400115 	stw	r5,4(r8)
  807ef0:	d9001f15 	stw	r4,124(sp)
  807ef4:	014001c4 	movi	r5,7
  807ef8:	2901dc16 	blt	r5,r4,80866c <___svfprintf_internal_r+0x1cc4>
  807efc:	42000204 	addi	r8,r8,8
  807f00:	d9003317 	ldw	r4,204(sp)
  807f04:	8121883a 	add	r16,r16,r4
  807f08:	2085c83a 	sub	r2,r4,r2
  807f0c:	8461c83a 	sub	r16,r16,r17
  807f10:	1400010e 	bge	r2,r16,807f18 <___svfprintf_internal_r+0x1570>
  807f14:	1021883a 	mov	r16,r2
  807f18:	04000a0e 	bge	zero,r16,807f44 <___svfprintf_internal_r+0x159c>
  807f1c:	d9001f17 	ldw	r4,124(sp)
  807f20:	1c07883a 	add	r3,r3,r16
  807f24:	44400015 	stw	r17,0(r8)
  807f28:	21000044 	addi	r4,r4,1
  807f2c:	44000115 	stw	r16,4(r8)
  807f30:	d8c02015 	stw	r3,128(sp)
  807f34:	d9001f15 	stw	r4,124(sp)
  807f38:	014001c4 	movi	r5,7
  807f3c:	2901e616 	blt	r5,r4,8086d8 <___svfprintf_internal_r+0x1d30>
  807f40:	42000204 	addi	r8,r8,8
  807f44:	8001f616 	blt	r16,zero,808720 <___svfprintf_internal_r+0x1d78>
  807f48:	1421c83a 	sub	r16,r2,r16
  807f4c:	043cfa0e 	bge	zero,r16,807338 <__alt_mem_onchip_ram+0xff803338>
  807f50:	04400404 	movi	r17,16
  807f54:	d8801f17 	ldw	r2,124(sp)
  807f58:	8c3edd0e 	bge	r17,r16,807ad0 <__alt_mem_onchip_ram+0xff803ad0>
  807f5c:	01402074 	movhi	r5,129
  807f60:	29533e84 	addi	r5,r5,19706
  807f64:	d9402c15 	stw	r5,176(sp)
  807f68:	058001c4 	movi	r22,7
  807f6c:	dd002d17 	ldw	r20,180(sp)
  807f70:	00000306 	br	807f80 <___svfprintf_internal_r+0x15d8>
  807f74:	42000204 	addi	r8,r8,8
  807f78:	843ffc04 	addi	r16,r16,-16
  807f7c:	8c3ed70e 	bge	r17,r16,807adc <__alt_mem_onchip_ram+0xff803adc>
  807f80:	18c00404 	addi	r3,r3,16
  807f84:	10800044 	addi	r2,r2,1
  807f88:	45400015 	stw	r21,0(r8)
  807f8c:	44400115 	stw	r17,4(r8)
  807f90:	d8c02015 	stw	r3,128(sp)
  807f94:	d8801f15 	stw	r2,124(sp)
  807f98:	b0bff60e 	bge	r22,r2,807f74 <__alt_mem_onchip_ram+0xff803f74>
  807f9c:	d9801e04 	addi	r6,sp,120
  807fa0:	a00b883a 	mov	r5,r20
  807fa4:	9809883a 	mov	r4,r19
  807fa8:	080ced80 	call	80ced8 <__ssprint_r>
  807fac:	103b651e 	bne	r2,zero,806d44 <__alt_mem_onchip_ram+0xff802d44>
  807fb0:	d8c02017 	ldw	r3,128(sp)
  807fb4:	d8801f17 	ldw	r2,124(sp)
  807fb8:	da000404 	addi	r8,sp,16
  807fbc:	003fee06 	br	807f78 <__alt_mem_onchip_ram+0xff803f78>
  807fc0:	9088703a 	and	r4,r18,r2
  807fc4:	203e8d1e 	bne	r4,zero,8079fc <__alt_mem_onchip_ram+0xff8039fc>
  807fc8:	dc401f17 	ldw	r17,124(sp)
  807fcc:	40800115 	stw	r2,4(r8)
  807fd0:	44000015 	stw	r16,0(r8)
  807fd4:	8c400044 	addi	r17,r17,1
  807fd8:	d8c02015 	stw	r3,128(sp)
  807fdc:	dc401f15 	stw	r17,124(sp)
  807fe0:	008001c4 	movi	r2,7
  807fe4:	147f7f16 	blt	r2,r17,807de4 <__alt_mem_onchip_ram+0xff803de4>
  807fe8:	45800204 	addi	r22,r8,8
  807fec:	003eac06 	br	807aa0 <__alt_mem_onchip_ram+0xff803aa0>
  807ff0:	d9402d17 	ldw	r5,180(sp)
  807ff4:	d9801e04 	addi	r6,sp,120
  807ff8:	9809883a 	mov	r4,r19
  807ffc:	080ced80 	call	80ced8 <__ssprint_r>
  808000:	103b501e 	bne	r2,zero,806d44 <__alt_mem_onchip_ram+0xff802d44>
  808004:	d8c02017 	ldw	r3,128(sp)
  808008:	dc401f17 	ldw	r17,124(sp)
  80800c:	da000404 	addi	r8,sp,16
  808010:	003e8406 	br	807a24 <__alt_mem_onchip_ram+0xff803a24>
  808014:	d9402d17 	ldw	r5,180(sp)
  808018:	d9801e04 	addi	r6,sp,120
  80801c:	9809883a 	mov	r4,r19
  808020:	080ced80 	call	80ced8 <__ssprint_r>
  808024:	103b471e 	bne	r2,zero,806d44 <__alt_mem_onchip_ram+0xff802d44>
  808028:	d8c02017 	ldw	r3,128(sp)
  80802c:	dc401f17 	ldw	r17,124(sp)
  808030:	dd800404 	addi	r22,sp,16
  808034:	003e8606 	br	807a50 <__alt_mem_onchip_ram+0xff803a50>
  808038:	0029883a 	mov	r20,zero
  80803c:	a5000c04 	addi	r20,r20,48
  808040:	dc001dc4 	addi	r16,sp,119
  808044:	dd001dc5 	stb	r20,119(sp)
  808048:	003f3806 	br	807d2c <__alt_mem_onchip_ram+0xff803d2c>
  80804c:	d9402d17 	ldw	r5,180(sp)
  808050:	d9801e04 	addi	r6,sp,120
  808054:	9809883a 	mov	r4,r19
  808058:	080ced80 	call	80ced8 <__ssprint_r>
  80805c:	103b391e 	bne	r2,zero,806d44 <__alt_mem_onchip_ram+0xff802d44>
  808060:	d8c02017 	ldw	r3,128(sp)
  808064:	da000404 	addi	r8,sp,16
  808068:	003c7306 	br	807238 <__alt_mem_onchip_ram+0xff803238>
  80806c:	d9003617 	ldw	r4,216(sp)
  808070:	d9403717 	ldw	r5,220(sp)
  808074:	da003e15 	stw	r8,248(sp)
  808078:	08042a00 	call	8042a0 <__fpclassifyd>
  80807c:	da003e17 	ldw	r8,248(sp)
  808080:	1000bd1e 	bne	r2,zero,808378 <___svfprintf_internal_r+0x19d0>
  808084:	008011c4 	movi	r2,71
  808088:	14411e0e 	bge	r2,r17,808504 <___svfprintf_internal_r+0x1b5c>
  80808c:	04002074 	movhi	r16,129
  808090:	84133104 	addi	r16,r16,19652
  808094:	00c000c4 	movi	r3,3
  808098:	00bfdfc4 	movi	r2,-129
  80809c:	d8c02915 	stw	r3,164(sp)
  8080a0:	90a4703a 	and	r18,r18,r2
  8080a4:	df002783 	ldbu	fp,158(sp)
  8080a8:	d8c02b15 	stw	r3,172(sp)
  8080ac:	d8002a15 	stw	zero,168(sp)
  8080b0:	d8003215 	stw	zero,200(sp)
  8080b4:	003bfa06 	br	8070a0 <__alt_mem_onchip_ram+0xff8030a0>
  8080b8:	9080100c 	andi	r2,r18,64
  8080bc:	d8002785 	stb	zero,158(sp)
  8080c0:	10009426 	beq	r2,zero,808314 <___svfprintf_internal_r+0x196c>
  8080c4:	d9402e17 	ldw	r5,184(sp)
  8080c8:	d8c02a17 	ldw	r3,168(sp)
  8080cc:	002d883a 	mov	r22,zero
  8080d0:	28800104 	addi	r2,r5,4
  8080d4:	2d00000b 	ldhu	r20,0(r5)
  8080d8:	183ec10e 	bge	r3,zero,807be0 <__alt_mem_onchip_ram+0xff803be0>
  8080dc:	a586b03a 	or	r3,r20,r22
  8080e0:	d8802e15 	stw	r2,184(sp)
  8080e4:	183ec21e 	bne	r3,zero,807bf0 <__alt_mem_onchip_ram+0xff803bf0>
  8080e8:	0039883a 	mov	fp,zero
  8080ec:	0005883a 	mov	r2,zero
  8080f0:	003db806 	br	8077d4 <__alt_mem_onchip_ram+0xff8037d4>
  8080f4:	d8c02e17 	ldw	r3,184(sp)
  8080f8:	d9002e17 	ldw	r4,184(sp)
  8080fc:	d9402e17 	ldw	r5,184(sp)
  808100:	18c00017 	ldw	r3,0(r3)
  808104:	21000117 	ldw	r4,4(r4)
  808108:	29400204 	addi	r5,r5,8
  80810c:	d8c03615 	stw	r3,216(sp)
  808110:	d9003715 	stw	r4,220(sp)
  808114:	d9402e15 	stw	r5,184(sp)
  808118:	003b5a06 	br	806e84 <__alt_mem_onchip_ram+0xff802e84>
  80811c:	9080100c 	andi	r2,r18,64
  808120:	10010726 	beq	r2,zero,808540 <___svfprintf_internal_r+0x1b98>
  808124:	d8802e17 	ldw	r2,184(sp)
  808128:	1500000f 	ldh	r20,0(r2)
  80812c:	10800104 	addi	r2,r2,4
  808130:	d8802e15 	stw	r2,184(sp)
  808134:	a02dd7fa 	srai	r22,r20,31
  808138:	b005883a 	mov	r2,r22
  80813c:	003b7d06 	br	806f34 <__alt_mem_onchip_ram+0xff802f34>
  808140:	9080100c 	andi	r2,r18,64
  808144:	10010526 	beq	r2,zero,80855c <___svfprintf_internal_r+0x1bb4>
  808148:	d8c02e17 	ldw	r3,184(sp)
  80814c:	002d883a 	mov	r22,zero
  808150:	1d00000b 	ldhu	r20,0(r3)
  808154:	18c00104 	addi	r3,r3,4
  808158:	d8c02e15 	stw	r3,184(sp)
  80815c:	003ce206 	br	8074e8 <__alt_mem_onchip_ram+0xff8034e8>
  808160:	bc400007 	ldb	r17,0(r23)
  808164:	003a6506 	br	806afc <__alt_mem_onchip_ram+0xff802afc>
  808168:	9080040c 	andi	r2,r18,16
  80816c:	10010126 	beq	r2,zero,808574 <___svfprintf_internal_r+0x1bcc>
  808170:	d8c02e17 	ldw	r3,184(sp)
  808174:	d9002f17 	ldw	r4,188(sp)
  808178:	18800017 	ldw	r2,0(r3)
  80817c:	18c00104 	addi	r3,r3,4
  808180:	d8c02e15 	stw	r3,184(sp)
  808184:	11000015 	stw	r4,0(r2)
  808188:	003a3206 	br	806a54 <__alt_mem_onchip_ram+0xff802a54>
  80818c:	d9002a17 	ldw	r4,168(sp)
  808190:	d8002785 	stb	zero,158(sp)
  808194:	203d8d16 	blt	r4,zero,8077cc <__alt_mem_onchip_ram+0xff8037cc>
  808198:	00bfdfc4 	movi	r2,-129
  80819c:	90a4703a 	and	r18,r18,r2
  8081a0:	003ad506 	br	806cf8 <__alt_mem_onchip_ram+0xff802cf8>
  8081a4:	01402074 	movhi	r5,129
  8081a8:	29533e84 	addi	r5,r5,19706
  8081ac:	d9402c15 	stw	r5,176(sp)
  8081b0:	d9402c17 	ldw	r5,176(sp)
  8081b4:	1c47883a 	add	r3,r3,r17
  8081b8:	10800044 	addi	r2,r2,1
  8081bc:	41400015 	stw	r5,0(r8)
  8081c0:	44400115 	stw	r17,4(r8)
  8081c4:	d8c02015 	stw	r3,128(sp)
  8081c8:	d8801f15 	stw	r2,124(sp)
  8081cc:	010001c4 	movi	r4,7
  8081d0:	20bf3016 	blt	r4,r2,807e94 <__alt_mem_onchip_ram+0xff803e94>
  8081d4:	42000204 	addi	r8,r8,8
  8081d8:	003f3506 	br	807eb0 <__alt_mem_onchip_ram+0xff803eb0>
  8081dc:	01002074 	movhi	r4,129
  8081e0:	21133e84 	addi	r4,r4,19706
  8081e4:	d9002c15 	stw	r4,176(sp)
  8081e8:	003c3c06 	br	8072dc <__alt_mem_onchip_ram+0xff8032dc>
  8081ec:	d9402d17 	ldw	r5,180(sp)
  8081f0:	d9801e04 	addi	r6,sp,120
  8081f4:	9809883a 	mov	r4,r19
  8081f8:	080ced80 	call	80ced8 <__ssprint_r>
  8081fc:	103ad11e 	bne	r2,zero,806d44 <__alt_mem_onchip_ram+0xff802d44>
  808200:	d8c02017 	ldw	r3,128(sp)
  808204:	da000404 	addi	r8,sp,16
  808208:	003d9306 	br	807858 <__alt_mem_onchip_ram+0xff803858>
  80820c:	d8801f17 	ldw	r2,124(sp)
  808210:	01402074 	movhi	r5,129
  808214:	01000044 	movi	r4,1
  808218:	18c00044 	addi	r3,r3,1
  80821c:	10800044 	addi	r2,r2,1
  808220:	29533e04 	addi	r5,r5,19704
  808224:	41000115 	stw	r4,4(r8)
  808228:	41400015 	stw	r5,0(r8)
  80822c:	d8c02015 	stw	r3,128(sp)
  808230:	d8801f15 	stw	r2,124(sp)
  808234:	010001c4 	movi	r4,7
  808238:	2080b516 	blt	r4,r2,808510 <___svfprintf_internal_r+0x1b68>
  80823c:	42000204 	addi	r8,r8,8
  808240:	8800041e 	bne	r17,zero,808254 <___svfprintf_internal_r+0x18ac>
  808244:	d8803317 	ldw	r2,204(sp)
  808248:	1000021e 	bne	r2,zero,808254 <___svfprintf_internal_r+0x18ac>
  80824c:	9080004c 	andi	r2,r18,1
  808250:	103c3926 	beq	r2,zero,807338 <__alt_mem_onchip_ram+0xff803338>
  808254:	d9003817 	ldw	r4,224(sp)
  808258:	d8801f17 	ldw	r2,124(sp)
  80825c:	d9403417 	ldw	r5,208(sp)
  808260:	20c7883a 	add	r3,r4,r3
  808264:	10800044 	addi	r2,r2,1
  808268:	41000115 	stw	r4,4(r8)
  80826c:	41400015 	stw	r5,0(r8)
  808270:	d8c02015 	stw	r3,128(sp)
  808274:	d8801f15 	stw	r2,124(sp)
  808278:	010001c4 	movi	r4,7
  80827c:	20818016 	blt	r4,r2,808880 <___svfprintf_internal_r+0x1ed8>
  808280:	42000204 	addi	r8,r8,8
  808284:	0463c83a 	sub	r17,zero,r17
  808288:	0440cb0e 	bge	zero,r17,8085b8 <___svfprintf_internal_r+0x1c10>
  80828c:	05800404 	movi	r22,16
  808290:	b440e80e 	bge	r22,r17,808634 <___svfprintf_internal_r+0x1c8c>
  808294:	01402074 	movhi	r5,129
  808298:	29533e84 	addi	r5,r5,19706
  80829c:	d9402c15 	stw	r5,176(sp)
  8082a0:	070001c4 	movi	fp,7
  8082a4:	dd002d17 	ldw	r20,180(sp)
  8082a8:	00000306 	br	8082b8 <___svfprintf_internal_r+0x1910>
  8082ac:	42000204 	addi	r8,r8,8
  8082b0:	8c7ffc04 	addi	r17,r17,-16
  8082b4:	b440e20e 	bge	r22,r17,808640 <___svfprintf_internal_r+0x1c98>
  8082b8:	18c00404 	addi	r3,r3,16
  8082bc:	10800044 	addi	r2,r2,1
  8082c0:	45400015 	stw	r21,0(r8)
  8082c4:	45800115 	stw	r22,4(r8)
  8082c8:	d8c02015 	stw	r3,128(sp)
  8082cc:	d8801f15 	stw	r2,124(sp)
  8082d0:	e0bff60e 	bge	fp,r2,8082ac <__alt_mem_onchip_ram+0xff8042ac>
  8082d4:	d9801e04 	addi	r6,sp,120
  8082d8:	a00b883a 	mov	r5,r20
  8082dc:	9809883a 	mov	r4,r19
  8082e0:	080ced80 	call	80ced8 <__ssprint_r>
  8082e4:	103a971e 	bne	r2,zero,806d44 <__alt_mem_onchip_ram+0xff802d44>
  8082e8:	d8c02017 	ldw	r3,128(sp)
  8082ec:	d8801f17 	ldw	r2,124(sp)
  8082f0:	da000404 	addi	r8,sp,16
  8082f4:	003fee06 	br	8082b0 <__alt_mem_onchip_ram+0xff8042b0>
  8082f8:	d9002e17 	ldw	r4,184(sp)
  8082fc:	d9402a17 	ldw	r5,168(sp)
  808300:	002d883a 	mov	r22,zero
  808304:	20800104 	addi	r2,r4,4
  808308:	25000017 	ldw	r20,0(r4)
  80830c:	283e7d0e 	bge	r5,zero,807d04 <__alt_mem_onchip_ram+0xff803d04>
  808310:	003eda06 	br	807e7c <__alt_mem_onchip_ram+0xff803e7c>
  808314:	d9002e17 	ldw	r4,184(sp)
  808318:	d9402a17 	ldw	r5,168(sp)
  80831c:	002d883a 	mov	r22,zero
  808320:	20800104 	addi	r2,r4,4
  808324:	25000017 	ldw	r20,0(r4)
  808328:	283e2d0e 	bge	r5,zero,807be0 <__alt_mem_onchip_ram+0xff803be0>
  80832c:	003f6b06 	br	8080dc <__alt_mem_onchip_ram+0xff8040dc>
  808330:	d8c02e15 	stw	r3,184(sp)
  808334:	0039883a 	mov	fp,zero
  808338:	003ed206 	br	807e84 <__alt_mem_onchip_ram+0xff803e84>
  80833c:	bc400043 	ldbu	r17,1(r23)
  808340:	84000814 	ori	r16,r16,32
  808344:	bdc00044 	addi	r23,r23,1
  808348:	8c403fcc 	andi	r17,r17,255
  80834c:	8c40201c 	xori	r17,r17,128
  808350:	8c7fe004 	addi	r17,r17,-128
  808354:	0039e906 	br	806afc <__alt_mem_onchip_ram+0xff802afc>
  808358:	d9402d17 	ldw	r5,180(sp)
  80835c:	d9801e04 	addi	r6,sp,120
  808360:	9809883a 	mov	r4,r19
  808364:	080ced80 	call	80ced8 <__ssprint_r>
  808368:	103a761e 	bne	r2,zero,806d44 <__alt_mem_onchip_ram+0xff802d44>
  80836c:	d8c02017 	ldw	r3,128(sp)
  808370:	da000404 	addi	r8,sp,16
  808374:	003d4a06 	br	8078a0 <__alt_mem_onchip_ram+0xff8038a0>
  808378:	d9002a17 	ldw	r4,168(sp)
  80837c:	05bff7c4 	movi	r22,-33
  808380:	00bfffc4 	movi	r2,-1
  808384:	8dac703a 	and	r22,r17,r22
  808388:	20806a26 	beq	r4,r2,808534 <___svfprintf_internal_r+0x1b8c>
  80838c:	008011c4 	movi	r2,71
  808390:	b0813726 	beq	r22,r2,808870 <___svfprintf_internal_r+0x1ec8>
  808394:	d9003717 	ldw	r4,220(sp)
  808398:	90c04014 	ori	r3,r18,256
  80839c:	d8c02c15 	stw	r3,176(sp)
  8083a0:	20015d16 	blt	r4,zero,808918 <___svfprintf_internal_r+0x1f70>
  8083a4:	dd003717 	ldw	r20,220(sp)
  8083a8:	d8002905 	stb	zero,164(sp)
  8083ac:	00801984 	movi	r2,102
  8083b0:	88814026 	beq	r17,r2,8088b4 <___svfprintf_internal_r+0x1f0c>
  8083b4:	00801184 	movi	r2,70
  8083b8:	88817126 	beq	r17,r2,808980 <___svfprintf_internal_r+0x1fd8>
  8083bc:	00801144 	movi	r2,69
  8083c0:	b0816226 	beq	r22,r2,80894c <___svfprintf_internal_r+0x1fa4>
  8083c4:	d8c02a17 	ldw	r3,168(sp)
  8083c8:	d8802104 	addi	r2,sp,132
  8083cc:	d8800315 	stw	r2,12(sp)
  8083d0:	d9403617 	ldw	r5,216(sp)
  8083d4:	d8802504 	addi	r2,sp,148
  8083d8:	d8800215 	stw	r2,8(sp)
  8083dc:	d8802604 	addi	r2,sp,152
  8083e0:	d8c00015 	stw	r3,0(sp)
  8083e4:	d8800115 	stw	r2,4(sp)
  8083e8:	01c00084 	movi	r7,2
  8083ec:	a00d883a 	mov	r6,r20
  8083f0:	9809883a 	mov	r4,r19
  8083f4:	d8c03d15 	stw	r3,244(sp)
  8083f8:	da003e15 	stw	r8,248(sp)
  8083fc:	08091c00 	call	8091c0 <_dtoa_r>
  808400:	1021883a 	mov	r16,r2
  808404:	008019c4 	movi	r2,103
  808408:	d8c03d17 	ldw	r3,244(sp)
  80840c:	da003e17 	ldw	r8,248(sp)
  808410:	8880e726 	beq	r17,r2,8087b0 <___svfprintf_internal_r+0x1e08>
  808414:	008011c4 	movi	r2,71
  808418:	8880d426 	beq	r17,r2,80876c <___svfprintf_internal_r+0x1dc4>
  80841c:	80f9883a 	add	fp,r16,r3
  808420:	d9003617 	ldw	r4,216(sp)
  808424:	000d883a 	mov	r6,zero
  808428:	000f883a 	mov	r7,zero
  80842c:	a00b883a 	mov	r5,r20
  808430:	da003e15 	stw	r8,248(sp)
  808434:	0810a140 	call	810a14 <__eqdf2>
  808438:	da003e17 	ldw	r8,248(sp)
  80843c:	1000e426 	beq	r2,zero,8087d0 <___svfprintf_internal_r+0x1e28>
  808440:	d8802117 	ldw	r2,132(sp)
  808444:	1700062e 	bgeu	r2,fp,808460 <___svfprintf_internal_r+0x1ab8>
  808448:	01000c04 	movi	r4,48
  80844c:	10c00044 	addi	r3,r2,1
  808450:	d8c02115 	stw	r3,132(sp)
  808454:	11000005 	stb	r4,0(r2)
  808458:	d8802117 	ldw	r2,132(sp)
  80845c:	173ffb36 	bltu	r2,fp,80844c <__alt_mem_onchip_ram+0xff80444c>
  808460:	1405c83a 	sub	r2,r2,r16
  808464:	d8803315 	stw	r2,204(sp)
  808468:	008011c4 	movi	r2,71
  80846c:	b080c526 	beq	r22,r2,808784 <___svfprintf_internal_r+0x1ddc>
  808470:	00801944 	movi	r2,101
  808474:	1441d80e 	bge	r2,r17,808bd8 <___svfprintf_internal_r+0x2230>
  808478:	d8c02617 	ldw	r3,152(sp)
  80847c:	00801984 	movi	r2,102
  808480:	d8c03215 	stw	r3,200(sp)
  808484:	88813426 	beq	r17,r2,808958 <___svfprintf_internal_r+0x1fb0>
  808488:	d8c03217 	ldw	r3,200(sp)
  80848c:	d9003317 	ldw	r4,204(sp)
  808490:	19012516 	blt	r3,r4,808928 <___svfprintf_internal_r+0x1f80>
  808494:	9480004c 	andi	r18,r18,1
  808498:	9001841e 	bne	r18,zero,808aac <___svfprintf_internal_r+0x2104>
  80849c:	1805883a 	mov	r2,r3
  8084a0:	1801cb16 	blt	r3,zero,808bd0 <___svfprintf_internal_r+0x2228>
  8084a4:	d8c03217 	ldw	r3,200(sp)
  8084a8:	044019c4 	movi	r17,103
  8084ac:	d8c02b15 	stw	r3,172(sp)
  8084b0:	df002907 	ldb	fp,164(sp)
  8084b4:	e000a61e 	bne	fp,zero,808750 <___svfprintf_internal_r+0x1da8>
  8084b8:	df002783 	ldbu	fp,158(sp)
  8084bc:	d8802915 	stw	r2,164(sp)
  8084c0:	dc802c17 	ldw	r18,176(sp)
  8084c4:	d8002a15 	stw	zero,168(sp)
  8084c8:	003af506 	br	8070a0 <__alt_mem_onchip_ram+0xff8030a0>
  8084cc:	04002074 	movhi	r16,129
  8084d0:	84132e04 	addi	r16,r16,19640
  8084d4:	003a7e06 	br	806ed0 <__alt_mem_onchip_ram+0xff802ed0>
  8084d8:	d9003917 	ldw	r4,228(sp)
  8084dc:	04001004 	movi	r16,64
  8084e0:	800b883a 	mov	r5,r16
  8084e4:	08034100 	call	803410 <_malloc_r>
  8084e8:	d9002d17 	ldw	r4,180(sp)
  8084ec:	20800015 	stw	r2,0(r4)
  8084f0:	20800415 	stw	r2,16(r4)
  8084f4:	1001d026 	beq	r2,zero,808c38 <___svfprintf_internal_r+0x2290>
  8084f8:	d8802d17 	ldw	r2,180(sp)
  8084fc:	14000515 	stw	r16,20(r2)
  808500:	00394406 	br	806a14 <__alt_mem_onchip_ram+0xff802a14>
  808504:	04002074 	movhi	r16,129
  808508:	84133004 	addi	r16,r16,19648
  80850c:	003ee106 	br	808094 <__alt_mem_onchip_ram+0xff804094>
  808510:	d9402d17 	ldw	r5,180(sp)
  808514:	d9801e04 	addi	r6,sp,120
  808518:	9809883a 	mov	r4,r19
  80851c:	080ced80 	call	80ced8 <__ssprint_r>
  808520:	103a081e 	bne	r2,zero,806d44 <__alt_mem_onchip_ram+0xff802d44>
  808524:	dc402617 	ldw	r17,152(sp)
  808528:	d8c02017 	ldw	r3,128(sp)
  80852c:	da000404 	addi	r8,sp,16
  808530:	003f4306 	br	808240 <__alt_mem_onchip_ram+0xff804240>
  808534:	01400184 	movi	r5,6
  808538:	d9402a15 	stw	r5,168(sp)
  80853c:	003f9506 	br	808394 <__alt_mem_onchip_ram+0xff804394>
  808540:	d8c02e17 	ldw	r3,184(sp)
  808544:	1d000017 	ldw	r20,0(r3)
  808548:	18c00104 	addi	r3,r3,4
  80854c:	d8c02e15 	stw	r3,184(sp)
  808550:	a02dd7fa 	srai	r22,r20,31
  808554:	b005883a 	mov	r2,r22
  808558:	003a7606 	br	806f34 <__alt_mem_onchip_ram+0xff802f34>
  80855c:	d9002e17 	ldw	r4,184(sp)
  808560:	002d883a 	mov	r22,zero
  808564:	25000017 	ldw	r20,0(r4)
  808568:	21000104 	addi	r4,r4,4
  80856c:	d9002e15 	stw	r4,184(sp)
  808570:	003bdd06 	br	8074e8 <__alt_mem_onchip_ram+0xff8034e8>
  808574:	9480100c 	andi	r18,r18,64
  808578:	90006e26 	beq	r18,zero,808734 <___svfprintf_internal_r+0x1d8c>
  80857c:	d9402e17 	ldw	r5,184(sp)
  808580:	d8c02f17 	ldw	r3,188(sp)
  808584:	28800017 	ldw	r2,0(r5)
  808588:	29400104 	addi	r5,r5,4
  80858c:	d9402e15 	stw	r5,184(sp)
  808590:	10c0000d 	sth	r3,0(r2)
  808594:	00392f06 	br	806a54 <__alt_mem_onchip_ram+0xff802a54>
  808598:	d9402d17 	ldw	r5,180(sp)
  80859c:	d9801e04 	addi	r6,sp,120
  8085a0:	9809883a 	mov	r4,r19
  8085a4:	080ced80 	call	80ced8 <__ssprint_r>
  8085a8:	1039e61e 	bne	r2,zero,806d44 <__alt_mem_onchip_ram+0xff802d44>
  8085ac:	d8c02017 	ldw	r3,128(sp)
  8085b0:	d8801f17 	ldw	r2,124(sp)
  8085b4:	da000404 	addi	r8,sp,16
  8085b8:	d9403317 	ldw	r5,204(sp)
  8085bc:	10800044 	addi	r2,r2,1
  8085c0:	44000015 	stw	r16,0(r8)
  8085c4:	28c7883a 	add	r3,r5,r3
  8085c8:	003b5506 	br	807320 <__alt_mem_onchip_ram+0xff803320>
  8085cc:	8009883a 	mov	r4,r16
  8085d0:	df003e15 	stw	fp,248(sp)
  8085d4:	080cd700 	call	80cd70 <strlen>
  8085d8:	d8802b15 	stw	r2,172(sp)
  8085dc:	da003e17 	ldw	r8,248(sp)
  8085e0:	103c160e 	bge	r2,zero,80763c <__alt_mem_onchip_ram+0xff80363c>
  8085e4:	0005883a 	mov	r2,zero
  8085e8:	003c1406 	br	80763c <__alt_mem_onchip_ram+0xff80363c>
  8085ec:	00bfffc4 	movi	r2,-1
  8085f0:	0039d906 	br	806d58 <__alt_mem_onchip_ram+0xff802d58>
  8085f4:	01002074 	movhi	r4,129
  8085f8:	21134284 	addi	r4,r4,19722
  8085fc:	d9003515 	stw	r4,212(sp)
  808600:	003ae406 	br	807194 <__alt_mem_onchip_ram+0xff803194>
  808604:	013fffc4 	movi	r4,-1
  808608:	0039fa06 	br	806df4 <__alt_mem_onchip_ram+0xff802df4>
  80860c:	d9402d17 	ldw	r5,180(sp)
  808610:	d9801e04 	addi	r6,sp,120
  808614:	9809883a 	mov	r4,r19
  808618:	080ced80 	call	80ced8 <__ssprint_r>
  80861c:	1039c91e 	bne	r2,zero,806d44 <__alt_mem_onchip_ram+0xff802d44>
  808620:	d8c02017 	ldw	r3,128(sp)
  808624:	da000404 	addi	r8,sp,16
  808628:	003d8406 	br	807c3c <__alt_mem_onchip_ram+0xff803c3c>
  80862c:	0023883a 	mov	r17,zero
  808630:	003d8306 	br	807c40 <__alt_mem_onchip_ram+0xff803c40>
  808634:	01002074 	movhi	r4,129
  808638:	21133e84 	addi	r4,r4,19706
  80863c:	d9002c15 	stw	r4,176(sp)
  808640:	d9002c17 	ldw	r4,176(sp)
  808644:	1c47883a 	add	r3,r3,r17
  808648:	10800044 	addi	r2,r2,1
  80864c:	41000015 	stw	r4,0(r8)
  808650:	44400115 	stw	r17,4(r8)
  808654:	d8c02015 	stw	r3,128(sp)
  808658:	d8801f15 	stw	r2,124(sp)
  80865c:	010001c4 	movi	r4,7
  808660:	20bfcd16 	blt	r4,r2,808598 <__alt_mem_onchip_ram+0xff804598>
  808664:	42000204 	addi	r8,r8,8
  808668:	003fd306 	br	8085b8 <__alt_mem_onchip_ram+0xff8045b8>
  80866c:	d9402d17 	ldw	r5,180(sp)
  808670:	d9801e04 	addi	r6,sp,120
  808674:	9809883a 	mov	r4,r19
  808678:	080ced80 	call	80ced8 <__ssprint_r>
  80867c:	1039b11e 	bne	r2,zero,806d44 <__alt_mem_onchip_ram+0xff802d44>
  808680:	d8802617 	ldw	r2,152(sp)
  808684:	d8c02017 	ldw	r3,128(sp)
  808688:	da000404 	addi	r8,sp,16
  80868c:	003e1c06 	br	807f00 <__alt_mem_onchip_ram+0xff803f00>
  808690:	d8802a17 	ldw	r2,168(sp)
  808694:	00c00184 	movi	r3,6
  808698:	1880012e 	bgeu	r3,r2,8086a0 <___svfprintf_internal_r+0x1cf8>
  80869c:	1805883a 	mov	r2,r3
  8086a0:	d8802b15 	stw	r2,172(sp)
  8086a4:	1000f316 	blt	r2,zero,808a74 <___svfprintf_internal_r+0x20cc>
  8086a8:	04002074 	movhi	r16,129
  8086ac:	d8802915 	stw	r2,164(sp)
  8086b0:	dd002e15 	stw	r20,184(sp)
  8086b4:	d8002a15 	stw	zero,168(sp)
  8086b8:	d8003215 	stw	zero,200(sp)
  8086bc:	84133c04 	addi	r16,r16,19696
  8086c0:	0039883a 	mov	fp,zero
  8086c4:	003a7d06 	br	8070bc <__alt_mem_onchip_ram+0xff8030bc>
  8086c8:	01002074 	movhi	r4,129
  8086cc:	21134284 	addi	r4,r4,19722
  8086d0:	d9003515 	stw	r4,212(sp)
  8086d4:	003b3d06 	br	8073cc <__alt_mem_onchip_ram+0xff8033cc>
  8086d8:	d9402d17 	ldw	r5,180(sp)
  8086dc:	d9801e04 	addi	r6,sp,120
  8086e0:	9809883a 	mov	r4,r19
  8086e4:	080ced80 	call	80ced8 <__ssprint_r>
  8086e8:	1039961e 	bne	r2,zero,806d44 <__alt_mem_onchip_ram+0xff802d44>
  8086ec:	d8802617 	ldw	r2,152(sp)
  8086f0:	d9403317 	ldw	r5,204(sp)
  8086f4:	d8c02017 	ldw	r3,128(sp)
  8086f8:	da000404 	addi	r8,sp,16
  8086fc:	2885c83a 	sub	r2,r5,r2
  808700:	003e1006 	br	807f44 <__alt_mem_onchip_ram+0xff803f44>
  808704:	00800044 	movi	r2,1
  808708:	10803fcc 	andi	r2,r2,255
  80870c:	00c00044 	movi	r3,1
  808710:	10fa1026 	beq	r2,r3,806f54 <__alt_mem_onchip_ram+0xff802f54>
  808714:	00c00084 	movi	r3,2
  808718:	10fb8226 	beq	r2,r3,807524 <__alt_mem_onchip_ram+0xff803524>
  80871c:	003a4206 	br	807028 <__alt_mem_onchip_ram+0xff803028>
  808720:	0021883a 	mov	r16,zero
  808724:	003e0806 	br	807f48 <__alt_mem_onchip_ram+0xff803f48>
  808728:	07000b44 	movi	fp,45
  80872c:	df002785 	stb	fp,158(sp)
  808730:	0039e306 	br	806ec0 <__alt_mem_onchip_ram+0xff802ec0>
  808734:	d9002e17 	ldw	r4,184(sp)
  808738:	d9402f17 	ldw	r5,188(sp)
  80873c:	20800017 	ldw	r2,0(r4)
  808740:	21000104 	addi	r4,r4,4
  808744:	d9002e15 	stw	r4,184(sp)
  808748:	11400015 	stw	r5,0(r2)
  80874c:	0038c106 	br	806a54 <__alt_mem_onchip_ram+0xff802a54>
  808750:	00c00b44 	movi	r3,45
  808754:	d8c02785 	stb	r3,158(sp)
  808758:	d8802915 	stw	r2,164(sp)
  80875c:	dc802c17 	ldw	r18,176(sp)
  808760:	d8002a15 	stw	zero,168(sp)
  808764:	07000b44 	movi	fp,45
  808768:	003a5106 	br	8070b0 <__alt_mem_onchip_ram+0xff8030b0>
  80876c:	9080004c 	andi	r2,r18,1
  808770:	1000941e 	bne	r2,zero,8089c4 <___svfprintf_internal_r+0x201c>
  808774:	d8802117 	ldw	r2,132(sp)
  808778:	1405c83a 	sub	r2,r2,r16
  80877c:	d8803315 	stw	r2,204(sp)
  808780:	b441151e 	bne	r22,r17,808bd8 <___svfprintf_internal_r+0x2230>
  808784:	dd802617 	ldw	r22,152(sp)
  808788:	00bfff44 	movi	r2,-3
  80878c:	b0801a16 	blt	r22,r2,8087f8 <___svfprintf_internal_r+0x1e50>
  808790:	d9402a17 	ldw	r5,168(sp)
  808794:	2d801816 	blt	r5,r22,8087f8 <___svfprintf_internal_r+0x1e50>
  808798:	dd803215 	stw	r22,200(sp)
  80879c:	003f3a06 	br	808488 <__alt_mem_onchip_ram+0xff804488>
  8087a0:	1025883a 	mov	r18,r2
  8087a4:	0039883a 	mov	fp,zero
  8087a8:	00800084 	movi	r2,2
  8087ac:	003fd606 	br	808708 <__alt_mem_onchip_ram+0xff804708>
  8087b0:	9080004c 	andi	r2,r18,1
  8087b4:	103f191e 	bne	r2,zero,80841c <__alt_mem_onchip_ram+0xff80441c>
  8087b8:	d8802117 	ldw	r2,132(sp)
  8087bc:	003f2806 	br	808460 <__alt_mem_onchip_ram+0xff804460>
  8087c0:	01002074 	movhi	r4,129
  8087c4:	21133e84 	addi	r4,r4,19706
  8087c8:	d9002c15 	stw	r4,176(sp)
  8087cc:	003c7c06 	br	8079c0 <__alt_mem_onchip_ram+0xff8039c0>
  8087d0:	e005883a 	mov	r2,fp
  8087d4:	003f2206 	br	808460 <__alt_mem_onchip_ram+0xff804460>
  8087d8:	d9002a17 	ldw	r4,168(sp)
  8087dc:	df002783 	ldbu	fp,158(sp)
  8087e0:	dd002e15 	stw	r20,184(sp)
  8087e4:	d9002915 	stw	r4,164(sp)
  8087e8:	d9002b15 	stw	r4,172(sp)
  8087ec:	d8002a15 	stw	zero,168(sp)
  8087f0:	d8003215 	stw	zero,200(sp)
  8087f4:	003a2a06 	br	8070a0 <__alt_mem_onchip_ram+0xff8030a0>
  8087f8:	8c7fff84 	addi	r17,r17,-2
  8087fc:	b5bfffc4 	addi	r22,r22,-1
  808800:	dd802615 	stw	r22,152(sp)
  808804:	dc4022c5 	stb	r17,139(sp)
  808808:	b000c316 	blt	r22,zero,808b18 <___svfprintf_internal_r+0x2170>
  80880c:	00800ac4 	movi	r2,43
  808810:	d8802305 	stb	r2,140(sp)
  808814:	00800244 	movi	r2,9
  808818:	15806e16 	blt	r2,r22,8089d4 <___svfprintf_internal_r+0x202c>
  80881c:	00800c04 	movi	r2,48
  808820:	b5800c04 	addi	r22,r22,48
  808824:	d8802345 	stb	r2,141(sp)
  808828:	dd802385 	stb	r22,142(sp)
  80882c:	d88023c4 	addi	r2,sp,143
  808830:	df0022c4 	addi	fp,sp,139
  808834:	d8c03317 	ldw	r3,204(sp)
  808838:	1739c83a 	sub	fp,r2,fp
  80883c:	d9003317 	ldw	r4,204(sp)
  808840:	e0c7883a 	add	r3,fp,r3
  808844:	df003b15 	stw	fp,236(sp)
  808848:	d8c02b15 	stw	r3,172(sp)
  80884c:	00800044 	movi	r2,1
  808850:	1100b70e 	bge	r2,r4,808b30 <___svfprintf_internal_r+0x2188>
  808854:	d8c02b17 	ldw	r3,172(sp)
  808858:	18c00044 	addi	r3,r3,1
  80885c:	d8c02b15 	stw	r3,172(sp)
  808860:	1805883a 	mov	r2,r3
  808864:	1800b016 	blt	r3,zero,808b28 <___svfprintf_internal_r+0x2180>
  808868:	d8003215 	stw	zero,200(sp)
  80886c:	003f1006 	br	8084b0 <__alt_mem_onchip_ram+0xff8044b0>
  808870:	d8802a17 	ldw	r2,168(sp)
  808874:	103ec71e 	bne	r2,zero,808394 <__alt_mem_onchip_ram+0xff804394>
  808878:	dc002a15 	stw	r16,168(sp)
  80887c:	003ec506 	br	808394 <__alt_mem_onchip_ram+0xff804394>
  808880:	d9402d17 	ldw	r5,180(sp)
  808884:	d9801e04 	addi	r6,sp,120
  808888:	9809883a 	mov	r4,r19
  80888c:	080ced80 	call	80ced8 <__ssprint_r>
  808890:	10392c1e 	bne	r2,zero,806d44 <__alt_mem_onchip_ram+0xff802d44>
  808894:	dc402617 	ldw	r17,152(sp)
  808898:	d8c02017 	ldw	r3,128(sp)
  80889c:	d8801f17 	ldw	r2,124(sp)
  8088a0:	da000404 	addi	r8,sp,16
  8088a4:	003e7706 	br	808284 <__alt_mem_onchip_ram+0xff804284>
  8088a8:	182f883a 	mov	r23,r3
  8088ac:	d8002a15 	stw	zero,168(sp)
  8088b0:	00389306 	br	806b00 <__alt_mem_onchip_ram+0xff802b00>
  8088b4:	d8c02a17 	ldw	r3,168(sp)
  8088b8:	d8802104 	addi	r2,sp,132
  8088bc:	d8800315 	stw	r2,12(sp)
  8088c0:	d9403617 	ldw	r5,216(sp)
  8088c4:	d8802504 	addi	r2,sp,148
  8088c8:	d8800215 	stw	r2,8(sp)
  8088cc:	d8802604 	addi	r2,sp,152
  8088d0:	d8c00015 	stw	r3,0(sp)
  8088d4:	9809883a 	mov	r4,r19
  8088d8:	d8800115 	stw	r2,4(sp)
  8088dc:	01c000c4 	movi	r7,3
  8088e0:	a00d883a 	mov	r6,r20
  8088e4:	da003e15 	stw	r8,248(sp)
  8088e8:	08091c00 	call	8091c0 <_dtoa_r>
  8088ec:	d9002a17 	ldw	r4,168(sp)
  8088f0:	da003e17 	ldw	r8,248(sp)
  8088f4:	1021883a 	mov	r16,r2
  8088f8:	1139883a 	add	fp,r2,r4
  8088fc:	2007883a 	mov	r3,r4
  808900:	81000007 	ldb	r4,0(r16)
  808904:	00800c04 	movi	r2,48
  808908:	20806f26 	beq	r4,r2,808ac8 <___svfprintf_internal_r+0x2120>
  80890c:	d8c02617 	ldw	r3,152(sp)
  808910:	e0f9883a 	add	fp,fp,r3
  808914:	003ec206 	br	808420 <__alt_mem_onchip_ram+0xff804420>
  808918:	00c00b44 	movi	r3,45
  80891c:	2520003c 	xorhi	r20,r4,32768
  808920:	d8c02905 	stb	r3,164(sp)
  808924:	003ea106 	br	8083ac <__alt_mem_onchip_ram+0xff8043ac>
  808928:	d8c03217 	ldw	r3,200(sp)
  80892c:	00c0890e 	bge	zero,r3,808b54 <___svfprintf_internal_r+0x21ac>
  808930:	00800044 	movi	r2,1
  808934:	d9003317 	ldw	r4,204(sp)
  808938:	1105883a 	add	r2,r2,r4
  80893c:	d8802b15 	stw	r2,172(sp)
  808940:	10005f16 	blt	r2,zero,808ac0 <___svfprintf_internal_r+0x2118>
  808944:	044019c4 	movi	r17,103
  808948:	003ed906 	br	8084b0 <__alt_mem_onchip_ram+0xff8044b0>
  80894c:	d9002a17 	ldw	r4,168(sp)
  808950:	20c00044 	addi	r3,r4,1
  808954:	003e9c06 	br	8083c8 <__alt_mem_onchip_ram+0xff8043c8>
  808958:	d9002a17 	ldw	r4,168(sp)
  80895c:	00c0680e 	bge	zero,r3,808b00 <___svfprintf_internal_r+0x2158>
  808960:	2000461e 	bne	r4,zero,808a7c <___svfprintf_internal_r+0x20d4>
  808964:	9480004c 	andi	r18,r18,1
  808968:	9000441e 	bne	r18,zero,808a7c <___svfprintf_internal_r+0x20d4>
  80896c:	1805883a 	mov	r2,r3
  808970:	1800a116 	blt	r3,zero,808bf8 <___svfprintf_internal_r+0x2250>
  808974:	d8c03217 	ldw	r3,200(sp)
  808978:	d8c02b15 	stw	r3,172(sp)
  80897c:	003ecc06 	br	8084b0 <__alt_mem_onchip_ram+0xff8044b0>
  808980:	d9402a17 	ldw	r5,168(sp)
  808984:	d8802104 	addi	r2,sp,132
  808988:	d8800315 	stw	r2,12(sp)
  80898c:	d9400015 	stw	r5,0(sp)
  808990:	d8802504 	addi	r2,sp,148
  808994:	d9403617 	ldw	r5,216(sp)
  808998:	d8800215 	stw	r2,8(sp)
  80899c:	d8802604 	addi	r2,sp,152
  8089a0:	d8800115 	stw	r2,4(sp)
  8089a4:	01c000c4 	movi	r7,3
  8089a8:	a00d883a 	mov	r6,r20
  8089ac:	9809883a 	mov	r4,r19
  8089b0:	da003e15 	stw	r8,248(sp)
  8089b4:	08091c00 	call	8091c0 <_dtoa_r>
  8089b8:	d8c02a17 	ldw	r3,168(sp)
  8089bc:	da003e17 	ldw	r8,248(sp)
  8089c0:	1021883a 	mov	r16,r2
  8089c4:	00801184 	movi	r2,70
  8089c8:	80f9883a 	add	fp,r16,r3
  8089cc:	88bfcc26 	beq	r17,r2,808900 <__alt_mem_onchip_ram+0xff804900>
  8089d0:	003e9306 	br	808420 <__alt_mem_onchip_ram+0xff804420>
  8089d4:	df0022c4 	addi	fp,sp,139
  8089d8:	dc002a15 	stw	r16,168(sp)
  8089dc:	9829883a 	mov	r20,r19
  8089e0:	e021883a 	mov	r16,fp
  8089e4:	4027883a 	mov	r19,r8
  8089e8:	b009883a 	mov	r4,r22
  8089ec:	01400284 	movi	r5,10
  8089f0:	080f4440 	call	80f444 <__modsi3>
  8089f4:	10800c04 	addi	r2,r2,48
  8089f8:	843fffc4 	addi	r16,r16,-1
  8089fc:	b009883a 	mov	r4,r22
  808a00:	01400284 	movi	r5,10
  808a04:	80800005 	stb	r2,0(r16)
  808a08:	080f3c00 	call	80f3c0 <__divsi3>
  808a0c:	102d883a 	mov	r22,r2
  808a10:	00800244 	movi	r2,9
  808a14:	15bff416 	blt	r2,r22,8089e8 <__alt_mem_onchip_ram+0xff8049e8>
  808a18:	9811883a 	mov	r8,r19
  808a1c:	b0800c04 	addi	r2,r22,48
  808a20:	a027883a 	mov	r19,r20
  808a24:	8029883a 	mov	r20,r16
  808a28:	a17fffc4 	addi	r5,r20,-1
  808a2c:	a0bfffc5 	stb	r2,-1(r20)
  808a30:	dc002a17 	ldw	r16,168(sp)
  808a34:	2f00782e 	bgeu	r5,fp,808c18 <___svfprintf_internal_r+0x2270>
  808a38:	d9c02384 	addi	r7,sp,142
  808a3c:	3d0fc83a 	sub	r7,r7,r20
  808a40:	d9002344 	addi	r4,sp,141
  808a44:	e1cf883a 	add	r7,fp,r7
  808a48:	00000106 	br	808a50 <___svfprintf_internal_r+0x20a8>
  808a4c:	28800003 	ldbu	r2,0(r5)
  808a50:	20800005 	stb	r2,0(r4)
  808a54:	21000044 	addi	r4,r4,1
  808a58:	29400044 	addi	r5,r5,1
  808a5c:	21fffb1e 	bne	r4,r7,808a4c <__alt_mem_onchip_ram+0xff804a4c>
  808a60:	d8802304 	addi	r2,sp,140
  808a64:	1505c83a 	sub	r2,r2,r20
  808a68:	d8c02344 	addi	r3,sp,141
  808a6c:	1885883a 	add	r2,r3,r2
  808a70:	003f7006 	br	808834 <__alt_mem_onchip_ram+0xff804834>
  808a74:	0005883a 	mov	r2,zero
  808a78:	003f0b06 	br	8086a8 <__alt_mem_onchip_ram+0xff8046a8>
  808a7c:	d9002a17 	ldw	r4,168(sp)
  808a80:	d8c03217 	ldw	r3,200(sp)
  808a84:	20800044 	addi	r2,r4,1
  808a88:	1885883a 	add	r2,r3,r2
  808a8c:	d8802b15 	stw	r2,172(sp)
  808a90:	103e870e 	bge	r2,zero,8084b0 <__alt_mem_onchip_ram+0xff8044b0>
  808a94:	0005883a 	mov	r2,zero
  808a98:	003e8506 	br	8084b0 <__alt_mem_onchip_ram+0xff8044b0>
  808a9c:	01002074 	movhi	r4,129
  808aa0:	21133e84 	addi	r4,r4,19706
  808aa4:	d9002c15 	stw	r4,176(sp)
  808aa8:	003cc506 	br	807dc0 <__alt_mem_onchip_ram+0xff803dc0>
  808aac:	d8c03217 	ldw	r3,200(sp)
  808ab0:	18c00044 	addi	r3,r3,1
  808ab4:	d8c02b15 	stw	r3,172(sp)
  808ab8:	1805883a 	mov	r2,r3
  808abc:	183fa10e 	bge	r3,zero,808944 <__alt_mem_onchip_ram+0xff804944>
  808ac0:	0005883a 	mov	r2,zero
  808ac4:	003f9f06 	br	808944 <__alt_mem_onchip_ram+0xff804944>
  808ac8:	d9003617 	ldw	r4,216(sp)
  808acc:	000d883a 	mov	r6,zero
  808ad0:	000f883a 	mov	r7,zero
  808ad4:	a00b883a 	mov	r5,r20
  808ad8:	d8c03d15 	stw	r3,244(sp)
  808adc:	da003e15 	stw	r8,248(sp)
  808ae0:	0810a140 	call	810a14 <__eqdf2>
  808ae4:	d8c03d17 	ldw	r3,244(sp)
  808ae8:	da003e17 	ldw	r8,248(sp)
  808aec:	103f8726 	beq	r2,zero,80890c <__alt_mem_onchip_ram+0xff80490c>
  808af0:	00800044 	movi	r2,1
  808af4:	10c7c83a 	sub	r3,r2,r3
  808af8:	d8c02615 	stw	r3,152(sp)
  808afc:	003f8406 	br	808910 <__alt_mem_onchip_ram+0xff804910>
  808b00:	20000e1e 	bne	r4,zero,808b3c <___svfprintf_internal_r+0x2194>
  808b04:	9480004c 	andi	r18,r18,1
  808b08:	90000c1e 	bne	r18,zero,808b3c <___svfprintf_internal_r+0x2194>
  808b0c:	00800044 	movi	r2,1
  808b10:	d8802b15 	stw	r2,172(sp)
  808b14:	003e6606 	br	8084b0 <__alt_mem_onchip_ram+0xff8044b0>
  808b18:	00800b44 	movi	r2,45
  808b1c:	05adc83a 	sub	r22,zero,r22
  808b20:	d8802305 	stb	r2,140(sp)
  808b24:	003f3b06 	br	808814 <__alt_mem_onchip_ram+0xff804814>
  808b28:	0005883a 	mov	r2,zero
  808b2c:	003f4e06 	br	808868 <__alt_mem_onchip_ram+0xff804868>
  808b30:	90a4703a 	and	r18,r18,r2
  808b34:	903f4a26 	beq	r18,zero,808860 <__alt_mem_onchip_ram+0xff804860>
  808b38:	003f4606 	br	808854 <__alt_mem_onchip_ram+0xff804854>
  808b3c:	d8c02a17 	ldw	r3,168(sp)
  808b40:	18c00084 	addi	r3,r3,2
  808b44:	d8c02b15 	stw	r3,172(sp)
  808b48:	1805883a 	mov	r2,r3
  808b4c:	183e580e 	bge	r3,zero,8084b0 <__alt_mem_onchip_ram+0xff8044b0>
  808b50:	003fd006 	br	808a94 <__alt_mem_onchip_ram+0xff804a94>
  808b54:	00800084 	movi	r2,2
  808b58:	10c5c83a 	sub	r2,r2,r3
  808b5c:	003f7506 	br	808934 <__alt_mem_onchip_ram+0xff804934>
  808b60:	d9402e17 	ldw	r5,184(sp)
  808b64:	d9002e17 	ldw	r4,184(sp)
  808b68:	bc400043 	ldbu	r17,1(r23)
  808b6c:	29400017 	ldw	r5,0(r5)
  808b70:	20800104 	addi	r2,r4,4
  808b74:	d8802e15 	stw	r2,184(sp)
  808b78:	d9402a15 	stw	r5,168(sp)
  808b7c:	182f883a 	mov	r23,r3
  808b80:	283df10e 	bge	r5,zero,808348 <__alt_mem_onchip_ram+0xff804348>
  808b84:	8c403fcc 	andi	r17,r17,255
  808b88:	017fffc4 	movi	r5,-1
  808b8c:	8c40201c 	xori	r17,r17,128
  808b90:	d9402a15 	stw	r5,168(sp)
  808b94:	8c7fe004 	addi	r17,r17,-128
  808b98:	0037d806 	br	806afc <__alt_mem_onchip_ram+0xff802afc>
  808b9c:	9080004c 	andi	r2,r18,1
  808ba0:	0039883a 	mov	fp,zero
  808ba4:	10000726 	beq	r2,zero,808bc4 <___svfprintf_internal_r+0x221c>
  808ba8:	d8c02817 	ldw	r3,160(sp)
  808bac:	dc001dc4 	addi	r16,sp,119
  808bb0:	00800c04 	movi	r2,48
  808bb4:	1c07c83a 	sub	r3,r3,r16
  808bb8:	d8801dc5 	stb	r2,119(sp)
  808bbc:	d8c02b15 	stw	r3,172(sp)
  808bc0:	00393106 	br	807088 <__alt_mem_onchip_ram+0xff803088>
  808bc4:	d8002b15 	stw	zero,172(sp)
  808bc8:	dc001e04 	addi	r16,sp,120
  808bcc:	00392e06 	br	807088 <__alt_mem_onchip_ram+0xff803088>
  808bd0:	0005883a 	mov	r2,zero
  808bd4:	003e3306 	br	8084a4 <__alt_mem_onchip_ram+0xff8044a4>
  808bd8:	dd802617 	ldw	r22,152(sp)
  808bdc:	003f0706 	br	8087fc <__alt_mem_onchip_ram+0xff8047fc>
  808be0:	d8c02b03 	ldbu	r3,172(sp)
  808be4:	d8c02785 	stb	r3,158(sp)
  808be8:	003a3506 	br	8074c0 <__alt_mem_onchip_ram+0xff8034c0>
  808bec:	d8c02b03 	ldbu	r3,172(sp)
  808bf0:	d8c02785 	stb	r3,158(sp)
  808bf4:	003a1706 	br	807454 <__alt_mem_onchip_ram+0xff803454>
  808bf8:	0005883a 	mov	r2,zero
  808bfc:	003f5d06 	br	808974 <__alt_mem_onchip_ram+0xff804974>
  808c00:	d8c02b03 	ldbu	r3,172(sp)
  808c04:	d8c02785 	stb	r3,158(sp)
  808c08:	0038f306 	br	806fd8 <__alt_mem_onchip_ram+0xff802fd8>
  808c0c:	d8c02b03 	ldbu	r3,172(sp)
  808c10:	d8c02785 	stb	r3,158(sp)
  808c14:	0038be06 	br	806f10 <__alt_mem_onchip_ram+0xff802f10>
  808c18:	d8802344 	addi	r2,sp,141
  808c1c:	003f0506 	br	808834 <__alt_mem_onchip_ram+0xff804834>
  808c20:	d8c02b03 	ldbu	r3,172(sp)
  808c24:	d8c02785 	stb	r3,158(sp)
  808c28:	00388b06 	br	806e58 <__alt_mem_onchip_ram+0xff802e58>
  808c2c:	d8c02b03 	ldbu	r3,172(sp)
  808c30:	d8c02785 	stb	r3,158(sp)
  808c34:	003ad706 	br	807794 <__alt_mem_onchip_ram+0xff803794>
  808c38:	d9403917 	ldw	r5,228(sp)
  808c3c:	00800304 	movi	r2,12
  808c40:	28800015 	stw	r2,0(r5)
  808c44:	00bfffc4 	movi	r2,-1
  808c48:	00384306 	br	806d58 <__alt_mem_onchip_ram+0xff802d58>
  808c4c:	d8c02b03 	ldbu	r3,172(sp)
  808c50:	d8c02785 	stb	r3,158(sp)
  808c54:	003ab606 	br	807730 <__alt_mem_onchip_ram+0xff803730>
  808c58:	d8c02b03 	ldbu	r3,172(sp)
  808c5c:	d8c02785 	stb	r3,158(sp)
  808c60:	003a8906 	br	807688 <__alt_mem_onchip_ram+0xff803688>

00808c64 <__submore>:
  808c64:	defffa04 	addi	sp,sp,-24
  808c68:	dc000015 	stw	r16,0(sp)
  808c6c:	2821883a 	mov	r16,r5
  808c70:	29400c17 	ldw	r5,48(r5)
  808c74:	dfc00515 	stw	ra,20(sp)
  808c78:	dd000415 	stw	r20,16(sp)
  808c7c:	dcc00315 	stw	r19,12(sp)
  808c80:	dc800215 	stw	r18,8(sp)
  808c84:	dc400115 	stw	r17,4(sp)
  808c88:	80801004 	addi	r2,r16,64
  808c8c:	28801726 	beq	r5,r2,808cec <__submore+0x88>
  808c90:	84400d17 	ldw	r17,52(r16)
  808c94:	8c67883a 	add	r19,r17,r17
  808c98:	980d883a 	mov	r6,r19
  808c9c:	080c80c0 	call	80c80c <_realloc_r>
  808ca0:	1025883a 	mov	r18,r2
  808ca4:	10002226 	beq	r2,zero,808d30 <__submore+0xcc>
  808ca8:	1469883a 	add	r20,r2,r17
  808cac:	880d883a 	mov	r6,r17
  808cb0:	100b883a 	mov	r5,r2
  808cb4:	a009883a 	mov	r4,r20
  808cb8:	0803e400 	call	803e40 <memcpy>
  808cbc:	0005883a 	mov	r2,zero
  808cc0:	85000015 	stw	r20,0(r16)
  808cc4:	84800c15 	stw	r18,48(r16)
  808cc8:	84c00d15 	stw	r19,52(r16)
  808ccc:	dfc00517 	ldw	ra,20(sp)
  808cd0:	dd000417 	ldw	r20,16(sp)
  808cd4:	dcc00317 	ldw	r19,12(sp)
  808cd8:	dc800217 	ldw	r18,8(sp)
  808cdc:	dc400117 	ldw	r17,4(sp)
  808ce0:	dc000017 	ldw	r16,0(sp)
  808ce4:	dec00604 	addi	sp,sp,24
  808ce8:	f800283a 	ret
  808cec:	04410004 	movi	r17,1024
  808cf0:	880b883a 	mov	r5,r17
  808cf4:	08034100 	call	803410 <_malloc_r>
  808cf8:	1007883a 	mov	r3,r2
  808cfc:	10000c26 	beq	r2,zero,808d30 <__submore+0xcc>
  808d00:	80801083 	ldbu	r2,66(r16)
  808d04:	80c00c15 	stw	r3,48(r16)
  808d08:	84400d15 	stw	r17,52(r16)
  808d0c:	1880ffc5 	stb	r2,1023(r3)
  808d10:	81401043 	ldbu	r5,65(r16)
  808d14:	1900ff44 	addi	r4,r3,1021
  808d18:	0005883a 	mov	r2,zero
  808d1c:	1940ff85 	stb	r5,1022(r3)
  808d20:	81401003 	ldbu	r5,64(r16)
  808d24:	1940ff45 	stb	r5,1021(r3)
  808d28:	81000015 	stw	r4,0(r16)
  808d2c:	003fe706 	br	808ccc <__alt_mem_onchip_ram+0xff804ccc>
  808d30:	00bfffc4 	movi	r2,-1
  808d34:	003fe506 	br	808ccc <__alt_mem_onchip_ram+0xff804ccc>

00808d38 <_ungetc_r>:
  808d38:	00bfffc4 	movi	r2,-1
  808d3c:	28806126 	beq	r5,r2,808ec4 <_ungetc_r+0x18c>
  808d40:	defffb04 	addi	sp,sp,-20
  808d44:	dcc00315 	stw	r19,12(sp)
  808d48:	dc400115 	stw	r17,4(sp)
  808d4c:	dc000015 	stw	r16,0(sp)
  808d50:	dfc00415 	stw	ra,16(sp)
  808d54:	dc800215 	stw	r18,8(sp)
  808d58:	2023883a 	mov	r17,r4
  808d5c:	3021883a 	mov	r16,r6
  808d60:	2827883a 	mov	r19,r5
  808d64:	20000226 	beq	r4,zero,808d70 <_ungetc_r+0x38>
  808d68:	20800e17 	ldw	r2,56(r4)
  808d6c:	10002e26 	beq	r2,zero,808e28 <_ungetc_r+0xf0>
  808d70:	80c0030b 	ldhu	r3,12(r16)
  808d74:	1888000c 	andi	r2,r3,8192
  808d78:	1000051e 	bne	r2,zero,808d90 <_ungetc_r+0x58>
  808d7c:	81001917 	ldw	r4,100(r16)
  808d80:	00b7ffc4 	movi	r2,-8193
  808d84:	18c80014 	ori	r3,r3,8192
  808d88:	2084703a 	and	r2,r4,r2
  808d8c:	80801915 	stw	r2,100(r16)
  808d90:	00bff7c4 	movi	r2,-33
  808d94:	1884703a 	and	r2,r3,r2
  808d98:	8080030d 	sth	r2,12(r16)
  808d9c:	1900010c 	andi	r4,r3,4
  808da0:	2000061e 	bne	r4,zero,808dbc <_ungetc_r+0x84>
  808da4:	1900040c 	andi	r4,r3,16
  808da8:	20001d26 	beq	r4,zero,808e20 <_ungetc_r+0xe8>
  808dac:	18c0020c 	andi	r3,r3,8
  808db0:	1800331e 	bne	r3,zero,808e80 <_ungetc_r+0x148>
  808db4:	10800114 	ori	r2,r2,4
  808db8:	8080030d 	sth	r2,12(r16)
  808dbc:	80800c17 	ldw	r2,48(r16)
  808dc0:	9c803fcc 	andi	r18,r19,255
  808dc4:	10001a26 	beq	r2,zero,808e30 <_ungetc_r+0xf8>
  808dc8:	80c00117 	ldw	r3,4(r16)
  808dcc:	80800d17 	ldw	r2,52(r16)
  808dd0:	18800f0e 	bge	r3,r2,808e10 <_ungetc_r+0xd8>
  808dd4:	80c00017 	ldw	r3,0(r16)
  808dd8:	9005883a 	mov	r2,r18
  808ddc:	193fffc4 	addi	r4,r3,-1
  808de0:	81000015 	stw	r4,0(r16)
  808de4:	1cffffc5 	stb	r19,-1(r3)
  808de8:	80c00117 	ldw	r3,4(r16)
  808dec:	18c00044 	addi	r3,r3,1
  808df0:	80c00115 	stw	r3,4(r16)
  808df4:	dfc00417 	ldw	ra,16(sp)
  808df8:	dcc00317 	ldw	r19,12(sp)
  808dfc:	dc800217 	ldw	r18,8(sp)
  808e00:	dc400117 	ldw	r17,4(sp)
  808e04:	dc000017 	ldw	r16,0(sp)
  808e08:	dec00504 	addi	sp,sp,20
  808e0c:	f800283a 	ret
  808e10:	800b883a 	mov	r5,r16
  808e14:	8809883a 	mov	r4,r17
  808e18:	0808c640 	call	808c64 <__submore>
  808e1c:	103fed26 	beq	r2,zero,808dd4 <__alt_mem_onchip_ram+0xff804dd4>
  808e20:	00bfffc4 	movi	r2,-1
  808e24:	003ff306 	br	808df4 <__alt_mem_onchip_ram+0xff804df4>
  808e28:	08028cc0 	call	8028cc <__sinit>
  808e2c:	003fd006 	br	808d70 <__alt_mem_onchip_ram+0xff804d70>
  808e30:	80c00417 	ldw	r3,16(r16)
  808e34:	80800017 	ldw	r2,0(r16)
  808e38:	18000326 	beq	r3,zero,808e48 <_ungetc_r+0x110>
  808e3c:	1880022e 	bgeu	r3,r2,808e48 <_ungetc_r+0x110>
  808e40:	10ffffc3 	ldbu	r3,-1(r2)
  808e44:	90c01826 	beq	r18,r3,808ea8 <_ungetc_r+0x170>
  808e48:	81400117 	ldw	r5,4(r16)
  808e4c:	80800e15 	stw	r2,56(r16)
  808e50:	008000c4 	movi	r2,3
  808e54:	81001004 	addi	r4,r16,64
  808e58:	80c01084 	addi	r3,r16,66
  808e5c:	80800d15 	stw	r2,52(r16)
  808e60:	00800044 	movi	r2,1
  808e64:	80800115 	stw	r2,4(r16)
  808e68:	81400f15 	stw	r5,60(r16)
  808e6c:	81000c15 	stw	r4,48(r16)
  808e70:	84c01085 	stb	r19,66(r16)
  808e74:	80c00015 	stw	r3,0(r16)
  808e78:	9005883a 	mov	r2,r18
  808e7c:	003fdd06 	br	808df4 <__alt_mem_onchip_ram+0xff804df4>
  808e80:	800b883a 	mov	r5,r16
  808e84:	8809883a 	mov	r4,r17
  808e88:	08024e00 	call	8024e0 <_fflush_r>
  808e8c:	103fe41e 	bne	r2,zero,808e20 <__alt_mem_onchip_ram+0xff804e20>
  808e90:	8080030b 	ldhu	r2,12(r16)
  808e94:	00fffdc4 	movi	r3,-9
  808e98:	80000215 	stw	zero,8(r16)
  808e9c:	1884703a 	and	r2,r3,r2
  808ea0:	80000615 	stw	zero,24(r16)
  808ea4:	003fc306 	br	808db4 <__alt_mem_onchip_ram+0xff804db4>
  808ea8:	80c00117 	ldw	r3,4(r16)
  808eac:	10bfffc4 	addi	r2,r2,-1
  808eb0:	80800015 	stw	r2,0(r16)
  808eb4:	18800044 	addi	r2,r3,1
  808eb8:	80800115 	stw	r2,4(r16)
  808ebc:	9005883a 	mov	r2,r18
  808ec0:	003fcc06 	br	808df4 <__alt_mem_onchip_ram+0xff804df4>
  808ec4:	00bfffc4 	movi	r2,-1
  808ec8:	f800283a 	ret

00808ecc <ungetc>:
  808ecc:	00802074 	movhi	r2,129
  808ed0:	109ad304 	addi	r2,r2,27468
  808ed4:	280d883a 	mov	r6,r5
  808ed8:	200b883a 	mov	r5,r4
  808edc:	11000017 	ldw	r4,0(r2)
  808ee0:	0808d381 	jmpi	808d38 <_ungetc_r>

00808ee4 <_write_r>:
  808ee4:	defffd04 	addi	sp,sp,-12
  808ee8:	2805883a 	mov	r2,r5
  808eec:	dc000015 	stw	r16,0(sp)
  808ef0:	040020b4 	movhi	r16,130
  808ef4:	dc400115 	stw	r17,4(sp)
  808ef8:	300b883a 	mov	r5,r6
  808efc:	8421a504 	addi	r16,r16,-31084
  808f00:	2023883a 	mov	r17,r4
  808f04:	380d883a 	mov	r6,r7
  808f08:	1009883a 	mov	r4,r2
  808f0c:	dfc00215 	stw	ra,8(sp)
  808f10:	80000015 	stw	zero,0(r16)
  808f14:	0812aec0 	call	812aec <write>
  808f18:	00ffffc4 	movi	r3,-1
  808f1c:	10c00526 	beq	r2,r3,808f34 <_write_r+0x50>
  808f20:	dfc00217 	ldw	ra,8(sp)
  808f24:	dc400117 	ldw	r17,4(sp)
  808f28:	dc000017 	ldw	r16,0(sp)
  808f2c:	dec00304 	addi	sp,sp,12
  808f30:	f800283a 	ret
  808f34:	80c00017 	ldw	r3,0(r16)
  808f38:	183ff926 	beq	r3,zero,808f20 <__alt_mem_onchip_ram+0xff804f20>
  808f3c:	88c00015 	stw	r3,0(r17)
  808f40:	003ff706 	br	808f20 <__alt_mem_onchip_ram+0xff804f20>

00808f44 <_close_r>:
  808f44:	defffd04 	addi	sp,sp,-12
  808f48:	dc000015 	stw	r16,0(sp)
  808f4c:	040020b4 	movhi	r16,130
  808f50:	dc400115 	stw	r17,4(sp)
  808f54:	8421a504 	addi	r16,r16,-31084
  808f58:	2023883a 	mov	r17,r4
  808f5c:	2809883a 	mov	r4,r5
  808f60:	dfc00215 	stw	ra,8(sp)
  808f64:	80000015 	stw	zero,0(r16)
  808f68:	08122300 	call	812230 <close>
  808f6c:	00ffffc4 	movi	r3,-1
  808f70:	10c00526 	beq	r2,r3,808f88 <_close_r+0x44>
  808f74:	dfc00217 	ldw	ra,8(sp)
  808f78:	dc400117 	ldw	r17,4(sp)
  808f7c:	dc000017 	ldw	r16,0(sp)
  808f80:	dec00304 	addi	sp,sp,12
  808f84:	f800283a 	ret
  808f88:	80c00017 	ldw	r3,0(r16)
  808f8c:	183ff926 	beq	r3,zero,808f74 <__alt_mem_onchip_ram+0xff804f74>
  808f90:	88c00015 	stw	r3,0(r17)
  808f94:	003ff706 	br	808f74 <__alt_mem_onchip_ram+0xff804f74>

00808f98 <quorem>:
  808f98:	defff204 	addi	sp,sp,-56
  808f9c:	ddc00b15 	stw	r23,44(sp)
  808fa0:	20800417 	ldw	r2,16(r4)
  808fa4:	2dc00417 	ldw	r23,16(r5)
  808fa8:	dfc00d15 	stw	ra,52(sp)
  808fac:	df000c15 	stw	fp,48(sp)
  808fb0:	dd800a15 	stw	r22,40(sp)
  808fb4:	dd400915 	stw	r21,36(sp)
  808fb8:	dd000815 	stw	r20,32(sp)
  808fbc:	dcc00715 	stw	r19,28(sp)
  808fc0:	dc800615 	stw	r18,24(sp)
  808fc4:	dc400515 	stw	r17,20(sp)
  808fc8:	dc000415 	stw	r16,16(sp)
  808fcc:	15c07a16 	blt	r2,r23,8091b8 <quorem+0x220>
  808fd0:	bdffffc4 	addi	r23,r23,-1
  808fd4:	bde9883a 	add	r20,r23,r23
  808fd8:	28c00504 	addi	r3,r5,20
  808fdc:	a529883a 	add	r20,r20,r20
  808fe0:	1d39883a 	add	fp,r3,r20
  808fe4:	24c00504 	addi	r19,r4,20
  808fe8:	d9400215 	stw	r5,8(sp)
  808fec:	9d29883a 	add	r20,r19,r20
  808ff0:	e1400017 	ldw	r5,0(fp)
  808ff4:	d9000015 	stw	r4,0(sp)
  808ff8:	a1000017 	ldw	r4,0(r20)
  808ffc:	29400044 	addi	r5,r5,1
  809000:	d8c00115 	stw	r3,4(sp)
  809004:	dd000315 	stw	r20,12(sp)
  809008:	080f4b80 	call	80f4b8 <__udivsi3>
  80900c:	1025883a 	mov	r18,r2
  809010:	10003026 	beq	r2,zero,8090d4 <quorem+0x13c>
  809014:	dc400117 	ldw	r17,4(sp)
  809018:	9829883a 	mov	r20,r19
  80901c:	002d883a 	mov	r22,zero
  809020:	0021883a 	mov	r16,zero
  809024:	8d400017 	ldw	r21,0(r17)
  809028:	900b883a 	mov	r5,r18
  80902c:	8c400104 	addi	r17,r17,4
  809030:	a93fffcc 	andi	r4,r21,65535
  809034:	080f5740 	call	80f574 <__mulsi3>
  809038:	a808d43a 	srli	r4,r21,16
  80903c:	900b883a 	mov	r5,r18
  809040:	15ad883a 	add	r22,r2,r22
  809044:	080f5740 	call	80f574 <__mulsi3>
  809048:	a1000017 	ldw	r4,0(r20)
  80904c:	b00cd43a 	srli	r6,r22,16
  809050:	b0ffffcc 	andi	r3,r22,65535
  809054:	217fffcc 	andi	r5,r4,65535
  809058:	2c21883a 	add	r16,r5,r16
  80905c:	80c7c83a 	sub	r3,r16,r3
  809060:	2008d43a 	srli	r4,r4,16
  809064:	1185883a 	add	r2,r2,r6
  809068:	1821d43a 	srai	r16,r3,16
  80906c:	117fffcc 	andi	r5,r2,65535
  809070:	2149c83a 	sub	r4,r4,r5
  809074:	2421883a 	add	r16,r4,r16
  809078:	8008943a 	slli	r4,r16,16
  80907c:	18ffffcc 	andi	r3,r3,65535
  809080:	102cd43a 	srli	r22,r2,16
  809084:	20c8b03a 	or	r4,r4,r3
  809088:	a1000015 	stw	r4,0(r20)
  80908c:	8021d43a 	srai	r16,r16,16
  809090:	a5000104 	addi	r20,r20,4
  809094:	e47fe32e 	bgeu	fp,r17,809024 <__alt_mem_onchip_ram+0xff805024>
  809098:	d8c00317 	ldw	r3,12(sp)
  80909c:	18800017 	ldw	r2,0(r3)
  8090a0:	10000c1e 	bne	r2,zero,8090d4 <quorem+0x13c>
  8090a4:	18bfff04 	addi	r2,r3,-4
  8090a8:	9880082e 	bgeu	r19,r2,8090cc <quorem+0x134>
  8090ac:	18ffff17 	ldw	r3,-4(r3)
  8090b0:	18000326 	beq	r3,zero,8090c0 <quorem+0x128>
  8090b4:	00000506 	br	8090cc <quorem+0x134>
  8090b8:	10c00017 	ldw	r3,0(r2)
  8090bc:	1800031e 	bne	r3,zero,8090cc <quorem+0x134>
  8090c0:	10bfff04 	addi	r2,r2,-4
  8090c4:	bdffffc4 	addi	r23,r23,-1
  8090c8:	98bffb36 	bltu	r19,r2,8090b8 <__alt_mem_onchip_ram+0xff8050b8>
  8090cc:	d8c00017 	ldw	r3,0(sp)
  8090d0:	1dc00415 	stw	r23,16(r3)
  8090d4:	d9400217 	ldw	r5,8(sp)
  8090d8:	d9000017 	ldw	r4,0(sp)
  8090dc:	080c0780 	call	80c078 <__mcmp>
  8090e0:	10002816 	blt	r2,zero,809184 <quorem+0x1ec>
  8090e4:	dc400117 	ldw	r17,4(sp)
  8090e8:	94800044 	addi	r18,r18,1
  8090ec:	980d883a 	mov	r6,r19
  8090f0:	0007883a 	mov	r3,zero
  8090f4:	31000017 	ldw	r4,0(r6)
  8090f8:	89400017 	ldw	r5,0(r17)
  8090fc:	31800104 	addi	r6,r6,4
  809100:	20bfffcc 	andi	r2,r4,65535
  809104:	10c7883a 	add	r3,r2,r3
  809108:	28bfffcc 	andi	r2,r5,65535
  80910c:	1885c83a 	sub	r2,r3,r2
  809110:	280ad43a 	srli	r5,r5,16
  809114:	2008d43a 	srli	r4,r4,16
  809118:	1007d43a 	srai	r3,r2,16
  80911c:	10bfffcc 	andi	r2,r2,65535
  809120:	2149c83a 	sub	r4,r4,r5
  809124:	20c9883a 	add	r4,r4,r3
  809128:	200a943a 	slli	r5,r4,16
  80912c:	8c400104 	addi	r17,r17,4
  809130:	2007d43a 	srai	r3,r4,16
  809134:	2884b03a 	or	r2,r5,r2
  809138:	30bfff15 	stw	r2,-4(r6)
  80913c:	e47fed2e 	bgeu	fp,r17,8090f4 <__alt_mem_onchip_ram+0xff8050f4>
  809140:	bdc5883a 	add	r2,r23,r23
  809144:	1085883a 	add	r2,r2,r2
  809148:	9887883a 	add	r3,r19,r2
  80914c:	18800017 	ldw	r2,0(r3)
  809150:	10000c1e 	bne	r2,zero,809184 <quorem+0x1ec>
  809154:	18bfff04 	addi	r2,r3,-4
  809158:	9880082e 	bgeu	r19,r2,80917c <quorem+0x1e4>
  80915c:	18ffff17 	ldw	r3,-4(r3)
  809160:	18000326 	beq	r3,zero,809170 <quorem+0x1d8>
  809164:	00000506 	br	80917c <quorem+0x1e4>
  809168:	10c00017 	ldw	r3,0(r2)
  80916c:	1800031e 	bne	r3,zero,80917c <quorem+0x1e4>
  809170:	10bfff04 	addi	r2,r2,-4
  809174:	bdffffc4 	addi	r23,r23,-1
  809178:	98bffb36 	bltu	r19,r2,809168 <__alt_mem_onchip_ram+0xff805168>
  80917c:	d8c00017 	ldw	r3,0(sp)
  809180:	1dc00415 	stw	r23,16(r3)
  809184:	9005883a 	mov	r2,r18
  809188:	dfc00d17 	ldw	ra,52(sp)
  80918c:	df000c17 	ldw	fp,48(sp)
  809190:	ddc00b17 	ldw	r23,44(sp)
  809194:	dd800a17 	ldw	r22,40(sp)
  809198:	dd400917 	ldw	r21,36(sp)
  80919c:	dd000817 	ldw	r20,32(sp)
  8091a0:	dcc00717 	ldw	r19,28(sp)
  8091a4:	dc800617 	ldw	r18,24(sp)
  8091a8:	dc400517 	ldw	r17,20(sp)
  8091ac:	dc000417 	ldw	r16,16(sp)
  8091b0:	dec00e04 	addi	sp,sp,56
  8091b4:	f800283a 	ret
  8091b8:	0005883a 	mov	r2,zero
  8091bc:	003ff206 	br	809188 <__alt_mem_onchip_ram+0xff805188>

008091c0 <_dtoa_r>:
  8091c0:	20801017 	ldw	r2,64(r4)
  8091c4:	deffde04 	addi	sp,sp,-136
  8091c8:	df002015 	stw	fp,128(sp)
  8091cc:	dcc01b15 	stw	r19,108(sp)
  8091d0:	dc801a15 	stw	r18,104(sp)
  8091d4:	dc401915 	stw	r17,100(sp)
  8091d8:	dc001815 	stw	r16,96(sp)
  8091dc:	dfc02115 	stw	ra,132(sp)
  8091e0:	ddc01f15 	stw	r23,124(sp)
  8091e4:	dd801e15 	stw	r22,120(sp)
  8091e8:	dd401d15 	stw	r21,116(sp)
  8091ec:	dd001c15 	stw	r20,112(sp)
  8091f0:	d9c00315 	stw	r7,12(sp)
  8091f4:	2039883a 	mov	fp,r4
  8091f8:	3023883a 	mov	r17,r6
  8091fc:	2825883a 	mov	r18,r5
  809200:	dc002417 	ldw	r16,144(sp)
  809204:	3027883a 	mov	r19,r6
  809208:	10000826 	beq	r2,zero,80922c <_dtoa_r+0x6c>
  80920c:	21801117 	ldw	r6,68(r4)
  809210:	00c00044 	movi	r3,1
  809214:	100b883a 	mov	r5,r2
  809218:	1986983a 	sll	r3,r3,r6
  80921c:	11800115 	stw	r6,4(r2)
  809220:	10c00215 	stw	r3,8(r2)
  809224:	080b79c0 	call	80b79c <_Bfree>
  809228:	e0001015 	stw	zero,64(fp)
  80922c:	88002e16 	blt	r17,zero,8092e8 <_dtoa_r+0x128>
  809230:	80000015 	stw	zero,0(r16)
  809234:	889ffc2c 	andhi	r2,r17,32752
  809238:	00dffc34 	movhi	r3,32752
  80923c:	10c01c26 	beq	r2,r3,8092b0 <_dtoa_r+0xf0>
  809240:	000d883a 	mov	r6,zero
  809244:	000f883a 	mov	r7,zero
  809248:	9009883a 	mov	r4,r18
  80924c:	980b883a 	mov	r5,r19
  809250:	0810a140 	call	810a14 <__eqdf2>
  809254:	10002b1e 	bne	r2,zero,809304 <_dtoa_r+0x144>
  809258:	d9c02317 	ldw	r7,140(sp)
  80925c:	00800044 	movi	r2,1
  809260:	38800015 	stw	r2,0(r7)
  809264:	d8802517 	ldw	r2,148(sp)
  809268:	10019e26 	beq	r2,zero,8098e4 <_dtoa_r+0x724>
  80926c:	d8c02517 	ldw	r3,148(sp)
  809270:	00802074 	movhi	r2,129
  809274:	10933e44 	addi	r2,r2,19705
  809278:	18800015 	stw	r2,0(r3)
  80927c:	10bfffc4 	addi	r2,r2,-1
  809280:	dfc02117 	ldw	ra,132(sp)
  809284:	df002017 	ldw	fp,128(sp)
  809288:	ddc01f17 	ldw	r23,124(sp)
  80928c:	dd801e17 	ldw	r22,120(sp)
  809290:	dd401d17 	ldw	r21,116(sp)
  809294:	dd001c17 	ldw	r20,112(sp)
  809298:	dcc01b17 	ldw	r19,108(sp)
  80929c:	dc801a17 	ldw	r18,104(sp)
  8092a0:	dc401917 	ldw	r17,100(sp)
  8092a4:	dc001817 	ldw	r16,96(sp)
  8092a8:	dec02204 	addi	sp,sp,136
  8092ac:	f800283a 	ret
  8092b0:	d8c02317 	ldw	r3,140(sp)
  8092b4:	0089c3c4 	movi	r2,9999
  8092b8:	18800015 	stw	r2,0(r3)
  8092bc:	90017726 	beq	r18,zero,80989c <_dtoa_r+0x6dc>
  8092c0:	00802074 	movhi	r2,129
  8092c4:	10934a04 	addi	r2,r2,19752
  8092c8:	d9002517 	ldw	r4,148(sp)
  8092cc:	203fec26 	beq	r4,zero,809280 <__alt_mem_onchip_ram+0xff805280>
  8092d0:	10c000c7 	ldb	r3,3(r2)
  8092d4:	1801781e 	bne	r3,zero,8098b8 <_dtoa_r+0x6f8>
  8092d8:	10c000c4 	addi	r3,r2,3
  8092dc:	d9802517 	ldw	r6,148(sp)
  8092e0:	30c00015 	stw	r3,0(r6)
  8092e4:	003fe606 	br	809280 <__alt_mem_onchip_ram+0xff805280>
  8092e8:	04e00034 	movhi	r19,32768
  8092ec:	9cffffc4 	addi	r19,r19,-1
  8092f0:	00800044 	movi	r2,1
  8092f4:	8ce6703a 	and	r19,r17,r19
  8092f8:	80800015 	stw	r2,0(r16)
  8092fc:	9823883a 	mov	r17,r19
  809300:	003fcc06 	br	809234 <__alt_mem_onchip_ram+0xff805234>
  809304:	d8800204 	addi	r2,sp,8
  809308:	d8800015 	stw	r2,0(sp)
  80930c:	d9c00104 	addi	r7,sp,4
  809310:	900b883a 	mov	r5,r18
  809314:	980d883a 	mov	r6,r19
  809318:	e009883a 	mov	r4,fp
  80931c:	8820d53a 	srli	r16,r17,20
  809320:	080c4440 	call	80c444 <__d2b>
  809324:	d8800915 	stw	r2,36(sp)
  809328:	8001651e 	bne	r16,zero,8098c0 <_dtoa_r+0x700>
  80932c:	dd800217 	ldw	r22,8(sp)
  809330:	dc000117 	ldw	r16,4(sp)
  809334:	00800804 	movi	r2,32
  809338:	b421883a 	add	r16,r22,r16
  80933c:	80c10c84 	addi	r3,r16,1074
  809340:	10c2d10e 	bge	r2,r3,809e88 <_dtoa_r+0xcc8>
  809344:	00801004 	movi	r2,64
  809348:	81010484 	addi	r4,r16,1042
  80934c:	10c7c83a 	sub	r3,r2,r3
  809350:	9108d83a 	srl	r4,r18,r4
  809354:	88e2983a 	sll	r17,r17,r3
  809358:	2448b03a 	or	r4,r4,r17
  80935c:	0811f2c0 	call	811f2c <__floatunsidf>
  809360:	017f8434 	movhi	r5,65040
  809364:	01800044 	movi	r6,1
  809368:	1009883a 	mov	r4,r2
  80936c:	194b883a 	add	r5,r3,r5
  809370:	843fffc4 	addi	r16,r16,-1
  809374:	d9801115 	stw	r6,68(sp)
  809378:	000d883a 	mov	r6,zero
  80937c:	01cffe34 	movhi	r7,16376
  809380:	08114d40 	call	8114d4 <__subdf3>
  809384:	0198dbf4 	movhi	r6,25455
  809388:	01cff4f4 	movhi	r7,16339
  80938c:	3190d844 	addi	r6,r6,17249
  809390:	39e1e9c4 	addi	r7,r7,-30809
  809394:	1009883a 	mov	r4,r2
  809398:	180b883a 	mov	r5,r3
  80939c:	0810c6c0 	call	810c6c <__muldf3>
  8093a0:	01a2d874 	movhi	r6,35681
  8093a4:	01cff1f4 	movhi	r7,16327
  8093a8:	31b22cc4 	addi	r6,r6,-14157
  8093ac:	39e28a04 	addi	r7,r7,-30168
  8093b0:	180b883a 	mov	r5,r3
  8093b4:	1009883a 	mov	r4,r2
  8093b8:	080f7980 	call	80f798 <__adddf3>
  8093bc:	8009883a 	mov	r4,r16
  8093c0:	1029883a 	mov	r20,r2
  8093c4:	1823883a 	mov	r17,r3
  8093c8:	0811e500 	call	811e50 <__floatsidf>
  8093cc:	019427f4 	movhi	r6,20639
  8093d0:	01cff4f4 	movhi	r7,16339
  8093d4:	319e7ec4 	addi	r6,r6,31227
  8093d8:	39d104c4 	addi	r7,r7,17427
  8093dc:	1009883a 	mov	r4,r2
  8093e0:	180b883a 	mov	r5,r3
  8093e4:	0810c6c0 	call	810c6c <__muldf3>
  8093e8:	100d883a 	mov	r6,r2
  8093ec:	180f883a 	mov	r7,r3
  8093f0:	a009883a 	mov	r4,r20
  8093f4:	880b883a 	mov	r5,r17
  8093f8:	080f7980 	call	80f798 <__adddf3>
  8093fc:	1009883a 	mov	r4,r2
  809400:	180b883a 	mov	r5,r3
  809404:	1029883a 	mov	r20,r2
  809408:	1823883a 	mov	r17,r3
  80940c:	0811dd00 	call	811dd0 <__fixdfsi>
  809410:	000d883a 	mov	r6,zero
  809414:	000f883a 	mov	r7,zero
  809418:	a009883a 	mov	r4,r20
  80941c:	880b883a 	mov	r5,r17
  809420:	d8800515 	stw	r2,20(sp)
  809424:	0810b780 	call	810b78 <__ledf2>
  809428:	10028716 	blt	r2,zero,809e48 <_dtoa_r+0xc88>
  80942c:	d8c00517 	ldw	r3,20(sp)
  809430:	00800584 	movi	r2,22
  809434:	10c27536 	bltu	r2,r3,809e0c <_dtoa_r+0xc4c>
  809438:	180490fa 	slli	r2,r3,3
  80943c:	00c02074 	movhi	r3,129
  809440:	18d3a204 	addi	r3,r3,20104
  809444:	1885883a 	add	r2,r3,r2
  809448:	11000017 	ldw	r4,0(r2)
  80944c:	11400117 	ldw	r5,4(r2)
  809450:	900d883a 	mov	r6,r18
  809454:	980f883a 	mov	r7,r19
  809458:	0810a9c0 	call	810a9c <__gedf2>
  80945c:	00828d0e 	bge	zero,r2,809e94 <_dtoa_r+0xcd4>
  809460:	d9000517 	ldw	r4,20(sp)
  809464:	d8000e15 	stw	zero,56(sp)
  809468:	213fffc4 	addi	r4,r4,-1
  80946c:	d9000515 	stw	r4,20(sp)
  809470:	b42dc83a 	sub	r22,r22,r16
  809474:	b5bfffc4 	addi	r22,r22,-1
  809478:	b0026f16 	blt	r22,zero,809e38 <_dtoa_r+0xc78>
  80947c:	d8000815 	stw	zero,32(sp)
  809480:	d9c00517 	ldw	r7,20(sp)
  809484:	38026416 	blt	r7,zero,809e18 <_dtoa_r+0xc58>
  809488:	b1ed883a 	add	r22,r22,r7
  80948c:	d9c00d15 	stw	r7,52(sp)
  809490:	d8000a15 	stw	zero,40(sp)
  809494:	d9800317 	ldw	r6,12(sp)
  809498:	00800244 	movi	r2,9
  80949c:	11811436 	bltu	r2,r6,8098f0 <_dtoa_r+0x730>
  8094a0:	00800144 	movi	r2,5
  8094a4:	1184e10e 	bge	r2,r6,80a82c <_dtoa_r+0x166c>
  8094a8:	31bfff04 	addi	r6,r6,-4
  8094ac:	d9800315 	stw	r6,12(sp)
  8094b0:	0023883a 	mov	r17,zero
  8094b4:	d9800317 	ldw	r6,12(sp)
  8094b8:	008000c4 	movi	r2,3
  8094bc:	30836726 	beq	r6,r2,80a25c <_dtoa_r+0x109c>
  8094c0:	1183410e 	bge	r2,r6,80a1c8 <_dtoa_r+0x1008>
  8094c4:	d9c00317 	ldw	r7,12(sp)
  8094c8:	00800104 	movi	r2,4
  8094cc:	38827c26 	beq	r7,r2,809ec0 <_dtoa_r+0xd00>
  8094d0:	00800144 	movi	r2,5
  8094d4:	3884c41e 	bne	r7,r2,80a7e8 <_dtoa_r+0x1628>
  8094d8:	00800044 	movi	r2,1
  8094dc:	d8800b15 	stw	r2,44(sp)
  8094e0:	d8c00517 	ldw	r3,20(sp)
  8094e4:	d9002217 	ldw	r4,136(sp)
  8094e8:	1907883a 	add	r3,r3,r4
  8094ec:	19800044 	addi	r6,r3,1
  8094f0:	d8c00c15 	stw	r3,48(sp)
  8094f4:	d9800615 	stw	r6,24(sp)
  8094f8:	0183a40e 	bge	zero,r6,80a38c <_dtoa_r+0x11cc>
  8094fc:	d9800617 	ldw	r6,24(sp)
  809500:	3021883a 	mov	r16,r6
  809504:	e0001115 	stw	zero,68(fp)
  809508:	008005c4 	movi	r2,23
  80950c:	1184c92e 	bgeu	r2,r6,80a834 <_dtoa_r+0x1674>
  809510:	00c00044 	movi	r3,1
  809514:	00800104 	movi	r2,4
  809518:	1085883a 	add	r2,r2,r2
  80951c:	11000504 	addi	r4,r2,20
  809520:	180b883a 	mov	r5,r3
  809524:	18c00044 	addi	r3,r3,1
  809528:	313ffb2e 	bgeu	r6,r4,809518 <__alt_mem_onchip_ram+0xff805518>
  80952c:	e1401115 	stw	r5,68(fp)
  809530:	e009883a 	mov	r4,fp
  809534:	080b6f40 	call	80b6f4 <_Balloc>
  809538:	d8800715 	stw	r2,28(sp)
  80953c:	e0801015 	stw	r2,64(fp)
  809540:	00800384 	movi	r2,14
  809544:	1400f736 	bltu	r2,r16,809924 <_dtoa_r+0x764>
  809548:	8800f626 	beq	r17,zero,809924 <_dtoa_r+0x764>
  80954c:	d9c00517 	ldw	r7,20(sp)
  809550:	01c39a0e 	bge	zero,r7,80a3bc <_dtoa_r+0x11fc>
  809554:	388003cc 	andi	r2,r7,15
  809558:	100490fa 	slli	r2,r2,3
  80955c:	382bd13a 	srai	r21,r7,4
  809560:	00c02074 	movhi	r3,129
  809564:	18d3a204 	addi	r3,r3,20104
  809568:	1885883a 	add	r2,r3,r2
  80956c:	a8c0040c 	andi	r3,r21,16
  809570:	12400017 	ldw	r9,0(r2)
  809574:	12000117 	ldw	r8,4(r2)
  809578:	18037926 	beq	r3,zero,80a360 <_dtoa_r+0x11a0>
  80957c:	00802074 	movhi	r2,129
  809580:	10939804 	addi	r2,r2,20064
  809584:	11800817 	ldw	r6,32(r2)
  809588:	11c00917 	ldw	r7,36(r2)
  80958c:	9009883a 	mov	r4,r18
  809590:	980b883a 	mov	r5,r19
  809594:	da001715 	stw	r8,92(sp)
  809598:	da401615 	stw	r9,88(sp)
  80959c:	08100440 	call	810044 <__divdf3>
  8095a0:	da001717 	ldw	r8,92(sp)
  8095a4:	da401617 	ldw	r9,88(sp)
  8095a8:	ad4003cc 	andi	r21,r21,15
  8095ac:	040000c4 	movi	r16,3
  8095b0:	1023883a 	mov	r17,r2
  8095b4:	1829883a 	mov	r20,r3
  8095b8:	a8001126 	beq	r21,zero,809600 <_dtoa_r+0x440>
  8095bc:	05c02074 	movhi	r23,129
  8095c0:	bdd39804 	addi	r23,r23,20064
  8095c4:	4805883a 	mov	r2,r9
  8095c8:	4007883a 	mov	r3,r8
  8095cc:	a980004c 	andi	r6,r21,1
  8095d0:	1009883a 	mov	r4,r2
  8095d4:	a82bd07a 	srai	r21,r21,1
  8095d8:	180b883a 	mov	r5,r3
  8095dc:	30000426 	beq	r6,zero,8095f0 <_dtoa_r+0x430>
  8095e0:	b9800017 	ldw	r6,0(r23)
  8095e4:	b9c00117 	ldw	r7,4(r23)
  8095e8:	84000044 	addi	r16,r16,1
  8095ec:	0810c6c0 	call	810c6c <__muldf3>
  8095f0:	bdc00204 	addi	r23,r23,8
  8095f4:	a83ff51e 	bne	r21,zero,8095cc <__alt_mem_onchip_ram+0xff8055cc>
  8095f8:	1013883a 	mov	r9,r2
  8095fc:	1811883a 	mov	r8,r3
  809600:	480d883a 	mov	r6,r9
  809604:	400f883a 	mov	r7,r8
  809608:	8809883a 	mov	r4,r17
  80960c:	a00b883a 	mov	r5,r20
  809610:	08100440 	call	810044 <__divdf3>
  809614:	d8800f15 	stw	r2,60(sp)
  809618:	d8c01015 	stw	r3,64(sp)
  80961c:	d8c00e17 	ldw	r3,56(sp)
  809620:	18000626 	beq	r3,zero,80963c <_dtoa_r+0x47c>
  809624:	d9000f17 	ldw	r4,60(sp)
  809628:	d9401017 	ldw	r5,64(sp)
  80962c:	000d883a 	mov	r6,zero
  809630:	01cffc34 	movhi	r7,16368
  809634:	0810b780 	call	810b78 <__ledf2>
  809638:	10040b16 	blt	r2,zero,80a668 <_dtoa_r+0x14a8>
  80963c:	8009883a 	mov	r4,r16
  809640:	0811e500 	call	811e50 <__floatsidf>
  809644:	d9800f17 	ldw	r6,60(sp)
  809648:	d9c01017 	ldw	r7,64(sp)
  80964c:	1009883a 	mov	r4,r2
  809650:	180b883a 	mov	r5,r3
  809654:	0810c6c0 	call	810c6c <__muldf3>
  809658:	000d883a 	mov	r6,zero
  80965c:	01d00734 	movhi	r7,16412
  809660:	1009883a 	mov	r4,r2
  809664:	180b883a 	mov	r5,r3
  809668:	080f7980 	call	80f798 <__adddf3>
  80966c:	1021883a 	mov	r16,r2
  809670:	d8800617 	ldw	r2,24(sp)
  809674:	047f3034 	movhi	r17,64704
  809678:	1c63883a 	add	r17,r3,r17
  80967c:	10031826 	beq	r2,zero,80a2e0 <_dtoa_r+0x1120>
  809680:	d8c00517 	ldw	r3,20(sp)
  809684:	db000617 	ldw	r12,24(sp)
  809688:	d8c01315 	stw	r3,76(sp)
  80968c:	d9000b17 	ldw	r4,44(sp)
  809690:	20038f26 	beq	r4,zero,80a4d0 <_dtoa_r+0x1310>
  809694:	60bfffc4 	addi	r2,r12,-1
  809698:	100490fa 	slli	r2,r2,3
  80969c:	00c02074 	movhi	r3,129
  8096a0:	18d3a204 	addi	r3,r3,20104
  8096a4:	1885883a 	add	r2,r3,r2
  8096a8:	11800017 	ldw	r6,0(r2)
  8096ac:	11c00117 	ldw	r7,4(r2)
  8096b0:	d8800717 	ldw	r2,28(sp)
  8096b4:	0009883a 	mov	r4,zero
  8096b8:	014ff834 	movhi	r5,16352
  8096bc:	db001615 	stw	r12,88(sp)
  8096c0:	15c00044 	addi	r23,r2,1
  8096c4:	08100440 	call	810044 <__divdf3>
  8096c8:	800d883a 	mov	r6,r16
  8096cc:	880f883a 	mov	r7,r17
  8096d0:	1009883a 	mov	r4,r2
  8096d4:	180b883a 	mov	r5,r3
  8096d8:	08114d40 	call	8114d4 <__subdf3>
  8096dc:	d9401017 	ldw	r5,64(sp)
  8096e0:	d9000f17 	ldw	r4,60(sp)
  8096e4:	102b883a 	mov	r21,r2
  8096e8:	d8c01215 	stw	r3,72(sp)
  8096ec:	0811dd00 	call	811dd0 <__fixdfsi>
  8096f0:	1009883a 	mov	r4,r2
  8096f4:	1029883a 	mov	r20,r2
  8096f8:	0811e500 	call	811e50 <__floatsidf>
  8096fc:	d9000f17 	ldw	r4,60(sp)
  809700:	d9401017 	ldw	r5,64(sp)
  809704:	100d883a 	mov	r6,r2
  809708:	180f883a 	mov	r7,r3
  80970c:	08114d40 	call	8114d4 <__subdf3>
  809710:	1823883a 	mov	r17,r3
  809714:	d8c00717 	ldw	r3,28(sp)
  809718:	d9401217 	ldw	r5,72(sp)
  80971c:	a2000c04 	addi	r8,r20,48
  809720:	1021883a 	mov	r16,r2
  809724:	1a000005 	stb	r8,0(r3)
  809728:	800d883a 	mov	r6,r16
  80972c:	880f883a 	mov	r7,r17
  809730:	a809883a 	mov	r4,r21
  809734:	4029883a 	mov	r20,r8
  809738:	0810a9c0 	call	810a9c <__gedf2>
  80973c:	00841d16 	blt	zero,r2,80a7b4 <_dtoa_r+0x15f4>
  809740:	800d883a 	mov	r6,r16
  809744:	880f883a 	mov	r7,r17
  809748:	0009883a 	mov	r4,zero
  80974c:	014ffc34 	movhi	r5,16368
  809750:	08114d40 	call	8114d4 <__subdf3>
  809754:	d9401217 	ldw	r5,72(sp)
  809758:	100d883a 	mov	r6,r2
  80975c:	180f883a 	mov	r7,r3
  809760:	a809883a 	mov	r4,r21
  809764:	0810a9c0 	call	810a9c <__gedf2>
  809768:	db001617 	ldw	r12,88(sp)
  80976c:	00840e16 	blt	zero,r2,80a7a8 <_dtoa_r+0x15e8>
  809770:	00800044 	movi	r2,1
  809774:	13006b0e 	bge	r2,r12,809924 <_dtoa_r+0x764>
  809778:	d9000717 	ldw	r4,28(sp)
  80977c:	dd800f15 	stw	r22,60(sp)
  809780:	dcc01015 	stw	r19,64(sp)
  809784:	2319883a 	add	r12,r4,r12
  809788:	dcc01217 	ldw	r19,72(sp)
  80978c:	602d883a 	mov	r22,r12
  809790:	dc801215 	stw	r18,72(sp)
  809794:	b825883a 	mov	r18,r23
  809798:	00000906 	br	8097c0 <_dtoa_r+0x600>
  80979c:	08114d40 	call	8114d4 <__subdf3>
  8097a0:	a80d883a 	mov	r6,r21
  8097a4:	980f883a 	mov	r7,r19
  8097a8:	1009883a 	mov	r4,r2
  8097ac:	180b883a 	mov	r5,r3
  8097b0:	0810b780 	call	810b78 <__ledf2>
  8097b4:	1003e816 	blt	r2,zero,80a758 <_dtoa_r+0x1598>
  8097b8:	b825883a 	mov	r18,r23
  8097bc:	bd83e926 	beq	r23,r22,80a764 <_dtoa_r+0x15a4>
  8097c0:	a809883a 	mov	r4,r21
  8097c4:	980b883a 	mov	r5,r19
  8097c8:	000d883a 	mov	r6,zero
  8097cc:	01d00934 	movhi	r7,16420
  8097d0:	0810c6c0 	call	810c6c <__muldf3>
  8097d4:	000d883a 	mov	r6,zero
  8097d8:	01d00934 	movhi	r7,16420
  8097dc:	8009883a 	mov	r4,r16
  8097e0:	880b883a 	mov	r5,r17
  8097e4:	102b883a 	mov	r21,r2
  8097e8:	1827883a 	mov	r19,r3
  8097ec:	0810c6c0 	call	810c6c <__muldf3>
  8097f0:	180b883a 	mov	r5,r3
  8097f4:	1009883a 	mov	r4,r2
  8097f8:	1821883a 	mov	r16,r3
  8097fc:	1023883a 	mov	r17,r2
  809800:	0811dd00 	call	811dd0 <__fixdfsi>
  809804:	1009883a 	mov	r4,r2
  809808:	1029883a 	mov	r20,r2
  80980c:	0811e500 	call	811e50 <__floatsidf>
  809810:	8809883a 	mov	r4,r17
  809814:	800b883a 	mov	r5,r16
  809818:	100d883a 	mov	r6,r2
  80981c:	180f883a 	mov	r7,r3
  809820:	08114d40 	call	8114d4 <__subdf3>
  809824:	a5000c04 	addi	r20,r20,48
  809828:	a80d883a 	mov	r6,r21
  80982c:	980f883a 	mov	r7,r19
  809830:	1009883a 	mov	r4,r2
  809834:	180b883a 	mov	r5,r3
  809838:	95000005 	stb	r20,0(r18)
  80983c:	1021883a 	mov	r16,r2
  809840:	1823883a 	mov	r17,r3
  809844:	0810b780 	call	810b78 <__ledf2>
  809848:	bdc00044 	addi	r23,r23,1
  80984c:	800d883a 	mov	r6,r16
  809850:	880f883a 	mov	r7,r17
  809854:	0009883a 	mov	r4,zero
  809858:	014ffc34 	movhi	r5,16368
  80985c:	103fcf0e 	bge	r2,zero,80979c <__alt_mem_onchip_ram+0xff80579c>
  809860:	d8c01317 	ldw	r3,76(sp)
  809864:	d8c00515 	stw	r3,20(sp)
  809868:	d9400917 	ldw	r5,36(sp)
  80986c:	e009883a 	mov	r4,fp
  809870:	080b79c0 	call	80b79c <_Bfree>
  809874:	d9000517 	ldw	r4,20(sp)
  809878:	d9802317 	ldw	r6,140(sp)
  80987c:	d9c02517 	ldw	r7,148(sp)
  809880:	b8000005 	stb	zero,0(r23)
  809884:	20800044 	addi	r2,r4,1
  809888:	30800015 	stw	r2,0(r6)
  80988c:	3802aa26 	beq	r7,zero,80a338 <_dtoa_r+0x1178>
  809890:	3dc00015 	stw	r23,0(r7)
  809894:	d8800717 	ldw	r2,28(sp)
  809898:	003e7906 	br	809280 <__alt_mem_onchip_ram+0xff805280>
  80989c:	00800434 	movhi	r2,16
  8098a0:	10bfffc4 	addi	r2,r2,-1
  8098a4:	88a2703a 	and	r17,r17,r2
  8098a8:	883e851e 	bne	r17,zero,8092c0 <__alt_mem_onchip_ram+0xff8052c0>
  8098ac:	00802074 	movhi	r2,129
  8098b0:	10934704 	addi	r2,r2,19740
  8098b4:	003e8406 	br	8092c8 <__alt_mem_onchip_ram+0xff8052c8>
  8098b8:	10c00204 	addi	r3,r2,8
  8098bc:	003e8706 	br	8092dc <__alt_mem_onchip_ram+0xff8052dc>
  8098c0:	01400434 	movhi	r5,16
  8098c4:	297fffc4 	addi	r5,r5,-1
  8098c8:	994a703a 	and	r5,r19,r5
  8098cc:	9009883a 	mov	r4,r18
  8098d0:	843f0044 	addi	r16,r16,-1023
  8098d4:	294ffc34 	orhi	r5,r5,16368
  8098d8:	dd800217 	ldw	r22,8(sp)
  8098dc:	d8001115 	stw	zero,68(sp)
  8098e0:	003ea506 	br	809378 <__alt_mem_onchip_ram+0xff805378>
  8098e4:	00802074 	movhi	r2,129
  8098e8:	10933e04 	addi	r2,r2,19704
  8098ec:	003e6406 	br	809280 <__alt_mem_onchip_ram+0xff805280>
  8098f0:	e0001115 	stw	zero,68(fp)
  8098f4:	000b883a 	mov	r5,zero
  8098f8:	e009883a 	mov	r4,fp
  8098fc:	080b6f40 	call	80b6f4 <_Balloc>
  809900:	01bfffc4 	movi	r6,-1
  809904:	01c00044 	movi	r7,1
  809908:	d8800715 	stw	r2,28(sp)
  80990c:	d9800c15 	stw	r6,48(sp)
  809910:	e0801015 	stw	r2,64(fp)
  809914:	d8000315 	stw	zero,12(sp)
  809918:	d9c00b15 	stw	r7,44(sp)
  80991c:	d9800615 	stw	r6,24(sp)
  809920:	d8002215 	stw	zero,136(sp)
  809924:	d8800117 	ldw	r2,4(sp)
  809928:	10008916 	blt	r2,zero,809b50 <_dtoa_r+0x990>
  80992c:	d9000517 	ldw	r4,20(sp)
  809930:	00c00384 	movi	r3,14
  809934:	19008616 	blt	r3,r4,809b50 <_dtoa_r+0x990>
  809938:	200490fa 	slli	r2,r4,3
  80993c:	00c02074 	movhi	r3,129
  809940:	d9802217 	ldw	r6,136(sp)
  809944:	18d3a204 	addi	r3,r3,20104
  809948:	1885883a 	add	r2,r3,r2
  80994c:	14000017 	ldw	r16,0(r2)
  809950:	14400117 	ldw	r17,4(r2)
  809954:	30016316 	blt	r6,zero,809ee4 <_dtoa_r+0xd24>
  809958:	800d883a 	mov	r6,r16
  80995c:	880f883a 	mov	r7,r17
  809960:	9009883a 	mov	r4,r18
  809964:	980b883a 	mov	r5,r19
  809968:	08100440 	call	810044 <__divdf3>
  80996c:	180b883a 	mov	r5,r3
  809970:	1009883a 	mov	r4,r2
  809974:	0811dd00 	call	811dd0 <__fixdfsi>
  809978:	1009883a 	mov	r4,r2
  80997c:	102b883a 	mov	r21,r2
  809980:	0811e500 	call	811e50 <__floatsidf>
  809984:	800d883a 	mov	r6,r16
  809988:	880f883a 	mov	r7,r17
  80998c:	1009883a 	mov	r4,r2
  809990:	180b883a 	mov	r5,r3
  809994:	0810c6c0 	call	810c6c <__muldf3>
  809998:	100d883a 	mov	r6,r2
  80999c:	180f883a 	mov	r7,r3
  8099a0:	9009883a 	mov	r4,r18
  8099a4:	980b883a 	mov	r5,r19
  8099a8:	08114d40 	call	8114d4 <__subdf3>
  8099ac:	d9c00717 	ldw	r7,28(sp)
  8099b0:	1009883a 	mov	r4,r2
  8099b4:	a8800c04 	addi	r2,r21,48
  8099b8:	38800005 	stb	r2,0(r7)
  8099bc:	3dc00044 	addi	r23,r7,1
  8099c0:	d9c00617 	ldw	r7,24(sp)
  8099c4:	01800044 	movi	r6,1
  8099c8:	180b883a 	mov	r5,r3
  8099cc:	2005883a 	mov	r2,r4
  8099d0:	39803826 	beq	r7,r6,809ab4 <_dtoa_r+0x8f4>
  8099d4:	000d883a 	mov	r6,zero
  8099d8:	01d00934 	movhi	r7,16420
  8099dc:	0810c6c0 	call	810c6c <__muldf3>
  8099e0:	000d883a 	mov	r6,zero
  8099e4:	000f883a 	mov	r7,zero
  8099e8:	1009883a 	mov	r4,r2
  8099ec:	180b883a 	mov	r5,r3
  8099f0:	1025883a 	mov	r18,r2
  8099f4:	1827883a 	mov	r19,r3
  8099f8:	0810a140 	call	810a14 <__eqdf2>
  8099fc:	103f9a26 	beq	r2,zero,809868 <__alt_mem_onchip_ram+0xff805868>
  809a00:	d9c00617 	ldw	r7,24(sp)
  809a04:	d8c00717 	ldw	r3,28(sp)
  809a08:	b829883a 	mov	r20,r23
  809a0c:	38bfffc4 	addi	r2,r7,-1
  809a10:	18ad883a 	add	r22,r3,r2
  809a14:	00000a06 	br	809a40 <_dtoa_r+0x880>
  809a18:	0810c6c0 	call	810c6c <__muldf3>
  809a1c:	000d883a 	mov	r6,zero
  809a20:	000f883a 	mov	r7,zero
  809a24:	1009883a 	mov	r4,r2
  809a28:	180b883a 	mov	r5,r3
  809a2c:	1025883a 	mov	r18,r2
  809a30:	1827883a 	mov	r19,r3
  809a34:	b829883a 	mov	r20,r23
  809a38:	0810a140 	call	810a14 <__eqdf2>
  809a3c:	103f8a26 	beq	r2,zero,809868 <__alt_mem_onchip_ram+0xff805868>
  809a40:	800d883a 	mov	r6,r16
  809a44:	880f883a 	mov	r7,r17
  809a48:	9009883a 	mov	r4,r18
  809a4c:	980b883a 	mov	r5,r19
  809a50:	08100440 	call	810044 <__divdf3>
  809a54:	180b883a 	mov	r5,r3
  809a58:	1009883a 	mov	r4,r2
  809a5c:	0811dd00 	call	811dd0 <__fixdfsi>
  809a60:	1009883a 	mov	r4,r2
  809a64:	102b883a 	mov	r21,r2
  809a68:	0811e500 	call	811e50 <__floatsidf>
  809a6c:	800d883a 	mov	r6,r16
  809a70:	880f883a 	mov	r7,r17
  809a74:	1009883a 	mov	r4,r2
  809a78:	180b883a 	mov	r5,r3
  809a7c:	0810c6c0 	call	810c6c <__muldf3>
  809a80:	100d883a 	mov	r6,r2
  809a84:	180f883a 	mov	r7,r3
  809a88:	9009883a 	mov	r4,r18
  809a8c:	980b883a 	mov	r5,r19
  809a90:	08114d40 	call	8114d4 <__subdf3>
  809a94:	aa000c04 	addi	r8,r21,48
  809a98:	a2000005 	stb	r8,0(r20)
  809a9c:	000d883a 	mov	r6,zero
  809aa0:	01d00934 	movhi	r7,16420
  809aa4:	1009883a 	mov	r4,r2
  809aa8:	180b883a 	mov	r5,r3
  809aac:	a5c00044 	addi	r23,r20,1
  809ab0:	b53fd91e 	bne	r22,r20,809a18 <__alt_mem_onchip_ram+0xff805a18>
  809ab4:	100d883a 	mov	r6,r2
  809ab8:	180f883a 	mov	r7,r3
  809abc:	1009883a 	mov	r4,r2
  809ac0:	180b883a 	mov	r5,r3
  809ac4:	080f7980 	call	80f798 <__adddf3>
  809ac8:	100d883a 	mov	r6,r2
  809acc:	180f883a 	mov	r7,r3
  809ad0:	8009883a 	mov	r4,r16
  809ad4:	880b883a 	mov	r5,r17
  809ad8:	1027883a 	mov	r19,r2
  809adc:	1825883a 	mov	r18,r3
  809ae0:	0810b780 	call	810b78 <__ledf2>
  809ae4:	10000816 	blt	r2,zero,809b08 <_dtoa_r+0x948>
  809ae8:	980d883a 	mov	r6,r19
  809aec:	900f883a 	mov	r7,r18
  809af0:	8009883a 	mov	r4,r16
  809af4:	880b883a 	mov	r5,r17
  809af8:	0810a140 	call	810a14 <__eqdf2>
  809afc:	103f5a1e 	bne	r2,zero,809868 <__alt_mem_onchip_ram+0xff805868>
  809b00:	ad40004c 	andi	r21,r21,1
  809b04:	a83f5826 	beq	r21,zero,809868 <__alt_mem_onchip_ram+0xff805868>
  809b08:	bd3fffc3 	ldbu	r20,-1(r23)
  809b0c:	b8bfffc4 	addi	r2,r23,-1
  809b10:	1007883a 	mov	r3,r2
  809b14:	01400e44 	movi	r5,57
  809b18:	d9800717 	ldw	r6,28(sp)
  809b1c:	00000506 	br	809b34 <_dtoa_r+0x974>
  809b20:	18ffffc4 	addi	r3,r3,-1
  809b24:	11824726 	beq	r2,r6,80a444 <_dtoa_r+0x1284>
  809b28:	1d000003 	ldbu	r20,0(r3)
  809b2c:	102f883a 	mov	r23,r2
  809b30:	10bfffc4 	addi	r2,r2,-1
  809b34:	a1003fcc 	andi	r4,r20,255
  809b38:	2100201c 	xori	r4,r4,128
  809b3c:	213fe004 	addi	r4,r4,-128
  809b40:	217ff726 	beq	r4,r5,809b20 <__alt_mem_onchip_ram+0xff805b20>
  809b44:	a2000044 	addi	r8,r20,1
  809b48:	12000005 	stb	r8,0(r2)
  809b4c:	003f4606 	br	809868 <__alt_mem_onchip_ram+0xff805868>
  809b50:	d9000b17 	ldw	r4,44(sp)
  809b54:	2000c826 	beq	r4,zero,809e78 <_dtoa_r+0xcb8>
  809b58:	d9800317 	ldw	r6,12(sp)
  809b5c:	00c00044 	movi	r3,1
  809b60:	1980f90e 	bge	r3,r6,809f48 <_dtoa_r+0xd88>
  809b64:	d8800617 	ldw	r2,24(sp)
  809b68:	d8c00a17 	ldw	r3,40(sp)
  809b6c:	157fffc4 	addi	r21,r2,-1
  809b70:	1d41f316 	blt	r3,r21,80a340 <_dtoa_r+0x1180>
  809b74:	1d6bc83a 	sub	r21,r3,r21
  809b78:	d9c00617 	ldw	r7,24(sp)
  809b7c:	3802aa16 	blt	r7,zero,80a628 <_dtoa_r+0x1468>
  809b80:	dd000817 	ldw	r20,32(sp)
  809b84:	d8800617 	ldw	r2,24(sp)
  809b88:	d8c00817 	ldw	r3,32(sp)
  809b8c:	01400044 	movi	r5,1
  809b90:	e009883a 	mov	r4,fp
  809b94:	1887883a 	add	r3,r3,r2
  809b98:	d8c00815 	stw	r3,32(sp)
  809b9c:	b0ad883a 	add	r22,r22,r2
  809ba0:	080bb280 	call	80bb28 <__i2b>
  809ba4:	1023883a 	mov	r17,r2
  809ba8:	a0000826 	beq	r20,zero,809bcc <_dtoa_r+0xa0c>
  809bac:	0580070e 	bge	zero,r22,809bcc <_dtoa_r+0xa0c>
  809bb0:	a005883a 	mov	r2,r20
  809bb4:	b500b916 	blt	r22,r20,809e9c <_dtoa_r+0xcdc>
  809bb8:	d9000817 	ldw	r4,32(sp)
  809bbc:	a0a9c83a 	sub	r20,r20,r2
  809bc0:	b0adc83a 	sub	r22,r22,r2
  809bc4:	2089c83a 	sub	r4,r4,r2
  809bc8:	d9000815 	stw	r4,32(sp)
  809bcc:	d9800a17 	ldw	r6,40(sp)
  809bd0:	0181810e 	bge	zero,r6,80a1d8 <_dtoa_r+0x1018>
  809bd4:	d9c00b17 	ldw	r7,44(sp)
  809bd8:	3800b326 	beq	r7,zero,809ea8 <_dtoa_r+0xce8>
  809bdc:	a800b226 	beq	r21,zero,809ea8 <_dtoa_r+0xce8>
  809be0:	880b883a 	mov	r5,r17
  809be4:	a80d883a 	mov	r6,r21
  809be8:	e009883a 	mov	r4,fp
  809bec:	080bdf00 	call	80bdf0 <__pow5mult>
  809bf0:	d9800917 	ldw	r6,36(sp)
  809bf4:	100b883a 	mov	r5,r2
  809bf8:	e009883a 	mov	r4,fp
  809bfc:	1023883a 	mov	r17,r2
  809c00:	080bb640 	call	80bb64 <__multiply>
  809c04:	1021883a 	mov	r16,r2
  809c08:	d8800a17 	ldw	r2,40(sp)
  809c0c:	d9400917 	ldw	r5,36(sp)
  809c10:	e009883a 	mov	r4,fp
  809c14:	1545c83a 	sub	r2,r2,r21
  809c18:	d8800a15 	stw	r2,40(sp)
  809c1c:	080b79c0 	call	80b79c <_Bfree>
  809c20:	d8c00a17 	ldw	r3,40(sp)
  809c24:	18009f1e 	bne	r3,zero,809ea4 <_dtoa_r+0xce4>
  809c28:	05c00044 	movi	r23,1
  809c2c:	e009883a 	mov	r4,fp
  809c30:	b80b883a 	mov	r5,r23
  809c34:	080bb280 	call	80bb28 <__i2b>
  809c38:	d9000d17 	ldw	r4,52(sp)
  809c3c:	102b883a 	mov	r21,r2
  809c40:	2000ce26 	beq	r4,zero,809f7c <_dtoa_r+0xdbc>
  809c44:	200d883a 	mov	r6,r4
  809c48:	100b883a 	mov	r5,r2
  809c4c:	e009883a 	mov	r4,fp
  809c50:	080bdf00 	call	80bdf0 <__pow5mult>
  809c54:	d9800317 	ldw	r6,12(sp)
  809c58:	102b883a 	mov	r21,r2
  809c5c:	b981810e 	bge	r23,r6,80a264 <_dtoa_r+0x10a4>
  809c60:	0027883a 	mov	r19,zero
  809c64:	a8800417 	ldw	r2,16(r21)
  809c68:	05c00804 	movi	r23,32
  809c6c:	10800104 	addi	r2,r2,4
  809c70:	1085883a 	add	r2,r2,r2
  809c74:	1085883a 	add	r2,r2,r2
  809c78:	a885883a 	add	r2,r21,r2
  809c7c:	11000017 	ldw	r4,0(r2)
  809c80:	080ba100 	call	80ba10 <__hi0bits>
  809c84:	b885c83a 	sub	r2,r23,r2
  809c88:	1585883a 	add	r2,r2,r22
  809c8c:	108007cc 	andi	r2,r2,31
  809c90:	1000b326 	beq	r2,zero,809f60 <_dtoa_r+0xda0>
  809c94:	00c00804 	movi	r3,32
  809c98:	1887c83a 	sub	r3,r3,r2
  809c9c:	01000104 	movi	r4,4
  809ca0:	20c2cd0e 	bge	r4,r3,80a7d8 <_dtoa_r+0x1618>
  809ca4:	00c00704 	movi	r3,28
  809ca8:	1885c83a 	sub	r2,r3,r2
  809cac:	d8c00817 	ldw	r3,32(sp)
  809cb0:	a0a9883a 	add	r20,r20,r2
  809cb4:	b0ad883a 	add	r22,r22,r2
  809cb8:	1887883a 	add	r3,r3,r2
  809cbc:	d8c00815 	stw	r3,32(sp)
  809cc0:	d9800817 	ldw	r6,32(sp)
  809cc4:	0180040e 	bge	zero,r6,809cd8 <_dtoa_r+0xb18>
  809cc8:	800b883a 	mov	r5,r16
  809ccc:	e009883a 	mov	r4,fp
  809cd0:	080bf300 	call	80bf30 <__lshift>
  809cd4:	1021883a 	mov	r16,r2
  809cd8:	0580050e 	bge	zero,r22,809cf0 <_dtoa_r+0xb30>
  809cdc:	a80b883a 	mov	r5,r21
  809ce0:	b00d883a 	mov	r6,r22
  809ce4:	e009883a 	mov	r4,fp
  809ce8:	080bf300 	call	80bf30 <__lshift>
  809cec:	102b883a 	mov	r21,r2
  809cf0:	d9c00e17 	ldw	r7,56(sp)
  809cf4:	3801211e 	bne	r7,zero,80a17c <_dtoa_r+0xfbc>
  809cf8:	d9800617 	ldw	r6,24(sp)
  809cfc:	0181380e 	bge	zero,r6,80a1e0 <_dtoa_r+0x1020>
  809d00:	d8c00b17 	ldw	r3,44(sp)
  809d04:	1800ab1e 	bne	r3,zero,809fb4 <_dtoa_r+0xdf4>
  809d08:	dc800717 	ldw	r18,28(sp)
  809d0c:	dcc00617 	ldw	r19,24(sp)
  809d10:	9029883a 	mov	r20,r18
  809d14:	00000206 	br	809d20 <_dtoa_r+0xb60>
  809d18:	080b7c40 	call	80b7c4 <__multadd>
  809d1c:	1021883a 	mov	r16,r2
  809d20:	a80b883a 	mov	r5,r21
  809d24:	8009883a 	mov	r4,r16
  809d28:	0808f980 	call	808f98 <quorem>
  809d2c:	10800c04 	addi	r2,r2,48
  809d30:	90800005 	stb	r2,0(r18)
  809d34:	94800044 	addi	r18,r18,1
  809d38:	9507c83a 	sub	r3,r18,r20
  809d3c:	000f883a 	mov	r7,zero
  809d40:	01800284 	movi	r6,10
  809d44:	800b883a 	mov	r5,r16
  809d48:	e009883a 	mov	r4,fp
  809d4c:	1cfff216 	blt	r3,r19,809d18 <__alt_mem_onchip_ram+0xff805d18>
  809d50:	1011883a 	mov	r8,r2
  809d54:	d8800617 	ldw	r2,24(sp)
  809d58:	0082370e 	bge	zero,r2,80a638 <_dtoa_r+0x1478>
  809d5c:	d9000717 	ldw	r4,28(sp)
  809d60:	0025883a 	mov	r18,zero
  809d64:	20af883a 	add	r23,r4,r2
  809d68:	01800044 	movi	r6,1
  809d6c:	800b883a 	mov	r5,r16
  809d70:	e009883a 	mov	r4,fp
  809d74:	da001715 	stw	r8,92(sp)
  809d78:	080bf300 	call	80bf30 <__lshift>
  809d7c:	a80b883a 	mov	r5,r21
  809d80:	1009883a 	mov	r4,r2
  809d84:	d8800915 	stw	r2,36(sp)
  809d88:	080c0780 	call	80c078 <__mcmp>
  809d8c:	da001717 	ldw	r8,92(sp)
  809d90:	0081800e 	bge	zero,r2,80a394 <_dtoa_r+0x11d4>
  809d94:	b93fffc3 	ldbu	r4,-1(r23)
  809d98:	b8bfffc4 	addi	r2,r23,-1
  809d9c:	1007883a 	mov	r3,r2
  809da0:	01800e44 	movi	r6,57
  809da4:	d9c00717 	ldw	r7,28(sp)
  809da8:	00000506 	br	809dc0 <_dtoa_r+0xc00>
  809dac:	18ffffc4 	addi	r3,r3,-1
  809db0:	11c12326 	beq	r2,r7,80a240 <_dtoa_r+0x1080>
  809db4:	19000003 	ldbu	r4,0(r3)
  809db8:	102f883a 	mov	r23,r2
  809dbc:	10bfffc4 	addi	r2,r2,-1
  809dc0:	21403fcc 	andi	r5,r4,255
  809dc4:	2940201c 	xori	r5,r5,128
  809dc8:	297fe004 	addi	r5,r5,-128
  809dcc:	29bff726 	beq	r5,r6,809dac <__alt_mem_onchip_ram+0xff805dac>
  809dd0:	21000044 	addi	r4,r4,1
  809dd4:	11000005 	stb	r4,0(r2)
  809dd8:	a80b883a 	mov	r5,r21
  809ddc:	e009883a 	mov	r4,fp
  809de0:	080b79c0 	call	80b79c <_Bfree>
  809de4:	883ea026 	beq	r17,zero,809868 <__alt_mem_onchip_ram+0xff805868>
  809de8:	90000426 	beq	r18,zero,809dfc <_dtoa_r+0xc3c>
  809dec:	94400326 	beq	r18,r17,809dfc <_dtoa_r+0xc3c>
  809df0:	900b883a 	mov	r5,r18
  809df4:	e009883a 	mov	r4,fp
  809df8:	080b79c0 	call	80b79c <_Bfree>
  809dfc:	880b883a 	mov	r5,r17
  809e00:	e009883a 	mov	r4,fp
  809e04:	080b79c0 	call	80b79c <_Bfree>
  809e08:	003e9706 	br	809868 <__alt_mem_onchip_ram+0xff805868>
  809e0c:	01800044 	movi	r6,1
  809e10:	d9800e15 	stw	r6,56(sp)
  809e14:	003d9606 	br	809470 <__alt_mem_onchip_ram+0xff805470>
  809e18:	d8800817 	ldw	r2,32(sp)
  809e1c:	d8c00517 	ldw	r3,20(sp)
  809e20:	d8000d15 	stw	zero,52(sp)
  809e24:	10c5c83a 	sub	r2,r2,r3
  809e28:	00c9c83a 	sub	r4,zero,r3
  809e2c:	d8800815 	stw	r2,32(sp)
  809e30:	d9000a15 	stw	r4,40(sp)
  809e34:	003d9706 	br	809494 <__alt_mem_onchip_ram+0xff805494>
  809e38:	05adc83a 	sub	r22,zero,r22
  809e3c:	dd800815 	stw	r22,32(sp)
  809e40:	002d883a 	mov	r22,zero
  809e44:	003d8e06 	br	809480 <__alt_mem_onchip_ram+0xff805480>
  809e48:	d9000517 	ldw	r4,20(sp)
  809e4c:	0811e500 	call	811e50 <__floatsidf>
  809e50:	100d883a 	mov	r6,r2
  809e54:	180f883a 	mov	r7,r3
  809e58:	a009883a 	mov	r4,r20
  809e5c:	880b883a 	mov	r5,r17
  809e60:	0810a140 	call	810a14 <__eqdf2>
  809e64:	103d7126 	beq	r2,zero,80942c <__alt_mem_onchip_ram+0xff80542c>
  809e68:	d9c00517 	ldw	r7,20(sp)
  809e6c:	39ffffc4 	addi	r7,r7,-1
  809e70:	d9c00515 	stw	r7,20(sp)
  809e74:	003d6d06 	br	80942c <__alt_mem_onchip_ram+0xff80542c>
  809e78:	dd400a17 	ldw	r21,40(sp)
  809e7c:	dd000817 	ldw	r20,32(sp)
  809e80:	0023883a 	mov	r17,zero
  809e84:	003f4806 	br	809ba8 <__alt_mem_onchip_ram+0xff805ba8>
  809e88:	10e3c83a 	sub	r17,r2,r3
  809e8c:	9448983a 	sll	r4,r18,r17
  809e90:	003d3206 	br	80935c <__alt_mem_onchip_ram+0xff80535c>
  809e94:	d8000e15 	stw	zero,56(sp)
  809e98:	003d7506 	br	809470 <__alt_mem_onchip_ram+0xff805470>
  809e9c:	b005883a 	mov	r2,r22
  809ea0:	003f4506 	br	809bb8 <__alt_mem_onchip_ram+0xff805bb8>
  809ea4:	dc000915 	stw	r16,36(sp)
  809ea8:	d9800a17 	ldw	r6,40(sp)
  809eac:	d9400917 	ldw	r5,36(sp)
  809eb0:	e009883a 	mov	r4,fp
  809eb4:	080bdf00 	call	80bdf0 <__pow5mult>
  809eb8:	1021883a 	mov	r16,r2
  809ebc:	003f5a06 	br	809c28 <__alt_mem_onchip_ram+0xff805c28>
  809ec0:	01c00044 	movi	r7,1
  809ec4:	d9c00b15 	stw	r7,44(sp)
  809ec8:	d8802217 	ldw	r2,136(sp)
  809ecc:	0081280e 	bge	zero,r2,80a370 <_dtoa_r+0x11b0>
  809ed0:	100d883a 	mov	r6,r2
  809ed4:	1021883a 	mov	r16,r2
  809ed8:	d8800c15 	stw	r2,48(sp)
  809edc:	d8800615 	stw	r2,24(sp)
  809ee0:	003d8806 	br	809504 <__alt_mem_onchip_ram+0xff805504>
  809ee4:	d8800617 	ldw	r2,24(sp)
  809ee8:	00be9b16 	blt	zero,r2,809958 <__alt_mem_onchip_ram+0xff805958>
  809eec:	10010f1e 	bne	r2,zero,80a32c <_dtoa_r+0x116c>
  809ef0:	880b883a 	mov	r5,r17
  809ef4:	000d883a 	mov	r6,zero
  809ef8:	01d00534 	movhi	r7,16404
  809efc:	8009883a 	mov	r4,r16
  809f00:	0810c6c0 	call	810c6c <__muldf3>
  809f04:	900d883a 	mov	r6,r18
  809f08:	980f883a 	mov	r7,r19
  809f0c:	1009883a 	mov	r4,r2
  809f10:	180b883a 	mov	r5,r3
  809f14:	0810a9c0 	call	810a9c <__gedf2>
  809f18:	002b883a 	mov	r21,zero
  809f1c:	0023883a 	mov	r17,zero
  809f20:	1000bf16 	blt	r2,zero,80a220 <_dtoa_r+0x1060>
  809f24:	d9802217 	ldw	r6,136(sp)
  809f28:	ddc00717 	ldw	r23,28(sp)
  809f2c:	018c303a 	nor	r6,zero,r6
  809f30:	d9800515 	stw	r6,20(sp)
  809f34:	a80b883a 	mov	r5,r21
  809f38:	e009883a 	mov	r4,fp
  809f3c:	080b79c0 	call	80b79c <_Bfree>
  809f40:	883e4926 	beq	r17,zero,809868 <__alt_mem_onchip_ram+0xff805868>
  809f44:	003fad06 	br	809dfc <__alt_mem_onchip_ram+0xff805dfc>
  809f48:	d9c01117 	ldw	r7,68(sp)
  809f4c:	3801bc26 	beq	r7,zero,80a640 <_dtoa_r+0x1480>
  809f50:	10810cc4 	addi	r2,r2,1075
  809f54:	dd400a17 	ldw	r21,40(sp)
  809f58:	dd000817 	ldw	r20,32(sp)
  809f5c:	003f0a06 	br	809b88 <__alt_mem_onchip_ram+0xff805b88>
  809f60:	00800704 	movi	r2,28
  809f64:	d9000817 	ldw	r4,32(sp)
  809f68:	a0a9883a 	add	r20,r20,r2
  809f6c:	b0ad883a 	add	r22,r22,r2
  809f70:	2089883a 	add	r4,r4,r2
  809f74:	d9000815 	stw	r4,32(sp)
  809f78:	003f5106 	br	809cc0 <__alt_mem_onchip_ram+0xff805cc0>
  809f7c:	d8c00317 	ldw	r3,12(sp)
  809f80:	b8c1fc0e 	bge	r23,r3,80a774 <_dtoa_r+0x15b4>
  809f84:	0027883a 	mov	r19,zero
  809f88:	b805883a 	mov	r2,r23
  809f8c:	003f3e06 	br	809c88 <__alt_mem_onchip_ram+0xff805c88>
  809f90:	880b883a 	mov	r5,r17
  809f94:	e009883a 	mov	r4,fp
  809f98:	000f883a 	mov	r7,zero
  809f9c:	01800284 	movi	r6,10
  809fa0:	080b7c40 	call	80b7c4 <__multadd>
  809fa4:	d9000c17 	ldw	r4,48(sp)
  809fa8:	1023883a 	mov	r17,r2
  809fac:	0102040e 	bge	zero,r4,80a7c0 <_dtoa_r+0x1600>
  809fb0:	d9000615 	stw	r4,24(sp)
  809fb4:	0500050e 	bge	zero,r20,809fcc <_dtoa_r+0xe0c>
  809fb8:	880b883a 	mov	r5,r17
  809fbc:	a00d883a 	mov	r6,r20
  809fc0:	e009883a 	mov	r4,fp
  809fc4:	080bf300 	call	80bf30 <__lshift>
  809fc8:	1023883a 	mov	r17,r2
  809fcc:	9801241e 	bne	r19,zero,80a460 <_dtoa_r+0x12a0>
  809fd0:	8829883a 	mov	r20,r17
  809fd4:	d9000617 	ldw	r4,24(sp)
  809fd8:	dcc00717 	ldw	r19,28(sp)
  809fdc:	9480004c 	andi	r18,r18,1
  809fe0:	20bfffc4 	addi	r2,r4,-1
  809fe4:	9885883a 	add	r2,r19,r2
  809fe8:	d8800415 	stw	r2,16(sp)
  809fec:	dc800615 	stw	r18,24(sp)
  809ff0:	a80b883a 	mov	r5,r21
  809ff4:	8009883a 	mov	r4,r16
  809ff8:	0808f980 	call	808f98 <quorem>
  809ffc:	880b883a 	mov	r5,r17
  80a000:	8009883a 	mov	r4,r16
  80a004:	102f883a 	mov	r23,r2
  80a008:	080c0780 	call	80c078 <__mcmp>
  80a00c:	a80b883a 	mov	r5,r21
  80a010:	a00d883a 	mov	r6,r20
  80a014:	e009883a 	mov	r4,fp
  80a018:	102d883a 	mov	r22,r2
  80a01c:	080c0d80 	call	80c0d8 <__mdiff>
  80a020:	1007883a 	mov	r3,r2
  80a024:	10800317 	ldw	r2,12(r2)
  80a028:	bc800c04 	addi	r18,r23,48
  80a02c:	180b883a 	mov	r5,r3
  80a030:	10004e1e 	bne	r2,zero,80a16c <_dtoa_r+0xfac>
  80a034:	8009883a 	mov	r4,r16
  80a038:	d8c01615 	stw	r3,88(sp)
  80a03c:	080c0780 	call	80c078 <__mcmp>
  80a040:	d8c01617 	ldw	r3,88(sp)
  80a044:	e009883a 	mov	r4,fp
  80a048:	d8801615 	stw	r2,88(sp)
  80a04c:	180b883a 	mov	r5,r3
  80a050:	080b79c0 	call	80b79c <_Bfree>
  80a054:	d8801617 	ldw	r2,88(sp)
  80a058:	1000041e 	bne	r2,zero,80a06c <_dtoa_r+0xeac>
  80a05c:	d9800317 	ldw	r6,12(sp)
  80a060:	3000021e 	bne	r6,zero,80a06c <_dtoa_r+0xeac>
  80a064:	d8c00617 	ldw	r3,24(sp)
  80a068:	18003726 	beq	r3,zero,80a148 <_dtoa_r+0xf88>
  80a06c:	b0002016 	blt	r22,zero,80a0f0 <_dtoa_r+0xf30>
  80a070:	b000041e 	bne	r22,zero,80a084 <_dtoa_r+0xec4>
  80a074:	d9000317 	ldw	r4,12(sp)
  80a078:	2000021e 	bne	r4,zero,80a084 <_dtoa_r+0xec4>
  80a07c:	d8c00617 	ldw	r3,24(sp)
  80a080:	18001b26 	beq	r3,zero,80a0f0 <_dtoa_r+0xf30>
  80a084:	00810716 	blt	zero,r2,80a4a4 <_dtoa_r+0x12e4>
  80a088:	d8c00417 	ldw	r3,16(sp)
  80a08c:	9d800044 	addi	r22,r19,1
  80a090:	9c800005 	stb	r18,0(r19)
  80a094:	b02f883a 	mov	r23,r22
  80a098:	98c10626 	beq	r19,r3,80a4b4 <_dtoa_r+0x12f4>
  80a09c:	800b883a 	mov	r5,r16
  80a0a0:	000f883a 	mov	r7,zero
  80a0a4:	01800284 	movi	r6,10
  80a0a8:	e009883a 	mov	r4,fp
  80a0ac:	080b7c40 	call	80b7c4 <__multadd>
  80a0b0:	1021883a 	mov	r16,r2
  80a0b4:	000f883a 	mov	r7,zero
  80a0b8:	01800284 	movi	r6,10
  80a0bc:	880b883a 	mov	r5,r17
  80a0c0:	e009883a 	mov	r4,fp
  80a0c4:	8d002526 	beq	r17,r20,80a15c <_dtoa_r+0xf9c>
  80a0c8:	080b7c40 	call	80b7c4 <__multadd>
  80a0cc:	a00b883a 	mov	r5,r20
  80a0d0:	000f883a 	mov	r7,zero
  80a0d4:	01800284 	movi	r6,10
  80a0d8:	e009883a 	mov	r4,fp
  80a0dc:	1023883a 	mov	r17,r2
  80a0e0:	080b7c40 	call	80b7c4 <__multadd>
  80a0e4:	1029883a 	mov	r20,r2
  80a0e8:	b027883a 	mov	r19,r22
  80a0ec:	003fc006 	br	809ff0 <__alt_mem_onchip_ram+0xff805ff0>
  80a0f0:	9011883a 	mov	r8,r18
  80a0f4:	00800e0e 	bge	zero,r2,80a130 <_dtoa_r+0xf70>
  80a0f8:	800b883a 	mov	r5,r16
  80a0fc:	01800044 	movi	r6,1
  80a100:	e009883a 	mov	r4,fp
  80a104:	da001715 	stw	r8,92(sp)
  80a108:	080bf300 	call	80bf30 <__lshift>
  80a10c:	a80b883a 	mov	r5,r21
  80a110:	1009883a 	mov	r4,r2
  80a114:	1021883a 	mov	r16,r2
  80a118:	080c0780 	call	80c078 <__mcmp>
  80a11c:	da001717 	ldw	r8,92(sp)
  80a120:	0081960e 	bge	zero,r2,80a77c <_dtoa_r+0x15bc>
  80a124:	00800e44 	movi	r2,57
  80a128:	40817026 	beq	r8,r2,80a6ec <_dtoa_r+0x152c>
  80a12c:	ba000c44 	addi	r8,r23,49
  80a130:	8825883a 	mov	r18,r17
  80a134:	9dc00044 	addi	r23,r19,1
  80a138:	9a000005 	stb	r8,0(r19)
  80a13c:	a023883a 	mov	r17,r20
  80a140:	dc000915 	stw	r16,36(sp)
  80a144:	003f2406 	br	809dd8 <__alt_mem_onchip_ram+0xff805dd8>
  80a148:	00800e44 	movi	r2,57
  80a14c:	9011883a 	mov	r8,r18
  80a150:	90816626 	beq	r18,r2,80a6ec <_dtoa_r+0x152c>
  80a154:	05bff516 	blt	zero,r22,80a12c <__alt_mem_onchip_ram+0xff80612c>
  80a158:	003ff506 	br	80a130 <__alt_mem_onchip_ram+0xff806130>
  80a15c:	080b7c40 	call	80b7c4 <__multadd>
  80a160:	1023883a 	mov	r17,r2
  80a164:	1029883a 	mov	r20,r2
  80a168:	003fdf06 	br	80a0e8 <__alt_mem_onchip_ram+0xff8060e8>
  80a16c:	e009883a 	mov	r4,fp
  80a170:	080b79c0 	call	80b79c <_Bfree>
  80a174:	00800044 	movi	r2,1
  80a178:	003fbc06 	br	80a06c <__alt_mem_onchip_ram+0xff80606c>
  80a17c:	a80b883a 	mov	r5,r21
  80a180:	8009883a 	mov	r4,r16
  80a184:	080c0780 	call	80c078 <__mcmp>
  80a188:	103edb0e 	bge	r2,zero,809cf8 <__alt_mem_onchip_ram+0xff805cf8>
  80a18c:	800b883a 	mov	r5,r16
  80a190:	000f883a 	mov	r7,zero
  80a194:	01800284 	movi	r6,10
  80a198:	e009883a 	mov	r4,fp
  80a19c:	080b7c40 	call	80b7c4 <__multadd>
  80a1a0:	1021883a 	mov	r16,r2
  80a1a4:	d8800517 	ldw	r2,20(sp)
  80a1a8:	d8c00b17 	ldw	r3,44(sp)
  80a1ac:	10bfffc4 	addi	r2,r2,-1
  80a1b0:	d8800515 	stw	r2,20(sp)
  80a1b4:	183f761e 	bne	r3,zero,809f90 <__alt_mem_onchip_ram+0xff805f90>
  80a1b8:	d9000c17 	ldw	r4,48(sp)
  80a1bc:	0101730e 	bge	zero,r4,80a78c <_dtoa_r+0x15cc>
  80a1c0:	d9000615 	stw	r4,24(sp)
  80a1c4:	003ed006 	br	809d08 <__alt_mem_onchip_ram+0xff805d08>
  80a1c8:	00800084 	movi	r2,2
  80a1cc:	3081861e 	bne	r6,r2,80a7e8 <_dtoa_r+0x1628>
  80a1d0:	d8000b15 	stw	zero,44(sp)
  80a1d4:	003f3c06 	br	809ec8 <__alt_mem_onchip_ram+0xff805ec8>
  80a1d8:	dc000917 	ldw	r16,36(sp)
  80a1dc:	003e9206 	br	809c28 <__alt_mem_onchip_ram+0xff805c28>
  80a1e0:	d9c00317 	ldw	r7,12(sp)
  80a1e4:	00800084 	movi	r2,2
  80a1e8:	11fec50e 	bge	r2,r7,809d00 <__alt_mem_onchip_ram+0xff805d00>
  80a1ec:	d9000617 	ldw	r4,24(sp)
  80a1f0:	20013c1e 	bne	r4,zero,80a6e4 <_dtoa_r+0x1524>
  80a1f4:	a80b883a 	mov	r5,r21
  80a1f8:	000f883a 	mov	r7,zero
  80a1fc:	01800144 	movi	r6,5
  80a200:	e009883a 	mov	r4,fp
  80a204:	080b7c40 	call	80b7c4 <__multadd>
  80a208:	100b883a 	mov	r5,r2
  80a20c:	8009883a 	mov	r4,r16
  80a210:	102b883a 	mov	r21,r2
  80a214:	080c0780 	call	80c078 <__mcmp>
  80a218:	dc000915 	stw	r16,36(sp)
  80a21c:	00bf410e 	bge	zero,r2,809f24 <__alt_mem_onchip_ram+0xff805f24>
  80a220:	d9c00717 	ldw	r7,28(sp)
  80a224:	00800c44 	movi	r2,49
  80a228:	38800005 	stb	r2,0(r7)
  80a22c:	d8800517 	ldw	r2,20(sp)
  80a230:	3dc00044 	addi	r23,r7,1
  80a234:	10800044 	addi	r2,r2,1
  80a238:	d8800515 	stw	r2,20(sp)
  80a23c:	003f3d06 	br	809f34 <__alt_mem_onchip_ram+0xff805f34>
  80a240:	d9800517 	ldw	r6,20(sp)
  80a244:	d9c00717 	ldw	r7,28(sp)
  80a248:	00800c44 	movi	r2,49
  80a24c:	31800044 	addi	r6,r6,1
  80a250:	d9800515 	stw	r6,20(sp)
  80a254:	38800005 	stb	r2,0(r7)
  80a258:	003edf06 	br	809dd8 <__alt_mem_onchip_ram+0xff805dd8>
  80a25c:	d8000b15 	stw	zero,44(sp)
  80a260:	003c9f06 	br	8094e0 <__alt_mem_onchip_ram+0xff8054e0>
  80a264:	903e7e1e 	bne	r18,zero,809c60 <__alt_mem_onchip_ram+0xff805c60>
  80a268:	00800434 	movhi	r2,16
  80a26c:	10bfffc4 	addi	r2,r2,-1
  80a270:	9884703a 	and	r2,r19,r2
  80a274:	1000ea1e 	bne	r2,zero,80a620 <_dtoa_r+0x1460>
  80a278:	9cdffc2c 	andhi	r19,r19,32752
  80a27c:	9800e826 	beq	r19,zero,80a620 <_dtoa_r+0x1460>
  80a280:	d9c00817 	ldw	r7,32(sp)
  80a284:	b5800044 	addi	r22,r22,1
  80a288:	04c00044 	movi	r19,1
  80a28c:	39c00044 	addi	r7,r7,1
  80a290:	d9c00815 	stw	r7,32(sp)
  80a294:	d8800d17 	ldw	r2,52(sp)
  80a298:	103e721e 	bne	r2,zero,809c64 <__alt_mem_onchip_ram+0xff805c64>
  80a29c:	00800044 	movi	r2,1
  80a2a0:	003e7906 	br	809c88 <__alt_mem_onchip_ram+0xff805c88>
  80a2a4:	8009883a 	mov	r4,r16
  80a2a8:	0811e500 	call	811e50 <__floatsidf>
  80a2ac:	d9800f17 	ldw	r6,60(sp)
  80a2b0:	d9c01017 	ldw	r7,64(sp)
  80a2b4:	1009883a 	mov	r4,r2
  80a2b8:	180b883a 	mov	r5,r3
  80a2bc:	0810c6c0 	call	810c6c <__muldf3>
  80a2c0:	000d883a 	mov	r6,zero
  80a2c4:	01d00734 	movhi	r7,16412
  80a2c8:	1009883a 	mov	r4,r2
  80a2cc:	180b883a 	mov	r5,r3
  80a2d0:	080f7980 	call	80f798 <__adddf3>
  80a2d4:	047f3034 	movhi	r17,64704
  80a2d8:	1021883a 	mov	r16,r2
  80a2dc:	1c63883a 	add	r17,r3,r17
  80a2e0:	d9000f17 	ldw	r4,60(sp)
  80a2e4:	d9401017 	ldw	r5,64(sp)
  80a2e8:	000d883a 	mov	r6,zero
  80a2ec:	01d00534 	movhi	r7,16404
  80a2f0:	08114d40 	call	8114d4 <__subdf3>
  80a2f4:	800d883a 	mov	r6,r16
  80a2f8:	880f883a 	mov	r7,r17
  80a2fc:	1009883a 	mov	r4,r2
  80a300:	180b883a 	mov	r5,r3
  80a304:	102b883a 	mov	r21,r2
  80a308:	1829883a 	mov	r20,r3
  80a30c:	0810a9c0 	call	810a9c <__gedf2>
  80a310:	00806c16 	blt	zero,r2,80a4c4 <_dtoa_r+0x1304>
  80a314:	89e0003c 	xorhi	r7,r17,32768
  80a318:	800d883a 	mov	r6,r16
  80a31c:	a809883a 	mov	r4,r21
  80a320:	a00b883a 	mov	r5,r20
  80a324:	0810b780 	call	810b78 <__ledf2>
  80a328:	103d7e0e 	bge	r2,zero,809924 <__alt_mem_onchip_ram+0xff805924>
  80a32c:	002b883a 	mov	r21,zero
  80a330:	0023883a 	mov	r17,zero
  80a334:	003efb06 	br	809f24 <__alt_mem_onchip_ram+0xff805f24>
  80a338:	d8800717 	ldw	r2,28(sp)
  80a33c:	003bd006 	br	809280 <__alt_mem_onchip_ram+0xff805280>
  80a340:	d9000a17 	ldw	r4,40(sp)
  80a344:	d9800d17 	ldw	r6,52(sp)
  80a348:	dd400a15 	stw	r21,40(sp)
  80a34c:	a905c83a 	sub	r2,r21,r4
  80a350:	308d883a 	add	r6,r6,r2
  80a354:	d9800d15 	stw	r6,52(sp)
  80a358:	002b883a 	mov	r21,zero
  80a35c:	003e0606 	br	809b78 <__alt_mem_onchip_ram+0xff805b78>
  80a360:	9023883a 	mov	r17,r18
  80a364:	9829883a 	mov	r20,r19
  80a368:	04000084 	movi	r16,2
  80a36c:	003c9206 	br	8095b8 <__alt_mem_onchip_ram+0xff8055b8>
  80a370:	04000044 	movi	r16,1
  80a374:	dc000c15 	stw	r16,48(sp)
  80a378:	dc000615 	stw	r16,24(sp)
  80a37c:	dc002215 	stw	r16,136(sp)
  80a380:	e0001115 	stw	zero,68(fp)
  80a384:	000b883a 	mov	r5,zero
  80a388:	003c6906 	br	809530 <__alt_mem_onchip_ram+0xff805530>
  80a38c:	3021883a 	mov	r16,r6
  80a390:	003ffb06 	br	80a380 <__alt_mem_onchip_ram+0xff806380>
  80a394:	1000021e 	bne	r2,zero,80a3a0 <_dtoa_r+0x11e0>
  80a398:	4200004c 	andi	r8,r8,1
  80a39c:	403e7d1e 	bne	r8,zero,809d94 <__alt_mem_onchip_ram+0xff805d94>
  80a3a0:	01000c04 	movi	r4,48
  80a3a4:	00000106 	br	80a3ac <_dtoa_r+0x11ec>
  80a3a8:	102f883a 	mov	r23,r2
  80a3ac:	b8bfffc4 	addi	r2,r23,-1
  80a3b0:	10c00007 	ldb	r3,0(r2)
  80a3b4:	193ffc26 	beq	r3,r4,80a3a8 <__alt_mem_onchip_ram+0xff8063a8>
  80a3b8:	003e8706 	br	809dd8 <__alt_mem_onchip_ram+0xff805dd8>
  80a3bc:	d8800517 	ldw	r2,20(sp)
  80a3c0:	00a3c83a 	sub	r17,zero,r2
  80a3c4:	8800a426 	beq	r17,zero,80a658 <_dtoa_r+0x1498>
  80a3c8:	888003cc 	andi	r2,r17,15
  80a3cc:	100490fa 	slli	r2,r2,3
  80a3d0:	00c02074 	movhi	r3,129
  80a3d4:	18d3a204 	addi	r3,r3,20104
  80a3d8:	1885883a 	add	r2,r3,r2
  80a3dc:	11800017 	ldw	r6,0(r2)
  80a3e0:	11c00117 	ldw	r7,4(r2)
  80a3e4:	9009883a 	mov	r4,r18
  80a3e8:	980b883a 	mov	r5,r19
  80a3ec:	8823d13a 	srai	r17,r17,4
  80a3f0:	0810c6c0 	call	810c6c <__muldf3>
  80a3f4:	d8800f15 	stw	r2,60(sp)
  80a3f8:	d8c01015 	stw	r3,64(sp)
  80a3fc:	8800e826 	beq	r17,zero,80a7a0 <_dtoa_r+0x15e0>
  80a400:	05002074 	movhi	r20,129
  80a404:	a5139804 	addi	r20,r20,20064
  80a408:	04000084 	movi	r16,2
  80a40c:	8980004c 	andi	r6,r17,1
  80a410:	1009883a 	mov	r4,r2
  80a414:	8823d07a 	srai	r17,r17,1
  80a418:	180b883a 	mov	r5,r3
  80a41c:	30000426 	beq	r6,zero,80a430 <_dtoa_r+0x1270>
  80a420:	a1800017 	ldw	r6,0(r20)
  80a424:	a1c00117 	ldw	r7,4(r20)
  80a428:	84000044 	addi	r16,r16,1
  80a42c:	0810c6c0 	call	810c6c <__muldf3>
  80a430:	a5000204 	addi	r20,r20,8
  80a434:	883ff51e 	bne	r17,zero,80a40c <__alt_mem_onchip_ram+0xff80640c>
  80a438:	d8800f15 	stw	r2,60(sp)
  80a43c:	d8c01015 	stw	r3,64(sp)
  80a440:	003c7606 	br	80961c <__alt_mem_onchip_ram+0xff80561c>
  80a444:	00c00c04 	movi	r3,48
  80a448:	10c00005 	stb	r3,0(r2)
  80a44c:	d8c00517 	ldw	r3,20(sp)
  80a450:	bd3fffc3 	ldbu	r20,-1(r23)
  80a454:	18c00044 	addi	r3,r3,1
  80a458:	d8c00515 	stw	r3,20(sp)
  80a45c:	003db906 	br	809b44 <__alt_mem_onchip_ram+0xff805b44>
  80a460:	89400117 	ldw	r5,4(r17)
  80a464:	e009883a 	mov	r4,fp
  80a468:	080b6f40 	call	80b6f4 <_Balloc>
  80a46c:	89800417 	ldw	r6,16(r17)
  80a470:	89400304 	addi	r5,r17,12
  80a474:	11000304 	addi	r4,r2,12
  80a478:	31800084 	addi	r6,r6,2
  80a47c:	318d883a 	add	r6,r6,r6
  80a480:	318d883a 	add	r6,r6,r6
  80a484:	1027883a 	mov	r19,r2
  80a488:	0803e400 	call	803e40 <memcpy>
  80a48c:	01800044 	movi	r6,1
  80a490:	980b883a 	mov	r5,r19
  80a494:	e009883a 	mov	r4,fp
  80a498:	080bf300 	call	80bf30 <__lshift>
  80a49c:	1029883a 	mov	r20,r2
  80a4a0:	003ecc06 	br	809fd4 <__alt_mem_onchip_ram+0xff805fd4>
  80a4a4:	00800e44 	movi	r2,57
  80a4a8:	90809026 	beq	r18,r2,80a6ec <_dtoa_r+0x152c>
  80a4ac:	92000044 	addi	r8,r18,1
  80a4b0:	003f1f06 	br	80a130 <__alt_mem_onchip_ram+0xff806130>
  80a4b4:	9011883a 	mov	r8,r18
  80a4b8:	8825883a 	mov	r18,r17
  80a4bc:	a023883a 	mov	r17,r20
  80a4c0:	003e2906 	br	809d68 <__alt_mem_onchip_ram+0xff805d68>
  80a4c4:	002b883a 	mov	r21,zero
  80a4c8:	0023883a 	mov	r17,zero
  80a4cc:	003f5406 	br	80a220 <__alt_mem_onchip_ram+0xff806220>
  80a4d0:	61bfffc4 	addi	r6,r12,-1
  80a4d4:	300490fa 	slli	r2,r6,3
  80a4d8:	00c02074 	movhi	r3,129
  80a4dc:	18d3a204 	addi	r3,r3,20104
  80a4e0:	1885883a 	add	r2,r3,r2
  80a4e4:	11000017 	ldw	r4,0(r2)
  80a4e8:	11400117 	ldw	r5,4(r2)
  80a4ec:	d8800717 	ldw	r2,28(sp)
  80a4f0:	880f883a 	mov	r7,r17
  80a4f4:	d9801215 	stw	r6,72(sp)
  80a4f8:	800d883a 	mov	r6,r16
  80a4fc:	db001615 	stw	r12,88(sp)
  80a500:	15c00044 	addi	r23,r2,1
  80a504:	0810c6c0 	call	810c6c <__muldf3>
  80a508:	d9401017 	ldw	r5,64(sp)
  80a50c:	d9000f17 	ldw	r4,60(sp)
  80a510:	d8c01515 	stw	r3,84(sp)
  80a514:	d8801415 	stw	r2,80(sp)
  80a518:	0811dd00 	call	811dd0 <__fixdfsi>
  80a51c:	1009883a 	mov	r4,r2
  80a520:	1021883a 	mov	r16,r2
  80a524:	0811e500 	call	811e50 <__floatsidf>
  80a528:	d9000f17 	ldw	r4,60(sp)
  80a52c:	d9401017 	ldw	r5,64(sp)
  80a530:	100d883a 	mov	r6,r2
  80a534:	180f883a 	mov	r7,r3
  80a538:	08114d40 	call	8114d4 <__subdf3>
  80a53c:	1829883a 	mov	r20,r3
  80a540:	d8c00717 	ldw	r3,28(sp)
  80a544:	84000c04 	addi	r16,r16,48
  80a548:	1023883a 	mov	r17,r2
  80a54c:	1c000005 	stb	r16,0(r3)
  80a550:	db001617 	ldw	r12,88(sp)
  80a554:	00800044 	movi	r2,1
  80a558:	60802226 	beq	r12,r2,80a5e4 <_dtoa_r+0x1424>
  80a55c:	d9c00717 	ldw	r7,28(sp)
  80a560:	8805883a 	mov	r2,r17
  80a564:	b82b883a 	mov	r21,r23
  80a568:	3b19883a 	add	r12,r7,r12
  80a56c:	6023883a 	mov	r17,r12
  80a570:	a007883a 	mov	r3,r20
  80a574:	dc800f15 	stw	r18,60(sp)
  80a578:	000d883a 	mov	r6,zero
  80a57c:	01d00934 	movhi	r7,16420
  80a580:	1009883a 	mov	r4,r2
  80a584:	180b883a 	mov	r5,r3
  80a588:	0810c6c0 	call	810c6c <__muldf3>
  80a58c:	180b883a 	mov	r5,r3
  80a590:	1009883a 	mov	r4,r2
  80a594:	1829883a 	mov	r20,r3
  80a598:	1025883a 	mov	r18,r2
  80a59c:	0811dd00 	call	811dd0 <__fixdfsi>
  80a5a0:	1009883a 	mov	r4,r2
  80a5a4:	1021883a 	mov	r16,r2
  80a5a8:	0811e500 	call	811e50 <__floatsidf>
  80a5ac:	100d883a 	mov	r6,r2
  80a5b0:	180f883a 	mov	r7,r3
  80a5b4:	9009883a 	mov	r4,r18
  80a5b8:	a00b883a 	mov	r5,r20
  80a5bc:	84000c04 	addi	r16,r16,48
  80a5c0:	08114d40 	call	8114d4 <__subdf3>
  80a5c4:	ad400044 	addi	r21,r21,1
  80a5c8:	ac3fffc5 	stb	r16,-1(r21)
  80a5cc:	ac7fea1e 	bne	r21,r17,80a578 <__alt_mem_onchip_ram+0xff806578>
  80a5d0:	1023883a 	mov	r17,r2
  80a5d4:	d8801217 	ldw	r2,72(sp)
  80a5d8:	dc800f17 	ldw	r18,60(sp)
  80a5dc:	1829883a 	mov	r20,r3
  80a5e0:	b8af883a 	add	r23,r23,r2
  80a5e4:	d9001417 	ldw	r4,80(sp)
  80a5e8:	d9401517 	ldw	r5,84(sp)
  80a5ec:	000d883a 	mov	r6,zero
  80a5f0:	01cff834 	movhi	r7,16352
  80a5f4:	080f7980 	call	80f798 <__adddf3>
  80a5f8:	880d883a 	mov	r6,r17
  80a5fc:	a00f883a 	mov	r7,r20
  80a600:	1009883a 	mov	r4,r2
  80a604:	180b883a 	mov	r5,r3
  80a608:	0810b780 	call	810b78 <__ledf2>
  80a60c:	10003e0e 	bge	r2,zero,80a708 <_dtoa_r+0x1548>
  80a610:	d9001317 	ldw	r4,76(sp)
  80a614:	bd3fffc3 	ldbu	r20,-1(r23)
  80a618:	d9000515 	stw	r4,20(sp)
  80a61c:	003d3b06 	br	809b0c <__alt_mem_onchip_ram+0xff805b0c>
  80a620:	0027883a 	mov	r19,zero
  80a624:	003f1b06 	br	80a294 <__alt_mem_onchip_ram+0xff806294>
  80a628:	d8800817 	ldw	r2,32(sp)
  80a62c:	11e9c83a 	sub	r20,r2,r7
  80a630:	0005883a 	mov	r2,zero
  80a634:	003d5406 	br	809b88 <__alt_mem_onchip_ram+0xff805b88>
  80a638:	00800044 	movi	r2,1
  80a63c:	003dc706 	br	809d5c <__alt_mem_onchip_ram+0xff805d5c>
  80a640:	d8c00217 	ldw	r3,8(sp)
  80a644:	00800d84 	movi	r2,54
  80a648:	dd400a17 	ldw	r21,40(sp)
  80a64c:	10c5c83a 	sub	r2,r2,r3
  80a650:	dd000817 	ldw	r20,32(sp)
  80a654:	003d4c06 	br	809b88 <__alt_mem_onchip_ram+0xff805b88>
  80a658:	dc800f15 	stw	r18,60(sp)
  80a65c:	dcc01015 	stw	r19,64(sp)
  80a660:	04000084 	movi	r16,2
  80a664:	003bed06 	br	80961c <__alt_mem_onchip_ram+0xff80561c>
  80a668:	d9000617 	ldw	r4,24(sp)
  80a66c:	203f0d26 	beq	r4,zero,80a2a4 <__alt_mem_onchip_ram+0xff8062a4>
  80a670:	d9800c17 	ldw	r6,48(sp)
  80a674:	01bcab0e 	bge	zero,r6,809924 <__alt_mem_onchip_ram+0xff805924>
  80a678:	d9401017 	ldw	r5,64(sp)
  80a67c:	d9000f17 	ldw	r4,60(sp)
  80a680:	000d883a 	mov	r6,zero
  80a684:	01d00934 	movhi	r7,16420
  80a688:	0810c6c0 	call	810c6c <__muldf3>
  80a68c:	81000044 	addi	r4,r16,1
  80a690:	d8800f15 	stw	r2,60(sp)
  80a694:	d8c01015 	stw	r3,64(sp)
  80a698:	0811e500 	call	811e50 <__floatsidf>
  80a69c:	d9800f17 	ldw	r6,60(sp)
  80a6a0:	d9c01017 	ldw	r7,64(sp)
  80a6a4:	1009883a 	mov	r4,r2
  80a6a8:	180b883a 	mov	r5,r3
  80a6ac:	0810c6c0 	call	810c6c <__muldf3>
  80a6b0:	01d00734 	movhi	r7,16412
  80a6b4:	000d883a 	mov	r6,zero
  80a6b8:	1009883a 	mov	r4,r2
  80a6bc:	180b883a 	mov	r5,r3
  80a6c0:	080f7980 	call	80f798 <__adddf3>
  80a6c4:	d9c00517 	ldw	r7,20(sp)
  80a6c8:	047f3034 	movhi	r17,64704
  80a6cc:	1021883a 	mov	r16,r2
  80a6d0:	39ffffc4 	addi	r7,r7,-1
  80a6d4:	d9c01315 	stw	r7,76(sp)
  80a6d8:	1c63883a 	add	r17,r3,r17
  80a6dc:	db000c17 	ldw	r12,48(sp)
  80a6e0:	003bea06 	br	80968c <__alt_mem_onchip_ram+0xff80568c>
  80a6e4:	dc000915 	stw	r16,36(sp)
  80a6e8:	003e0e06 	br	809f24 <__alt_mem_onchip_ram+0xff805f24>
  80a6ec:	01000e44 	movi	r4,57
  80a6f0:	8825883a 	mov	r18,r17
  80a6f4:	9dc00044 	addi	r23,r19,1
  80a6f8:	99000005 	stb	r4,0(r19)
  80a6fc:	a023883a 	mov	r17,r20
  80a700:	dc000915 	stw	r16,36(sp)
  80a704:	003da406 	br	809d98 <__alt_mem_onchip_ram+0xff805d98>
  80a708:	d9801417 	ldw	r6,80(sp)
  80a70c:	d9c01517 	ldw	r7,84(sp)
  80a710:	0009883a 	mov	r4,zero
  80a714:	014ff834 	movhi	r5,16352
  80a718:	08114d40 	call	8114d4 <__subdf3>
  80a71c:	880d883a 	mov	r6,r17
  80a720:	a00f883a 	mov	r7,r20
  80a724:	1009883a 	mov	r4,r2
  80a728:	180b883a 	mov	r5,r3
  80a72c:	0810a9c0 	call	810a9c <__gedf2>
  80a730:	00bc7c0e 	bge	zero,r2,809924 <__alt_mem_onchip_ram+0xff805924>
  80a734:	01000c04 	movi	r4,48
  80a738:	00000106 	br	80a740 <_dtoa_r+0x1580>
  80a73c:	102f883a 	mov	r23,r2
  80a740:	b8bfffc4 	addi	r2,r23,-1
  80a744:	10c00007 	ldb	r3,0(r2)
  80a748:	193ffc26 	beq	r3,r4,80a73c <__alt_mem_onchip_ram+0xff80673c>
  80a74c:	d9801317 	ldw	r6,76(sp)
  80a750:	d9800515 	stw	r6,20(sp)
  80a754:	003c4406 	br	809868 <__alt_mem_onchip_ram+0xff805868>
  80a758:	d9801317 	ldw	r6,76(sp)
  80a75c:	d9800515 	stw	r6,20(sp)
  80a760:	003cea06 	br	809b0c <__alt_mem_onchip_ram+0xff805b0c>
  80a764:	dd800f17 	ldw	r22,60(sp)
  80a768:	dcc01017 	ldw	r19,64(sp)
  80a76c:	dc801217 	ldw	r18,72(sp)
  80a770:	003c6c06 	br	809924 <__alt_mem_onchip_ram+0xff805924>
  80a774:	903e031e 	bne	r18,zero,809f84 <__alt_mem_onchip_ram+0xff805f84>
  80a778:	003ebb06 	br	80a268 <__alt_mem_onchip_ram+0xff806268>
  80a77c:	103e6c1e 	bne	r2,zero,80a130 <__alt_mem_onchip_ram+0xff806130>
  80a780:	4080004c 	andi	r2,r8,1
  80a784:	103e6a26 	beq	r2,zero,80a130 <__alt_mem_onchip_ram+0xff806130>
  80a788:	003e6606 	br	80a124 <__alt_mem_onchip_ram+0xff806124>
  80a78c:	d8c00317 	ldw	r3,12(sp)
  80a790:	00800084 	movi	r2,2
  80a794:	10c02916 	blt	r2,r3,80a83c <_dtoa_r+0x167c>
  80a798:	d9000c17 	ldw	r4,48(sp)
  80a79c:	003e8806 	br	80a1c0 <__alt_mem_onchip_ram+0xff8061c0>
  80a7a0:	04000084 	movi	r16,2
  80a7a4:	003b9d06 	br	80961c <__alt_mem_onchip_ram+0xff80561c>
  80a7a8:	d9001317 	ldw	r4,76(sp)
  80a7ac:	d9000515 	stw	r4,20(sp)
  80a7b0:	003cd606 	br	809b0c <__alt_mem_onchip_ram+0xff805b0c>
  80a7b4:	d8801317 	ldw	r2,76(sp)
  80a7b8:	d8800515 	stw	r2,20(sp)
  80a7bc:	003c2a06 	br	809868 <__alt_mem_onchip_ram+0xff805868>
  80a7c0:	d9800317 	ldw	r6,12(sp)
  80a7c4:	00800084 	movi	r2,2
  80a7c8:	11801516 	blt	r2,r6,80a820 <_dtoa_r+0x1660>
  80a7cc:	d9c00c17 	ldw	r7,48(sp)
  80a7d0:	d9c00615 	stw	r7,24(sp)
  80a7d4:	003df706 	br	809fb4 <__alt_mem_onchip_ram+0xff805fb4>
  80a7d8:	193d3926 	beq	r3,r4,809cc0 <__alt_mem_onchip_ram+0xff805cc0>
  80a7dc:	00c00f04 	movi	r3,60
  80a7e0:	1885c83a 	sub	r2,r3,r2
  80a7e4:	003ddf06 	br	809f64 <__alt_mem_onchip_ram+0xff805f64>
  80a7e8:	e009883a 	mov	r4,fp
  80a7ec:	e0001115 	stw	zero,68(fp)
  80a7f0:	000b883a 	mov	r5,zero
  80a7f4:	080b6f40 	call	80b6f4 <_Balloc>
  80a7f8:	d8800715 	stw	r2,28(sp)
  80a7fc:	d8c00717 	ldw	r3,28(sp)
  80a800:	00bfffc4 	movi	r2,-1
  80a804:	01000044 	movi	r4,1
  80a808:	d8800c15 	stw	r2,48(sp)
  80a80c:	e0c01015 	stw	r3,64(fp)
  80a810:	d9000b15 	stw	r4,44(sp)
  80a814:	d8800615 	stw	r2,24(sp)
  80a818:	d8002215 	stw	zero,136(sp)
  80a81c:	003c4106 	br	809924 <__alt_mem_onchip_ram+0xff805924>
  80a820:	d8c00c17 	ldw	r3,48(sp)
  80a824:	d8c00615 	stw	r3,24(sp)
  80a828:	003e7006 	br	80a1ec <__alt_mem_onchip_ram+0xff8061ec>
  80a82c:	04400044 	movi	r17,1
  80a830:	003b2006 	br	8094b4 <__alt_mem_onchip_ram+0xff8054b4>
  80a834:	000b883a 	mov	r5,zero
  80a838:	003b3d06 	br	809530 <__alt_mem_onchip_ram+0xff805530>
  80a83c:	d8800c17 	ldw	r2,48(sp)
  80a840:	d8800615 	stw	r2,24(sp)
  80a844:	003e6906 	br	80a1ec <__alt_mem_onchip_ram+0xff8061ec>

0080a848 <_fclose_r>:
  80a848:	28003926 	beq	r5,zero,80a930 <_fclose_r+0xe8>
  80a84c:	defffc04 	addi	sp,sp,-16
  80a850:	dc400115 	stw	r17,4(sp)
  80a854:	dc000015 	stw	r16,0(sp)
  80a858:	dfc00315 	stw	ra,12(sp)
  80a85c:	dc800215 	stw	r18,8(sp)
  80a860:	2023883a 	mov	r17,r4
  80a864:	2821883a 	mov	r16,r5
  80a868:	20000226 	beq	r4,zero,80a874 <_fclose_r+0x2c>
  80a86c:	20800e17 	ldw	r2,56(r4)
  80a870:	10002726 	beq	r2,zero,80a910 <_fclose_r+0xc8>
  80a874:	8080030f 	ldh	r2,12(r16)
  80a878:	1000071e 	bne	r2,zero,80a898 <_fclose_r+0x50>
  80a87c:	0005883a 	mov	r2,zero
  80a880:	dfc00317 	ldw	ra,12(sp)
  80a884:	dc800217 	ldw	r18,8(sp)
  80a888:	dc400117 	ldw	r17,4(sp)
  80a88c:	dc000017 	ldw	r16,0(sp)
  80a890:	dec00404 	addi	sp,sp,16
  80a894:	f800283a 	ret
  80a898:	800b883a 	mov	r5,r16
  80a89c:	8809883a 	mov	r4,r17
  80a8a0:	08022c40 	call	8022c4 <__sflush_r>
  80a8a4:	1025883a 	mov	r18,r2
  80a8a8:	80800b17 	ldw	r2,44(r16)
  80a8ac:	10000426 	beq	r2,zero,80a8c0 <_fclose_r+0x78>
  80a8b0:	81400717 	ldw	r5,28(r16)
  80a8b4:	8809883a 	mov	r4,r17
  80a8b8:	103ee83a 	callr	r2
  80a8bc:	10001616 	blt	r2,zero,80a918 <_fclose_r+0xd0>
  80a8c0:	8080030b 	ldhu	r2,12(r16)
  80a8c4:	1080200c 	andi	r2,r2,128
  80a8c8:	1000151e 	bne	r2,zero,80a920 <_fclose_r+0xd8>
  80a8cc:	81400c17 	ldw	r5,48(r16)
  80a8d0:	28000526 	beq	r5,zero,80a8e8 <_fclose_r+0xa0>
  80a8d4:	80801004 	addi	r2,r16,64
  80a8d8:	28800226 	beq	r5,r2,80a8e4 <_fclose_r+0x9c>
  80a8dc:	8809883a 	mov	r4,r17
  80a8e0:	0802cb00 	call	802cb0 <_free_r>
  80a8e4:	80000c15 	stw	zero,48(r16)
  80a8e8:	81401117 	ldw	r5,68(r16)
  80a8ec:	28000326 	beq	r5,zero,80a8fc <_fclose_r+0xb4>
  80a8f0:	8809883a 	mov	r4,r17
  80a8f4:	0802cb00 	call	802cb0 <_free_r>
  80a8f8:	80001115 	stw	zero,68(r16)
  80a8fc:	08028dc0 	call	8028dc <__sfp_lock_acquire>
  80a900:	8000030d 	sth	zero,12(r16)
  80a904:	08028e00 	call	8028e0 <__sfp_lock_release>
  80a908:	9005883a 	mov	r2,r18
  80a90c:	003fdc06 	br	80a880 <__alt_mem_onchip_ram+0xff806880>
  80a910:	08028cc0 	call	8028cc <__sinit>
  80a914:	003fd706 	br	80a874 <__alt_mem_onchip_ram+0xff806874>
  80a918:	04bfffc4 	movi	r18,-1
  80a91c:	003fe806 	br	80a8c0 <__alt_mem_onchip_ram+0xff8068c0>
  80a920:	81400417 	ldw	r5,16(r16)
  80a924:	8809883a 	mov	r4,r17
  80a928:	0802cb00 	call	802cb0 <_free_r>
  80a92c:	003fe706 	br	80a8cc <__alt_mem_onchip_ram+0xff8068cc>
  80a930:	0005883a 	mov	r2,zero
  80a934:	f800283a 	ret

0080a938 <fclose>:
  80a938:	00802074 	movhi	r2,129
  80a93c:	109ad304 	addi	r2,r2,27468
  80a940:	200b883a 	mov	r5,r4
  80a944:	11000017 	ldw	r4,0(r2)
  80a948:	080a8481 	jmpi	80a848 <_fclose_r>

0080a94c <_fstat_r>:
  80a94c:	defffd04 	addi	sp,sp,-12
  80a950:	2805883a 	mov	r2,r5
  80a954:	dc000015 	stw	r16,0(sp)
  80a958:	040020b4 	movhi	r16,130
  80a95c:	dc400115 	stw	r17,4(sp)
  80a960:	8421a504 	addi	r16,r16,-31084
  80a964:	2023883a 	mov	r17,r4
  80a968:	300b883a 	mov	r5,r6
  80a96c:	1009883a 	mov	r4,r2
  80a970:	dfc00215 	stw	ra,8(sp)
  80a974:	80000015 	stw	zero,0(r16)
  80a978:	08123840 	call	812384 <fstat>
  80a97c:	00ffffc4 	movi	r3,-1
  80a980:	10c00526 	beq	r2,r3,80a998 <_fstat_r+0x4c>
  80a984:	dfc00217 	ldw	ra,8(sp)
  80a988:	dc400117 	ldw	r17,4(sp)
  80a98c:	dc000017 	ldw	r16,0(sp)
  80a990:	dec00304 	addi	sp,sp,12
  80a994:	f800283a 	ret
  80a998:	80c00017 	ldw	r3,0(r16)
  80a99c:	183ff926 	beq	r3,zero,80a984 <__alt_mem_onchip_ram+0xff806984>
  80a9a0:	88c00015 	stw	r3,0(r17)
  80a9a4:	003ff706 	br	80a984 <__alt_mem_onchip_ram+0xff806984>

0080a9a8 <rshift>:
  80a9a8:	2807d17a 	srai	r3,r5,5
  80a9ac:	20800417 	ldw	r2,16(r4)
  80a9b0:	22000504 	addi	r8,r4,20
  80a9b4:	1880250e 	bge	r3,r2,80aa4c <rshift+0xa4>
  80a9b8:	1085883a 	add	r2,r2,r2
  80a9bc:	18c7883a 	add	r3,r3,r3
  80a9c0:	1085883a 	add	r2,r2,r2
  80a9c4:	18c7883a 	add	r3,r3,r3
  80a9c8:	294007cc 	andi	r5,r5,31
  80a9cc:	4085883a 	add	r2,r8,r2
  80a9d0:	40c7883a 	add	r3,r8,r3
  80a9d4:	28002026 	beq	r5,zero,80aa58 <rshift+0xb0>
  80a9d8:	19800017 	ldw	r6,0(r3)
  80a9dc:	02c00804 	movi	r11,32
  80a9e0:	19c00104 	addi	r7,r3,4
  80a9e4:	5957c83a 	sub	r11,r11,r5
  80a9e8:	314cd83a 	srl	r6,r6,r5
  80a9ec:	38802c2e 	bgeu	r7,r2,80aaa0 <rshift+0xf8>
  80a9f0:	4015883a 	mov	r10,r8
  80a9f4:	3a400017 	ldw	r9,0(r7)
  80a9f8:	52800104 	addi	r10,r10,4
  80a9fc:	39c00104 	addi	r7,r7,4
  80aa00:	4ad2983a 	sll	r9,r9,r11
  80aa04:	498cb03a 	or	r6,r9,r6
  80aa08:	51bfff15 	stw	r6,-4(r10)
  80aa0c:	39bfff17 	ldw	r6,-4(r7)
  80aa10:	314cd83a 	srl	r6,r6,r5
  80aa14:	38bff736 	bltu	r7,r2,80a9f4 <__alt_mem_onchip_ram+0xff8069f4>
  80aa18:	10c7c83a 	sub	r3,r2,r3
  80aa1c:	18fffec4 	addi	r3,r3,-5
  80aa20:	1806d0ba 	srli	r3,r3,2
  80aa24:	18c00044 	addi	r3,r3,1
  80aa28:	18c7883a 	add	r3,r3,r3
  80aa2c:	18c7883a 	add	r3,r3,r3
  80aa30:	40c7883a 	add	r3,r8,r3
  80aa34:	19800015 	stw	r6,0(r3)
  80aa38:	30000126 	beq	r6,zero,80aa40 <rshift+0x98>
  80aa3c:	18c00104 	addi	r3,r3,4
  80aa40:	1a05c83a 	sub	r2,r3,r8
  80aa44:	1005d0ba 	srai	r2,r2,2
  80aa48:	00001206 	br	80aa94 <rshift+0xec>
  80aa4c:	20000415 	stw	zero,16(r4)
  80aa50:	20000515 	stw	zero,20(r4)
  80aa54:	f800283a 	ret
  80aa58:	18bffc2e 	bgeu	r3,r2,80aa4c <__alt_mem_onchip_ram+0xff806a4c>
  80aa5c:	180d883a 	mov	r6,r3
  80aa60:	400b883a 	mov	r5,r8
  80aa64:	31c00017 	ldw	r7,0(r6)
  80aa68:	29400104 	addi	r5,r5,4
  80aa6c:	31800104 	addi	r6,r6,4
  80aa70:	29ffff15 	stw	r7,-4(r5)
  80aa74:	30bffb36 	bltu	r6,r2,80aa64 <__alt_mem_onchip_ram+0xff806a64>
  80aa78:	00c6303a 	nor	r3,zero,r3
  80aa7c:	1885883a 	add	r2,r3,r2
  80aa80:	1004d0ba 	srli	r2,r2,2
  80aa84:	10800044 	addi	r2,r2,1
  80aa88:	1085883a 	add	r2,r2,r2
  80aa8c:	1085883a 	add	r2,r2,r2
  80aa90:	1005d0ba 	srai	r2,r2,2
  80aa94:	20800415 	stw	r2,16(r4)
  80aa98:	103fed26 	beq	r2,zero,80aa50 <__alt_mem_onchip_ram+0xff806a50>
  80aa9c:	f800283a 	ret
  80aaa0:	4007883a 	mov	r3,r8
  80aaa4:	003fe306 	br	80aa34 <__alt_mem_onchip_ram+0xff806a34>

0080aaa8 <__gethex>:
  80aaa8:	deffea04 	addi	sp,sp,-88
  80aaac:	d9c00415 	stw	r7,16(sp)
  80aab0:	dfc01515 	stw	ra,84(sp)
  80aab4:	dd001015 	stw	r20,64(sp)
  80aab8:	dcc00f15 	stw	r19,60(sp)
  80aabc:	2829883a 	mov	r20,r5
  80aac0:	dc800e15 	stw	r18,56(sp)
  80aac4:	d9000215 	stw	r4,8(sp)
  80aac8:	d9800115 	stw	r6,4(sp)
  80aacc:	df001415 	stw	fp,80(sp)
  80aad0:	ddc01315 	stw	r23,76(sp)
  80aad4:	dd801215 	stw	r22,72(sp)
  80aad8:	dd401115 	stw	r21,68(sp)
  80aadc:	dc400d15 	stw	r17,52(sp)
  80aae0:	dc000c15 	stw	r16,48(sp)
  80aae4:	08032240 	call	803224 <_localeconv_r>
  80aae8:	14800017 	ldw	r18,0(r2)
  80aaec:	9009883a 	mov	r4,r18
  80aaf0:	080cd700 	call	80cd70 <strlen>
  80aaf4:	a1c00017 	ldw	r7,0(r20)
  80aaf8:	1027883a 	mov	r19,r2
  80aafc:	9085883a 	add	r2,r18,r2
  80ab00:	10bfffc3 	ldbu	r2,-1(r2)
  80ab04:	38c00083 	ldbu	r3,2(r7)
  80ab08:	d8800305 	stb	r2,12(sp)
  80ab0c:	00800c04 	movi	r2,48
  80ab10:	18815a1e 	bne	r3,r2,80b07c <__gethex+0x5d4>
  80ab14:	013fff84 	movi	r4,-2
  80ab18:	388000c4 	addi	r2,r7,3
  80ab1c:	21c9c83a 	sub	r4,r4,r7
  80ab20:	180b883a 	mov	r5,r3
  80ab24:	20b9883a 	add	fp,r4,r2
  80ab28:	102f883a 	mov	r23,r2
  80ab2c:	10800044 	addi	r2,r2,1
  80ab30:	10ffffc3 	ldbu	r3,-1(r2)
  80ab34:	197ffb26 	beq	r3,r5,80ab24 <__alt_mem_onchip_ram+0xff806b24>
  80ab38:	05802074 	movhi	r22,129
  80ab3c:	b5934b04 	addi	r22,r22,19756
  80ab40:	b0c7883a 	add	r3,r22,r3
  80ab44:	18800003 	ldbu	r2,0(r3)
  80ab48:	10008726 	beq	r2,zero,80ad68 <__gethex+0x2c0>
  80ab4c:	b8800003 	ldbu	r2,0(r23)
  80ab50:	d8000015 	stw	zero,0(sp)
  80ab54:	0021883a 	mov	r16,zero
  80ab58:	b085883a 	add	r2,r22,r2
  80ab5c:	10800003 	ldbu	r2,0(r2)
  80ab60:	b823883a 	mov	r17,r23
  80ab64:	10000526 	beq	r2,zero,80ab7c <__gethex+0xd4>
  80ab68:	8c400044 	addi	r17,r17,1
  80ab6c:	88800003 	ldbu	r2,0(r17)
  80ab70:	b085883a 	add	r2,r22,r2
  80ab74:	10800003 	ldbu	r2,0(r2)
  80ab78:	103ffb1e 	bne	r2,zero,80ab68 <__alt_mem_onchip_ram+0xff806b68>
  80ab7c:	980d883a 	mov	r6,r19
  80ab80:	900b883a 	mov	r5,r18
  80ab84:	8809883a 	mov	r4,r17
  80ab88:	080ce080 	call	80ce08 <strncmp>
  80ab8c:	1000031e 	bne	r2,zero,80ab9c <__gethex+0xf4>
  80ab90:	80015c26 	beq	r16,zero,80b104 <__gethex+0x65c>
  80ab94:	88800003 	ldbu	r2,0(r17)
  80ab98:	00000206 	br	80aba4 <__gethex+0xfc>
  80ab9c:	88800003 	ldbu	r2,0(r17)
  80aba0:	80012926 	beq	r16,zero,80b048 <__gethex+0x5a0>
  80aba4:	8c21c83a 	sub	r16,r17,r16
  80aba8:	8421883a 	add	r16,r16,r16
  80abac:	8421883a 	add	r16,r16,r16
  80abb0:	0421c83a 	sub	r16,zero,r16
  80abb4:	10803fcc 	andi	r2,r2,255
  80abb8:	01001404 	movi	r4,80
  80abbc:	11008826 	beq	r2,r4,80ade0 <__gethex+0x338>
  80abc0:	01001c04 	movi	r4,112
  80abc4:	11008626 	beq	r2,r4,80ade0 <__gethex+0x338>
  80abc8:	882b883a 	mov	r21,r17
  80abcc:	d8c00017 	ldw	r3,0(sp)
  80abd0:	a4400015 	stw	r17,0(r20)
  80abd4:	1800711e 	bne	r3,zero,80ad9c <__gethex+0x2f4>
  80abd8:	adc5c83a 	sub	r2,r21,r23
  80abdc:	10bfffc4 	addi	r2,r2,-1
  80abe0:	00c001c4 	movi	r3,7
  80abe4:	000b883a 	mov	r5,zero
  80abe8:	1880030e 	bge	r3,r2,80abf8 <__gethex+0x150>
  80abec:	1005d07a 	srai	r2,r2,1
  80abf0:	29400044 	addi	r5,r5,1
  80abf4:	18bffd16 	blt	r3,r2,80abec <__alt_mem_onchip_ram+0xff806bec>
  80abf8:	d9000217 	ldw	r4,8(sp)
  80abfc:	080b6f40 	call	80b6f4 <_Balloc>
  80ac00:	10c00504 	addi	r3,r2,20
  80ac04:	d8c00015 	stw	r3,0(sp)
  80ac08:	1029883a 	mov	r20,r2
  80ac0c:	bd417c2e 	bgeu	r23,r21,80b200 <__gethex+0x758>
  80ac10:	dc400303 	ldbu	r17,12(sp)
  80ac14:	03000044 	movi	r12,1
  80ac18:	1813883a 	mov	r9,r3
  80ac1c:	0039883a 	mov	fp,zero
  80ac20:	0007883a 	mov	r3,zero
  80ac24:	64d9c83a 	sub	r12,r12,r19
  80ac28:	02800804 	movi	r10,32
  80ac2c:	a8bfffc3 	ldbu	r2,-1(r21)
  80ac30:	ab7fffc4 	addi	r13,r21,-1
  80ac34:	88803026 	beq	r17,r2,80acf8 <__gethex+0x250>
  80ac38:	e2804526 	beq	fp,r10,80ad50 <__gethex+0x2a8>
  80ac3c:	e00b883a 	mov	r5,fp
  80ac40:	e7000104 	addi	fp,fp,4
  80ac44:	a93fffc3 	ldbu	r4,-1(r21)
  80ac48:	682b883a 	mov	r21,r13
  80ac4c:	b109883a 	add	r4,r22,r4
  80ac50:	20800003 	ldbu	r2,0(r4)
  80ac54:	108003cc 	andi	r2,r2,15
  80ac58:	1144983a 	sll	r2,r2,r5
  80ac5c:	1886b03a 	or	r3,r3,r2
  80ac60:	bd7ff236 	bltu	r23,r21,80ac2c <__alt_mem_onchip_ram+0xff806c2c>
  80ac64:	d9000017 	ldw	r4,0(sp)
  80ac68:	48800104 	addi	r2,r9,4
  80ac6c:	48c00015 	stw	r3,0(r9)
  80ac70:	1105c83a 	sub	r2,r2,r4
  80ac74:	1005d0ba 	srai	r2,r2,2
  80ac78:	1809883a 	mov	r4,r3
  80ac7c:	a0800415 	stw	r2,16(r20)
  80ac80:	1022917a 	slli	r17,r2,5
  80ac84:	080ba100 	call	80ba10 <__hi0bits>
  80ac88:	d8c00117 	ldw	r3,4(sp)
  80ac8c:	8885c83a 	sub	r2,r17,r2
  80ac90:	1c800017 	ldw	r18,0(r3)
  80ac94:	9080d016 	blt	r18,r2,80afd8 <__gethex+0x530>
  80ac98:	1480ed16 	blt	r2,r18,80b050 <__gethex+0x5a8>
  80ac9c:	0027883a 	mov	r19,zero
  80aca0:	d8c00117 	ldw	r3,4(sp)
  80aca4:	18800217 	ldw	r2,8(r3)
  80aca8:	14009416 	blt	r2,r16,80aefc <__gethex+0x454>
  80acac:	d8c00117 	ldw	r3,4(sp)
  80acb0:	18800117 	ldw	r2,4(r3)
  80acb4:	8080b30e 	bge	r16,r2,80af84 <__gethex+0x4dc>
  80acb8:	1421c83a 	sub	r16,r2,r16
  80acbc:	8480f616 	blt	r16,r18,80b098 <__gethex+0x5f0>
  80acc0:	18c00317 	ldw	r3,12(r3)
  80acc4:	01000084 	movi	r4,2
  80acc8:	19015226 	beq	r3,r4,80b214 <__gethex+0x76c>
  80accc:	010000c4 	movi	r4,3
  80acd0:	19013726 	beq	r3,r4,80b1b0 <__gethex+0x708>
  80acd4:	01000044 	movi	r4,1
  80acd8:	19015126 	beq	r3,r4,80b220 <__gethex+0x778>
  80acdc:	d9000217 	ldw	r4,8(sp)
  80ace0:	a00b883a 	mov	r5,r20
  80ace4:	080b79c0 	call	80b79c <_Bfree>
  80ace8:	d8801617 	ldw	r2,88(sp)
  80acec:	10000015 	stw	zero,0(r2)
  80acf0:	00801404 	movi	r2,80
  80acf4:	00002b06 	br	80ada4 <__gethex+0x2fc>
  80acf8:	6b1d883a 	add	r14,r13,r12
  80acfc:	75ffce36 	bltu	r14,r23,80ac38 <__alt_mem_onchip_ram+0xff806c38>
  80ad00:	7009883a 	mov	r4,r14
  80ad04:	980d883a 	mov	r6,r19
  80ad08:	900b883a 	mov	r5,r18
  80ad0c:	d8c00715 	stw	r3,28(sp)
  80ad10:	da400615 	stw	r9,24(sp)
  80ad14:	da800b15 	stw	r10,44(sp)
  80ad18:	db000a15 	stw	r12,40(sp)
  80ad1c:	db400815 	stw	r13,32(sp)
  80ad20:	db800915 	stw	r14,36(sp)
  80ad24:	080ce080 	call	80ce08 <strncmp>
  80ad28:	d8c00717 	ldw	r3,28(sp)
  80ad2c:	da400617 	ldw	r9,24(sp)
  80ad30:	da800b17 	ldw	r10,44(sp)
  80ad34:	db000a17 	ldw	r12,40(sp)
  80ad38:	db400817 	ldw	r13,32(sp)
  80ad3c:	db800917 	ldw	r14,36(sp)
  80ad40:	103fbd1e 	bne	r2,zero,80ac38 <__alt_mem_onchip_ram+0xff806c38>
  80ad44:	702b883a 	mov	r21,r14
  80ad48:	bd7fb836 	bltu	r23,r21,80ac2c <__alt_mem_onchip_ram+0xff806c2c>
  80ad4c:	003fc506 	br	80ac64 <__alt_mem_onchip_ram+0xff806c64>
  80ad50:	07000104 	movi	fp,4
  80ad54:	48c00015 	stw	r3,0(r9)
  80ad58:	000b883a 	mov	r5,zero
  80ad5c:	4f13883a 	add	r9,r9,fp
  80ad60:	0007883a 	mov	r3,zero
  80ad64:	003fb706 	br	80ac44 <__alt_mem_onchip_ram+0xff806c44>
  80ad68:	980d883a 	mov	r6,r19
  80ad6c:	900b883a 	mov	r5,r18
  80ad70:	b809883a 	mov	r4,r23
  80ad74:	080ce080 	call	80ce08 <strncmp>
  80ad78:	10006c26 	beq	r2,zero,80af2c <__gethex+0x484>
  80ad7c:	b8800003 	ldbu	r2,0(r23)
  80ad80:	b823883a 	mov	r17,r23
  80ad84:	10803fcc 	andi	r2,r2,255
  80ad88:	01001404 	movi	r4,80
  80ad8c:	11001126 	beq	r2,r4,80add4 <__gethex+0x32c>
  80ad90:	01001c04 	movi	r4,112
  80ad94:	11000f26 	beq	r2,r4,80add4 <__gethex+0x32c>
  80ad98:	a4400015 	stw	r17,0(r20)
  80ad9c:	e0008c1e 	bne	fp,zero,80afd0 <__gethex+0x528>
  80ada0:	00800184 	movi	r2,6
  80ada4:	dfc01517 	ldw	ra,84(sp)
  80ada8:	df001417 	ldw	fp,80(sp)
  80adac:	ddc01317 	ldw	r23,76(sp)
  80adb0:	dd801217 	ldw	r22,72(sp)
  80adb4:	dd401117 	ldw	r21,68(sp)
  80adb8:	dd001017 	ldw	r20,64(sp)
  80adbc:	dcc00f17 	ldw	r19,60(sp)
  80adc0:	dc800e17 	ldw	r18,56(sp)
  80adc4:	dc400d17 	ldw	r17,52(sp)
  80adc8:	dc000c17 	ldw	r16,48(sp)
  80adcc:	dec01604 	addi	sp,sp,88
  80add0:	f800283a 	ret
  80add4:	00c00044 	movi	r3,1
  80add8:	0021883a 	mov	r16,zero
  80addc:	d8c00015 	stw	r3,0(sp)
  80ade0:	88800043 	ldbu	r2,1(r17)
  80ade4:	01400ac4 	movi	r5,43
  80ade8:	11003fcc 	andi	r4,r2,255
  80adec:	21407626 	beq	r4,r5,80afc8 <__gethex+0x520>
  80adf0:	01400b44 	movi	r5,45
  80adf4:	21404826 	beq	r4,r5,80af18 <__gethex+0x470>
  80adf8:	8ac00044 	addi	r11,r17,1
  80adfc:	d8000515 	stw	zero,20(sp)
  80ae00:	10803fcc 	andi	r2,r2,255
  80ae04:	b085883a 	add	r2,r22,r2
  80ae08:	11000003 	ldbu	r4,0(r2)
  80ae0c:	05400604 	movi	r21,24
  80ae10:	20bfffc4 	addi	r2,r4,-1
  80ae14:	10803fcc 	andi	r2,r2,255
  80ae18:	a8bf6b36 	bltu	r21,r2,80abc8 <__alt_mem_onchip_ram+0xff806bc8>
  80ae1c:	58800043 	ldbu	r2,1(r11)
  80ae20:	01402074 	movhi	r5,129
  80ae24:	29534b04 	addi	r5,r5,19756
  80ae28:	2885883a 	add	r2,r5,r2
  80ae2c:	12800003 	ldbu	r10,0(r2)
  80ae30:	21003fcc 	andi	r4,r4,255
  80ae34:	213ffc04 	addi	r4,r4,-16
  80ae38:	50bfffc4 	addi	r2,r10,-1
  80ae3c:	10803fcc 	andi	r2,r2,255
  80ae40:	5ac00044 	addi	r11,r11,1
  80ae44:	51803fcc 	andi	r6,r10,255
  80ae48:	a8801036 	bltu	r21,r2,80ae8c <__gethex+0x3e4>
  80ae4c:	5ac00044 	addi	r11,r11,1
  80ae50:	01400284 	movi	r5,10
  80ae54:	d9800715 	stw	r6,28(sp)
  80ae58:	dac00615 	stw	r11,24(sp)
  80ae5c:	080f5740 	call	80f574 <__mulsi3>
  80ae60:	dac00617 	ldw	r11,24(sp)
  80ae64:	d9800717 	ldw	r6,28(sp)
  80ae68:	5a800003 	ldbu	r10,0(r11)
  80ae6c:	1185883a 	add	r2,r2,r6
  80ae70:	113ffc04 	addi	r4,r2,-16
  80ae74:	b295883a 	add	r10,r22,r10
  80ae78:	51400003 	ldbu	r5,0(r10)
  80ae7c:	2abfffc4 	addi	r10,r5,-1
  80ae80:	52803fcc 	andi	r10,r10,255
  80ae84:	29803fcc 	andi	r6,r5,255
  80ae88:	aabff02e 	bgeu	r21,r10,80ae4c <__alt_mem_onchip_ram+0xff806e4c>
  80ae8c:	d8c00517 	ldw	r3,20(sp)
  80ae90:	18000126 	beq	r3,zero,80ae98 <__gethex+0x3f0>
  80ae94:	0109c83a 	sub	r4,zero,r4
  80ae98:	882b883a 	mov	r21,r17
  80ae9c:	8121883a 	add	r16,r16,r4
  80aea0:	5823883a 	mov	r17,r11
  80aea4:	003f4906 	br	80abcc <__alt_mem_onchip_ram+0xff806bcc>
  80aea8:	a0800217 	ldw	r2,8(r20)
  80aeac:	a880f20e 	bge	r21,r2,80b278 <__gethex+0x7d0>
  80aeb0:	a807883a 	mov	r3,r21
  80aeb4:	18800144 	addi	r2,r3,5
  80aeb8:	1085883a 	add	r2,r2,r2
  80aebc:	18c00044 	addi	r3,r3,1
  80aec0:	1085883a 	add	r2,r2,r2
  80aec4:	a085883a 	add	r2,r20,r2
  80aec8:	a0c00415 	stw	r3,16(r20)
  80aecc:	01000044 	movi	r4,1
  80aed0:	11000015 	stw	r4,0(r2)
  80aed4:	00800084 	movi	r2,2
  80aed8:	8880da26 	beq	r17,r2,80b244 <__gethex+0x79c>
  80aedc:	a8c0ae0e 	bge	r21,r3,80b198 <__gethex+0x6f0>
  80aee0:	01400044 	movi	r5,1
  80aee4:	a009883a 	mov	r4,r20
  80aee8:	080a9a80 	call	80a9a8 <rshift>
  80aeec:	d8c00117 	ldw	r3,4(sp)
  80aef0:	84000044 	addi	r16,r16,1
  80aef4:	18800217 	ldw	r2,8(r3)
  80aef8:	1400a90e 	bge	r2,r16,80b1a0 <__gethex+0x6f8>
  80aefc:	d9000217 	ldw	r4,8(sp)
  80af00:	a00b883a 	mov	r5,r20
  80af04:	080b79c0 	call	80b79c <_Bfree>
  80af08:	d9001617 	ldw	r4,88(sp)
  80af0c:	008028c4 	movi	r2,163
  80af10:	20000015 	stw	zero,0(r4)
  80af14:	003fa306 	br	80ada4 <__alt_mem_onchip_ram+0xff806da4>
  80af18:	00c00044 	movi	r3,1
  80af1c:	d8c00515 	stw	r3,20(sp)
  80af20:	88800083 	ldbu	r2,2(r17)
  80af24:	8ac00084 	addi	r11,r17,2
  80af28:	003fb506 	br	80ae00 <__alt_mem_onchip_ram+0xff806e00>
  80af2c:	bce3883a 	add	r17,r23,r19
  80af30:	89000003 	ldbu	r4,0(r17)
  80af34:	21403fcc 	andi	r5,r4,255
  80af38:	b145883a 	add	r2,r22,r5
  80af3c:	10800003 	ldbu	r2,0(r2)
  80af40:	11803fcc 	andi	r6,r2,255
  80af44:	30005026 	beq	r6,zero,80b088 <__gethex+0x5e0>
  80af48:	01000c04 	movi	r4,48
  80af4c:	882f883a 	mov	r23,r17
  80af50:	2900061e 	bne	r5,r4,80af6c <__gethex+0x4c4>
  80af54:	2809883a 	mov	r4,r5
  80af58:	bdc00044 	addi	r23,r23,1
  80af5c:	b8800003 	ldbu	r2,0(r23)
  80af60:	113ffd26 	beq	r2,r4,80af58 <__alt_mem_onchip_ram+0xff806f58>
  80af64:	b085883a 	add	r2,r22,r2
  80af68:	10800003 	ldbu	r2,0(r2)
  80af6c:	10803fcc 	andi	r2,r2,255
  80af70:	1007003a 	cmpeq	r3,r2,zero
  80af74:	d8c00015 	stw	r3,0(sp)
  80af78:	8821883a 	mov	r16,r17
  80af7c:	07000044 	movi	fp,1
  80af80:	003ef706 	br	80ab60 <__alt_mem_onchip_ram+0xff806b60>
  80af84:	04400044 	movi	r17,1
  80af88:	98000926 	beq	r19,zero,80afb0 <__gethex+0x508>
  80af8c:	d8c00117 	ldw	r3,4(sp)
  80af90:	18800317 	ldw	r2,12(r3)
  80af94:	00c00084 	movi	r3,2
  80af98:	10c06826 	beq	r2,r3,80b13c <__gethex+0x694>
  80af9c:	00c000c4 	movi	r3,3
  80afa0:	10c06a26 	beq	r2,r3,80b14c <__gethex+0x6a4>
  80afa4:	00c00044 	movi	r3,1
  80afa8:	10c08d26 	beq	r2,r3,80b1e0 <__gethex+0x738>
  80afac:	8c400414 	ori	r17,r17,16
  80afb0:	d9001617 	ldw	r4,88(sp)
  80afb4:	d8c00417 	ldw	r3,16(sp)
  80afb8:	8805883a 	mov	r2,r17
  80afbc:	25000015 	stw	r20,0(r4)
  80afc0:	1c000015 	stw	r16,0(r3)
  80afc4:	003f7706 	br	80ada4 <__alt_mem_onchip_ram+0xff806da4>
  80afc8:	d8000515 	stw	zero,20(sp)
  80afcc:	003fd406 	br	80af20 <__alt_mem_onchip_ram+0xff806f20>
  80afd0:	0005883a 	mov	r2,zero
  80afd4:	003f7306 	br	80ada4 <__alt_mem_onchip_ram+0xff806da4>
  80afd8:	14a3c83a 	sub	r17,r2,r18
  80afdc:	880b883a 	mov	r5,r17
  80afe0:	a009883a 	mov	r4,r20
  80afe4:	080c7200 	call	80c720 <__any_on>
  80afe8:	10002926 	beq	r2,zero,80b090 <__gethex+0x5e8>
  80afec:	897fffc4 	addi	r5,r17,-1
  80aff0:	2807d17a 	srai	r3,r5,5
  80aff4:	d8800017 	ldw	r2,0(sp)
  80aff8:	290007cc 	andi	r4,r5,31
  80affc:	18c7883a 	add	r3,r3,r3
  80b000:	18c7883a 	add	r3,r3,r3
  80b004:	04c00044 	movi	r19,1
  80b008:	10c7883a 	add	r3,r2,r3
  80b00c:	9908983a 	sll	r4,r19,r4
  80b010:	18c00017 	ldw	r3,0(r3)
  80b014:	20c6703a 	and	r3,r4,r3
  80b018:	18000626 	beq	r3,zero,80b034 <__gethex+0x58c>
  80b01c:	99407b0e 	bge	r19,r5,80b20c <__gethex+0x764>
  80b020:	897fff84 	addi	r5,r17,-2
  80b024:	a009883a 	mov	r4,r20
  80b028:	080c7200 	call	80c720 <__any_on>
  80b02c:	10007726 	beq	r2,zero,80b20c <__gethex+0x764>
  80b030:	04c000c4 	movi	r19,3
  80b034:	880b883a 	mov	r5,r17
  80b038:	a009883a 	mov	r4,r20
  80b03c:	080a9a80 	call	80a9a8 <rshift>
  80b040:	8461883a 	add	r16,r16,r17
  80b044:	003f1606 	br	80aca0 <__alt_mem_onchip_ram+0xff806ca0>
  80b048:	0021883a 	mov	r16,zero
  80b04c:	003ed906 	br	80abb4 <__alt_mem_onchip_ram+0xff806bb4>
  80b050:	d9000217 	ldw	r4,8(sp)
  80b054:	90a3c83a 	sub	r17,r18,r2
  80b058:	a00b883a 	mov	r5,r20
  80b05c:	880d883a 	mov	r6,r17
  80b060:	080bf300 	call	80bf30 <__lshift>
  80b064:	10c00504 	addi	r3,r2,20
  80b068:	1029883a 	mov	r20,r2
  80b06c:	8461c83a 	sub	r16,r16,r17
  80b070:	d8c00015 	stw	r3,0(sp)
  80b074:	0027883a 	mov	r19,zero
  80b078:	003f0906 	br	80aca0 <__alt_mem_onchip_ram+0xff806ca0>
  80b07c:	3dc00084 	addi	r23,r7,2
  80b080:	0039883a 	mov	fp,zero
  80b084:	003eac06 	br	80ab38 <__alt_mem_onchip_ram+0xff806b38>
  80b088:	2005883a 	mov	r2,r4
  80b08c:	003f3d06 	br	80ad84 <__alt_mem_onchip_ram+0xff806d84>
  80b090:	0027883a 	mov	r19,zero
  80b094:	003fe706 	br	80b034 <__alt_mem_onchip_ram+0xff807034>
  80b098:	847fffc4 	addi	r17,r16,-1
  80b09c:	9800421e 	bne	r19,zero,80b1a8 <__gethex+0x700>
  80b0a0:	88000426 	beq	r17,zero,80b0b4 <__gethex+0x60c>
  80b0a4:	880b883a 	mov	r5,r17
  80b0a8:	a009883a 	mov	r4,r20
  80b0ac:	080c7200 	call	80c720 <__any_on>
  80b0b0:	1027883a 	mov	r19,r2
  80b0b4:	8805d17a 	srai	r2,r17,5
  80b0b8:	d8c00017 	ldw	r3,0(sp)
  80b0bc:	8c4007cc 	andi	r17,r17,31
  80b0c0:	1085883a 	add	r2,r2,r2
  80b0c4:	1085883a 	add	r2,r2,r2
  80b0c8:	1885883a 	add	r2,r3,r2
  80b0cc:	00c00044 	movi	r3,1
  80b0d0:	1c62983a 	sll	r17,r3,r17
  80b0d4:	10800017 	ldw	r2,0(r2)
  80b0d8:	8884703a 	and	r2,r17,r2
  80b0dc:	10000126 	beq	r2,zero,80b0e4 <__gethex+0x63c>
  80b0e0:	9cc00094 	ori	r19,r19,2
  80b0e4:	800b883a 	mov	r5,r16
  80b0e8:	a009883a 	mov	r4,r20
  80b0ec:	080a9a80 	call	80a9a8 <rshift>
  80b0f0:	d8c00117 	ldw	r3,4(sp)
  80b0f4:	9425c83a 	sub	r18,r18,r16
  80b0f8:	04400084 	movi	r17,2
  80b0fc:	1c000117 	ldw	r16,4(r3)
  80b100:	003fa106 	br	80af88 <__alt_mem_onchip_ram+0xff806f88>
  80b104:	8ce1883a 	add	r16,r17,r19
  80b108:	80800003 	ldbu	r2,0(r16)
  80b10c:	8023883a 	mov	r17,r16
  80b110:	10c03fcc 	andi	r3,r2,255
  80b114:	b0c7883a 	add	r3,r22,r3
  80b118:	18c00003 	ldbu	r3,0(r3)
  80b11c:	183ea026 	beq	r3,zero,80aba0 <__alt_mem_onchip_ram+0xff806ba0>
  80b120:	8c400044 	addi	r17,r17,1
  80b124:	88800003 	ldbu	r2,0(r17)
  80b128:	11003fcc 	andi	r4,r2,255
  80b12c:	b109883a 	add	r4,r22,r4
  80b130:	21000003 	ldbu	r4,0(r4)
  80b134:	203ffa1e 	bne	r4,zero,80b120 <__alt_mem_onchip_ram+0xff807120>
  80b138:	003e9906 	br	80aba0 <__alt_mem_onchip_ram+0xff806ba0>
  80b13c:	d9001717 	ldw	r4,92(sp)
  80b140:	00800044 	movi	r2,1
  80b144:	1109c83a 	sub	r4,r2,r4
  80b148:	d9001715 	stw	r4,92(sp)
  80b14c:	d8801717 	ldw	r2,92(sp)
  80b150:	103f9626 	beq	r2,zero,80afac <__alt_mem_onchip_ram+0xff806fac>
  80b154:	a5400417 	ldw	r21,16(r20)
  80b158:	d9800017 	ldw	r6,0(sp)
  80b15c:	013fffc4 	movi	r4,-1
  80b160:	ad67883a 	add	r19,r21,r21
  80b164:	9ce7883a 	add	r19,r19,r19
  80b168:	3005883a 	mov	r2,r6
  80b16c:	34cb883a 	add	r5,r6,r19
  80b170:	00000306 	br	80b180 <__gethex+0x6d8>
  80b174:	10000015 	stw	zero,0(r2)
  80b178:	10800104 	addi	r2,r2,4
  80b17c:	117f4a2e 	bgeu	r2,r5,80aea8 <__alt_mem_onchip_ram+0xff806ea8>
  80b180:	10c00017 	ldw	r3,0(r2)
  80b184:	193ffb26 	beq	r3,r4,80b174 <__alt_mem_onchip_ram+0xff807174>
  80b188:	18c00044 	addi	r3,r3,1
  80b18c:	10c00015 	stw	r3,0(r2)
  80b190:	00800084 	movi	r2,2
  80b194:	88802b26 	beq	r17,r2,80b244 <__gethex+0x79c>
  80b198:	948007cc 	andi	r18,r18,31
  80b19c:	90002f1e 	bne	r18,zero,80b25c <__gethex+0x7b4>
  80b1a0:	04400844 	movi	r17,33
  80b1a4:	003f8206 	br	80afb0 <__alt_mem_onchip_ram+0xff806fb0>
  80b1a8:	04c00044 	movi	r19,1
  80b1ac:	003fc106 	br	80b0b4 <__alt_mem_onchip_ram+0xff8070b4>
  80b1b0:	d8c01717 	ldw	r3,92(sp)
  80b1b4:	183ec926 	beq	r3,zero,80acdc <__alt_mem_onchip_ram+0xff806cdc>
  80b1b8:	d8c00417 	ldw	r3,16(sp)
  80b1bc:	d9001617 	ldw	r4,88(sp)
  80b1c0:	18800015 	stw	r2,0(r3)
  80b1c4:	d8c00017 	ldw	r3,0(sp)
  80b1c8:	00800044 	movi	r2,1
  80b1cc:	a0800415 	stw	r2,16(r20)
  80b1d0:	18800015 	stw	r2,0(r3)
  80b1d4:	25000015 	stw	r20,0(r4)
  80b1d8:	00801884 	movi	r2,98
  80b1dc:	003ef106 	br	80ada4 <__alt_mem_onchip_ram+0xff806da4>
  80b1e0:	9880008c 	andi	r2,r19,2
  80b1e4:	103f7126 	beq	r2,zero,80afac <__alt_mem_onchip_ram+0xff806fac>
  80b1e8:	d8c00017 	ldw	r3,0(sp)
  80b1ec:	18800017 	ldw	r2,0(r3)
  80b1f0:	9884b03a 	or	r2,r19,r2
  80b1f4:	1080004c 	andi	r2,r2,1
  80b1f8:	103fd61e 	bne	r2,zero,80b154 <__alt_mem_onchip_ram+0xff807154>
  80b1fc:	003f6b06 	br	80afac <__alt_mem_onchip_ram+0xff806fac>
  80b200:	da400017 	ldw	r9,0(sp)
  80b204:	0007883a 	mov	r3,zero
  80b208:	003e9606 	br	80ac64 <__alt_mem_onchip_ram+0xff806c64>
  80b20c:	04c00084 	movi	r19,2
  80b210:	003f8806 	br	80b034 <__alt_mem_onchip_ram+0xff807034>
  80b214:	d9001717 	ldw	r4,92(sp)
  80b218:	203fe726 	beq	r4,zero,80b1b8 <__alt_mem_onchip_ram+0xff8071b8>
  80b21c:	003eaf06 	br	80acdc <__alt_mem_onchip_ram+0xff806cdc>
  80b220:	943eae1e 	bne	r18,r16,80acdc <__alt_mem_onchip_ram+0xff806cdc>
  80b224:	1cbfe40e 	bge	r3,r18,80b1b8 <__alt_mem_onchip_ram+0xff8071b8>
  80b228:	917fffc4 	addi	r5,r18,-1
  80b22c:	a009883a 	mov	r4,r20
  80b230:	080c7200 	call	80c720 <__any_on>
  80b234:	103ea926 	beq	r2,zero,80acdc <__alt_mem_onchip_ram+0xff806cdc>
  80b238:	d8c00117 	ldw	r3,4(sp)
  80b23c:	18800117 	ldw	r2,4(r3)
  80b240:	003fdd06 	br	80b1b8 <__alt_mem_onchip_ram+0xff8071b8>
  80b244:	d8c00117 	ldw	r3,4(sp)
  80b248:	18800017 	ldw	r2,0(r3)
  80b24c:	10bfffc4 	addi	r2,r2,-1
  80b250:	90801c26 	beq	r18,r2,80b2c4 <__gethex+0x81c>
  80b254:	04400884 	movi	r17,34
  80b258:	003f5506 	br	80afb0 <__alt_mem_onchip_ram+0xff806fb0>
  80b25c:	34c5883a 	add	r2,r6,r19
  80b260:	113fff17 	ldw	r4,-4(r2)
  80b264:	080ba100 	call	80ba10 <__hi0bits>
  80b268:	00c00804 	movi	r3,32
  80b26c:	1ca5c83a 	sub	r18,r3,r18
  80b270:	14bfcb0e 	bge	r2,r18,80b1a0 <__alt_mem_onchip_ram+0xff8071a0>
  80b274:	003f1a06 	br	80aee0 <__alt_mem_onchip_ram+0xff806ee0>
  80b278:	a1400117 	ldw	r5,4(r20)
  80b27c:	d9000217 	ldw	r4,8(sp)
  80b280:	29400044 	addi	r5,r5,1
  80b284:	080b6f40 	call	80b6f4 <_Balloc>
  80b288:	a1800417 	ldw	r6,16(r20)
  80b28c:	a1400304 	addi	r5,r20,12
  80b290:	11000304 	addi	r4,r2,12
  80b294:	31800084 	addi	r6,r6,2
  80b298:	318d883a 	add	r6,r6,r6
  80b29c:	318d883a 	add	r6,r6,r6
  80b2a0:	102d883a 	mov	r22,r2
  80b2a4:	0803e400 	call	803e40 <memcpy>
  80b2a8:	d9000217 	ldw	r4,8(sp)
  80b2ac:	a00b883a 	mov	r5,r20
  80b2b0:	b029883a 	mov	r20,r22
  80b2b4:	080b79c0 	call	80b79c <_Bfree>
  80b2b8:	b0c00417 	ldw	r3,16(r22)
  80b2bc:	b1800504 	addi	r6,r22,20
  80b2c0:	003efc06 	br	80aeb4 <__alt_mem_onchip_ram+0xff806eb4>
  80b2c4:	9005d17a 	srai	r2,r18,5
  80b2c8:	944007cc 	andi	r17,r18,31
  80b2cc:	1085883a 	add	r2,r2,r2
  80b2d0:	1085883a 	add	r2,r2,r2
  80b2d4:	3087883a 	add	r3,r6,r2
  80b2d8:	00800044 	movi	r2,1
  80b2dc:	1462983a 	sll	r17,r2,r17
  80b2e0:	18800017 	ldw	r2,0(r3)
  80b2e4:	8884703a 	and	r2,r17,r2
  80b2e8:	1022c03a 	cmpne	r17,r2,zero
  80b2ec:	00800884 	movi	r2,34
  80b2f0:	1463c83a 	sub	r17,r2,r17
  80b2f4:	003f2e06 	br	80afb0 <__alt_mem_onchip_ram+0xff806fb0>

0080b2f8 <__hexnan>:
  80b2f8:	defff904 	addi	sp,sp,-28
  80b2fc:	dc800215 	stw	r18,8(sp)
  80b300:	2c800017 	ldw	r18,0(r5)
  80b304:	dfc00615 	stw	ra,24(sp)
  80b308:	dd400515 	stw	r21,20(sp)
  80b30c:	901fd17a 	srai	r15,r18,5
  80b310:	dd000415 	stw	r20,16(sp)
  80b314:	dcc00315 	stw	r19,12(sp)
  80b318:	7bdf883a 	add	r15,r15,r15
  80b31c:	7bdf883a 	add	r15,r15,r15
  80b320:	dc400115 	stw	r17,4(sp)
  80b324:	dc000015 	stw	r16,0(sp)
  80b328:	948007cc 	andi	r18,r18,31
  80b32c:	33df883a 	add	r15,r6,r15
  80b330:	90000126 	beq	r18,zero,80b338 <__hexnan+0x40>
  80b334:	7bc00104 	addi	r15,r15,4
  80b338:	21400017 	ldw	r5,0(r4)
  80b33c:	7affff04 	addi	r11,r15,-4
  80b340:	03802074 	movhi	r14,129
  80b344:	783fff15 	stw	zero,-4(r15)
  80b348:	581b883a 	mov	r13,r11
  80b34c:	580f883a 	mov	r7,r11
  80b350:	0007883a 	mov	r3,zero
  80b354:	003f883a 	mov	ra,zero
  80b358:	0019883a 	mov	r12,zero
  80b35c:	73934b04 	addi	r14,r14,19756
  80b360:	04400204 	movi	r17,8
  80b364:	04000804 	movi	r16,32
  80b368:	04c001c4 	movi	r19,7
  80b36c:	29400044 	addi	r5,r5,1
  80b370:	28800003 	ldbu	r2,0(r5)
  80b374:	10001d26 	beq	r2,zero,80b3ec <__hexnan+0xf4>
  80b378:	7091883a 	add	r8,r14,r2
  80b37c:	42000003 	ldbu	r8,0(r8)
  80b380:	42403fcc 	andi	r9,r8,255
  80b384:	4800301e 	bne	r9,zero,80b448 <__hexnan+0x150>
  80b388:	80804436 	bltu	r16,r2,80b49c <__hexnan+0x1a4>
  80b38c:	fb3ff70e 	bge	ra,r12,80b36c <__alt_mem_onchip_ram+0xff80736c>
  80b390:	3b40112e 	bgeu	r7,r13,80b3d8 <__hexnan+0xe0>
  80b394:	98c01016 	blt	r19,r3,80b3d8 <__hexnan+0xe0>
  80b398:	88e9c83a 	sub	r20,r17,r3
  80b39c:	a529883a 	add	r20,r20,r20
  80b3a0:	3a800017 	ldw	r10,0(r7)
  80b3a4:	a529883a 	add	r20,r20,r20
  80b3a8:	852bc83a 	sub	r21,r16,r20
  80b3ac:	3a000104 	addi	r8,r7,4
  80b3b0:	3805883a 	mov	r2,r7
  80b3b4:	40c00017 	ldw	r3,0(r8)
  80b3b8:	10800104 	addi	r2,r2,4
  80b3bc:	42000104 	addi	r8,r8,4
  80b3c0:	1d52983a 	sll	r9,r3,r21
  80b3c4:	4a92b03a 	or	r9,r9,r10
  80b3c8:	1d14d83a 	srl	r10,r3,r20
  80b3cc:	127fff15 	stw	r9,-4(r2)
  80b3d0:	42bfff15 	stw	r10,-4(r8)
  80b3d4:	137ff736 	bltu	r2,r13,80b3b4 <__alt_mem_onchip_ram+0xff8073b4>
  80b3d8:	31c02a36 	bltu	r6,r7,80b484 <__hexnan+0x18c>
  80b3dc:	29400044 	addi	r5,r5,1
  80b3e0:	28800003 	ldbu	r2,0(r5)
  80b3e4:	00c00204 	movi	r3,8
  80b3e8:	103fe31e 	bne	r2,zero,80b378 <__alt_mem_onchip_ram+0xff807378>
  80b3ec:	60002d26 	beq	r12,zero,80b4a4 <__hexnan+0x1ac>
  80b3f0:	3b40022e 	bgeu	r7,r13,80b3fc <__hexnan+0x104>
  80b3f4:	008001c4 	movi	r2,7
  80b3f8:	10c0450e 	bge	r2,r3,80b510 <__hexnan+0x218>
  80b3fc:	31c0332e 	bgeu	r6,r7,80b4cc <__hexnan+0x1d4>
  80b400:	3007883a 	mov	r3,r6
  80b404:	39000017 	ldw	r4,0(r7)
  80b408:	18800104 	addi	r2,r3,4
  80b40c:	39c00104 	addi	r7,r7,4
  80b410:	19000015 	stw	r4,0(r3)
  80b414:	1007883a 	mov	r3,r2
  80b418:	59fffa2e 	bgeu	r11,r7,80b404 <__alt_mem_onchip_ram+0xff807404>
  80b41c:	10000015 	stw	zero,0(r2)
  80b420:	10800104 	addi	r2,r2,4
  80b424:	58bffd2e 	bgeu	r11,r2,80b41c <__alt_mem_onchip_ram+0xff80741c>
  80b428:	78bfff17 	ldw	r2,-4(r15)
  80b42c:	1000041e 	bne	r2,zero,80b440 <__hexnan+0x148>
  80b430:	32c02f26 	beq	r6,r11,80b4f0 <__hexnan+0x1f8>
  80b434:	5affff04 	addi	r11,r11,-4
  80b438:	58800017 	ldw	r2,0(r11)
  80b43c:	103ffc26 	beq	r2,zero,80b430 <__alt_mem_onchip_ram+0xff807430>
  80b440:	00800144 	movi	r2,5
  80b444:	00001806 	br	80b4a8 <__hexnan+0x1b0>
  80b448:	18c00044 	addi	r3,r3,1
  80b44c:	63000044 	addi	r12,r12,1
  80b450:	88c00616 	blt	r17,r3,80b46c <__hexnan+0x174>
  80b454:	38800017 	ldw	r2,0(r7)
  80b458:	1004913a 	slli	r2,r2,4
  80b45c:	420003cc 	andi	r8,r8,15
  80b460:	4090b03a 	or	r8,r8,r2
  80b464:	3a000015 	stw	r8,0(r7)
  80b468:	003fc006 	br	80b36c <__alt_mem_onchip_ram+0xff80736c>
  80b46c:	31ffbf2e 	bgeu	r6,r7,80b36c <__alt_mem_onchip_ram+0xff80736c>
  80b470:	383fff15 	stw	zero,-4(r7)
  80b474:	0005883a 	mov	r2,zero
  80b478:	39ffff04 	addi	r7,r7,-4
  80b47c:	00c00044 	movi	r3,1
  80b480:	003ff606 	br	80b45c <__alt_mem_onchip_ram+0xff80745c>
  80b484:	3b7fff04 	addi	r13,r7,-4
  80b488:	383fff15 	stw	zero,-4(r7)
  80b48c:	603f883a 	mov	ra,r12
  80b490:	680f883a 	mov	r7,r13
  80b494:	0007883a 	mov	r3,zero
  80b498:	003fb406 	br	80b36c <__alt_mem_onchip_ram+0xff80736c>
  80b49c:	02000a44 	movi	r8,41
  80b4a0:	12001726 	beq	r2,r8,80b500 <__hexnan+0x208>
  80b4a4:	00800104 	movi	r2,4
  80b4a8:	dfc00617 	ldw	ra,24(sp)
  80b4ac:	dd400517 	ldw	r21,20(sp)
  80b4b0:	dd000417 	ldw	r20,16(sp)
  80b4b4:	dcc00317 	ldw	r19,12(sp)
  80b4b8:	dc800217 	ldw	r18,8(sp)
  80b4bc:	dc400117 	ldw	r17,4(sp)
  80b4c0:	dc000017 	ldw	r16,0(sp)
  80b4c4:	dec00704 	addi	sp,sp,28
  80b4c8:	f800283a 	ret
  80b4cc:	903fd626 	beq	r18,zero,80b428 <__alt_mem_onchip_ram+0xff807428>
  80b4d0:	00c00804 	movi	r3,32
  80b4d4:	1ca5c83a 	sub	r18,r3,r18
  80b4d8:	00ffffc4 	movi	r3,-1
  80b4dc:	78bfff17 	ldw	r2,-4(r15)
  80b4e0:	1c86d83a 	srl	r3,r3,r18
  80b4e4:	1884703a 	and	r2,r3,r2
  80b4e8:	78bfff15 	stw	r2,-4(r15)
  80b4ec:	003fcf06 	br	80b42c <__alt_mem_onchip_ram+0xff80742c>
  80b4f0:	00800044 	movi	r2,1
  80b4f4:	58800015 	stw	r2,0(r11)
  80b4f8:	00800144 	movi	r2,5
  80b4fc:	003fea06 	br	80b4a8 <__alt_mem_onchip_ram+0xff8074a8>
  80b500:	29400044 	addi	r5,r5,1
  80b504:	21400015 	stw	r5,0(r4)
  80b508:	603fb91e 	bne	r12,zero,80b3f0 <__alt_mem_onchip_ram+0xff8073f0>
  80b50c:	003fe506 	br	80b4a4 <__alt_mem_onchip_ram+0xff8074a4>
  80b510:	02400204 	movi	r9,8
  80b514:	48d3c83a 	sub	r9,r9,r3
  80b518:	4a53883a 	add	r9,r9,r9
  80b51c:	39400017 	ldw	r5,0(r7)
  80b520:	4a53883a 	add	r9,r9,r9
  80b524:	02800804 	movi	r10,32
  80b528:	5255c83a 	sub	r10,r10,r9
  80b52c:	38c00104 	addi	r3,r7,4
  80b530:	3805883a 	mov	r2,r7
  80b534:	1a000017 	ldw	r8,0(r3)
  80b538:	10800104 	addi	r2,r2,4
  80b53c:	18c00104 	addi	r3,r3,4
  80b540:	4288983a 	sll	r4,r8,r10
  80b544:	2148b03a 	or	r4,r4,r5
  80b548:	424ad83a 	srl	r5,r8,r9
  80b54c:	113fff15 	stw	r4,-4(r2)
  80b550:	197fff15 	stw	r5,-4(r3)
  80b554:	137ff736 	bltu	r2,r13,80b534 <__alt_mem_onchip_ram+0xff807534>
  80b558:	003fa806 	br	80b3fc <__alt_mem_onchip_ram+0xff8073fc>

0080b55c <_isatty_r>:
  80b55c:	defffd04 	addi	sp,sp,-12
  80b560:	dc000015 	stw	r16,0(sp)
  80b564:	040020b4 	movhi	r16,130
  80b568:	dc400115 	stw	r17,4(sp)
  80b56c:	8421a504 	addi	r16,r16,-31084
  80b570:	2023883a 	mov	r17,r4
  80b574:	2809883a 	mov	r4,r5
  80b578:	dfc00215 	stw	ra,8(sp)
  80b57c:	80000015 	stw	zero,0(r16)
  80b580:	081248c0 	call	81248c <isatty>
  80b584:	00ffffc4 	movi	r3,-1
  80b588:	10c00526 	beq	r2,r3,80b5a0 <_isatty_r+0x44>
  80b58c:	dfc00217 	ldw	ra,8(sp)
  80b590:	dc400117 	ldw	r17,4(sp)
  80b594:	dc000017 	ldw	r16,0(sp)
  80b598:	dec00304 	addi	sp,sp,12
  80b59c:	f800283a 	ret
  80b5a0:	80c00017 	ldw	r3,0(r16)
  80b5a4:	183ff926 	beq	r3,zero,80b58c <__alt_mem_onchip_ram+0xff80758c>
  80b5a8:	88c00015 	stw	r3,0(r17)
  80b5ac:	003ff706 	br	80b58c <__alt_mem_onchip_ram+0xff80758c>

0080b5b0 <_lseek_r>:
  80b5b0:	defffd04 	addi	sp,sp,-12
  80b5b4:	2805883a 	mov	r2,r5
  80b5b8:	dc000015 	stw	r16,0(sp)
  80b5bc:	040020b4 	movhi	r16,130
  80b5c0:	dc400115 	stw	r17,4(sp)
  80b5c4:	300b883a 	mov	r5,r6
  80b5c8:	8421a504 	addi	r16,r16,-31084
  80b5cc:	2023883a 	mov	r17,r4
  80b5d0:	380d883a 	mov	r6,r7
  80b5d4:	1009883a 	mov	r4,r2
  80b5d8:	dfc00215 	stw	ra,8(sp)
  80b5dc:	80000015 	stw	zero,0(r16)
  80b5e0:	08126740 	call	812674 <lseek>
  80b5e4:	00ffffc4 	movi	r3,-1
  80b5e8:	10c00526 	beq	r2,r3,80b600 <_lseek_r+0x50>
  80b5ec:	dfc00217 	ldw	ra,8(sp)
  80b5f0:	dc400117 	ldw	r17,4(sp)
  80b5f4:	dc000017 	ldw	r16,0(sp)
  80b5f8:	dec00304 	addi	sp,sp,12
  80b5fc:	f800283a 	ret
  80b600:	80c00017 	ldw	r3,0(r16)
  80b604:	183ff926 	beq	r3,zero,80b5ec <__alt_mem_onchip_ram+0xff8075ec>
  80b608:	88c00015 	stw	r3,0(r17)
  80b60c:	003ff706 	br	80b5ec <__alt_mem_onchip_ram+0xff8075ec>

0080b610 <memchr>:
  80b610:	208000cc 	andi	r2,r4,3
  80b614:	280f883a 	mov	r7,r5
  80b618:	10003426 	beq	r2,zero,80b6ec <memchr+0xdc>
  80b61c:	30bfffc4 	addi	r2,r6,-1
  80b620:	30001a26 	beq	r6,zero,80b68c <memchr+0x7c>
  80b624:	20c00003 	ldbu	r3,0(r4)
  80b628:	29803fcc 	andi	r6,r5,255
  80b62c:	30c0051e 	bne	r6,r3,80b644 <memchr+0x34>
  80b630:	00001806 	br	80b694 <memchr+0x84>
  80b634:	10001526 	beq	r2,zero,80b68c <memchr+0x7c>
  80b638:	20c00003 	ldbu	r3,0(r4)
  80b63c:	10bfffc4 	addi	r2,r2,-1
  80b640:	30c01426 	beq	r6,r3,80b694 <memchr+0x84>
  80b644:	21000044 	addi	r4,r4,1
  80b648:	20c000cc 	andi	r3,r4,3
  80b64c:	183ff91e 	bne	r3,zero,80b634 <__alt_mem_onchip_ram+0xff807634>
  80b650:	020000c4 	movi	r8,3
  80b654:	40801136 	bltu	r8,r2,80b69c <memchr+0x8c>
  80b658:	10000c26 	beq	r2,zero,80b68c <memchr+0x7c>
  80b65c:	20c00003 	ldbu	r3,0(r4)
  80b660:	29403fcc 	andi	r5,r5,255
  80b664:	28c00b26 	beq	r5,r3,80b694 <memchr+0x84>
  80b668:	20c00044 	addi	r3,r4,1
  80b66c:	39803fcc 	andi	r6,r7,255
  80b670:	2089883a 	add	r4,r4,r2
  80b674:	00000306 	br	80b684 <memchr+0x74>
  80b678:	18c00044 	addi	r3,r3,1
  80b67c:	197fffc3 	ldbu	r5,-1(r3)
  80b680:	31400526 	beq	r6,r5,80b698 <memchr+0x88>
  80b684:	1805883a 	mov	r2,r3
  80b688:	20fffb1e 	bne	r4,r3,80b678 <__alt_mem_onchip_ram+0xff807678>
  80b68c:	0005883a 	mov	r2,zero
  80b690:	f800283a 	ret
  80b694:	2005883a 	mov	r2,r4
  80b698:	f800283a 	ret
  80b69c:	28c03fcc 	andi	r3,r5,255
  80b6a0:	1812923a 	slli	r9,r3,8
  80b6a4:	02ffbff4 	movhi	r11,65279
  80b6a8:	02a02074 	movhi	r10,32897
  80b6ac:	48d2b03a 	or	r9,r9,r3
  80b6b0:	4806943a 	slli	r3,r9,16
  80b6b4:	5affbfc4 	addi	r11,r11,-257
  80b6b8:	52a02004 	addi	r10,r10,-32640
  80b6bc:	48d2b03a 	or	r9,r9,r3
  80b6c0:	20c00017 	ldw	r3,0(r4)
  80b6c4:	48c6f03a 	xor	r3,r9,r3
  80b6c8:	1acd883a 	add	r6,r3,r11
  80b6cc:	00c6303a 	nor	r3,zero,r3
  80b6d0:	30c6703a 	and	r3,r6,r3
  80b6d4:	1a86703a 	and	r3,r3,r10
  80b6d8:	183fe01e 	bne	r3,zero,80b65c <__alt_mem_onchip_ram+0xff80765c>
  80b6dc:	10bfff04 	addi	r2,r2,-4
  80b6e0:	21000104 	addi	r4,r4,4
  80b6e4:	40bff636 	bltu	r8,r2,80b6c0 <__alt_mem_onchip_ram+0xff8076c0>
  80b6e8:	003fdb06 	br	80b658 <__alt_mem_onchip_ram+0xff807658>
  80b6ec:	3005883a 	mov	r2,r6
  80b6f0:	003fd706 	br	80b650 <__alt_mem_onchip_ram+0xff807650>

0080b6f4 <_Balloc>:
  80b6f4:	20801317 	ldw	r2,76(r4)
  80b6f8:	defffc04 	addi	sp,sp,-16
  80b6fc:	dc400115 	stw	r17,4(sp)
  80b700:	dc000015 	stw	r16,0(sp)
  80b704:	dfc00315 	stw	ra,12(sp)
  80b708:	dc800215 	stw	r18,8(sp)
  80b70c:	2023883a 	mov	r17,r4
  80b710:	2821883a 	mov	r16,r5
  80b714:	10000f26 	beq	r2,zero,80b754 <_Balloc+0x60>
  80b718:	8407883a 	add	r3,r16,r16
  80b71c:	18c7883a 	add	r3,r3,r3
  80b720:	10c7883a 	add	r3,r2,r3
  80b724:	18800017 	ldw	r2,0(r3)
  80b728:	10001126 	beq	r2,zero,80b770 <_Balloc+0x7c>
  80b72c:	11000017 	ldw	r4,0(r2)
  80b730:	19000015 	stw	r4,0(r3)
  80b734:	10000415 	stw	zero,16(r2)
  80b738:	10000315 	stw	zero,12(r2)
  80b73c:	dfc00317 	ldw	ra,12(sp)
  80b740:	dc800217 	ldw	r18,8(sp)
  80b744:	dc400117 	ldw	r17,4(sp)
  80b748:	dc000017 	ldw	r16,0(sp)
  80b74c:	dec00404 	addi	sp,sp,16
  80b750:	f800283a 	ret
  80b754:	01800844 	movi	r6,33
  80b758:	01400104 	movi	r5,4
  80b75c:	080e4480 	call	80e448 <_calloc_r>
  80b760:	88801315 	stw	r2,76(r17)
  80b764:	103fec1e 	bne	r2,zero,80b718 <__alt_mem_onchip_ram+0xff807718>
  80b768:	0005883a 	mov	r2,zero
  80b76c:	003ff306 	br	80b73c <__alt_mem_onchip_ram+0xff80773c>
  80b770:	01400044 	movi	r5,1
  80b774:	2c24983a 	sll	r18,r5,r16
  80b778:	8809883a 	mov	r4,r17
  80b77c:	91800144 	addi	r6,r18,5
  80b780:	318d883a 	add	r6,r6,r6
  80b784:	318d883a 	add	r6,r6,r6
  80b788:	080e4480 	call	80e448 <_calloc_r>
  80b78c:	103ff626 	beq	r2,zero,80b768 <__alt_mem_onchip_ram+0xff807768>
  80b790:	14000115 	stw	r16,4(r2)
  80b794:	14800215 	stw	r18,8(r2)
  80b798:	003fe606 	br	80b734 <__alt_mem_onchip_ram+0xff807734>

0080b79c <_Bfree>:
  80b79c:	28000826 	beq	r5,zero,80b7c0 <_Bfree+0x24>
  80b7a0:	28c00117 	ldw	r3,4(r5)
  80b7a4:	20801317 	ldw	r2,76(r4)
  80b7a8:	18c7883a 	add	r3,r3,r3
  80b7ac:	18c7883a 	add	r3,r3,r3
  80b7b0:	10c5883a 	add	r2,r2,r3
  80b7b4:	10c00017 	ldw	r3,0(r2)
  80b7b8:	28c00015 	stw	r3,0(r5)
  80b7bc:	11400015 	stw	r5,0(r2)
  80b7c0:	f800283a 	ret

0080b7c4 <__multadd>:
  80b7c4:	defff704 	addi	sp,sp,-36
  80b7c8:	dc800215 	stw	r18,8(sp)
  80b7cc:	2c800417 	ldw	r18,16(r5)
  80b7d0:	dd800615 	stw	r22,24(sp)
  80b7d4:	dd400515 	stw	r21,20(sp)
  80b7d8:	dd000415 	stw	r20,16(sp)
  80b7dc:	dcc00315 	stw	r19,12(sp)
  80b7e0:	dc400115 	stw	r17,4(sp)
  80b7e4:	dc000015 	stw	r16,0(sp)
  80b7e8:	dfc00815 	stw	ra,32(sp)
  80b7ec:	ddc00715 	stw	r23,28(sp)
  80b7f0:	2827883a 	mov	r19,r5
  80b7f4:	2029883a 	mov	r20,r4
  80b7f8:	3023883a 	mov	r17,r6
  80b7fc:	3821883a 	mov	r16,r7
  80b800:	2d400504 	addi	r21,r5,20
  80b804:	002d883a 	mov	r22,zero
  80b808:	adc00017 	ldw	r23,0(r21)
  80b80c:	880b883a 	mov	r5,r17
  80b810:	ad400104 	addi	r21,r21,4
  80b814:	b93fffcc 	andi	r4,r23,65535
  80b818:	080f5740 	call	80f574 <__mulsi3>
  80b81c:	b808d43a 	srli	r4,r23,16
  80b820:	880b883a 	mov	r5,r17
  80b824:	1421883a 	add	r16,r2,r16
  80b828:	080f5740 	call	80f574 <__mulsi3>
  80b82c:	800ed43a 	srli	r7,r16,16
  80b830:	80ffffcc 	andi	r3,r16,65535
  80b834:	b5800044 	addi	r22,r22,1
  80b838:	11c5883a 	add	r2,r2,r7
  80b83c:	100e943a 	slli	r7,r2,16
  80b840:	1020d43a 	srli	r16,r2,16
  80b844:	38c7883a 	add	r3,r7,r3
  80b848:	a8ffff15 	stw	r3,-4(r21)
  80b84c:	b4bfee16 	blt	r22,r18,80b808 <__alt_mem_onchip_ram+0xff807808>
  80b850:	80000926 	beq	r16,zero,80b878 <__multadd+0xb4>
  80b854:	98800217 	ldw	r2,8(r19)
  80b858:	9080130e 	bge	r18,r2,80b8a8 <__multadd+0xe4>
  80b85c:	90800144 	addi	r2,r18,5
  80b860:	1085883a 	add	r2,r2,r2
  80b864:	1085883a 	add	r2,r2,r2
  80b868:	9885883a 	add	r2,r19,r2
  80b86c:	14000015 	stw	r16,0(r2)
  80b870:	94800044 	addi	r18,r18,1
  80b874:	9c800415 	stw	r18,16(r19)
  80b878:	9805883a 	mov	r2,r19
  80b87c:	dfc00817 	ldw	ra,32(sp)
  80b880:	ddc00717 	ldw	r23,28(sp)
  80b884:	dd800617 	ldw	r22,24(sp)
  80b888:	dd400517 	ldw	r21,20(sp)
  80b88c:	dd000417 	ldw	r20,16(sp)
  80b890:	dcc00317 	ldw	r19,12(sp)
  80b894:	dc800217 	ldw	r18,8(sp)
  80b898:	dc400117 	ldw	r17,4(sp)
  80b89c:	dc000017 	ldw	r16,0(sp)
  80b8a0:	dec00904 	addi	sp,sp,36
  80b8a4:	f800283a 	ret
  80b8a8:	99400117 	ldw	r5,4(r19)
  80b8ac:	a009883a 	mov	r4,r20
  80b8b0:	29400044 	addi	r5,r5,1
  80b8b4:	080b6f40 	call	80b6f4 <_Balloc>
  80b8b8:	99800417 	ldw	r6,16(r19)
  80b8bc:	99400304 	addi	r5,r19,12
  80b8c0:	11000304 	addi	r4,r2,12
  80b8c4:	31800084 	addi	r6,r6,2
  80b8c8:	318d883a 	add	r6,r6,r6
  80b8cc:	318d883a 	add	r6,r6,r6
  80b8d0:	1023883a 	mov	r17,r2
  80b8d4:	0803e400 	call	803e40 <memcpy>
  80b8d8:	98000a26 	beq	r19,zero,80b904 <__multadd+0x140>
  80b8dc:	98c00117 	ldw	r3,4(r19)
  80b8e0:	a0801317 	ldw	r2,76(r20)
  80b8e4:	18c7883a 	add	r3,r3,r3
  80b8e8:	18c7883a 	add	r3,r3,r3
  80b8ec:	10c5883a 	add	r2,r2,r3
  80b8f0:	10c00017 	ldw	r3,0(r2)
  80b8f4:	98c00015 	stw	r3,0(r19)
  80b8f8:	14c00015 	stw	r19,0(r2)
  80b8fc:	8827883a 	mov	r19,r17
  80b900:	003fd606 	br	80b85c <__alt_mem_onchip_ram+0xff80785c>
  80b904:	8827883a 	mov	r19,r17
  80b908:	003fd406 	br	80b85c <__alt_mem_onchip_ram+0xff80785c>

0080b90c <__s2b>:
  80b90c:	defff904 	addi	sp,sp,-28
  80b910:	dc400115 	stw	r17,4(sp)
  80b914:	dc000015 	stw	r16,0(sp)
  80b918:	2023883a 	mov	r17,r4
  80b91c:	2821883a 	mov	r16,r5
  80b920:	39000204 	addi	r4,r7,8
  80b924:	01400244 	movi	r5,9
  80b928:	dcc00315 	stw	r19,12(sp)
  80b92c:	dc800215 	stw	r18,8(sp)
  80b930:	dfc00615 	stw	ra,24(sp)
  80b934:	dd400515 	stw	r21,20(sp)
  80b938:	dd000415 	stw	r20,16(sp)
  80b93c:	3825883a 	mov	r18,r7
  80b940:	3027883a 	mov	r19,r6
  80b944:	080f3c00 	call	80f3c0 <__divsi3>
  80b948:	00c00044 	movi	r3,1
  80b94c:	000b883a 	mov	r5,zero
  80b950:	1880030e 	bge	r3,r2,80b960 <__s2b+0x54>
  80b954:	18c7883a 	add	r3,r3,r3
  80b958:	29400044 	addi	r5,r5,1
  80b95c:	18bffd16 	blt	r3,r2,80b954 <__alt_mem_onchip_ram+0xff807954>
  80b960:	8809883a 	mov	r4,r17
  80b964:	080b6f40 	call	80b6f4 <_Balloc>
  80b968:	d8c00717 	ldw	r3,28(sp)
  80b96c:	10c00515 	stw	r3,20(r2)
  80b970:	00c00044 	movi	r3,1
  80b974:	10c00415 	stw	r3,16(r2)
  80b978:	00c00244 	movi	r3,9
  80b97c:	1cc0210e 	bge	r3,r19,80ba04 <__s2b+0xf8>
  80b980:	80eb883a 	add	r21,r16,r3
  80b984:	a829883a 	mov	r20,r21
  80b988:	84e1883a 	add	r16,r16,r19
  80b98c:	a1c00007 	ldb	r7,0(r20)
  80b990:	01800284 	movi	r6,10
  80b994:	a5000044 	addi	r20,r20,1
  80b998:	100b883a 	mov	r5,r2
  80b99c:	39fff404 	addi	r7,r7,-48
  80b9a0:	8809883a 	mov	r4,r17
  80b9a4:	080b7c40 	call	80b7c4 <__multadd>
  80b9a8:	a43ff81e 	bne	r20,r16,80b98c <__alt_mem_onchip_ram+0xff80798c>
  80b9ac:	ace1883a 	add	r16,r21,r19
  80b9b0:	843ffe04 	addi	r16,r16,-8
  80b9b4:	9c800a0e 	bge	r19,r18,80b9e0 <__s2b+0xd4>
  80b9b8:	94e5c83a 	sub	r18,r18,r19
  80b9bc:	84a5883a 	add	r18,r16,r18
  80b9c0:	81c00007 	ldb	r7,0(r16)
  80b9c4:	01800284 	movi	r6,10
  80b9c8:	84000044 	addi	r16,r16,1
  80b9cc:	100b883a 	mov	r5,r2
  80b9d0:	39fff404 	addi	r7,r7,-48
  80b9d4:	8809883a 	mov	r4,r17
  80b9d8:	080b7c40 	call	80b7c4 <__multadd>
  80b9dc:	84bff81e 	bne	r16,r18,80b9c0 <__alt_mem_onchip_ram+0xff8079c0>
  80b9e0:	dfc00617 	ldw	ra,24(sp)
  80b9e4:	dd400517 	ldw	r21,20(sp)
  80b9e8:	dd000417 	ldw	r20,16(sp)
  80b9ec:	dcc00317 	ldw	r19,12(sp)
  80b9f0:	dc800217 	ldw	r18,8(sp)
  80b9f4:	dc400117 	ldw	r17,4(sp)
  80b9f8:	dc000017 	ldw	r16,0(sp)
  80b9fc:	dec00704 	addi	sp,sp,28
  80ba00:	f800283a 	ret
  80ba04:	84000284 	addi	r16,r16,10
  80ba08:	1827883a 	mov	r19,r3
  80ba0c:	003fe906 	br	80b9b4 <__alt_mem_onchip_ram+0xff8079b4>

0080ba10 <__hi0bits>:
  80ba10:	20bfffec 	andhi	r2,r4,65535
  80ba14:	1000141e 	bne	r2,zero,80ba68 <__hi0bits+0x58>
  80ba18:	2008943a 	slli	r4,r4,16
  80ba1c:	00800404 	movi	r2,16
  80ba20:	20ffc02c 	andhi	r3,r4,65280
  80ba24:	1800021e 	bne	r3,zero,80ba30 <__hi0bits+0x20>
  80ba28:	2008923a 	slli	r4,r4,8
  80ba2c:	10800204 	addi	r2,r2,8
  80ba30:	20fc002c 	andhi	r3,r4,61440
  80ba34:	1800021e 	bne	r3,zero,80ba40 <__hi0bits+0x30>
  80ba38:	2008913a 	slli	r4,r4,4
  80ba3c:	10800104 	addi	r2,r2,4
  80ba40:	20f0002c 	andhi	r3,r4,49152
  80ba44:	1800031e 	bne	r3,zero,80ba54 <__hi0bits+0x44>
  80ba48:	2109883a 	add	r4,r4,r4
  80ba4c:	10800084 	addi	r2,r2,2
  80ba50:	2109883a 	add	r4,r4,r4
  80ba54:	20000316 	blt	r4,zero,80ba64 <__hi0bits+0x54>
  80ba58:	2110002c 	andhi	r4,r4,16384
  80ba5c:	2000041e 	bne	r4,zero,80ba70 <__hi0bits+0x60>
  80ba60:	00800804 	movi	r2,32
  80ba64:	f800283a 	ret
  80ba68:	0005883a 	mov	r2,zero
  80ba6c:	003fec06 	br	80ba20 <__alt_mem_onchip_ram+0xff807a20>
  80ba70:	10800044 	addi	r2,r2,1
  80ba74:	f800283a 	ret

0080ba78 <__lo0bits>:
  80ba78:	20c00017 	ldw	r3,0(r4)
  80ba7c:	188001cc 	andi	r2,r3,7
  80ba80:	10000826 	beq	r2,zero,80baa4 <__lo0bits+0x2c>
  80ba84:	1880004c 	andi	r2,r3,1
  80ba88:	1000211e 	bne	r2,zero,80bb10 <__lo0bits+0x98>
  80ba8c:	1880008c 	andi	r2,r3,2
  80ba90:	1000211e 	bne	r2,zero,80bb18 <__lo0bits+0xa0>
  80ba94:	1806d0ba 	srli	r3,r3,2
  80ba98:	00800084 	movi	r2,2
  80ba9c:	20c00015 	stw	r3,0(r4)
  80baa0:	f800283a 	ret
  80baa4:	18bfffcc 	andi	r2,r3,65535
  80baa8:	10001326 	beq	r2,zero,80baf8 <__lo0bits+0x80>
  80baac:	0005883a 	mov	r2,zero
  80bab0:	19403fcc 	andi	r5,r3,255
  80bab4:	2800021e 	bne	r5,zero,80bac0 <__lo0bits+0x48>
  80bab8:	1806d23a 	srli	r3,r3,8
  80babc:	10800204 	addi	r2,r2,8
  80bac0:	194003cc 	andi	r5,r3,15
  80bac4:	2800021e 	bne	r5,zero,80bad0 <__lo0bits+0x58>
  80bac8:	1806d13a 	srli	r3,r3,4
  80bacc:	10800104 	addi	r2,r2,4
  80bad0:	194000cc 	andi	r5,r3,3
  80bad4:	2800021e 	bne	r5,zero,80bae0 <__lo0bits+0x68>
  80bad8:	1806d0ba 	srli	r3,r3,2
  80badc:	10800084 	addi	r2,r2,2
  80bae0:	1940004c 	andi	r5,r3,1
  80bae4:	2800081e 	bne	r5,zero,80bb08 <__lo0bits+0x90>
  80bae8:	1806d07a 	srli	r3,r3,1
  80baec:	1800051e 	bne	r3,zero,80bb04 <__lo0bits+0x8c>
  80baf0:	00800804 	movi	r2,32
  80baf4:	f800283a 	ret
  80baf8:	1806d43a 	srli	r3,r3,16
  80bafc:	00800404 	movi	r2,16
  80bb00:	003feb06 	br	80bab0 <__alt_mem_onchip_ram+0xff807ab0>
  80bb04:	10800044 	addi	r2,r2,1
  80bb08:	20c00015 	stw	r3,0(r4)
  80bb0c:	f800283a 	ret
  80bb10:	0005883a 	mov	r2,zero
  80bb14:	f800283a 	ret
  80bb18:	1806d07a 	srli	r3,r3,1
  80bb1c:	00800044 	movi	r2,1
  80bb20:	20c00015 	stw	r3,0(r4)
  80bb24:	f800283a 	ret

0080bb28 <__i2b>:
  80bb28:	defffd04 	addi	sp,sp,-12
  80bb2c:	dc000015 	stw	r16,0(sp)
  80bb30:	04000044 	movi	r16,1
  80bb34:	dc400115 	stw	r17,4(sp)
  80bb38:	2823883a 	mov	r17,r5
  80bb3c:	800b883a 	mov	r5,r16
  80bb40:	dfc00215 	stw	ra,8(sp)
  80bb44:	080b6f40 	call	80b6f4 <_Balloc>
  80bb48:	14400515 	stw	r17,20(r2)
  80bb4c:	14000415 	stw	r16,16(r2)
  80bb50:	dfc00217 	ldw	ra,8(sp)
  80bb54:	dc400117 	ldw	r17,4(sp)
  80bb58:	dc000017 	ldw	r16,0(sp)
  80bb5c:	dec00304 	addi	sp,sp,12
  80bb60:	f800283a 	ret

0080bb64 <__multiply>:
  80bb64:	deffef04 	addi	sp,sp,-68
  80bb68:	dc400815 	stw	r17,32(sp)
  80bb6c:	dc000715 	stw	r16,28(sp)
  80bb70:	34400417 	ldw	r17,16(r6)
  80bb74:	2c000417 	ldw	r16,16(r5)
  80bb78:	dd800d15 	stw	r22,52(sp)
  80bb7c:	dc800915 	stw	r18,36(sp)
  80bb80:	dfc01015 	stw	ra,64(sp)
  80bb84:	df000f15 	stw	fp,60(sp)
  80bb88:	ddc00e15 	stw	r23,56(sp)
  80bb8c:	dd400c15 	stw	r21,48(sp)
  80bb90:	dd000b15 	stw	r20,44(sp)
  80bb94:	dcc00a15 	stw	r19,40(sp)
  80bb98:	2825883a 	mov	r18,r5
  80bb9c:	302d883a 	mov	r22,r6
  80bba0:	8440050e 	bge	r16,r17,80bbb8 <__multiply+0x54>
  80bba4:	8007883a 	mov	r3,r16
  80bba8:	3025883a 	mov	r18,r6
  80bbac:	8821883a 	mov	r16,r17
  80bbb0:	282d883a 	mov	r22,r5
  80bbb4:	1823883a 	mov	r17,r3
  80bbb8:	90800217 	ldw	r2,8(r18)
  80bbbc:	8447883a 	add	r3,r16,r17
  80bbc0:	d8c00215 	stw	r3,8(sp)
  80bbc4:	91400117 	ldw	r5,4(r18)
  80bbc8:	10c0010e 	bge	r2,r3,80bbd0 <__multiply+0x6c>
  80bbcc:	29400044 	addi	r5,r5,1
  80bbd0:	080b6f40 	call	80b6f4 <_Balloc>
  80bbd4:	d8c00217 	ldw	r3,8(sp)
  80bbd8:	d8800615 	stw	r2,24(sp)
  80bbdc:	18eb883a 	add	r21,r3,r3
  80bbe0:	ad6b883a 	add	r21,r21,r21
  80bbe4:	10c00504 	addi	r3,r2,20
  80bbe8:	1d6b883a 	add	r21,r3,r21
  80bbec:	d8c00115 	stw	r3,4(sp)
  80bbf0:	dd400315 	stw	r21,12(sp)
  80bbf4:	1805883a 	mov	r2,r3
  80bbf8:	1d40042e 	bgeu	r3,r21,80bc0c <__multiply+0xa8>
  80bbfc:	d8c00317 	ldw	r3,12(sp)
  80bc00:	10000015 	stw	zero,0(r2)
  80bc04:	10800104 	addi	r2,r2,4
  80bc08:	10fffc36 	bltu	r2,r3,80bbfc <__alt_mem_onchip_ram+0xff807bfc>
  80bc0c:	8c63883a 	add	r17,r17,r17
  80bc10:	b5800504 	addi	r22,r22,20
  80bc14:	8c63883a 	add	r17,r17,r17
  80bc18:	94800504 	addi	r18,r18,20
  80bc1c:	8421883a 	add	r16,r16,r16
  80bc20:	b463883a 	add	r17,r22,r17
  80bc24:	8421883a 	add	r16,r16,r16
  80bc28:	dd800015 	stw	r22,0(sp)
  80bc2c:	dc800415 	stw	r18,16(sp)
  80bc30:	dc400515 	stw	r17,20(sp)
  80bc34:	9429883a 	add	r20,r18,r16
  80bc38:	b4404f2e 	bgeu	r22,r17,80bd78 <__multiply+0x214>
  80bc3c:	d8c00017 	ldw	r3,0(sp)
  80bc40:	1c800017 	ldw	r18,0(r3)
  80bc44:	947fffcc 	andi	r17,r18,65535
  80bc48:	88001e26 	beq	r17,zero,80bcc4 <__multiply+0x160>
  80bc4c:	dd800117 	ldw	r22,4(sp)
  80bc50:	dd400417 	ldw	r21,16(sp)
  80bc54:	0027883a 	mov	r19,zero
  80bc58:	ac800017 	ldw	r18,0(r21)
  80bc5c:	b4000017 	ldw	r16,0(r22)
  80bc60:	880b883a 	mov	r5,r17
  80bc64:	913fffcc 	andi	r4,r18,65535
  80bc68:	080f5740 	call	80f574 <__mulsi3>
  80bc6c:	9008d43a 	srli	r4,r18,16
  80bc70:	84bfffcc 	andi	r18,r16,65535
  80bc74:	1485883a 	add	r2,r2,r18
  80bc78:	14e5883a 	add	r18,r2,r19
  80bc7c:	8020d43a 	srli	r16,r16,16
  80bc80:	9026d43a 	srli	r19,r18,16
  80bc84:	880b883a 	mov	r5,r17
  80bc88:	080f5740 	call	80f574 <__mulsi3>
  80bc8c:	1405883a 	add	r2,r2,r16
  80bc90:	14e1883a 	add	r16,r2,r19
  80bc94:	90ffffcc 	andi	r3,r18,65535
  80bc98:	8024943a 	slli	r18,r16,16
  80bc9c:	ad400104 	addi	r21,r21,4
  80bca0:	b005883a 	mov	r2,r22
  80bca4:	90c6b03a 	or	r3,r18,r3
  80bca8:	b0c00015 	stw	r3,0(r22)
  80bcac:	8026d43a 	srli	r19,r16,16
  80bcb0:	b5800104 	addi	r22,r22,4
  80bcb4:	ad3fe836 	bltu	r21,r20,80bc58 <__alt_mem_onchip_ram+0xff807c58>
  80bcb8:	d8c00017 	ldw	r3,0(sp)
  80bcbc:	14c00115 	stw	r19,4(r2)
  80bcc0:	1c800017 	ldw	r18,0(r3)
  80bcc4:	9024d43a 	srli	r18,r18,16
  80bcc8:	90002226 	beq	r18,zero,80bd54 <__multiply+0x1f0>
  80bccc:	d8c00117 	ldw	r3,4(sp)
  80bcd0:	dd800417 	ldw	r22,16(sp)
  80bcd4:	002f883a 	mov	r23,zero
  80bcd8:	1f000017 	ldw	fp,0(r3)
  80bcdc:	1823883a 	mov	r17,r3
  80bce0:	182b883a 	mov	r21,r3
  80bce4:	e021883a 	mov	r16,fp
  80bce8:	00000106 	br	80bcf0 <__multiply+0x18c>
  80bcec:	982b883a 	mov	r21,r19
  80bcf0:	b100000b 	ldhu	r4,0(r22)
  80bcf4:	8020d43a 	srli	r16,r16,16
  80bcf8:	900b883a 	mov	r5,r18
  80bcfc:	080f5740 	call	80f574 <__mulsi3>
  80bd00:	1405883a 	add	r2,r2,r16
  80bd04:	15ef883a 	add	r23,r2,r23
  80bd08:	b804943a 	slli	r2,r23,16
  80bd0c:	e0ffffcc 	andi	r3,fp,65535
  80bd10:	8c400104 	addi	r17,r17,4
  80bd14:	10c6b03a 	or	r3,r2,r3
  80bd18:	88ffff15 	stw	r3,-4(r17)
  80bd1c:	b5800104 	addi	r22,r22,4
  80bd20:	b13fff17 	ldw	r4,-4(r22)
  80bd24:	acc00104 	addi	r19,r21,4
  80bd28:	900b883a 	mov	r5,r18
  80bd2c:	2008d43a 	srli	r4,r4,16
  80bd30:	9c000017 	ldw	r16,0(r19)
  80bd34:	080f5740 	call	80f574 <__mulsi3>
  80bd38:	b806d43a 	srli	r3,r23,16
  80bd3c:	813fffcc 	andi	r4,r16,65535
  80bd40:	1105883a 	add	r2,r2,r4
  80bd44:	10f9883a 	add	fp,r2,r3
  80bd48:	e02ed43a 	srli	r23,fp,16
  80bd4c:	b53fe736 	bltu	r22,r20,80bcec <__alt_mem_onchip_ram+0xff807cec>
  80bd50:	af000115 	stw	fp,4(r21)
  80bd54:	d8c00017 	ldw	r3,0(sp)
  80bd58:	d9000517 	ldw	r4,20(sp)
  80bd5c:	18c00104 	addi	r3,r3,4
  80bd60:	d8c00015 	stw	r3,0(sp)
  80bd64:	d8c00117 	ldw	r3,4(sp)
  80bd68:	18c00104 	addi	r3,r3,4
  80bd6c:	d8c00115 	stw	r3,4(sp)
  80bd70:	d8c00017 	ldw	r3,0(sp)
  80bd74:	193fb136 	bltu	r3,r4,80bc3c <__alt_mem_onchip_ram+0xff807c3c>
  80bd78:	d8c00217 	ldw	r3,8(sp)
  80bd7c:	00c00c0e 	bge	zero,r3,80bdb0 <__multiply+0x24c>
  80bd80:	d8c00317 	ldw	r3,12(sp)
  80bd84:	18bfff17 	ldw	r2,-4(r3)
  80bd88:	1d7fff04 	addi	r21,r3,-4
  80bd8c:	10000326 	beq	r2,zero,80bd9c <__multiply+0x238>
  80bd90:	00000706 	br	80bdb0 <__multiply+0x24c>
  80bd94:	a8800017 	ldw	r2,0(r21)
  80bd98:	1000051e 	bne	r2,zero,80bdb0 <__multiply+0x24c>
  80bd9c:	d8c00217 	ldw	r3,8(sp)
  80bda0:	ad7fff04 	addi	r21,r21,-4
  80bda4:	18ffffc4 	addi	r3,r3,-1
  80bda8:	d8c00215 	stw	r3,8(sp)
  80bdac:	183ff91e 	bne	r3,zero,80bd94 <__alt_mem_onchip_ram+0xff807d94>
  80bdb0:	d8c00617 	ldw	r3,24(sp)
  80bdb4:	d9000217 	ldw	r4,8(sp)
  80bdb8:	1805883a 	mov	r2,r3
  80bdbc:	19000415 	stw	r4,16(r3)
  80bdc0:	dfc01017 	ldw	ra,64(sp)
  80bdc4:	df000f17 	ldw	fp,60(sp)
  80bdc8:	ddc00e17 	ldw	r23,56(sp)
  80bdcc:	dd800d17 	ldw	r22,52(sp)
  80bdd0:	dd400c17 	ldw	r21,48(sp)
  80bdd4:	dd000b17 	ldw	r20,44(sp)
  80bdd8:	dcc00a17 	ldw	r19,40(sp)
  80bddc:	dc800917 	ldw	r18,36(sp)
  80bde0:	dc400817 	ldw	r17,32(sp)
  80bde4:	dc000717 	ldw	r16,28(sp)
  80bde8:	dec01104 	addi	sp,sp,68
  80bdec:	f800283a 	ret

0080bdf0 <__pow5mult>:
  80bdf0:	defffa04 	addi	sp,sp,-24
  80bdf4:	dcc00315 	stw	r19,12(sp)
  80bdf8:	dc000015 	stw	r16,0(sp)
  80bdfc:	dfc00515 	stw	ra,20(sp)
  80be00:	dd000415 	stw	r20,16(sp)
  80be04:	dc800215 	stw	r18,8(sp)
  80be08:	dc400115 	stw	r17,4(sp)
  80be0c:	308000cc 	andi	r2,r6,3
  80be10:	3021883a 	mov	r16,r6
  80be14:	2027883a 	mov	r19,r4
  80be18:	10002f1e 	bne	r2,zero,80bed8 <__pow5mult+0xe8>
  80be1c:	2825883a 	mov	r18,r5
  80be20:	8021d0ba 	srai	r16,r16,2
  80be24:	80001a26 	beq	r16,zero,80be90 <__pow5mult+0xa0>
  80be28:	9c401217 	ldw	r17,72(r19)
  80be2c:	8800061e 	bne	r17,zero,80be48 <__pow5mult+0x58>
  80be30:	00003406 	br	80bf04 <__pow5mult+0x114>
  80be34:	8021d07a 	srai	r16,r16,1
  80be38:	80001526 	beq	r16,zero,80be90 <__pow5mult+0xa0>
  80be3c:	88800017 	ldw	r2,0(r17)
  80be40:	10001c26 	beq	r2,zero,80beb4 <__pow5mult+0xc4>
  80be44:	1023883a 	mov	r17,r2
  80be48:	8080004c 	andi	r2,r16,1
  80be4c:	103ff926 	beq	r2,zero,80be34 <__alt_mem_onchip_ram+0xff807e34>
  80be50:	880d883a 	mov	r6,r17
  80be54:	900b883a 	mov	r5,r18
  80be58:	9809883a 	mov	r4,r19
  80be5c:	080bb640 	call	80bb64 <__multiply>
  80be60:	90001b26 	beq	r18,zero,80bed0 <__pow5mult+0xe0>
  80be64:	91000117 	ldw	r4,4(r18)
  80be68:	98c01317 	ldw	r3,76(r19)
  80be6c:	8021d07a 	srai	r16,r16,1
  80be70:	2109883a 	add	r4,r4,r4
  80be74:	2109883a 	add	r4,r4,r4
  80be78:	1907883a 	add	r3,r3,r4
  80be7c:	19000017 	ldw	r4,0(r3)
  80be80:	91000015 	stw	r4,0(r18)
  80be84:	1c800015 	stw	r18,0(r3)
  80be88:	1025883a 	mov	r18,r2
  80be8c:	803feb1e 	bne	r16,zero,80be3c <__alt_mem_onchip_ram+0xff807e3c>
  80be90:	9005883a 	mov	r2,r18
  80be94:	dfc00517 	ldw	ra,20(sp)
  80be98:	dd000417 	ldw	r20,16(sp)
  80be9c:	dcc00317 	ldw	r19,12(sp)
  80bea0:	dc800217 	ldw	r18,8(sp)
  80bea4:	dc400117 	ldw	r17,4(sp)
  80bea8:	dc000017 	ldw	r16,0(sp)
  80beac:	dec00604 	addi	sp,sp,24
  80beb0:	f800283a 	ret
  80beb4:	880d883a 	mov	r6,r17
  80beb8:	880b883a 	mov	r5,r17
  80bebc:	9809883a 	mov	r4,r19
  80bec0:	080bb640 	call	80bb64 <__multiply>
  80bec4:	88800015 	stw	r2,0(r17)
  80bec8:	10000015 	stw	zero,0(r2)
  80becc:	003fdd06 	br	80be44 <__alt_mem_onchip_ram+0xff807e44>
  80bed0:	1025883a 	mov	r18,r2
  80bed4:	003fd706 	br	80be34 <__alt_mem_onchip_ram+0xff807e34>
  80bed8:	10bfffc4 	addi	r2,r2,-1
  80bedc:	1085883a 	add	r2,r2,r2
  80bee0:	00c02074 	movhi	r3,129
  80bee4:	18d38b04 	addi	r3,r3,20012
  80bee8:	1085883a 	add	r2,r2,r2
  80beec:	1885883a 	add	r2,r3,r2
  80bef0:	11800017 	ldw	r6,0(r2)
  80bef4:	000f883a 	mov	r7,zero
  80bef8:	080b7c40 	call	80b7c4 <__multadd>
  80befc:	1025883a 	mov	r18,r2
  80bf00:	003fc706 	br	80be20 <__alt_mem_onchip_ram+0xff807e20>
  80bf04:	05000044 	movi	r20,1
  80bf08:	a00b883a 	mov	r5,r20
  80bf0c:	9809883a 	mov	r4,r19
  80bf10:	080b6f40 	call	80b6f4 <_Balloc>
  80bf14:	1023883a 	mov	r17,r2
  80bf18:	00809c44 	movi	r2,625
  80bf1c:	88800515 	stw	r2,20(r17)
  80bf20:	8d000415 	stw	r20,16(r17)
  80bf24:	9c401215 	stw	r17,72(r19)
  80bf28:	88000015 	stw	zero,0(r17)
  80bf2c:	003fc606 	br	80be48 <__alt_mem_onchip_ram+0xff807e48>

0080bf30 <__lshift>:
  80bf30:	defff904 	addi	sp,sp,-28
  80bf34:	dd400515 	stw	r21,20(sp)
  80bf38:	dcc00315 	stw	r19,12(sp)
  80bf3c:	302bd17a 	srai	r21,r6,5
  80bf40:	2cc00417 	ldw	r19,16(r5)
  80bf44:	28800217 	ldw	r2,8(r5)
  80bf48:	dd000415 	stw	r20,16(sp)
  80bf4c:	ace7883a 	add	r19,r21,r19
  80bf50:	dc800215 	stw	r18,8(sp)
  80bf54:	dc400115 	stw	r17,4(sp)
  80bf58:	dc000015 	stw	r16,0(sp)
  80bf5c:	dfc00615 	stw	ra,24(sp)
  80bf60:	9c000044 	addi	r16,r19,1
  80bf64:	2823883a 	mov	r17,r5
  80bf68:	3029883a 	mov	r20,r6
  80bf6c:	2025883a 	mov	r18,r4
  80bf70:	29400117 	ldw	r5,4(r5)
  80bf74:	1400030e 	bge	r2,r16,80bf84 <__lshift+0x54>
  80bf78:	1085883a 	add	r2,r2,r2
  80bf7c:	29400044 	addi	r5,r5,1
  80bf80:	143ffd16 	blt	r2,r16,80bf78 <__alt_mem_onchip_ram+0xff807f78>
  80bf84:	9009883a 	mov	r4,r18
  80bf88:	080b6f40 	call	80b6f4 <_Balloc>
  80bf8c:	10c00504 	addi	r3,r2,20
  80bf90:	0540070e 	bge	zero,r21,80bfb0 <__lshift+0x80>
  80bf94:	ad6b883a 	add	r21,r21,r21
  80bf98:	ad6b883a 	add	r21,r21,r21
  80bf9c:	1809883a 	mov	r4,r3
  80bfa0:	1d47883a 	add	r3,r3,r21
  80bfa4:	20000015 	stw	zero,0(r4)
  80bfa8:	21000104 	addi	r4,r4,4
  80bfac:	193ffd1e 	bne	r3,r4,80bfa4 <__alt_mem_onchip_ram+0xff807fa4>
  80bfb0:	8a000417 	ldw	r8,16(r17)
  80bfb4:	89000504 	addi	r4,r17,20
  80bfb8:	a18007cc 	andi	r6,r20,31
  80bfbc:	4211883a 	add	r8,r8,r8
  80bfc0:	4211883a 	add	r8,r8,r8
  80bfc4:	2211883a 	add	r8,r4,r8
  80bfc8:	30002326 	beq	r6,zero,80c058 <__lshift+0x128>
  80bfcc:	02400804 	movi	r9,32
  80bfd0:	4993c83a 	sub	r9,r9,r6
  80bfd4:	000b883a 	mov	r5,zero
  80bfd8:	21c00017 	ldw	r7,0(r4)
  80bfdc:	1815883a 	mov	r10,r3
  80bfe0:	18c00104 	addi	r3,r3,4
  80bfe4:	398e983a 	sll	r7,r7,r6
  80bfe8:	21000104 	addi	r4,r4,4
  80bfec:	394ab03a 	or	r5,r7,r5
  80bff0:	197fff15 	stw	r5,-4(r3)
  80bff4:	217fff17 	ldw	r5,-4(r4)
  80bff8:	2a4ad83a 	srl	r5,r5,r9
  80bffc:	223ff636 	bltu	r4,r8,80bfd8 <__alt_mem_onchip_ram+0xff807fd8>
  80c000:	51400115 	stw	r5,4(r10)
  80c004:	28001a1e 	bne	r5,zero,80c070 <__lshift+0x140>
  80c008:	843fffc4 	addi	r16,r16,-1
  80c00c:	14000415 	stw	r16,16(r2)
  80c010:	88000826 	beq	r17,zero,80c034 <__lshift+0x104>
  80c014:	89000117 	ldw	r4,4(r17)
  80c018:	90c01317 	ldw	r3,76(r18)
  80c01c:	2109883a 	add	r4,r4,r4
  80c020:	2109883a 	add	r4,r4,r4
  80c024:	1907883a 	add	r3,r3,r4
  80c028:	19000017 	ldw	r4,0(r3)
  80c02c:	89000015 	stw	r4,0(r17)
  80c030:	1c400015 	stw	r17,0(r3)
  80c034:	dfc00617 	ldw	ra,24(sp)
  80c038:	dd400517 	ldw	r21,20(sp)
  80c03c:	dd000417 	ldw	r20,16(sp)
  80c040:	dcc00317 	ldw	r19,12(sp)
  80c044:	dc800217 	ldw	r18,8(sp)
  80c048:	dc400117 	ldw	r17,4(sp)
  80c04c:	dc000017 	ldw	r16,0(sp)
  80c050:	dec00704 	addi	sp,sp,28
  80c054:	f800283a 	ret
  80c058:	21400017 	ldw	r5,0(r4)
  80c05c:	18c00104 	addi	r3,r3,4
  80c060:	21000104 	addi	r4,r4,4
  80c064:	197fff15 	stw	r5,-4(r3)
  80c068:	223ffb36 	bltu	r4,r8,80c058 <__alt_mem_onchip_ram+0xff808058>
  80c06c:	003fe606 	br	80c008 <__alt_mem_onchip_ram+0xff808008>
  80c070:	9c000084 	addi	r16,r19,2
  80c074:	003fe406 	br	80c008 <__alt_mem_onchip_ram+0xff808008>

0080c078 <__mcmp>:
  80c078:	20800417 	ldw	r2,16(r4)
  80c07c:	28c00417 	ldw	r3,16(r5)
  80c080:	10c5c83a 	sub	r2,r2,r3
  80c084:	1000111e 	bne	r2,zero,80c0cc <__mcmp+0x54>
  80c088:	18c7883a 	add	r3,r3,r3
  80c08c:	18c7883a 	add	r3,r3,r3
  80c090:	21000504 	addi	r4,r4,20
  80c094:	29400504 	addi	r5,r5,20
  80c098:	20c5883a 	add	r2,r4,r3
  80c09c:	28cb883a 	add	r5,r5,r3
  80c0a0:	00000106 	br	80c0a8 <__mcmp+0x30>
  80c0a4:	20800a2e 	bgeu	r4,r2,80c0d0 <__mcmp+0x58>
  80c0a8:	10bfff04 	addi	r2,r2,-4
  80c0ac:	297fff04 	addi	r5,r5,-4
  80c0b0:	11800017 	ldw	r6,0(r2)
  80c0b4:	28c00017 	ldw	r3,0(r5)
  80c0b8:	30fffa26 	beq	r6,r3,80c0a4 <__alt_mem_onchip_ram+0xff8080a4>
  80c0bc:	30c00236 	bltu	r6,r3,80c0c8 <__mcmp+0x50>
  80c0c0:	00800044 	movi	r2,1
  80c0c4:	f800283a 	ret
  80c0c8:	00bfffc4 	movi	r2,-1
  80c0cc:	f800283a 	ret
  80c0d0:	0005883a 	mov	r2,zero
  80c0d4:	f800283a 	ret

0080c0d8 <__mdiff>:
  80c0d8:	28c00417 	ldw	r3,16(r5)
  80c0dc:	30800417 	ldw	r2,16(r6)
  80c0e0:	defffa04 	addi	sp,sp,-24
  80c0e4:	dcc00315 	stw	r19,12(sp)
  80c0e8:	dc800215 	stw	r18,8(sp)
  80c0ec:	dfc00515 	stw	ra,20(sp)
  80c0f0:	dd000415 	stw	r20,16(sp)
  80c0f4:	dc400115 	stw	r17,4(sp)
  80c0f8:	dc000015 	stw	r16,0(sp)
  80c0fc:	1887c83a 	sub	r3,r3,r2
  80c100:	2825883a 	mov	r18,r5
  80c104:	3027883a 	mov	r19,r6
  80c108:	1800141e 	bne	r3,zero,80c15c <__mdiff+0x84>
  80c10c:	1085883a 	add	r2,r2,r2
  80c110:	1085883a 	add	r2,r2,r2
  80c114:	2a000504 	addi	r8,r5,20
  80c118:	34000504 	addi	r16,r6,20
  80c11c:	4087883a 	add	r3,r8,r2
  80c120:	8085883a 	add	r2,r16,r2
  80c124:	00000106 	br	80c12c <__mdiff+0x54>
  80c128:	40c0592e 	bgeu	r8,r3,80c290 <__mdiff+0x1b8>
  80c12c:	18ffff04 	addi	r3,r3,-4
  80c130:	10bfff04 	addi	r2,r2,-4
  80c134:	19c00017 	ldw	r7,0(r3)
  80c138:	11400017 	ldw	r5,0(r2)
  80c13c:	397ffa26 	beq	r7,r5,80c128 <__alt_mem_onchip_ram+0xff808128>
  80c140:	3940592e 	bgeu	r7,r5,80c2a8 <__mdiff+0x1d0>
  80c144:	9005883a 	mov	r2,r18
  80c148:	4023883a 	mov	r17,r8
  80c14c:	9825883a 	mov	r18,r19
  80c150:	05000044 	movi	r20,1
  80c154:	1027883a 	mov	r19,r2
  80c158:	00000406 	br	80c16c <__mdiff+0x94>
  80c15c:	18005616 	blt	r3,zero,80c2b8 <__mdiff+0x1e0>
  80c160:	34400504 	addi	r17,r6,20
  80c164:	2c000504 	addi	r16,r5,20
  80c168:	0029883a 	mov	r20,zero
  80c16c:	91400117 	ldw	r5,4(r18)
  80c170:	080b6f40 	call	80b6f4 <_Balloc>
  80c174:	92400417 	ldw	r9,16(r18)
  80c178:	9b000417 	ldw	r12,16(r19)
  80c17c:	12c00504 	addi	r11,r2,20
  80c180:	4a51883a 	add	r8,r9,r9
  80c184:	6319883a 	add	r12,r12,r12
  80c188:	4211883a 	add	r8,r8,r8
  80c18c:	6319883a 	add	r12,r12,r12
  80c190:	15000315 	stw	r20,12(r2)
  80c194:	8211883a 	add	r8,r16,r8
  80c198:	8b19883a 	add	r12,r17,r12
  80c19c:	0007883a 	mov	r3,zero
  80c1a0:	81400017 	ldw	r5,0(r16)
  80c1a4:	89c00017 	ldw	r7,0(r17)
  80c1a8:	59800104 	addi	r6,r11,4
  80c1ac:	293fffcc 	andi	r4,r5,65535
  80c1b0:	20c7883a 	add	r3,r4,r3
  80c1b4:	393fffcc 	andi	r4,r7,65535
  80c1b8:	1909c83a 	sub	r4,r3,r4
  80c1bc:	280ad43a 	srli	r5,r5,16
  80c1c0:	380ed43a 	srli	r7,r7,16
  80c1c4:	2007d43a 	srai	r3,r4,16
  80c1c8:	213fffcc 	andi	r4,r4,65535
  80c1cc:	29cbc83a 	sub	r5,r5,r7
  80c1d0:	28c7883a 	add	r3,r5,r3
  80c1d4:	180a943a 	slli	r5,r3,16
  80c1d8:	8c400104 	addi	r17,r17,4
  80c1dc:	84000104 	addi	r16,r16,4
  80c1e0:	2908b03a 	or	r4,r5,r4
  80c1e4:	59000015 	stw	r4,0(r11)
  80c1e8:	1807d43a 	srai	r3,r3,16
  80c1ec:	3015883a 	mov	r10,r6
  80c1f0:	3017883a 	mov	r11,r6
  80c1f4:	8b3fea36 	bltu	r17,r12,80c1a0 <__alt_mem_onchip_ram+0xff8081a0>
  80c1f8:	8200162e 	bgeu	r16,r8,80c254 <__mdiff+0x17c>
  80c1fc:	8017883a 	mov	r11,r16
  80c200:	59400017 	ldw	r5,0(r11)
  80c204:	31800104 	addi	r6,r6,4
  80c208:	5ac00104 	addi	r11,r11,4
  80c20c:	293fffcc 	andi	r4,r5,65535
  80c210:	20c7883a 	add	r3,r4,r3
  80c214:	280ed43a 	srli	r7,r5,16
  80c218:	180bd43a 	srai	r5,r3,16
  80c21c:	193fffcc 	andi	r4,r3,65535
  80c220:	3947883a 	add	r3,r7,r5
  80c224:	180a943a 	slli	r5,r3,16
  80c228:	1807d43a 	srai	r3,r3,16
  80c22c:	2908b03a 	or	r4,r5,r4
  80c230:	313fff15 	stw	r4,-4(r6)
  80c234:	5a3ff236 	bltu	r11,r8,80c200 <__alt_mem_onchip_ram+0xff808200>
  80c238:	0406303a 	nor	r3,zero,r16
  80c23c:	1a07883a 	add	r3,r3,r8
  80c240:	1806d0ba 	srli	r3,r3,2
  80c244:	18c00044 	addi	r3,r3,1
  80c248:	18c7883a 	add	r3,r3,r3
  80c24c:	18c7883a 	add	r3,r3,r3
  80c250:	50d5883a 	add	r10,r10,r3
  80c254:	50ffff04 	addi	r3,r10,-4
  80c258:	2000041e 	bne	r4,zero,80c26c <__mdiff+0x194>
  80c25c:	18ffff04 	addi	r3,r3,-4
  80c260:	19000017 	ldw	r4,0(r3)
  80c264:	4a7fffc4 	addi	r9,r9,-1
  80c268:	203ffc26 	beq	r4,zero,80c25c <__alt_mem_onchip_ram+0xff80825c>
  80c26c:	12400415 	stw	r9,16(r2)
  80c270:	dfc00517 	ldw	ra,20(sp)
  80c274:	dd000417 	ldw	r20,16(sp)
  80c278:	dcc00317 	ldw	r19,12(sp)
  80c27c:	dc800217 	ldw	r18,8(sp)
  80c280:	dc400117 	ldw	r17,4(sp)
  80c284:	dc000017 	ldw	r16,0(sp)
  80c288:	dec00604 	addi	sp,sp,24
  80c28c:	f800283a 	ret
  80c290:	000b883a 	mov	r5,zero
  80c294:	080b6f40 	call	80b6f4 <_Balloc>
  80c298:	00c00044 	movi	r3,1
  80c29c:	10c00415 	stw	r3,16(r2)
  80c2a0:	10000515 	stw	zero,20(r2)
  80c2a4:	003ff206 	br	80c270 <__alt_mem_onchip_ram+0xff808270>
  80c2a8:	8023883a 	mov	r17,r16
  80c2ac:	0029883a 	mov	r20,zero
  80c2b0:	4021883a 	mov	r16,r8
  80c2b4:	003fad06 	br	80c16c <__alt_mem_onchip_ram+0xff80816c>
  80c2b8:	9005883a 	mov	r2,r18
  80c2bc:	94400504 	addi	r17,r18,20
  80c2c0:	9c000504 	addi	r16,r19,20
  80c2c4:	9825883a 	mov	r18,r19
  80c2c8:	05000044 	movi	r20,1
  80c2cc:	1027883a 	mov	r19,r2
  80c2d0:	003fa606 	br	80c16c <__alt_mem_onchip_ram+0xff80816c>

0080c2d4 <__ulp>:
  80c2d4:	295ffc2c 	andhi	r5,r5,32752
  80c2d8:	00bf3034 	movhi	r2,64704
  80c2dc:	2887883a 	add	r3,r5,r2
  80c2e0:	00c0020e 	bge	zero,r3,80c2ec <__ulp+0x18>
  80c2e4:	0005883a 	mov	r2,zero
  80c2e8:	f800283a 	ret
  80c2ec:	00c7c83a 	sub	r3,zero,r3
  80c2f0:	1807d53a 	srai	r3,r3,20
  80c2f4:	008004c4 	movi	r2,19
  80c2f8:	10c00b0e 	bge	r2,r3,80c328 <__ulp+0x54>
  80c2fc:	18bffb04 	addi	r2,r3,-20
  80c300:	01000784 	movi	r4,30
  80c304:	0007883a 	mov	r3,zero
  80c308:	20800516 	blt	r4,r2,80c320 <__ulp+0x4c>
  80c30c:	010007c4 	movi	r4,31
  80c310:	2089c83a 	sub	r4,r4,r2
  80c314:	00800044 	movi	r2,1
  80c318:	1104983a 	sll	r2,r2,r4
  80c31c:	f800283a 	ret
  80c320:	00800044 	movi	r2,1
  80c324:	f800283a 	ret
  80c328:	01400234 	movhi	r5,8
  80c32c:	28c7d83a 	sra	r3,r5,r3
  80c330:	0005883a 	mov	r2,zero
  80c334:	f800283a 	ret

0080c338 <__b2d>:
  80c338:	defffa04 	addi	sp,sp,-24
  80c33c:	dc000015 	stw	r16,0(sp)
  80c340:	24000417 	ldw	r16,16(r4)
  80c344:	dc400115 	stw	r17,4(sp)
  80c348:	24400504 	addi	r17,r4,20
  80c34c:	8421883a 	add	r16,r16,r16
  80c350:	8421883a 	add	r16,r16,r16
  80c354:	8c21883a 	add	r16,r17,r16
  80c358:	dc800215 	stw	r18,8(sp)
  80c35c:	84bfff17 	ldw	r18,-4(r16)
  80c360:	dd000415 	stw	r20,16(sp)
  80c364:	dcc00315 	stw	r19,12(sp)
  80c368:	9009883a 	mov	r4,r18
  80c36c:	2829883a 	mov	r20,r5
  80c370:	dfc00515 	stw	ra,20(sp)
  80c374:	080ba100 	call	80ba10 <__hi0bits>
  80c378:	00c00804 	movi	r3,32
  80c37c:	1889c83a 	sub	r4,r3,r2
  80c380:	a1000015 	stw	r4,0(r20)
  80c384:	01000284 	movi	r4,10
  80c388:	84ffff04 	addi	r19,r16,-4
  80c38c:	20801216 	blt	r4,r2,80c3d8 <__b2d+0xa0>
  80c390:	018002c4 	movi	r6,11
  80c394:	308dc83a 	sub	r6,r6,r2
  80c398:	9186d83a 	srl	r3,r18,r6
  80c39c:	18cffc34 	orhi	r3,r3,16368
  80c3a0:	8cc0212e 	bgeu	r17,r19,80c428 <__b2d+0xf0>
  80c3a4:	813ffe17 	ldw	r4,-8(r16)
  80c3a8:	218cd83a 	srl	r6,r4,r6
  80c3ac:	10800544 	addi	r2,r2,21
  80c3b0:	9084983a 	sll	r2,r18,r2
  80c3b4:	1184b03a 	or	r2,r2,r6
  80c3b8:	dfc00517 	ldw	ra,20(sp)
  80c3bc:	dd000417 	ldw	r20,16(sp)
  80c3c0:	dcc00317 	ldw	r19,12(sp)
  80c3c4:	dc800217 	ldw	r18,8(sp)
  80c3c8:	dc400117 	ldw	r17,4(sp)
  80c3cc:	dc000017 	ldw	r16,0(sp)
  80c3d0:	dec00604 	addi	sp,sp,24
  80c3d4:	f800283a 	ret
  80c3d8:	8cc00f2e 	bgeu	r17,r19,80c418 <__b2d+0xe0>
  80c3dc:	117ffd44 	addi	r5,r2,-11
  80c3e0:	80bffe17 	ldw	r2,-8(r16)
  80c3e4:	28000e26 	beq	r5,zero,80c420 <__b2d+0xe8>
  80c3e8:	1949c83a 	sub	r4,r3,r5
  80c3ec:	9164983a 	sll	r18,r18,r5
  80c3f0:	1106d83a 	srl	r3,r2,r4
  80c3f4:	81bffe04 	addi	r6,r16,-8
  80c3f8:	948ffc34 	orhi	r18,r18,16368
  80c3fc:	90c6b03a 	or	r3,r18,r3
  80c400:	89800e2e 	bgeu	r17,r6,80c43c <__b2d+0x104>
  80c404:	81bffd17 	ldw	r6,-12(r16)
  80c408:	1144983a 	sll	r2,r2,r5
  80c40c:	310ad83a 	srl	r5,r6,r4
  80c410:	2884b03a 	or	r2,r5,r2
  80c414:	003fe806 	br	80c3b8 <__alt_mem_onchip_ram+0xff8083b8>
  80c418:	10bffd44 	addi	r2,r2,-11
  80c41c:	1000041e 	bne	r2,zero,80c430 <__b2d+0xf8>
  80c420:	90cffc34 	orhi	r3,r18,16368
  80c424:	003fe406 	br	80c3b8 <__alt_mem_onchip_ram+0xff8083b8>
  80c428:	000d883a 	mov	r6,zero
  80c42c:	003fdf06 	br	80c3ac <__alt_mem_onchip_ram+0xff8083ac>
  80c430:	90a4983a 	sll	r18,r18,r2
  80c434:	0005883a 	mov	r2,zero
  80c438:	003ff906 	br	80c420 <__alt_mem_onchip_ram+0xff808420>
  80c43c:	1144983a 	sll	r2,r2,r5
  80c440:	003fdd06 	br	80c3b8 <__alt_mem_onchip_ram+0xff8083b8>

0080c444 <__d2b>:
  80c444:	defff804 	addi	sp,sp,-32
  80c448:	dc000215 	stw	r16,8(sp)
  80c44c:	3021883a 	mov	r16,r6
  80c450:	dc400315 	stw	r17,12(sp)
  80c454:	8022907a 	slli	r17,r16,1
  80c458:	dd000615 	stw	r20,24(sp)
  80c45c:	2829883a 	mov	r20,r5
  80c460:	01400044 	movi	r5,1
  80c464:	dcc00515 	stw	r19,20(sp)
  80c468:	dc800415 	stw	r18,16(sp)
  80c46c:	dfc00715 	stw	ra,28(sp)
  80c470:	3825883a 	mov	r18,r7
  80c474:	8822d57a 	srli	r17,r17,21
  80c478:	080b6f40 	call	80b6f4 <_Balloc>
  80c47c:	1027883a 	mov	r19,r2
  80c480:	00800434 	movhi	r2,16
  80c484:	10bfffc4 	addi	r2,r2,-1
  80c488:	808c703a 	and	r6,r16,r2
  80c48c:	88000126 	beq	r17,zero,80c494 <__d2b+0x50>
  80c490:	31800434 	orhi	r6,r6,16
  80c494:	d9800015 	stw	r6,0(sp)
  80c498:	a0002426 	beq	r20,zero,80c52c <__d2b+0xe8>
  80c49c:	d9000104 	addi	r4,sp,4
  80c4a0:	dd000115 	stw	r20,4(sp)
  80c4a4:	080ba780 	call	80ba78 <__lo0bits>
  80c4a8:	d8c00017 	ldw	r3,0(sp)
  80c4ac:	10002f1e 	bne	r2,zero,80c56c <__d2b+0x128>
  80c4b0:	d9000117 	ldw	r4,4(sp)
  80c4b4:	99000515 	stw	r4,20(r19)
  80c4b8:	1821003a 	cmpeq	r16,r3,zero
  80c4bc:	01000084 	movi	r4,2
  80c4c0:	2421c83a 	sub	r16,r4,r16
  80c4c4:	98c00615 	stw	r3,24(r19)
  80c4c8:	9c000415 	stw	r16,16(r19)
  80c4cc:	88001f1e 	bne	r17,zero,80c54c <__d2b+0x108>
  80c4d0:	10bef384 	addi	r2,r2,-1074
  80c4d4:	90800015 	stw	r2,0(r18)
  80c4d8:	00900034 	movhi	r2,16384
  80c4dc:	10bfffc4 	addi	r2,r2,-1
  80c4e0:	8085883a 	add	r2,r16,r2
  80c4e4:	1085883a 	add	r2,r2,r2
  80c4e8:	1085883a 	add	r2,r2,r2
  80c4ec:	9885883a 	add	r2,r19,r2
  80c4f0:	11000517 	ldw	r4,20(r2)
  80c4f4:	8020917a 	slli	r16,r16,5
  80c4f8:	080ba100 	call	80ba10 <__hi0bits>
  80c4fc:	d8c00817 	ldw	r3,32(sp)
  80c500:	8085c83a 	sub	r2,r16,r2
  80c504:	18800015 	stw	r2,0(r3)
  80c508:	9805883a 	mov	r2,r19
  80c50c:	dfc00717 	ldw	ra,28(sp)
  80c510:	dd000617 	ldw	r20,24(sp)
  80c514:	dcc00517 	ldw	r19,20(sp)
  80c518:	dc800417 	ldw	r18,16(sp)
  80c51c:	dc400317 	ldw	r17,12(sp)
  80c520:	dc000217 	ldw	r16,8(sp)
  80c524:	dec00804 	addi	sp,sp,32
  80c528:	f800283a 	ret
  80c52c:	d809883a 	mov	r4,sp
  80c530:	080ba780 	call	80ba78 <__lo0bits>
  80c534:	d8c00017 	ldw	r3,0(sp)
  80c538:	04000044 	movi	r16,1
  80c53c:	9c000415 	stw	r16,16(r19)
  80c540:	98c00515 	stw	r3,20(r19)
  80c544:	10800804 	addi	r2,r2,32
  80c548:	883fe126 	beq	r17,zero,80c4d0 <__alt_mem_onchip_ram+0xff8084d0>
  80c54c:	00c00d44 	movi	r3,53
  80c550:	8c7ef344 	addi	r17,r17,-1075
  80c554:	88a3883a 	add	r17,r17,r2
  80c558:	1885c83a 	sub	r2,r3,r2
  80c55c:	d8c00817 	ldw	r3,32(sp)
  80c560:	94400015 	stw	r17,0(r18)
  80c564:	18800015 	stw	r2,0(r3)
  80c568:	003fe706 	br	80c508 <__alt_mem_onchip_ram+0xff808508>
  80c56c:	01000804 	movi	r4,32
  80c570:	2089c83a 	sub	r4,r4,r2
  80c574:	1908983a 	sll	r4,r3,r4
  80c578:	d9400117 	ldw	r5,4(sp)
  80c57c:	1886d83a 	srl	r3,r3,r2
  80c580:	2148b03a 	or	r4,r4,r5
  80c584:	99000515 	stw	r4,20(r19)
  80c588:	d8c00015 	stw	r3,0(sp)
  80c58c:	003fca06 	br	80c4b8 <__alt_mem_onchip_ram+0xff8084b8>

0080c590 <__ratio>:
  80c590:	defff904 	addi	sp,sp,-28
  80c594:	dc400315 	stw	r17,12(sp)
  80c598:	2823883a 	mov	r17,r5
  80c59c:	d9400104 	addi	r5,sp,4
  80c5a0:	dfc00615 	stw	ra,24(sp)
  80c5a4:	dcc00515 	stw	r19,20(sp)
  80c5a8:	dc800415 	stw	r18,16(sp)
  80c5ac:	2027883a 	mov	r19,r4
  80c5b0:	dc000215 	stw	r16,8(sp)
  80c5b4:	080c3380 	call	80c338 <__b2d>
  80c5b8:	d80b883a 	mov	r5,sp
  80c5bc:	8809883a 	mov	r4,r17
  80c5c0:	1025883a 	mov	r18,r2
  80c5c4:	1821883a 	mov	r16,r3
  80c5c8:	080c3380 	call	80c338 <__b2d>
  80c5cc:	8a000417 	ldw	r8,16(r17)
  80c5d0:	99000417 	ldw	r4,16(r19)
  80c5d4:	d9400117 	ldw	r5,4(sp)
  80c5d8:	2209c83a 	sub	r4,r4,r8
  80c5dc:	2010917a 	slli	r8,r4,5
  80c5e0:	d9000017 	ldw	r4,0(sp)
  80c5e4:	2909c83a 	sub	r4,r5,r4
  80c5e8:	4109883a 	add	r4,r8,r4
  80c5ec:	01000e0e 	bge	zero,r4,80c628 <__ratio+0x98>
  80c5f0:	2008953a 	slli	r4,r4,20
  80c5f4:	2421883a 	add	r16,r4,r16
  80c5f8:	100d883a 	mov	r6,r2
  80c5fc:	180f883a 	mov	r7,r3
  80c600:	9009883a 	mov	r4,r18
  80c604:	800b883a 	mov	r5,r16
  80c608:	08100440 	call	810044 <__divdf3>
  80c60c:	dfc00617 	ldw	ra,24(sp)
  80c610:	dcc00517 	ldw	r19,20(sp)
  80c614:	dc800417 	ldw	r18,16(sp)
  80c618:	dc400317 	ldw	r17,12(sp)
  80c61c:	dc000217 	ldw	r16,8(sp)
  80c620:	dec00704 	addi	sp,sp,28
  80c624:	f800283a 	ret
  80c628:	2008953a 	slli	r4,r4,20
  80c62c:	1907c83a 	sub	r3,r3,r4
  80c630:	003ff106 	br	80c5f8 <__alt_mem_onchip_ram+0xff8085f8>

0080c634 <_mprec_log10>:
  80c634:	defffe04 	addi	sp,sp,-8
  80c638:	dc000015 	stw	r16,0(sp)
  80c63c:	dfc00115 	stw	ra,4(sp)
  80c640:	008005c4 	movi	r2,23
  80c644:	2021883a 	mov	r16,r4
  80c648:	11000d0e 	bge	r2,r4,80c680 <_mprec_log10+0x4c>
  80c64c:	0005883a 	mov	r2,zero
  80c650:	00cffc34 	movhi	r3,16368
  80c654:	843fffc4 	addi	r16,r16,-1
  80c658:	000d883a 	mov	r6,zero
  80c65c:	01d00934 	movhi	r7,16420
  80c660:	1009883a 	mov	r4,r2
  80c664:	180b883a 	mov	r5,r3
  80c668:	0810c6c0 	call	810c6c <__muldf3>
  80c66c:	803ff91e 	bne	r16,zero,80c654 <__alt_mem_onchip_ram+0xff808654>
  80c670:	dfc00117 	ldw	ra,4(sp)
  80c674:	dc000017 	ldw	r16,0(sp)
  80c678:	dec00204 	addi	sp,sp,8
  80c67c:	f800283a 	ret
  80c680:	202090fa 	slli	r16,r4,3
  80c684:	00802074 	movhi	r2,129
  80c688:	1093a204 	addi	r2,r2,20104
  80c68c:	1421883a 	add	r16,r2,r16
  80c690:	80800017 	ldw	r2,0(r16)
  80c694:	80c00117 	ldw	r3,4(r16)
  80c698:	dfc00117 	ldw	ra,4(sp)
  80c69c:	dc000017 	ldw	r16,0(sp)
  80c6a0:	dec00204 	addi	sp,sp,8
  80c6a4:	f800283a 	ret

0080c6a8 <__copybits>:
  80c6a8:	297fffc4 	addi	r5,r5,-1
  80c6ac:	280fd17a 	srai	r7,r5,5
  80c6b0:	30c00417 	ldw	r3,16(r6)
  80c6b4:	30800504 	addi	r2,r6,20
  80c6b8:	39c00044 	addi	r7,r7,1
  80c6bc:	18c7883a 	add	r3,r3,r3
  80c6c0:	39cf883a 	add	r7,r7,r7
  80c6c4:	18c7883a 	add	r3,r3,r3
  80c6c8:	39cf883a 	add	r7,r7,r7
  80c6cc:	10c7883a 	add	r3,r2,r3
  80c6d0:	21cf883a 	add	r7,r4,r7
  80c6d4:	10c00d2e 	bgeu	r2,r3,80c70c <__copybits+0x64>
  80c6d8:	200b883a 	mov	r5,r4
  80c6dc:	12000017 	ldw	r8,0(r2)
  80c6e0:	29400104 	addi	r5,r5,4
  80c6e4:	10800104 	addi	r2,r2,4
  80c6e8:	2a3fff15 	stw	r8,-4(r5)
  80c6ec:	10fffb36 	bltu	r2,r3,80c6dc <__alt_mem_onchip_ram+0xff8086dc>
  80c6f0:	1985c83a 	sub	r2,r3,r6
  80c6f4:	10bffac4 	addi	r2,r2,-21
  80c6f8:	1004d0ba 	srli	r2,r2,2
  80c6fc:	10800044 	addi	r2,r2,1
  80c700:	1085883a 	add	r2,r2,r2
  80c704:	1085883a 	add	r2,r2,r2
  80c708:	2089883a 	add	r4,r4,r2
  80c70c:	21c0032e 	bgeu	r4,r7,80c71c <__copybits+0x74>
  80c710:	20000015 	stw	zero,0(r4)
  80c714:	21000104 	addi	r4,r4,4
  80c718:	21fffd36 	bltu	r4,r7,80c710 <__alt_mem_onchip_ram+0xff808710>
  80c71c:	f800283a 	ret

0080c720 <__any_on>:
  80c720:	20c00417 	ldw	r3,16(r4)
  80c724:	2805d17a 	srai	r2,r5,5
  80c728:	21000504 	addi	r4,r4,20
  80c72c:	18800d0e 	bge	r3,r2,80c764 <__any_on+0x44>
  80c730:	18c7883a 	add	r3,r3,r3
  80c734:	18c7883a 	add	r3,r3,r3
  80c738:	20c7883a 	add	r3,r4,r3
  80c73c:	20c0192e 	bgeu	r4,r3,80c7a4 <__any_on+0x84>
  80c740:	18bfff17 	ldw	r2,-4(r3)
  80c744:	18ffff04 	addi	r3,r3,-4
  80c748:	1000041e 	bne	r2,zero,80c75c <__any_on+0x3c>
  80c74c:	20c0142e 	bgeu	r4,r3,80c7a0 <__any_on+0x80>
  80c750:	18ffff04 	addi	r3,r3,-4
  80c754:	19400017 	ldw	r5,0(r3)
  80c758:	283ffc26 	beq	r5,zero,80c74c <__alt_mem_onchip_ram+0xff80874c>
  80c75c:	00800044 	movi	r2,1
  80c760:	f800283a 	ret
  80c764:	10c00a0e 	bge	r2,r3,80c790 <__any_on+0x70>
  80c768:	1085883a 	add	r2,r2,r2
  80c76c:	1085883a 	add	r2,r2,r2
  80c770:	294007cc 	andi	r5,r5,31
  80c774:	2087883a 	add	r3,r4,r2
  80c778:	283ff026 	beq	r5,zero,80c73c <__alt_mem_onchip_ram+0xff80873c>
  80c77c:	19800017 	ldw	r6,0(r3)
  80c780:	3144d83a 	srl	r2,r6,r5
  80c784:	114a983a 	sll	r5,r2,r5
  80c788:	317ff41e 	bne	r6,r5,80c75c <__alt_mem_onchip_ram+0xff80875c>
  80c78c:	003feb06 	br	80c73c <__alt_mem_onchip_ram+0xff80873c>
  80c790:	1085883a 	add	r2,r2,r2
  80c794:	1085883a 	add	r2,r2,r2
  80c798:	2087883a 	add	r3,r4,r2
  80c79c:	003fe706 	br	80c73c <__alt_mem_onchip_ram+0xff80873c>
  80c7a0:	f800283a 	ret
  80c7a4:	0005883a 	mov	r2,zero
  80c7a8:	f800283a 	ret

0080c7ac <_read_r>:
  80c7ac:	defffd04 	addi	sp,sp,-12
  80c7b0:	2805883a 	mov	r2,r5
  80c7b4:	dc000015 	stw	r16,0(sp)
  80c7b8:	040020b4 	movhi	r16,130
  80c7bc:	dc400115 	stw	r17,4(sp)
  80c7c0:	300b883a 	mov	r5,r6
  80c7c4:	8421a504 	addi	r16,r16,-31084
  80c7c8:	2023883a 	mov	r17,r4
  80c7cc:	380d883a 	mov	r6,r7
  80c7d0:	1009883a 	mov	r4,r2
  80c7d4:	dfc00215 	stw	ra,8(sp)
  80c7d8:	80000015 	stw	zero,0(r16)
  80c7dc:	08128640 	call	812864 <read>
  80c7e0:	00ffffc4 	movi	r3,-1
  80c7e4:	10c00526 	beq	r2,r3,80c7fc <_read_r+0x50>
  80c7e8:	dfc00217 	ldw	ra,8(sp)
  80c7ec:	dc400117 	ldw	r17,4(sp)
  80c7f0:	dc000017 	ldw	r16,0(sp)
  80c7f4:	dec00304 	addi	sp,sp,12
  80c7f8:	f800283a 	ret
  80c7fc:	80c00017 	ldw	r3,0(r16)
  80c800:	183ff926 	beq	r3,zero,80c7e8 <__alt_mem_onchip_ram+0xff8087e8>
  80c804:	88c00015 	stw	r3,0(r17)
  80c808:	003ff706 	br	80c7e8 <__alt_mem_onchip_ram+0xff8087e8>

0080c80c <_realloc_r>:
  80c80c:	defff604 	addi	sp,sp,-40
  80c810:	dc400115 	stw	r17,4(sp)
  80c814:	dfc00915 	stw	ra,36(sp)
  80c818:	df000815 	stw	fp,32(sp)
  80c81c:	ddc00715 	stw	r23,28(sp)
  80c820:	dd800615 	stw	r22,24(sp)
  80c824:	dd400515 	stw	r21,20(sp)
  80c828:	dd000415 	stw	r20,16(sp)
  80c82c:	dcc00315 	stw	r19,12(sp)
  80c830:	dc800215 	stw	r18,8(sp)
  80c834:	dc000015 	stw	r16,0(sp)
  80c838:	3023883a 	mov	r17,r6
  80c83c:	2800b626 	beq	r5,zero,80cb18 <_realloc_r+0x30c>
  80c840:	2829883a 	mov	r20,r5
  80c844:	2025883a 	mov	r18,r4
  80c848:	08127cc0 	call	8127cc <__malloc_lock>
  80c84c:	a0ffff17 	ldw	r3,-4(r20)
  80c850:	043fff04 	movi	r16,-4
  80c854:	888002c4 	addi	r2,r17,11
  80c858:	01000584 	movi	r4,22
  80c85c:	a57ffe04 	addi	r21,r20,-8
  80c860:	1c20703a 	and	r16,r3,r16
  80c864:	2080332e 	bgeu	r4,r2,80c934 <_realloc_r+0x128>
  80c868:	05bffe04 	movi	r22,-8
  80c86c:	15ac703a 	and	r22,r2,r22
  80c870:	b005883a 	mov	r2,r22
  80c874:	b0005716 	blt	r22,zero,80c9d4 <_realloc_r+0x1c8>
  80c878:	b4405636 	bltu	r22,r17,80c9d4 <_realloc_r+0x1c8>
  80c87c:	8080300e 	bge	r16,r2,80c940 <_realloc_r+0x134>
  80c880:	07002074 	movhi	fp,129
  80c884:	e7154e04 	addi	fp,fp,21816
  80c888:	e2000217 	ldw	r8,8(fp)
  80c88c:	ac09883a 	add	r4,r21,r16
  80c890:	22006126 	beq	r4,r8,80ca18 <_realloc_r+0x20c>
  80c894:	22400117 	ldw	r9,4(r4)
  80c898:	01ffff84 	movi	r7,-2
  80c89c:	49ce703a 	and	r7,r9,r7
  80c8a0:	21cf883a 	add	r7,r4,r7
  80c8a4:	39800117 	ldw	r6,4(r7)
  80c8a8:	3180004c 	andi	r6,r6,1
  80c8ac:	30003e26 	beq	r6,zero,80c9a8 <_realloc_r+0x19c>
  80c8b0:	18c0004c 	andi	r3,r3,1
  80c8b4:	18008126 	beq	r3,zero,80cabc <_realloc_r+0x2b0>
  80c8b8:	880b883a 	mov	r5,r17
  80c8bc:	9009883a 	mov	r4,r18
  80c8c0:	08034100 	call	803410 <_malloc_r>
  80c8c4:	1023883a 	mov	r17,r2
  80c8c8:	10011e26 	beq	r2,zero,80cd44 <_realloc_r+0x538>
  80c8cc:	a0ffff17 	ldw	r3,-4(r20)
  80c8d0:	113ffe04 	addi	r4,r2,-8
  80c8d4:	00bfff84 	movi	r2,-2
  80c8d8:	1884703a 	and	r2,r3,r2
  80c8dc:	a885883a 	add	r2,r21,r2
  80c8e0:	2080ee26 	beq	r4,r2,80cc9c <_realloc_r+0x490>
  80c8e4:	81bfff04 	addi	r6,r16,-4
  80c8e8:	00800904 	movi	r2,36
  80c8ec:	1180b836 	bltu	r2,r6,80cbd0 <_realloc_r+0x3c4>
  80c8f0:	00c004c4 	movi	r3,19
  80c8f4:	19809536 	bltu	r3,r6,80cb4c <_realloc_r+0x340>
  80c8f8:	8805883a 	mov	r2,r17
  80c8fc:	a007883a 	mov	r3,r20
  80c900:	19000017 	ldw	r4,0(r3)
  80c904:	11000015 	stw	r4,0(r2)
  80c908:	19000117 	ldw	r4,4(r3)
  80c90c:	11000115 	stw	r4,4(r2)
  80c910:	18c00217 	ldw	r3,8(r3)
  80c914:	10c00215 	stw	r3,8(r2)
  80c918:	a00b883a 	mov	r5,r20
  80c91c:	9009883a 	mov	r4,r18
  80c920:	0802cb00 	call	802cb0 <_free_r>
  80c924:	9009883a 	mov	r4,r18
  80c928:	08127f00 	call	8127f0 <__malloc_unlock>
  80c92c:	8805883a 	mov	r2,r17
  80c930:	00001106 	br	80c978 <_realloc_r+0x16c>
  80c934:	00800404 	movi	r2,16
  80c938:	102d883a 	mov	r22,r2
  80c93c:	003fce06 	br	80c878 <__alt_mem_onchip_ram+0xff808878>
  80c940:	a023883a 	mov	r17,r20
  80c944:	858fc83a 	sub	r7,r16,r22
  80c948:	008003c4 	movi	r2,15
  80c94c:	18c0004c 	andi	r3,r3,1
  80c950:	11c02436 	bltu	r2,r7,80c9e4 <_realloc_r+0x1d8>
  80c954:	1c06b03a 	or	r3,r3,r16
  80c958:	a8c00115 	stw	r3,4(r21)
  80c95c:	ac21883a 	add	r16,r21,r16
  80c960:	80800117 	ldw	r2,4(r16)
  80c964:	10800054 	ori	r2,r2,1
  80c968:	80800115 	stw	r2,4(r16)
  80c96c:	9009883a 	mov	r4,r18
  80c970:	08127f00 	call	8127f0 <__malloc_unlock>
  80c974:	8805883a 	mov	r2,r17
  80c978:	dfc00917 	ldw	ra,36(sp)
  80c97c:	df000817 	ldw	fp,32(sp)
  80c980:	ddc00717 	ldw	r23,28(sp)
  80c984:	dd800617 	ldw	r22,24(sp)
  80c988:	dd400517 	ldw	r21,20(sp)
  80c98c:	dd000417 	ldw	r20,16(sp)
  80c990:	dcc00317 	ldw	r19,12(sp)
  80c994:	dc800217 	ldw	r18,8(sp)
  80c998:	dc400117 	ldw	r17,4(sp)
  80c99c:	dc000017 	ldw	r16,0(sp)
  80c9a0:	dec00a04 	addi	sp,sp,40
  80c9a4:	f800283a 	ret
  80c9a8:	017fff04 	movi	r5,-4
  80c9ac:	494a703a 	and	r5,r9,r5
  80c9b0:	814d883a 	add	r6,r16,r5
  80c9b4:	30801e16 	blt	r6,r2,80ca30 <_realloc_r+0x224>
  80c9b8:	20800317 	ldw	r2,12(r4)
  80c9bc:	21000217 	ldw	r4,8(r4)
  80c9c0:	a023883a 	mov	r17,r20
  80c9c4:	3021883a 	mov	r16,r6
  80c9c8:	20800315 	stw	r2,12(r4)
  80c9cc:	11000215 	stw	r4,8(r2)
  80c9d0:	003fdc06 	br	80c944 <__alt_mem_onchip_ram+0xff808944>
  80c9d4:	00800304 	movi	r2,12
  80c9d8:	90800015 	stw	r2,0(r18)
  80c9dc:	0005883a 	mov	r2,zero
  80c9e0:	003fe506 	br	80c978 <__alt_mem_onchip_ram+0xff808978>
  80c9e4:	1d86b03a 	or	r3,r3,r22
  80c9e8:	a8c00115 	stw	r3,4(r21)
  80c9ec:	ad8b883a 	add	r5,r21,r22
  80c9f0:	38c00054 	ori	r3,r7,1
  80c9f4:	28c00115 	stw	r3,4(r5)
  80c9f8:	29cf883a 	add	r7,r5,r7
  80c9fc:	38c00117 	ldw	r3,4(r7)
  80ca00:	29400204 	addi	r5,r5,8
  80ca04:	9009883a 	mov	r4,r18
  80ca08:	18800054 	ori	r2,r3,1
  80ca0c:	38800115 	stw	r2,4(r7)
  80ca10:	0802cb00 	call	802cb0 <_free_r>
  80ca14:	003fd506 	br	80c96c <__alt_mem_onchip_ram+0xff80896c>
  80ca18:	21c00117 	ldw	r7,4(r4)
  80ca1c:	017fff04 	movi	r5,-4
  80ca20:	b1800404 	addi	r6,r22,16
  80ca24:	394a703a 	and	r5,r7,r5
  80ca28:	814f883a 	add	r7,r16,r5
  80ca2c:	39805b0e 	bge	r7,r6,80cb9c <_realloc_r+0x390>
  80ca30:	18c0004c 	andi	r3,r3,1
  80ca34:	183fa01e 	bne	r3,zero,80c8b8 <__alt_mem_onchip_ram+0xff8088b8>
  80ca38:	a4fffe17 	ldw	r19,-8(r20)
  80ca3c:	00ffff04 	movi	r3,-4
  80ca40:	ace7c83a 	sub	r19,r21,r19
  80ca44:	99800117 	ldw	r6,4(r19)
  80ca48:	30c6703a 	and	r3,r6,r3
  80ca4c:	20002026 	beq	r4,zero,80cad0 <_realloc_r+0x2c4>
  80ca50:	80ef883a 	add	r23,r16,r3
  80ca54:	b96f883a 	add	r23,r23,r5
  80ca58:	22006126 	beq	r4,r8,80cbe0 <_realloc_r+0x3d4>
  80ca5c:	b8801c16 	blt	r23,r2,80cad0 <_realloc_r+0x2c4>
  80ca60:	20800317 	ldw	r2,12(r4)
  80ca64:	20c00217 	ldw	r3,8(r4)
  80ca68:	81bfff04 	addi	r6,r16,-4
  80ca6c:	01000904 	movi	r4,36
  80ca70:	18800315 	stw	r2,12(r3)
  80ca74:	10c00215 	stw	r3,8(r2)
  80ca78:	98c00217 	ldw	r3,8(r19)
  80ca7c:	98800317 	ldw	r2,12(r19)
  80ca80:	9c400204 	addi	r17,r19,8
  80ca84:	18800315 	stw	r2,12(r3)
  80ca88:	10c00215 	stw	r3,8(r2)
  80ca8c:	21801b36 	bltu	r4,r6,80cafc <_realloc_r+0x2f0>
  80ca90:	008004c4 	movi	r2,19
  80ca94:	1180362e 	bgeu	r2,r6,80cb70 <_realloc_r+0x364>
  80ca98:	a0800017 	ldw	r2,0(r20)
  80ca9c:	98800215 	stw	r2,8(r19)
  80caa0:	a0800117 	ldw	r2,4(r20)
  80caa4:	98800315 	stw	r2,12(r19)
  80caa8:	008006c4 	movi	r2,27
  80caac:	11808136 	bltu	r2,r6,80ccb4 <_realloc_r+0x4a8>
  80cab0:	98800404 	addi	r2,r19,16
  80cab4:	a5000204 	addi	r20,r20,8
  80cab8:	00002e06 	br	80cb74 <_realloc_r+0x368>
  80cabc:	a4fffe17 	ldw	r19,-8(r20)
  80cac0:	00ffff04 	movi	r3,-4
  80cac4:	ace7c83a 	sub	r19,r21,r19
  80cac8:	99000117 	ldw	r4,4(r19)
  80cacc:	20c6703a 	and	r3,r4,r3
  80cad0:	983f7926 	beq	r19,zero,80c8b8 <__alt_mem_onchip_ram+0xff8088b8>
  80cad4:	80ef883a 	add	r23,r16,r3
  80cad8:	b8bf7716 	blt	r23,r2,80c8b8 <__alt_mem_onchip_ram+0xff8088b8>
  80cadc:	98800317 	ldw	r2,12(r19)
  80cae0:	98c00217 	ldw	r3,8(r19)
  80cae4:	81bfff04 	addi	r6,r16,-4
  80cae8:	01000904 	movi	r4,36
  80caec:	18800315 	stw	r2,12(r3)
  80caf0:	10c00215 	stw	r3,8(r2)
  80caf4:	9c400204 	addi	r17,r19,8
  80caf8:	21bfe52e 	bgeu	r4,r6,80ca90 <__alt_mem_onchip_ram+0xff808a90>
  80cafc:	a00b883a 	mov	r5,r20
  80cb00:	8809883a 	mov	r4,r17
  80cb04:	080e5240 	call	80e524 <memmove>
  80cb08:	98c00117 	ldw	r3,4(r19)
  80cb0c:	b821883a 	mov	r16,r23
  80cb10:	982b883a 	mov	r21,r19
  80cb14:	003f8b06 	br	80c944 <__alt_mem_onchip_ram+0xff808944>
  80cb18:	300b883a 	mov	r5,r6
  80cb1c:	dfc00917 	ldw	ra,36(sp)
  80cb20:	df000817 	ldw	fp,32(sp)
  80cb24:	ddc00717 	ldw	r23,28(sp)
  80cb28:	dd800617 	ldw	r22,24(sp)
  80cb2c:	dd400517 	ldw	r21,20(sp)
  80cb30:	dd000417 	ldw	r20,16(sp)
  80cb34:	dcc00317 	ldw	r19,12(sp)
  80cb38:	dc800217 	ldw	r18,8(sp)
  80cb3c:	dc400117 	ldw	r17,4(sp)
  80cb40:	dc000017 	ldw	r16,0(sp)
  80cb44:	dec00a04 	addi	sp,sp,40
  80cb48:	08034101 	jmpi	803410 <_malloc_r>
  80cb4c:	a0c00017 	ldw	r3,0(r20)
  80cb50:	88c00015 	stw	r3,0(r17)
  80cb54:	a0c00117 	ldw	r3,4(r20)
  80cb58:	88c00115 	stw	r3,4(r17)
  80cb5c:	00c006c4 	movi	r3,27
  80cb60:	19804636 	bltu	r3,r6,80cc7c <_realloc_r+0x470>
  80cb64:	88800204 	addi	r2,r17,8
  80cb68:	a0c00204 	addi	r3,r20,8
  80cb6c:	003f6406 	br	80c900 <__alt_mem_onchip_ram+0xff808900>
  80cb70:	8805883a 	mov	r2,r17
  80cb74:	a0c00017 	ldw	r3,0(r20)
  80cb78:	b821883a 	mov	r16,r23
  80cb7c:	982b883a 	mov	r21,r19
  80cb80:	10c00015 	stw	r3,0(r2)
  80cb84:	a0c00117 	ldw	r3,4(r20)
  80cb88:	10c00115 	stw	r3,4(r2)
  80cb8c:	a0c00217 	ldw	r3,8(r20)
  80cb90:	10c00215 	stw	r3,8(r2)
  80cb94:	98c00117 	ldw	r3,4(r19)
  80cb98:	003f6a06 	br	80c944 <__alt_mem_onchip_ram+0xff808944>
  80cb9c:	adab883a 	add	r21,r21,r22
  80cba0:	3d85c83a 	sub	r2,r7,r22
  80cba4:	e5400215 	stw	r21,8(fp)
  80cba8:	10800054 	ori	r2,r2,1
  80cbac:	a8800115 	stw	r2,4(r21)
  80cbb0:	a0bfff17 	ldw	r2,-4(r20)
  80cbb4:	9009883a 	mov	r4,r18
  80cbb8:	1080004c 	andi	r2,r2,1
  80cbbc:	1584b03a 	or	r2,r2,r22
  80cbc0:	a0bfff15 	stw	r2,-4(r20)
  80cbc4:	08127f00 	call	8127f0 <__malloc_unlock>
  80cbc8:	a005883a 	mov	r2,r20
  80cbcc:	003f6a06 	br	80c978 <__alt_mem_onchip_ram+0xff808978>
  80cbd0:	a00b883a 	mov	r5,r20
  80cbd4:	8809883a 	mov	r4,r17
  80cbd8:	080e5240 	call	80e524 <memmove>
  80cbdc:	003f4e06 	br	80c918 <__alt_mem_onchip_ram+0xff808918>
  80cbe0:	b1000404 	addi	r4,r22,16
  80cbe4:	b93fba16 	blt	r23,r4,80cad0 <__alt_mem_onchip_ram+0xff808ad0>
  80cbe8:	98800317 	ldw	r2,12(r19)
  80cbec:	98c00217 	ldw	r3,8(r19)
  80cbf0:	81bfff04 	addi	r6,r16,-4
  80cbf4:	01000904 	movi	r4,36
  80cbf8:	18800315 	stw	r2,12(r3)
  80cbfc:	10c00215 	stw	r3,8(r2)
  80cc00:	9c400204 	addi	r17,r19,8
  80cc04:	21804336 	bltu	r4,r6,80cd14 <_realloc_r+0x508>
  80cc08:	008004c4 	movi	r2,19
  80cc0c:	11803f2e 	bgeu	r2,r6,80cd0c <_realloc_r+0x500>
  80cc10:	a0800017 	ldw	r2,0(r20)
  80cc14:	98800215 	stw	r2,8(r19)
  80cc18:	a0800117 	ldw	r2,4(r20)
  80cc1c:	98800315 	stw	r2,12(r19)
  80cc20:	008006c4 	movi	r2,27
  80cc24:	11803f36 	bltu	r2,r6,80cd24 <_realloc_r+0x518>
  80cc28:	98800404 	addi	r2,r19,16
  80cc2c:	a5000204 	addi	r20,r20,8
  80cc30:	a0c00017 	ldw	r3,0(r20)
  80cc34:	10c00015 	stw	r3,0(r2)
  80cc38:	a0c00117 	ldw	r3,4(r20)
  80cc3c:	10c00115 	stw	r3,4(r2)
  80cc40:	a0c00217 	ldw	r3,8(r20)
  80cc44:	10c00215 	stw	r3,8(r2)
  80cc48:	9d87883a 	add	r3,r19,r22
  80cc4c:	bd85c83a 	sub	r2,r23,r22
  80cc50:	e0c00215 	stw	r3,8(fp)
  80cc54:	10800054 	ori	r2,r2,1
  80cc58:	18800115 	stw	r2,4(r3)
  80cc5c:	98800117 	ldw	r2,4(r19)
  80cc60:	9009883a 	mov	r4,r18
  80cc64:	1080004c 	andi	r2,r2,1
  80cc68:	1584b03a 	or	r2,r2,r22
  80cc6c:	98800115 	stw	r2,4(r19)
  80cc70:	08127f00 	call	8127f0 <__malloc_unlock>
  80cc74:	8805883a 	mov	r2,r17
  80cc78:	003f3f06 	br	80c978 <__alt_mem_onchip_ram+0xff808978>
  80cc7c:	a0c00217 	ldw	r3,8(r20)
  80cc80:	88c00215 	stw	r3,8(r17)
  80cc84:	a0c00317 	ldw	r3,12(r20)
  80cc88:	88c00315 	stw	r3,12(r17)
  80cc8c:	30801126 	beq	r6,r2,80ccd4 <_realloc_r+0x4c8>
  80cc90:	88800404 	addi	r2,r17,16
  80cc94:	a0c00404 	addi	r3,r20,16
  80cc98:	003f1906 	br	80c900 <__alt_mem_onchip_ram+0xff808900>
  80cc9c:	893fff17 	ldw	r4,-4(r17)
  80cca0:	00bfff04 	movi	r2,-4
  80cca4:	a023883a 	mov	r17,r20
  80cca8:	2084703a 	and	r2,r4,r2
  80ccac:	80a1883a 	add	r16,r16,r2
  80ccb0:	003f2406 	br	80c944 <__alt_mem_onchip_ram+0xff808944>
  80ccb4:	a0800217 	ldw	r2,8(r20)
  80ccb8:	98800415 	stw	r2,16(r19)
  80ccbc:	a0800317 	ldw	r2,12(r20)
  80ccc0:	98800515 	stw	r2,20(r19)
  80ccc4:	31000a26 	beq	r6,r4,80ccf0 <_realloc_r+0x4e4>
  80ccc8:	98800604 	addi	r2,r19,24
  80cccc:	a5000404 	addi	r20,r20,16
  80ccd0:	003fa806 	br	80cb74 <__alt_mem_onchip_ram+0xff808b74>
  80ccd4:	a1000417 	ldw	r4,16(r20)
  80ccd8:	88800604 	addi	r2,r17,24
  80ccdc:	a0c00604 	addi	r3,r20,24
  80cce0:	89000415 	stw	r4,16(r17)
  80cce4:	a1000517 	ldw	r4,20(r20)
  80cce8:	89000515 	stw	r4,20(r17)
  80ccec:	003f0406 	br	80c900 <__alt_mem_onchip_ram+0xff808900>
  80ccf0:	a0c00417 	ldw	r3,16(r20)
  80ccf4:	a5000604 	addi	r20,r20,24
  80ccf8:	98800804 	addi	r2,r19,32
  80ccfc:	98c00615 	stw	r3,24(r19)
  80cd00:	a0ffff17 	ldw	r3,-4(r20)
  80cd04:	98c00715 	stw	r3,28(r19)
  80cd08:	003f9a06 	br	80cb74 <__alt_mem_onchip_ram+0xff808b74>
  80cd0c:	8805883a 	mov	r2,r17
  80cd10:	003fc706 	br	80cc30 <__alt_mem_onchip_ram+0xff808c30>
  80cd14:	a00b883a 	mov	r5,r20
  80cd18:	8809883a 	mov	r4,r17
  80cd1c:	080e5240 	call	80e524 <memmove>
  80cd20:	003fc906 	br	80cc48 <__alt_mem_onchip_ram+0xff808c48>
  80cd24:	a0800217 	ldw	r2,8(r20)
  80cd28:	98800415 	stw	r2,16(r19)
  80cd2c:	a0800317 	ldw	r2,12(r20)
  80cd30:	98800515 	stw	r2,20(r19)
  80cd34:	31000726 	beq	r6,r4,80cd54 <_realloc_r+0x548>
  80cd38:	98800604 	addi	r2,r19,24
  80cd3c:	a5000404 	addi	r20,r20,16
  80cd40:	003fbb06 	br	80cc30 <__alt_mem_onchip_ram+0xff808c30>
  80cd44:	9009883a 	mov	r4,r18
  80cd48:	08127f00 	call	8127f0 <__malloc_unlock>
  80cd4c:	0005883a 	mov	r2,zero
  80cd50:	003f0906 	br	80c978 <__alt_mem_onchip_ram+0xff808978>
  80cd54:	a0c00417 	ldw	r3,16(r20)
  80cd58:	a5000604 	addi	r20,r20,24
  80cd5c:	98800804 	addi	r2,r19,32
  80cd60:	98c00615 	stw	r3,24(r19)
  80cd64:	a0ffff17 	ldw	r3,-4(r20)
  80cd68:	98c00715 	stw	r3,28(r19)
  80cd6c:	003fb006 	br	80cc30 <__alt_mem_onchip_ram+0xff808c30>

0080cd70 <strlen>:
  80cd70:	208000cc 	andi	r2,r4,3
  80cd74:	10002026 	beq	r2,zero,80cdf8 <strlen+0x88>
  80cd78:	20800007 	ldb	r2,0(r4)
  80cd7c:	10002026 	beq	r2,zero,80ce00 <strlen+0x90>
  80cd80:	2005883a 	mov	r2,r4
  80cd84:	00000206 	br	80cd90 <strlen+0x20>
  80cd88:	10c00007 	ldb	r3,0(r2)
  80cd8c:	18001826 	beq	r3,zero,80cdf0 <strlen+0x80>
  80cd90:	10800044 	addi	r2,r2,1
  80cd94:	10c000cc 	andi	r3,r2,3
  80cd98:	183ffb1e 	bne	r3,zero,80cd88 <__alt_mem_onchip_ram+0xff808d88>
  80cd9c:	10c00017 	ldw	r3,0(r2)
  80cda0:	01ffbff4 	movhi	r7,65279
  80cda4:	39ffbfc4 	addi	r7,r7,-257
  80cda8:	00ca303a 	nor	r5,zero,r3
  80cdac:	01a02074 	movhi	r6,32897
  80cdb0:	19c7883a 	add	r3,r3,r7
  80cdb4:	31a02004 	addi	r6,r6,-32640
  80cdb8:	1946703a 	and	r3,r3,r5
  80cdbc:	1986703a 	and	r3,r3,r6
  80cdc0:	1800091e 	bne	r3,zero,80cde8 <strlen+0x78>
  80cdc4:	10800104 	addi	r2,r2,4
  80cdc8:	10c00017 	ldw	r3,0(r2)
  80cdcc:	19cb883a 	add	r5,r3,r7
  80cdd0:	00c6303a 	nor	r3,zero,r3
  80cdd4:	28c6703a 	and	r3,r5,r3
  80cdd8:	1986703a 	and	r3,r3,r6
  80cddc:	183ff926 	beq	r3,zero,80cdc4 <__alt_mem_onchip_ram+0xff808dc4>
  80cde0:	00000106 	br	80cde8 <strlen+0x78>
  80cde4:	10800044 	addi	r2,r2,1
  80cde8:	10c00007 	ldb	r3,0(r2)
  80cdec:	183ffd1e 	bne	r3,zero,80cde4 <__alt_mem_onchip_ram+0xff808de4>
  80cdf0:	1105c83a 	sub	r2,r2,r4
  80cdf4:	f800283a 	ret
  80cdf8:	2005883a 	mov	r2,r4
  80cdfc:	003fe706 	br	80cd9c <__alt_mem_onchip_ram+0xff808d9c>
  80ce00:	0005883a 	mov	r2,zero
  80ce04:	f800283a 	ret

0080ce08 <strncmp>:
  80ce08:	30003126 	beq	r6,zero,80ced0 <strncmp+0xc8>
  80ce0c:	2144b03a 	or	r2,r4,r5
  80ce10:	108000cc 	andi	r2,r2,3
  80ce14:	10001e1e 	bne	r2,zero,80ce90 <strncmp+0x88>
  80ce18:	024000c4 	movi	r9,3
  80ce1c:	49801c2e 	bgeu	r9,r6,80ce90 <strncmp+0x88>
  80ce20:	20800017 	ldw	r2,0(r4)
  80ce24:	28c00017 	ldw	r3,0(r5)
  80ce28:	10c0191e 	bne	r2,r3,80ce90 <strncmp+0x88>
  80ce2c:	31bfff04 	addi	r6,r6,-4
  80ce30:	30002726 	beq	r6,zero,80ced0 <strncmp+0xc8>
  80ce34:	02ffbff4 	movhi	r11,65279
  80ce38:	5affbfc4 	addi	r11,r11,-257
  80ce3c:	0086303a 	nor	r3,zero,r2
  80ce40:	02a02074 	movhi	r10,32897
  80ce44:	12c5883a 	add	r2,r2,r11
  80ce48:	52a02004 	addi	r10,r10,-32640
  80ce4c:	10c4703a 	and	r2,r2,r3
  80ce50:	1284703a 	and	r2,r2,r10
  80ce54:	10000b26 	beq	r2,zero,80ce84 <strncmp+0x7c>
  80ce58:	00001d06 	br	80ced0 <strncmp+0xc8>
  80ce5c:	20c00017 	ldw	r3,0(r4)
  80ce60:	29c00017 	ldw	r7,0(r5)
  80ce64:	1ad1883a 	add	r8,r3,r11
  80ce68:	00c4303a 	nor	r2,zero,r3
  80ce6c:	4084703a 	and	r2,r8,r2
  80ce70:	1284703a 	and	r2,r2,r10
  80ce74:	19c0061e 	bne	r3,r7,80ce90 <strncmp+0x88>
  80ce78:	31bfff04 	addi	r6,r6,-4
  80ce7c:	30001426 	beq	r6,zero,80ced0 <strncmp+0xc8>
  80ce80:	1000131e 	bne	r2,zero,80ced0 <strncmp+0xc8>
  80ce84:	21000104 	addi	r4,r4,4
  80ce88:	29400104 	addi	r5,r5,4
  80ce8c:	49bff336 	bltu	r9,r6,80ce5c <__alt_mem_onchip_ram+0xff808e5c>
  80ce90:	28800007 	ldb	r2,0(r5)
  80ce94:	20c00007 	ldb	r3,0(r4)
  80ce98:	31bfffc4 	addi	r6,r6,-1
  80ce9c:	10c0081e 	bne	r2,r3,80cec0 <strncmp+0xb8>
  80cea0:	30000b26 	beq	r6,zero,80ced0 <strncmp+0xc8>
  80cea4:	10000a26 	beq	r2,zero,80ced0 <strncmp+0xc8>
  80cea8:	21000044 	addi	r4,r4,1
  80ceac:	29400044 	addi	r5,r5,1
  80ceb0:	20800007 	ldb	r2,0(r4)
  80ceb4:	28c00007 	ldb	r3,0(r5)
  80ceb8:	31bfffc4 	addi	r6,r6,-1
  80cebc:	10fff826 	beq	r2,r3,80cea0 <__alt_mem_onchip_ram+0xff808ea0>
  80cec0:	20800003 	ldbu	r2,0(r4)
  80cec4:	28c00003 	ldbu	r3,0(r5)
  80cec8:	10c5c83a 	sub	r2,r2,r3
  80cecc:	f800283a 	ret
  80ced0:	0005883a 	mov	r2,zero
  80ced4:	f800283a 	ret

0080ced8 <__ssprint_r>:
  80ced8:	30800217 	ldw	r2,8(r6)
  80cedc:	defff604 	addi	sp,sp,-40
  80cee0:	dc800215 	stw	r18,8(sp)
  80cee4:	dfc00915 	stw	ra,36(sp)
  80cee8:	df000815 	stw	fp,32(sp)
  80ceec:	ddc00715 	stw	r23,28(sp)
  80cef0:	dd800615 	stw	r22,24(sp)
  80cef4:	dd400515 	stw	r21,20(sp)
  80cef8:	dd000415 	stw	r20,16(sp)
  80cefc:	dcc00315 	stw	r19,12(sp)
  80cf00:	dc400115 	stw	r17,4(sp)
  80cf04:	dc000015 	stw	r16,0(sp)
  80cf08:	3025883a 	mov	r18,r6
  80cf0c:	10005826 	beq	r2,zero,80d070 <__ssprint_r+0x198>
  80cf10:	2027883a 	mov	r19,r4
  80cf14:	35c00017 	ldw	r23,0(r6)
  80cf18:	29000017 	ldw	r4,0(r5)
  80cf1c:	28800217 	ldw	r2,8(r5)
  80cf20:	2823883a 	mov	r17,r5
  80cf24:	0039883a 	mov	fp,zero
  80cf28:	0021883a 	mov	r16,zero
  80cf2c:	80003926 	beq	r16,zero,80d014 <__ssprint_r+0x13c>
  80cf30:	102b883a 	mov	r21,r2
  80cf34:	102d883a 	mov	r22,r2
  80cf38:	80803a36 	bltu	r16,r2,80d024 <__ssprint_r+0x14c>
  80cf3c:	88c0030b 	ldhu	r3,12(r17)
  80cf40:	1881200c 	andi	r2,r3,1152
  80cf44:	10002626 	beq	r2,zero,80cfe0 <__ssprint_r+0x108>
  80cf48:	88800517 	ldw	r2,20(r17)
  80cf4c:	89400417 	ldw	r5,16(r17)
  80cf50:	81800044 	addi	r6,r16,1
  80cf54:	108f883a 	add	r7,r2,r2
  80cf58:	3885883a 	add	r2,r7,r2
  80cf5c:	100ed7fa 	srli	r7,r2,31
  80cf60:	216dc83a 	sub	r22,r4,r5
  80cf64:	3589883a 	add	r4,r6,r22
  80cf68:	3885883a 	add	r2,r7,r2
  80cf6c:	102bd07a 	srai	r21,r2,1
  80cf70:	a80d883a 	mov	r6,r21
  80cf74:	a900022e 	bgeu	r21,r4,80cf80 <__ssprint_r+0xa8>
  80cf78:	202b883a 	mov	r21,r4
  80cf7c:	200d883a 	mov	r6,r4
  80cf80:	18c1000c 	andi	r3,r3,1024
  80cf84:	18002a26 	beq	r3,zero,80d030 <__ssprint_r+0x158>
  80cf88:	300b883a 	mov	r5,r6
  80cf8c:	9809883a 	mov	r4,r19
  80cf90:	08034100 	call	803410 <_malloc_r>
  80cf94:	1029883a 	mov	r20,r2
  80cf98:	10002c26 	beq	r2,zero,80d04c <__ssprint_r+0x174>
  80cf9c:	89400417 	ldw	r5,16(r17)
  80cfa0:	b00d883a 	mov	r6,r22
  80cfa4:	1009883a 	mov	r4,r2
  80cfa8:	0803e400 	call	803e40 <memcpy>
  80cfac:	8880030b 	ldhu	r2,12(r17)
  80cfb0:	00fedfc4 	movi	r3,-1153
  80cfb4:	10c4703a 	and	r2,r2,r3
  80cfb8:	10802014 	ori	r2,r2,128
  80cfbc:	8880030d 	sth	r2,12(r17)
  80cfc0:	a589883a 	add	r4,r20,r22
  80cfc4:	adadc83a 	sub	r22,r21,r22
  80cfc8:	8d400515 	stw	r21,20(r17)
  80cfcc:	8d800215 	stw	r22,8(r17)
  80cfd0:	8d000415 	stw	r20,16(r17)
  80cfd4:	89000015 	stw	r4,0(r17)
  80cfd8:	802b883a 	mov	r21,r16
  80cfdc:	802d883a 	mov	r22,r16
  80cfe0:	b00d883a 	mov	r6,r22
  80cfe4:	e00b883a 	mov	r5,fp
  80cfe8:	080e5240 	call	80e524 <memmove>
  80cfec:	88800217 	ldw	r2,8(r17)
  80cff0:	89000017 	ldw	r4,0(r17)
  80cff4:	90c00217 	ldw	r3,8(r18)
  80cff8:	1545c83a 	sub	r2,r2,r21
  80cffc:	2589883a 	add	r4,r4,r22
  80d000:	88800215 	stw	r2,8(r17)
  80d004:	89000015 	stw	r4,0(r17)
  80d008:	1c21c83a 	sub	r16,r3,r16
  80d00c:	94000215 	stw	r16,8(r18)
  80d010:	80001726 	beq	r16,zero,80d070 <__ssprint_r+0x198>
  80d014:	bf000017 	ldw	fp,0(r23)
  80d018:	bc000117 	ldw	r16,4(r23)
  80d01c:	bdc00204 	addi	r23,r23,8
  80d020:	003fc206 	br	80cf2c <__alt_mem_onchip_ram+0xff808f2c>
  80d024:	802b883a 	mov	r21,r16
  80d028:	802d883a 	mov	r22,r16
  80d02c:	003fec06 	br	80cfe0 <__alt_mem_onchip_ram+0xff808fe0>
  80d030:	9809883a 	mov	r4,r19
  80d034:	080c80c0 	call	80c80c <_realloc_r>
  80d038:	1029883a 	mov	r20,r2
  80d03c:	103fe01e 	bne	r2,zero,80cfc0 <__alt_mem_onchip_ram+0xff808fc0>
  80d040:	89400417 	ldw	r5,16(r17)
  80d044:	9809883a 	mov	r4,r19
  80d048:	0802cb00 	call	802cb0 <_free_r>
  80d04c:	88c0030b 	ldhu	r3,12(r17)
  80d050:	00800304 	movi	r2,12
  80d054:	98800015 	stw	r2,0(r19)
  80d058:	18c01014 	ori	r3,r3,64
  80d05c:	88c0030d 	sth	r3,12(r17)
  80d060:	00bfffc4 	movi	r2,-1
  80d064:	90000215 	stw	zero,8(r18)
  80d068:	90000115 	stw	zero,4(r18)
  80d06c:	00000206 	br	80d078 <__ssprint_r+0x1a0>
  80d070:	90000115 	stw	zero,4(r18)
  80d074:	0005883a 	mov	r2,zero
  80d078:	dfc00917 	ldw	ra,36(sp)
  80d07c:	df000817 	ldw	fp,32(sp)
  80d080:	ddc00717 	ldw	r23,28(sp)
  80d084:	dd800617 	ldw	r22,24(sp)
  80d088:	dd400517 	ldw	r21,20(sp)
  80d08c:	dd000417 	ldw	r20,16(sp)
  80d090:	dcc00317 	ldw	r19,12(sp)
  80d094:	dc800217 	ldw	r18,8(sp)
  80d098:	dc400117 	ldw	r17,4(sp)
  80d09c:	dc000017 	ldw	r16,0(sp)
  80d0a0:	dec00a04 	addi	sp,sp,40
  80d0a4:	f800283a 	ret

0080d0a8 <___svfiprintf_internal_r>:
  80d0a8:	2880030b 	ldhu	r2,12(r5)
  80d0ac:	deffc804 	addi	sp,sp,-224
  80d0b0:	dcc03115 	stw	r19,196(sp)
  80d0b4:	dfc03715 	stw	ra,220(sp)
  80d0b8:	df003615 	stw	fp,216(sp)
  80d0bc:	ddc03515 	stw	r23,212(sp)
  80d0c0:	dd803415 	stw	r22,208(sp)
  80d0c4:	dd403315 	stw	r21,204(sp)
  80d0c8:	dd003215 	stw	r20,200(sp)
  80d0cc:	dc803015 	stw	r18,192(sp)
  80d0d0:	dc402f15 	stw	r17,188(sp)
  80d0d4:	dc002e15 	stw	r16,184(sp)
  80d0d8:	d9402315 	stw	r5,140(sp)
  80d0dc:	d9002715 	stw	r4,156(sp)
  80d0e0:	1080200c 	andi	r2,r2,128
  80d0e4:	d9c02415 	stw	r7,144(sp)
  80d0e8:	3027883a 	mov	r19,r6
  80d0ec:	10000226 	beq	r2,zero,80d0f8 <___svfiprintf_internal_r+0x50>
  80d0f0:	28800417 	ldw	r2,16(r5)
  80d0f4:	10046d26 	beq	r2,zero,80e2ac <___svfiprintf_internal_r+0x1204>
  80d0f8:	d8801a04 	addi	r2,sp,104
  80d0fc:	d8c019c4 	addi	r3,sp,103
  80d100:	05802074 	movhi	r22,129
  80d104:	10c9c83a 	sub	r4,r2,r3
  80d108:	b593d404 	addi	r22,r22,20304
  80d10c:	d8801e15 	stw	r2,120(sp)
  80d110:	d8c01f15 	stw	r3,124(sp)
  80d114:	dec01a15 	stw	sp,104(sp)
  80d118:	d8001c15 	stw	zero,112(sp)
  80d11c:	d8001b15 	stw	zero,108(sp)
  80d120:	d811883a 	mov	r8,sp
  80d124:	d8002915 	stw	zero,164(sp)
  80d128:	d8002615 	stw	zero,152(sp)
  80d12c:	d9002c15 	stw	r4,176(sp)
  80d130:	98800007 	ldb	r2,0(r19)
  80d134:	10031426 	beq	r2,zero,80dd88 <___svfiprintf_internal_r+0xce0>
  80d138:	00c00944 	movi	r3,37
  80d13c:	9825883a 	mov	r18,r19
  80d140:	10c0021e 	bne	r2,r3,80d14c <___svfiprintf_internal_r+0xa4>
  80d144:	00001406 	br	80d198 <___svfiprintf_internal_r+0xf0>
  80d148:	10c00326 	beq	r2,r3,80d158 <___svfiprintf_internal_r+0xb0>
  80d14c:	94800044 	addi	r18,r18,1
  80d150:	90800007 	ldb	r2,0(r18)
  80d154:	103ffc1e 	bne	r2,zero,80d148 <__alt_mem_onchip_ram+0xff809148>
  80d158:	94e1c83a 	sub	r16,r18,r19
  80d15c:	80000e26 	beq	r16,zero,80d198 <___svfiprintf_internal_r+0xf0>
  80d160:	d8c01c17 	ldw	r3,112(sp)
  80d164:	d8801b17 	ldw	r2,108(sp)
  80d168:	44c00015 	stw	r19,0(r8)
  80d16c:	1c07883a 	add	r3,r3,r16
  80d170:	10800044 	addi	r2,r2,1
  80d174:	d8c01c15 	stw	r3,112(sp)
  80d178:	44000115 	stw	r16,4(r8)
  80d17c:	d8801b15 	stw	r2,108(sp)
  80d180:	00c001c4 	movi	r3,7
  80d184:	18835c16 	blt	r3,r2,80def8 <___svfiprintf_internal_r+0xe50>
  80d188:	42000204 	addi	r8,r8,8
  80d18c:	d9402617 	ldw	r5,152(sp)
  80d190:	2c0b883a 	add	r5,r5,r16
  80d194:	d9402615 	stw	r5,152(sp)
  80d198:	90800007 	ldb	r2,0(r18)
  80d19c:	1002fc26 	beq	r2,zero,80dd90 <___svfiprintf_internal_r+0xce8>
  80d1a0:	0023883a 	mov	r17,zero
  80d1a4:	00bfffc4 	movi	r2,-1
  80d1a8:	0021883a 	mov	r16,zero
  80d1ac:	94c00044 	addi	r19,r18,1
  80d1b0:	90c00047 	ldb	r3,1(r18)
  80d1b4:	dc402105 	stb	r17,132(sp)
  80d1b8:	d8001d85 	stb	zero,118(sp)
  80d1bc:	002b883a 	mov	r21,zero
  80d1c0:	d8802015 	stw	r2,128(sp)
  80d1c4:	d8002515 	stw	zero,148(sp)
  80d1c8:	04801604 	movi	r18,88
  80d1cc:	05000244 	movi	r20,9
  80d1d0:	402f883a 	mov	r23,r8
  80d1d4:	8023883a 	mov	r17,r16
  80d1d8:	9cc00044 	addi	r19,r19,1
  80d1dc:	18bff804 	addi	r2,r3,-32
  80d1e0:	9081fb36 	bltu	r18,r2,80d9d0 <___svfiprintf_internal_r+0x928>
  80d1e4:	100490ba 	slli	r2,r2,2
  80d1e8:	01002074 	movhi	r4,129
  80d1ec:	21347f04 	addi	r4,r4,-11780
  80d1f0:	1105883a 	add	r2,r2,r4
  80d1f4:	10800017 	ldw	r2,0(r2)
  80d1f8:	1000683a 	jmp	r2
  80d1fc:	0080d3fc 	xorhi	r2,zero,847
  80d200:	0080d9d0 	cmplti	r2,zero,871
  80d204:	0080d9d0 	cmplti	r2,zero,871
  80d208:	0080d3f0 	cmpltui	r2,zero,847
  80d20c:	0080d9d0 	cmplti	r2,zero,871
  80d210:	0080d9d0 	cmplti	r2,zero,871
  80d214:	0080d9d0 	cmplti	r2,zero,871
  80d218:	0080d9d0 	cmplti	r2,zero,871
  80d21c:	0080d9d0 	cmplti	r2,zero,871
  80d220:	0080d9d0 	cmplti	r2,zero,871
  80d224:	0080d360 	cmpeqi	r2,zero,845
  80d228:	0080d55c 	xori	r2,zero,853
  80d22c:	0080d9d0 	cmplti	r2,zero,871
  80d230:	0080d388 	cmpgei	r2,zero,846
  80d234:	0080da0c 	andi	r2,zero,872
  80d238:	0080d9d0 	cmplti	r2,zero,871
  80d23c:	0080da00 	call	80da0 <__reset-0x77f260>
  80d240:	0080d994 	movui	r2,870
  80d244:	0080d994 	movui	r2,870
  80d248:	0080d994 	movui	r2,870
  80d24c:	0080d994 	movui	r2,870
  80d250:	0080d994 	movui	r2,870
  80d254:	0080d994 	movui	r2,870
  80d258:	0080d994 	movui	r2,870
  80d25c:	0080d994 	movui	r2,870
  80d260:	0080d994 	movui	r2,870
  80d264:	0080d9d0 	cmplti	r2,zero,871
  80d268:	0080d9d0 	cmplti	r2,zero,871
  80d26c:	0080d9d0 	cmplti	r2,zero,871
  80d270:	0080d9d0 	cmplti	r2,zero,871
  80d274:	0080d9d0 	cmplti	r2,zero,871
  80d278:	0080d9d0 	cmplti	r2,zero,871
  80d27c:	0080d9d0 	cmplti	r2,zero,871
  80d280:	0080d9d0 	cmplti	r2,zero,871
  80d284:	0080d9d0 	cmplti	r2,zero,871
  80d288:	0080d9d0 	cmplti	r2,zero,871
  80d28c:	0080d918 	cmpnei	r2,zero,868
  80d290:	0080d9d0 	cmplti	r2,zero,871
  80d294:	0080d9d0 	cmplti	r2,zero,871
  80d298:	0080d9d0 	cmplti	r2,zero,871
  80d29c:	0080d9d0 	cmplti	r2,zero,871
  80d2a0:	0080d9d0 	cmplti	r2,zero,871
  80d2a4:	0080d9d0 	cmplti	r2,zero,871
  80d2a8:	0080d9d0 	cmplti	r2,zero,871
  80d2ac:	0080d9d0 	cmplti	r2,zero,871
  80d2b0:	0080d9d0 	cmplti	r2,zero,871
  80d2b4:	0080d9d0 	cmplti	r2,zero,871
  80d2b8:	0080dac8 	cmpgei	r2,zero,875
  80d2bc:	0080d9d0 	cmplti	r2,zero,871
  80d2c0:	0080d9d0 	cmplti	r2,zero,871
  80d2c4:	0080d9d0 	cmplti	r2,zero,871
  80d2c8:	0080d9d0 	cmplti	r2,zero,871
  80d2cc:	0080d9d0 	cmplti	r2,zero,871
  80d2d0:	0080da54 	movui	r2,873
  80d2d4:	0080d9d0 	cmplti	r2,zero,871
  80d2d8:	0080d9d0 	cmplti	r2,zero,871
  80d2dc:	0080d754 	movui	r2,861
  80d2e0:	0080d9d0 	cmplti	r2,zero,871
  80d2e4:	0080d9d0 	cmplti	r2,zero,871
  80d2e8:	0080d9d0 	cmplti	r2,zero,871
  80d2ec:	0080d9d0 	cmplti	r2,zero,871
  80d2f0:	0080d9d0 	cmplti	r2,zero,871
  80d2f4:	0080d9d0 	cmplti	r2,zero,871
  80d2f8:	0080d9d0 	cmplti	r2,zero,871
  80d2fc:	0080d9d0 	cmplti	r2,zero,871
  80d300:	0080d9d0 	cmplti	r2,zero,871
  80d304:	0080d9d0 	cmplti	r2,zero,871
  80d308:	0080d620 	cmpeqi	r2,zero,856
  80d30c:	0080d804 	movi	r2,864
  80d310:	0080d9d0 	cmplti	r2,zero,871
  80d314:	0080d9d0 	cmplti	r2,zero,871
  80d318:	0080d9d0 	cmplti	r2,zero,871
  80d31c:	0080d7f8 	rdprs	r2,zero,863
  80d320:	0080d804 	movi	r2,864
  80d324:	0080d9d0 	cmplti	r2,zero,871
  80d328:	0080d9d0 	cmplti	r2,zero,871
  80d32c:	0080d7e4 	muli	r2,zero,863
  80d330:	0080d9d0 	cmplti	r2,zero,871
  80d334:	0080d7a4 	muli	r2,zero,862
  80d338:	0080d570 	cmpltui	r2,zero,853
  80d33c:	0080d394 	movui	r2,846
  80d340:	0080d90c 	andi	r2,zero,868
  80d344:	0080d9d0 	cmplti	r2,zero,871
  80d348:	0080d8b8 	rdprs	r2,zero,866
  80d34c:	0080d9d0 	cmplti	r2,zero,871
  80d350:	0080d4d4 	movui	r2,851
  80d354:	0080d9d0 	cmplti	r2,zero,871
  80d358:	0080d9d0 	cmplti	r2,zero,871
  80d35c:	0080d420 	cmpeqi	r2,zero,848
  80d360:	d9002417 	ldw	r4,144(sp)
  80d364:	d9402417 	ldw	r5,144(sp)
  80d368:	21000017 	ldw	r4,0(r4)
  80d36c:	28800104 	addi	r2,r5,4
  80d370:	d9002515 	stw	r4,148(sp)
  80d374:	20032b0e 	bge	r4,zero,80e024 <___svfiprintf_internal_r+0xf7c>
  80d378:	d8c02517 	ldw	r3,148(sp)
  80d37c:	d8802415 	stw	r2,144(sp)
  80d380:	00c7c83a 	sub	r3,zero,r3
  80d384:	d8c02515 	stw	r3,148(sp)
  80d388:	8c400114 	ori	r17,r17,4
  80d38c:	98c00007 	ldb	r3,0(r19)
  80d390:	003f9106 	br	80d1d8 <__alt_mem_onchip_ram+0xff8091d8>
  80d394:	00800c04 	movi	r2,48
  80d398:	d9402417 	ldw	r5,144(sp)
  80d39c:	d9002017 	ldw	r4,128(sp)
  80d3a0:	d8801d05 	stb	r2,116(sp)
  80d3a4:	00801e04 	movi	r2,120
  80d3a8:	d8801d45 	stb	r2,117(sp)
  80d3ac:	d8001d85 	stb	zero,118(sp)
  80d3b0:	b811883a 	mov	r8,r23
  80d3b4:	28c00104 	addi	r3,r5,4
  80d3b8:	2c800017 	ldw	r18,0(r5)
  80d3bc:	0029883a 	mov	r20,zero
  80d3c0:	88800094 	ori	r2,r17,2
  80d3c4:	20036316 	blt	r4,zero,80e154 <___svfiprintf_internal_r+0x10ac>
  80d3c8:	00bfdfc4 	movi	r2,-129
  80d3cc:	88a0703a 	and	r16,r17,r2
  80d3d0:	d8c02415 	stw	r3,144(sp)
  80d3d4:	84000094 	ori	r16,r16,2
  80d3d8:	90031c26 	beq	r18,zero,80e04c <___svfiprintf_internal_r+0xfa4>
  80d3dc:	01402074 	movhi	r5,129
  80d3e0:	29533704 	addi	r5,r5,19676
  80d3e4:	002b883a 	mov	r21,zero
  80d3e8:	d9402915 	stw	r5,164(sp)
  80d3ec:	00002906 	br	80d494 <___svfiprintf_internal_r+0x3ec>
  80d3f0:	8c400054 	ori	r17,r17,1
  80d3f4:	98c00007 	ldb	r3,0(r19)
  80d3f8:	003f7706 	br	80d1d8 <__alt_mem_onchip_ram+0xff8091d8>
  80d3fc:	a8803fcc 	andi	r2,r21,255
  80d400:	1080201c 	xori	r2,r2,128
  80d404:	10bfe004 	addi	r2,r2,-128
  80d408:	10032a1e 	bne	r2,zero,80e0b4 <___svfiprintf_internal_r+0x100c>
  80d40c:	00c00044 	movi	r3,1
  80d410:	d8c02105 	stb	r3,132(sp)
  80d414:	05400804 	movi	r21,32
  80d418:	98c00007 	ldb	r3,0(r19)
  80d41c:	003f6e06 	br	80d1d8 <__alt_mem_onchip_ram+0xff8091d8>
  80d420:	8821883a 	mov	r16,r17
  80d424:	dc402103 	ldbu	r17,132(sp)
  80d428:	b811883a 	mov	r8,r23
  80d42c:	8c403fcc 	andi	r17,r17,255
  80d430:	8803f01e 	bne	r17,zero,80e3f4 <___svfiprintf_internal_r+0x134c>
  80d434:	00802074 	movhi	r2,129
  80d438:	10933704 	addi	r2,r2,19676
  80d43c:	d8802915 	stw	r2,164(sp)
  80d440:	8080080c 	andi	r2,r16,32
  80d444:	1000cd26 	beq	r2,zero,80d77c <___svfiprintf_internal_r+0x6d4>
  80d448:	d9002417 	ldw	r4,144(sp)
  80d44c:	24800017 	ldw	r18,0(r4)
  80d450:	25000117 	ldw	r20,4(r4)
  80d454:	21000204 	addi	r4,r4,8
  80d458:	d9002415 	stw	r4,144(sp)
  80d45c:	8080004c 	andi	r2,r16,1
  80d460:	1002c726 	beq	r2,zero,80df80 <___svfiprintf_internal_r+0xed8>
  80d464:	9504b03a 	or	r2,r18,r20
  80d468:	1003061e 	bne	r2,zero,80e084 <___svfiprintf_internal_r+0xfdc>
  80d46c:	d9002017 	ldw	r4,128(sp)
  80d470:	d8001d85 	stb	zero,118(sp)
  80d474:	20033e16 	blt	r4,zero,80e170 <___svfiprintf_internal_r+0x10c8>
  80d478:	00bfdfc4 	movi	r2,-129
  80d47c:	80a0703a 	and	r16,r16,r2
  80d480:	d9402017 	ldw	r5,128(sp)
  80d484:	002b883a 	mov	r21,zero
  80d488:	28002826 	beq	r5,zero,80d52c <___svfiprintf_internal_r+0x484>
  80d48c:	0025883a 	mov	r18,zero
  80d490:	0029883a 	mov	r20,zero
  80d494:	d9002917 	ldw	r4,164(sp)
  80d498:	dc401a04 	addi	r17,sp,104
  80d49c:	908003cc 	andi	r2,r18,15
  80d4a0:	a006973a 	slli	r3,r20,28
  80d4a4:	2085883a 	add	r2,r4,r2
  80d4a8:	9024d13a 	srli	r18,r18,4
  80d4ac:	10800003 	ldbu	r2,0(r2)
  80d4b0:	a028d13a 	srli	r20,r20,4
  80d4b4:	8c7fffc4 	addi	r17,r17,-1
  80d4b8:	1ca4b03a 	or	r18,r3,r18
  80d4bc:	88800005 	stb	r2,0(r17)
  80d4c0:	9504b03a 	or	r2,r18,r20
  80d4c4:	103ff51e 	bne	r2,zero,80d49c <__alt_mem_onchip_ram+0xff80949c>
  80d4c8:	d8801e17 	ldw	r2,120(sp)
  80d4cc:	1469c83a 	sub	r20,r2,r17
  80d4d0:	00001906 	br	80d538 <___svfiprintf_internal_r+0x490>
  80d4d4:	8821883a 	mov	r16,r17
  80d4d8:	dc402103 	ldbu	r17,132(sp)
  80d4dc:	b811883a 	mov	r8,r23
  80d4e0:	8c403fcc 	andi	r17,r17,255
  80d4e4:	8803d01e 	bne	r17,zero,80e428 <___svfiprintf_internal_r+0x1380>
  80d4e8:	8080080c 	andi	r2,r16,32
  80d4ec:	10016126 	beq	r2,zero,80da74 <___svfiprintf_internal_r+0x9cc>
  80d4f0:	d9002417 	ldw	r4,144(sp)
  80d4f4:	d9402017 	ldw	r5,128(sp)
  80d4f8:	d8001d85 	stb	zero,118(sp)
  80d4fc:	20c00204 	addi	r3,r4,8
  80d500:	24800017 	ldw	r18,0(r4)
  80d504:	25000117 	ldw	r20,4(r4)
  80d508:	28030f16 	blt	r5,zero,80e148 <___svfiprintf_internal_r+0x10a0>
  80d50c:	013fdfc4 	movi	r4,-129
  80d510:	9504b03a 	or	r2,r18,r20
  80d514:	d8c02415 	stw	r3,144(sp)
  80d518:	8120703a 	and	r16,r16,r4
  80d51c:	002b883a 	mov	r21,zero
  80d520:	1000cd1e 	bne	r2,zero,80d858 <___svfiprintf_internal_r+0x7b0>
  80d524:	d8c02017 	ldw	r3,128(sp)
  80d528:	1803141e 	bne	r3,zero,80e17c <___svfiprintf_internal_r+0x10d4>
  80d52c:	d8002015 	stw	zero,128(sp)
  80d530:	0029883a 	mov	r20,zero
  80d534:	dc401a04 	addi	r17,sp,104
  80d538:	dc802017 	ldw	r18,128(sp)
  80d53c:	9500010e 	bge	r18,r20,80d544 <___svfiprintf_internal_r+0x49c>
  80d540:	a025883a 	mov	r18,r20
  80d544:	ad403fcc 	andi	r21,r21,255
  80d548:	ad40201c 	xori	r21,r21,128
  80d54c:	ad7fe004 	addi	r21,r21,-128
  80d550:	a8003f26 	beq	r21,zero,80d650 <___svfiprintf_internal_r+0x5a8>
  80d554:	94800044 	addi	r18,r18,1
  80d558:	00003d06 	br	80d650 <___svfiprintf_internal_r+0x5a8>
  80d55c:	00c00044 	movi	r3,1
  80d560:	d8c02105 	stb	r3,132(sp)
  80d564:	05400ac4 	movi	r21,43
  80d568:	98c00007 	ldb	r3,0(r19)
  80d56c:	003f1a06 	br	80d1d8 <__alt_mem_onchip_ram+0xff8091d8>
  80d570:	8821883a 	mov	r16,r17
  80d574:	dc402103 	ldbu	r17,132(sp)
  80d578:	b811883a 	mov	r8,r23
  80d57c:	8c403fcc 	andi	r17,r17,255
  80d580:	8803a71e 	bne	r17,zero,80e420 <___svfiprintf_internal_r+0x1378>
  80d584:	8080080c 	andi	r2,r16,32
  80d588:	10015726 	beq	r2,zero,80dae8 <___svfiprintf_internal_r+0xa40>
  80d58c:	d8c02417 	ldw	r3,144(sp)
  80d590:	d9002017 	ldw	r4,128(sp)
  80d594:	d8001d85 	stb	zero,118(sp)
  80d598:	18800204 	addi	r2,r3,8
  80d59c:	1c800017 	ldw	r18,0(r3)
  80d5a0:	1d000117 	ldw	r20,4(r3)
  80d5a4:	2002db16 	blt	r4,zero,80e114 <___svfiprintf_internal_r+0x106c>
  80d5a8:	013fdfc4 	movi	r4,-129
  80d5ac:	9506b03a 	or	r3,r18,r20
  80d5b0:	d8802415 	stw	r2,144(sp)
  80d5b4:	8120703a 	and	r16,r16,r4
  80d5b8:	18015826 	beq	r3,zero,80db1c <___svfiprintf_internal_r+0xa74>
  80d5bc:	002b883a 	mov	r21,zero
  80d5c0:	dc401a04 	addi	r17,sp,104
  80d5c4:	9006d0fa 	srli	r3,r18,3
  80d5c8:	a008977a 	slli	r4,r20,29
  80d5cc:	a028d0fa 	srli	r20,r20,3
  80d5d0:	948001cc 	andi	r18,r18,7
  80d5d4:	90800c04 	addi	r2,r18,48
  80d5d8:	8c7fffc4 	addi	r17,r17,-1
  80d5dc:	20e4b03a 	or	r18,r4,r3
  80d5e0:	88800005 	stb	r2,0(r17)
  80d5e4:	9506b03a 	or	r3,r18,r20
  80d5e8:	183ff61e 	bne	r3,zero,80d5c4 <__alt_mem_onchip_ram+0xff8095c4>
  80d5ec:	80c0004c 	andi	r3,r16,1
  80d5f0:	18028926 	beq	r3,zero,80e018 <___svfiprintf_internal_r+0xf70>
  80d5f4:	10803fcc 	andi	r2,r2,255
  80d5f8:	1080201c 	xori	r2,r2,128
  80d5fc:	10bfe004 	addi	r2,r2,-128
  80d600:	00c00c04 	movi	r3,48
  80d604:	10ffb026 	beq	r2,r3,80d4c8 <__alt_mem_onchip_ram+0xff8094c8>
  80d608:	88ffffc5 	stb	r3,-1(r17)
  80d60c:	d8c01e17 	ldw	r3,120(sp)
  80d610:	88bfffc4 	addi	r2,r17,-1
  80d614:	1023883a 	mov	r17,r2
  80d618:	18a9c83a 	sub	r20,r3,r2
  80d61c:	003fc606 	br	80d538 <__alt_mem_onchip_ram+0xff809538>
  80d620:	d8c02417 	ldw	r3,144(sp)
  80d624:	04800044 	movi	r18,1
  80d628:	8821883a 	mov	r16,r17
  80d62c:	18800017 	ldw	r2,0(r3)
  80d630:	18c00104 	addi	r3,r3,4
  80d634:	b811883a 	mov	r8,r23
  80d638:	d8001d85 	stb	zero,118(sp)
  80d63c:	d8801005 	stb	r2,64(sp)
  80d640:	d8c02415 	stw	r3,144(sp)
  80d644:	9029883a 	mov	r20,r18
  80d648:	dc401004 	addi	r17,sp,64
  80d64c:	d8002015 	stw	zero,128(sp)
  80d650:	80c0008c 	andi	r3,r16,2
  80d654:	d8c02115 	stw	r3,132(sp)
  80d658:	18000126 	beq	r3,zero,80d660 <___svfiprintf_internal_r+0x5b8>
  80d65c:	94800084 	addi	r18,r18,2
  80d660:	80c0210c 	andi	r3,r16,132
  80d664:	d8c02215 	stw	r3,136(sp)
  80d668:	1801321e 	bne	r3,zero,80db34 <___svfiprintf_internal_r+0xa8c>
  80d66c:	d9002517 	ldw	r4,148(sp)
  80d670:	24b9c83a 	sub	fp,r4,r18
  80d674:	07012f0e 	bge	zero,fp,80db34 <___svfiprintf_internal_r+0xa8c>
  80d678:	02400404 	movi	r9,16
  80d67c:	d8c01c17 	ldw	r3,112(sp)
  80d680:	d8801b17 	ldw	r2,108(sp)
  80d684:	4f03250e 	bge	r9,fp,80e31c <___svfiprintf_internal_r+0x1274>
  80d688:	01002074 	movhi	r4,129
  80d68c:	2113d804 	addi	r4,r4,20320
  80d690:	dc002a15 	stw	r16,168(sp)
  80d694:	dc402b15 	stw	r17,172(sp)
  80d698:	d9002815 	stw	r4,160(sp)
  80d69c:	e023883a 	mov	r17,fp
  80d6a0:	482f883a 	mov	r23,r9
  80d6a4:	9839883a 	mov	fp,r19
  80d6a8:	054001c4 	movi	r21,7
  80d6ac:	9027883a 	mov	r19,r18
  80d6b0:	dc002717 	ldw	r16,156(sp)
  80d6b4:	dc802317 	ldw	r18,140(sp)
  80d6b8:	00000306 	br	80d6c8 <___svfiprintf_internal_r+0x620>
  80d6bc:	8c7ffc04 	addi	r17,r17,-16
  80d6c0:	42000204 	addi	r8,r8,8
  80d6c4:	bc40130e 	bge	r23,r17,80d714 <___svfiprintf_internal_r+0x66c>
  80d6c8:	01402074 	movhi	r5,129
  80d6cc:	18c00404 	addi	r3,r3,16
  80d6d0:	10800044 	addi	r2,r2,1
  80d6d4:	2953d804 	addi	r5,r5,20320
  80d6d8:	41400015 	stw	r5,0(r8)
  80d6dc:	45c00115 	stw	r23,4(r8)
  80d6e0:	d8c01c15 	stw	r3,112(sp)
  80d6e4:	d8801b15 	stw	r2,108(sp)
  80d6e8:	a8bff40e 	bge	r21,r2,80d6bc <__alt_mem_onchip_ram+0xff8096bc>
  80d6ec:	d9801a04 	addi	r6,sp,104
  80d6f0:	900b883a 	mov	r5,r18
  80d6f4:	8009883a 	mov	r4,r16
  80d6f8:	080ced80 	call	80ced8 <__ssprint_r>
  80d6fc:	1001aa1e 	bne	r2,zero,80dda8 <___svfiprintf_internal_r+0xd00>
  80d700:	8c7ffc04 	addi	r17,r17,-16
  80d704:	d8c01c17 	ldw	r3,112(sp)
  80d708:	d8801b17 	ldw	r2,108(sp)
  80d70c:	d811883a 	mov	r8,sp
  80d710:	bc7fed16 	blt	r23,r17,80d6c8 <__alt_mem_onchip_ram+0xff8096c8>
  80d714:	9825883a 	mov	r18,r19
  80d718:	dc002a17 	ldw	r16,168(sp)
  80d71c:	e027883a 	mov	r19,fp
  80d720:	8839883a 	mov	fp,r17
  80d724:	dc402b17 	ldw	r17,172(sp)
  80d728:	d9002817 	ldw	r4,160(sp)
  80d72c:	e0c7883a 	add	r3,fp,r3
  80d730:	10800044 	addi	r2,r2,1
  80d734:	41000015 	stw	r4,0(r8)
  80d738:	47000115 	stw	fp,4(r8)
  80d73c:	d8c01c15 	stw	r3,112(sp)
  80d740:	d8801b15 	stw	r2,108(sp)
  80d744:	010001c4 	movi	r4,7
  80d748:	20821616 	blt	r4,r2,80dfa4 <___svfiprintf_internal_r+0xefc>
  80d74c:	42000204 	addi	r8,r8,8
  80d750:	0000fa06 	br	80db3c <___svfiprintf_internal_r+0xa94>
  80d754:	8821883a 	mov	r16,r17
  80d758:	dc402103 	ldbu	r17,132(sp)
  80d75c:	b811883a 	mov	r8,r23
  80d760:	8c403fcc 	andi	r17,r17,255
  80d764:	8803361e 	bne	r17,zero,80e440 <___svfiprintf_internal_r+0x1398>
  80d768:	01402074 	movhi	r5,129
  80d76c:	29533204 	addi	r5,r5,19656
  80d770:	d9402915 	stw	r5,164(sp)
  80d774:	8080080c 	andi	r2,r16,32
  80d778:	103f331e 	bne	r2,zero,80d448 <__alt_mem_onchip_ram+0xff809448>
  80d77c:	8080040c 	andi	r2,r16,16
  80d780:	1002551e 	bne	r2,zero,80e0d8 <___svfiprintf_internal_r+0x1030>
  80d784:	8080100c 	andi	r2,r16,64
  80d788:	1002a626 	beq	r2,zero,80e224 <___svfiprintf_internal_r+0x117c>
  80d78c:	d8802417 	ldw	r2,144(sp)
  80d790:	0029883a 	mov	r20,zero
  80d794:	1480000b 	ldhu	r18,0(r2)
  80d798:	10800104 	addi	r2,r2,4
  80d79c:	d8802415 	stw	r2,144(sp)
  80d7a0:	003f2e06 	br	80d45c <__alt_mem_onchip_ram+0xff80945c>
  80d7a4:	8821883a 	mov	r16,r17
  80d7a8:	dc402103 	ldbu	r17,132(sp)
  80d7ac:	b811883a 	mov	r8,r23
  80d7b0:	8c403fcc 	andi	r17,r17,255
  80d7b4:	88030b1e 	bne	r17,zero,80e3e4 <___svfiprintf_internal_r+0x133c>
  80d7b8:	8080080c 	andi	r2,r16,32
  80d7bc:	1002271e 	bne	r2,zero,80e05c <___svfiprintf_internal_r+0xfb4>
  80d7c0:	8080040c 	andi	r2,r16,16
  80d7c4:	10028e26 	beq	r2,zero,80e200 <___svfiprintf_internal_r+0x1158>
  80d7c8:	d8c02417 	ldw	r3,144(sp)
  80d7cc:	d9002617 	ldw	r4,152(sp)
  80d7d0:	18800017 	ldw	r2,0(r3)
  80d7d4:	18c00104 	addi	r3,r3,4
  80d7d8:	d8c02415 	stw	r3,144(sp)
  80d7dc:	11000015 	stw	r4,0(r2)
  80d7e0:	003e5306 	br	80d130 <__alt_mem_onchip_ram+0xff809130>
  80d7e4:	98c00007 	ldb	r3,0(r19)
  80d7e8:	01401b04 	movi	r5,108
  80d7ec:	19424f26 	beq	r3,r5,80e12c <___svfiprintf_internal_r+0x1084>
  80d7f0:	8c400414 	ori	r17,r17,16
  80d7f4:	003e7806 	br	80d1d8 <__alt_mem_onchip_ram+0xff8091d8>
  80d7f8:	8c401014 	ori	r17,r17,64
  80d7fc:	98c00007 	ldb	r3,0(r19)
  80d800:	003e7506 	br	80d1d8 <__alt_mem_onchip_ram+0xff8091d8>
  80d804:	8821883a 	mov	r16,r17
  80d808:	dc402103 	ldbu	r17,132(sp)
  80d80c:	b811883a 	mov	r8,r23
  80d810:	8c403fcc 	andi	r17,r17,255
  80d814:	8802fe1e 	bne	r17,zero,80e410 <___svfiprintf_internal_r+0x1368>
  80d818:	8080080c 	andi	r2,r16,32
  80d81c:	10004626 	beq	r2,zero,80d938 <___svfiprintf_internal_r+0x890>
  80d820:	d9002417 	ldw	r4,144(sp)
  80d824:	20800117 	ldw	r2,4(r4)
  80d828:	24800017 	ldw	r18,0(r4)
  80d82c:	21000204 	addi	r4,r4,8
  80d830:	d9002415 	stw	r4,144(sp)
  80d834:	1029883a 	mov	r20,r2
  80d838:	10004a16 	blt	r2,zero,80d964 <___svfiprintf_internal_r+0x8bc>
  80d83c:	d9002017 	ldw	r4,128(sp)
  80d840:	dd401d83 	ldbu	r21,118(sp)
  80d844:	2001eb16 	blt	r4,zero,80dff4 <___svfiprintf_internal_r+0xf4c>
  80d848:	00ffdfc4 	movi	r3,-129
  80d84c:	9504b03a 	or	r2,r18,r20
  80d850:	80e0703a 	and	r16,r16,r3
  80d854:	103f3326 	beq	r2,zero,80d524 <__alt_mem_onchip_ram+0xff809524>
  80d858:	a0009426 	beq	r20,zero,80daac <___svfiprintf_internal_r+0xa04>
  80d85c:	dc401a04 	addi	r17,sp,104
  80d860:	402f883a 	mov	r23,r8
  80d864:	9009883a 	mov	r4,r18
  80d868:	a00b883a 	mov	r5,r20
  80d86c:	01800284 	movi	r6,10
  80d870:	000f883a 	mov	r7,zero
  80d874:	080edfc0 	call	80edfc <__umoddi3>
  80d878:	10800c04 	addi	r2,r2,48
  80d87c:	8c7fffc4 	addi	r17,r17,-1
  80d880:	9009883a 	mov	r4,r18
  80d884:	a00b883a 	mov	r5,r20
  80d888:	88800005 	stb	r2,0(r17)
  80d88c:	01800284 	movi	r6,10
  80d890:	000f883a 	mov	r7,zero
  80d894:	080e8000 	call	80e800 <__udivdi3>
  80d898:	1025883a 	mov	r18,r2
  80d89c:	10c4b03a 	or	r2,r2,r3
  80d8a0:	1829883a 	mov	r20,r3
  80d8a4:	103fef1e 	bne	r2,zero,80d864 <__alt_mem_onchip_ram+0xff809864>
  80d8a8:	d9001e17 	ldw	r4,120(sp)
  80d8ac:	b811883a 	mov	r8,r23
  80d8b0:	2469c83a 	sub	r20,r4,r17
  80d8b4:	003f2006 	br	80d538 <__alt_mem_onchip_ram+0xff809538>
  80d8b8:	d8802417 	ldw	r2,144(sp)
  80d8bc:	8821883a 	mov	r16,r17
  80d8c0:	d8001d85 	stb	zero,118(sp)
  80d8c4:	14400017 	ldw	r17,0(r2)
  80d8c8:	b811883a 	mov	r8,r23
  80d8cc:	15c00104 	addi	r23,r2,4
  80d8d0:	88026c26 	beq	r17,zero,80e284 <___svfiprintf_internal_r+0x11dc>
  80d8d4:	d8c02017 	ldw	r3,128(sp)
  80d8d8:	18025f16 	blt	r3,zero,80e258 <___svfiprintf_internal_r+0x11b0>
  80d8dc:	180d883a 	mov	r6,r3
  80d8e0:	000b883a 	mov	r5,zero
  80d8e4:	8809883a 	mov	r4,r17
  80d8e8:	da002d15 	stw	r8,180(sp)
  80d8ec:	080b6100 	call	80b610 <memchr>
  80d8f0:	da002d17 	ldw	r8,180(sp)
  80d8f4:	1002a526 	beq	r2,zero,80e38c <___svfiprintf_internal_r+0x12e4>
  80d8f8:	1469c83a 	sub	r20,r2,r17
  80d8fc:	dd401d83 	ldbu	r21,118(sp)
  80d900:	ddc02415 	stw	r23,144(sp)
  80d904:	d8002015 	stw	zero,128(sp)
  80d908:	003f0b06 	br	80d538 <__alt_mem_onchip_ram+0xff809538>
  80d90c:	8c400814 	ori	r17,r17,32
  80d910:	98c00007 	ldb	r3,0(r19)
  80d914:	003e3006 	br	80d1d8 <__alt_mem_onchip_ram+0xff8091d8>
  80d918:	8821883a 	mov	r16,r17
  80d91c:	dc402103 	ldbu	r17,132(sp)
  80d920:	b811883a 	mov	r8,r23
  80d924:	8c403fcc 	andi	r17,r17,255
  80d928:	8802b01e 	bne	r17,zero,80e3ec <___svfiprintf_internal_r+0x1344>
  80d92c:	84000414 	ori	r16,r16,16
  80d930:	8080080c 	andi	r2,r16,32
  80d934:	103fba1e 	bne	r2,zero,80d820 <__alt_mem_onchip_ram+0xff809820>
  80d938:	8080040c 	andi	r2,r16,16
  80d93c:	1001df1e 	bne	r2,zero,80e0bc <___svfiprintf_internal_r+0x1014>
  80d940:	8080100c 	andi	r2,r16,64
  80d944:	10023d26 	beq	r2,zero,80e23c <___svfiprintf_internal_r+0x1194>
  80d948:	d8802417 	ldw	r2,144(sp)
  80d94c:	1480000f 	ldh	r18,0(r2)
  80d950:	10800104 	addi	r2,r2,4
  80d954:	d8802415 	stw	r2,144(sp)
  80d958:	9029d7fa 	srai	r20,r18,31
  80d95c:	a005883a 	mov	r2,r20
  80d960:	103fb60e 	bge	r2,zero,80d83c <__alt_mem_onchip_ram+0xff80983c>
  80d964:	d9402017 	ldw	r5,128(sp)
  80d968:	04a5c83a 	sub	r18,zero,r18
  80d96c:	05400b44 	movi	r21,45
  80d970:	9004c03a 	cmpne	r2,r18,zero
  80d974:	0529c83a 	sub	r20,zero,r20
  80d978:	dd401d85 	stb	r21,118(sp)
  80d97c:	a0a9c83a 	sub	r20,r20,r2
  80d980:	28026c16 	blt	r5,zero,80e334 <___svfiprintf_internal_r+0x128c>
  80d984:	00bfdfc4 	movi	r2,-129
  80d988:	80a0703a 	and	r16,r16,r2
  80d98c:	a03fb31e 	bne	r20,zero,80d85c <__alt_mem_onchip_ram+0xff80985c>
  80d990:	00004606 	br	80daac <___svfiprintf_internal_r+0xa04>
  80d994:	9839883a 	mov	fp,r19
  80d998:	d8002515 	stw	zero,148(sp)
  80d99c:	1c3ff404 	addi	r16,r3,-48
  80d9a0:	0009883a 	mov	r4,zero
  80d9a4:	01400284 	movi	r5,10
  80d9a8:	080f5740 	call	80f574 <__mulsi3>
  80d9ac:	e0c00007 	ldb	r3,0(fp)
  80d9b0:	8089883a 	add	r4,r16,r2
  80d9b4:	9cc00044 	addi	r19,r19,1
  80d9b8:	1c3ff404 	addi	r16,r3,-48
  80d9bc:	9839883a 	mov	fp,r19
  80d9c0:	a43ff82e 	bgeu	r20,r16,80d9a4 <__alt_mem_onchip_ram+0xff8099a4>
  80d9c4:	d9002515 	stw	r4,148(sp)
  80d9c8:	18bff804 	addi	r2,r3,-32
  80d9cc:	90be052e 	bgeu	r18,r2,80d1e4 <__alt_mem_onchip_ram+0xff8091e4>
  80d9d0:	8821883a 	mov	r16,r17
  80d9d4:	dc402103 	ldbu	r17,132(sp)
  80d9d8:	b811883a 	mov	r8,r23
  80d9dc:	8c403fcc 	andi	r17,r17,255
  80d9e0:	88028d1e 	bne	r17,zero,80e418 <___svfiprintf_internal_r+0x1370>
  80d9e4:	1800ea26 	beq	r3,zero,80dd90 <___svfiprintf_internal_r+0xce8>
  80d9e8:	04800044 	movi	r18,1
  80d9ec:	d8c01005 	stb	r3,64(sp)
  80d9f0:	d8001d85 	stb	zero,118(sp)
  80d9f4:	9029883a 	mov	r20,r18
  80d9f8:	dc401004 	addi	r17,sp,64
  80d9fc:	003f1306 	br	80d64c <__alt_mem_onchip_ram+0xff80964c>
  80da00:	8c402014 	ori	r17,r17,128
  80da04:	98c00007 	ldb	r3,0(r19)
  80da08:	003df306 	br	80d1d8 <__alt_mem_onchip_ram+0xff8091d8>
  80da0c:	98c00007 	ldb	r3,0(r19)
  80da10:	01000a84 	movi	r4,42
  80da14:	9f000044 	addi	fp,r19,1
  80da18:	19026326 	beq	r3,r4,80e3a8 <___svfiprintf_internal_r+0x1300>
  80da1c:	1c3ff404 	addi	r16,r3,-48
  80da20:	0009883a 	mov	r4,zero
  80da24:	a4025636 	bltu	r20,r16,80e380 <___svfiprintf_internal_r+0x12d8>
  80da28:	01400284 	movi	r5,10
  80da2c:	080f5740 	call	80f574 <__mulsi3>
  80da30:	e0c00007 	ldb	r3,0(fp)
  80da34:	1409883a 	add	r4,r2,r16
  80da38:	e4c00044 	addi	r19,fp,1
  80da3c:	1c3ff404 	addi	r16,r3,-48
  80da40:	9839883a 	mov	fp,r19
  80da44:	a43ff82e 	bgeu	r20,r16,80da28 <__alt_mem_onchip_ram+0xff809a28>
  80da48:	20020c16 	blt	r4,zero,80e27c <___svfiprintf_internal_r+0x11d4>
  80da4c:	d9002015 	stw	r4,128(sp)
  80da50:	003de206 	br	80d1dc <__alt_mem_onchip_ram+0xff8091dc>
  80da54:	8821883a 	mov	r16,r17
  80da58:	dc402103 	ldbu	r17,132(sp)
  80da5c:	b811883a 	mov	r8,r23
  80da60:	8c403fcc 	andi	r17,r17,255
  80da64:	8802721e 	bne	r17,zero,80e430 <___svfiprintf_internal_r+0x1388>
  80da68:	84000414 	ori	r16,r16,16
  80da6c:	8080080c 	andi	r2,r16,32
  80da70:	103e9f1e 	bne	r2,zero,80d4f0 <__alt_mem_onchip_ram+0xff8094f0>
  80da74:	8080040c 	andi	r2,r16,16
  80da78:	10015326 	beq	r2,zero,80dfc8 <___svfiprintf_internal_r+0xf20>
  80da7c:	d8c02417 	ldw	r3,144(sp)
  80da80:	d9002017 	ldw	r4,128(sp)
  80da84:	d8001d85 	stb	zero,118(sp)
  80da88:	18800104 	addi	r2,r3,4
  80da8c:	1c800017 	ldw	r18,0(r3)
  80da90:	0029883a 	mov	r20,zero
  80da94:	20015516 	blt	r4,zero,80dfec <___svfiprintf_internal_r+0xf44>
  80da98:	00ffdfc4 	movi	r3,-129
  80da9c:	d8802415 	stw	r2,144(sp)
  80daa0:	80e0703a 	and	r16,r16,r3
  80daa4:	002b883a 	mov	r21,zero
  80daa8:	903e9e26 	beq	r18,zero,80d524 <__alt_mem_onchip_ram+0xff809524>
  80daac:	00800244 	movi	r2,9
  80dab0:	14bf6a36 	bltu	r2,r18,80d85c <__alt_mem_onchip_ram+0xff80985c>
  80dab4:	94800c04 	addi	r18,r18,48
  80dab8:	dc8019c5 	stb	r18,103(sp)
  80dabc:	dd002c17 	ldw	r20,176(sp)
  80dac0:	dc4019c4 	addi	r17,sp,103
  80dac4:	003e9c06 	br	80d538 <__alt_mem_onchip_ram+0xff809538>
  80dac8:	8821883a 	mov	r16,r17
  80dacc:	dc402103 	ldbu	r17,132(sp)
  80dad0:	b811883a 	mov	r8,r23
  80dad4:	8c403fcc 	andi	r17,r17,255
  80dad8:	8802571e 	bne	r17,zero,80e438 <___svfiprintf_internal_r+0x1390>
  80dadc:	84000414 	ori	r16,r16,16
  80dae0:	8080080c 	andi	r2,r16,32
  80dae4:	103ea91e 	bne	r2,zero,80d58c <__alt_mem_onchip_ram+0xff80958c>
  80dae8:	8080040c 	andi	r2,r16,16
  80daec:	10018026 	beq	r2,zero,80e0f0 <___svfiprintf_internal_r+0x1048>
  80daf0:	d9402417 	ldw	r5,144(sp)
  80daf4:	d8c02017 	ldw	r3,128(sp)
  80daf8:	d8001d85 	stb	zero,118(sp)
  80dafc:	28800104 	addi	r2,r5,4
  80db00:	2c800017 	ldw	r18,0(r5)
  80db04:	0029883a 	mov	r20,zero
  80db08:	18018216 	blt	r3,zero,80e114 <___svfiprintf_internal_r+0x106c>
  80db0c:	00ffdfc4 	movi	r3,-129
  80db10:	d8802415 	stw	r2,144(sp)
  80db14:	80e0703a 	and	r16,r16,r3
  80db18:	903ea81e 	bne	r18,zero,80d5bc <__alt_mem_onchip_ram+0xff8095bc>
  80db1c:	d8802017 	ldw	r2,128(sp)
  80db20:	002b883a 	mov	r21,zero
  80db24:	1001f226 	beq	r2,zero,80e2f0 <___svfiprintf_internal_r+0x1248>
  80db28:	0025883a 	mov	r18,zero
  80db2c:	0029883a 	mov	r20,zero
  80db30:	003ea306 	br	80d5c0 <__alt_mem_onchip_ram+0xff8095c0>
  80db34:	d8c01c17 	ldw	r3,112(sp)
  80db38:	d8801b17 	ldw	r2,108(sp)
  80db3c:	d9001d87 	ldb	r4,118(sp)
  80db40:	20000b26 	beq	r4,zero,80db70 <___svfiprintf_internal_r+0xac8>
  80db44:	d9001d84 	addi	r4,sp,118
  80db48:	18c00044 	addi	r3,r3,1
  80db4c:	10800044 	addi	r2,r2,1
  80db50:	41000015 	stw	r4,0(r8)
  80db54:	01000044 	movi	r4,1
  80db58:	41000115 	stw	r4,4(r8)
  80db5c:	d8c01c15 	stw	r3,112(sp)
  80db60:	d8801b15 	stw	r2,108(sp)
  80db64:	010001c4 	movi	r4,7
  80db68:	2080f316 	blt	r4,r2,80df38 <___svfiprintf_internal_r+0xe90>
  80db6c:	42000204 	addi	r8,r8,8
  80db70:	d9402117 	ldw	r5,132(sp)
  80db74:	28000b26 	beq	r5,zero,80dba4 <___svfiprintf_internal_r+0xafc>
  80db78:	d9001d04 	addi	r4,sp,116
  80db7c:	18c00084 	addi	r3,r3,2
  80db80:	10800044 	addi	r2,r2,1
  80db84:	41000015 	stw	r4,0(r8)
  80db88:	01000084 	movi	r4,2
  80db8c:	41000115 	stw	r4,4(r8)
  80db90:	d8c01c15 	stw	r3,112(sp)
  80db94:	d8801b15 	stw	r2,108(sp)
  80db98:	010001c4 	movi	r4,7
  80db9c:	2080ef16 	blt	r4,r2,80df5c <___svfiprintf_internal_r+0xeb4>
  80dba0:	42000204 	addi	r8,r8,8
  80dba4:	d9402217 	ldw	r5,136(sp)
  80dba8:	01002004 	movi	r4,128
  80dbac:	29008f26 	beq	r5,r4,80ddec <___svfiprintf_internal_r+0xd44>
  80dbb0:	d9002017 	ldw	r4,128(sp)
  80dbb4:	252fc83a 	sub	r23,r4,r20
  80dbb8:	05c0310e 	bge	zero,r23,80dc80 <___svfiprintf_internal_r+0xbd8>
  80dbbc:	07000404 	movi	fp,16
  80dbc0:	e5c17d0e 	bge	fp,r23,80e1b8 <___svfiprintf_internal_r+0x1110>
  80dbc4:	01002074 	movhi	r4,129
  80dbc8:	2113d404 	addi	r4,r4,20304
  80dbcc:	dc002015 	stw	r16,128(sp)
  80dbd0:	dc402215 	stw	r17,136(sp)
  80dbd4:	d9002115 	stw	r4,132(sp)
  80dbd8:	b823883a 	mov	r17,r23
  80dbdc:	054001c4 	movi	r21,7
  80dbe0:	982f883a 	mov	r23,r19
  80dbe4:	dc002717 	ldw	r16,156(sp)
  80dbe8:	9027883a 	mov	r19,r18
  80dbec:	dc802317 	ldw	r18,140(sp)
  80dbf0:	00000306 	br	80dc00 <___svfiprintf_internal_r+0xb58>
  80dbf4:	8c7ffc04 	addi	r17,r17,-16
  80dbf8:	42000204 	addi	r8,r8,8
  80dbfc:	e440110e 	bge	fp,r17,80dc44 <___svfiprintf_internal_r+0xb9c>
  80dc00:	18c00404 	addi	r3,r3,16
  80dc04:	10800044 	addi	r2,r2,1
  80dc08:	45800015 	stw	r22,0(r8)
  80dc0c:	47000115 	stw	fp,4(r8)
  80dc10:	d8c01c15 	stw	r3,112(sp)
  80dc14:	d8801b15 	stw	r2,108(sp)
  80dc18:	a8bff60e 	bge	r21,r2,80dbf4 <__alt_mem_onchip_ram+0xff809bf4>
  80dc1c:	d9801a04 	addi	r6,sp,104
  80dc20:	900b883a 	mov	r5,r18
  80dc24:	8009883a 	mov	r4,r16
  80dc28:	080ced80 	call	80ced8 <__ssprint_r>
  80dc2c:	10005e1e 	bne	r2,zero,80dda8 <___svfiprintf_internal_r+0xd00>
  80dc30:	8c7ffc04 	addi	r17,r17,-16
  80dc34:	d8c01c17 	ldw	r3,112(sp)
  80dc38:	d8801b17 	ldw	r2,108(sp)
  80dc3c:	d811883a 	mov	r8,sp
  80dc40:	e47fef16 	blt	fp,r17,80dc00 <__alt_mem_onchip_ram+0xff809c00>
  80dc44:	9825883a 	mov	r18,r19
  80dc48:	dc002017 	ldw	r16,128(sp)
  80dc4c:	b827883a 	mov	r19,r23
  80dc50:	882f883a 	mov	r23,r17
  80dc54:	dc402217 	ldw	r17,136(sp)
  80dc58:	d9402117 	ldw	r5,132(sp)
  80dc5c:	1dc7883a 	add	r3,r3,r23
  80dc60:	10800044 	addi	r2,r2,1
  80dc64:	41400015 	stw	r5,0(r8)
  80dc68:	45c00115 	stw	r23,4(r8)
  80dc6c:	d8c01c15 	stw	r3,112(sp)
  80dc70:	d8801b15 	stw	r2,108(sp)
  80dc74:	010001c4 	movi	r4,7
  80dc78:	2080a616 	blt	r4,r2,80df14 <___svfiprintf_internal_r+0xe6c>
  80dc7c:	42000204 	addi	r8,r8,8
  80dc80:	a0c7883a 	add	r3,r20,r3
  80dc84:	10800044 	addi	r2,r2,1
  80dc88:	44400015 	stw	r17,0(r8)
  80dc8c:	45000115 	stw	r20,4(r8)
  80dc90:	d8c01c15 	stw	r3,112(sp)
  80dc94:	d8801b15 	stw	r2,108(sp)
  80dc98:	010001c4 	movi	r4,7
  80dc9c:	20808816 	blt	r4,r2,80dec0 <___svfiprintf_internal_r+0xe18>
  80dca0:	42000204 	addi	r8,r8,8
  80dca4:	8400010c 	andi	r16,r16,4
  80dca8:	80002c26 	beq	r16,zero,80dd5c <___svfiprintf_internal_r+0xcb4>
  80dcac:	d8802517 	ldw	r2,148(sp)
  80dcb0:	14a1c83a 	sub	r16,r2,r18
  80dcb4:	0400290e 	bge	zero,r16,80dd5c <___svfiprintf_internal_r+0xcb4>
  80dcb8:	04400404 	movi	r17,16
  80dcbc:	d8801b17 	ldw	r2,108(sp)
  80dcc0:	8c01a70e 	bge	r17,r16,80e360 <___svfiprintf_internal_r+0x12b8>
  80dcc4:	01402074 	movhi	r5,129
  80dcc8:	2953d804 	addi	r5,r5,20320
  80dccc:	d9402815 	stw	r5,160(sp)
  80dcd0:	050001c4 	movi	r20,7
  80dcd4:	dd402717 	ldw	r21,156(sp)
  80dcd8:	ddc02317 	ldw	r23,140(sp)
  80dcdc:	00000306 	br	80dcec <___svfiprintf_internal_r+0xc44>
  80dce0:	843ffc04 	addi	r16,r16,-16
  80dce4:	42000204 	addi	r8,r8,8
  80dce8:	8c00130e 	bge	r17,r16,80dd38 <___svfiprintf_internal_r+0xc90>
  80dcec:	01002074 	movhi	r4,129
  80dcf0:	18c00404 	addi	r3,r3,16
  80dcf4:	10800044 	addi	r2,r2,1
  80dcf8:	2113d804 	addi	r4,r4,20320
  80dcfc:	41000015 	stw	r4,0(r8)
  80dd00:	44400115 	stw	r17,4(r8)
  80dd04:	d8c01c15 	stw	r3,112(sp)
  80dd08:	d8801b15 	stw	r2,108(sp)
  80dd0c:	a0bff40e 	bge	r20,r2,80dce0 <__alt_mem_onchip_ram+0xff809ce0>
  80dd10:	d9801a04 	addi	r6,sp,104
  80dd14:	b80b883a 	mov	r5,r23
  80dd18:	a809883a 	mov	r4,r21
  80dd1c:	080ced80 	call	80ced8 <__ssprint_r>
  80dd20:	1000211e 	bne	r2,zero,80dda8 <___svfiprintf_internal_r+0xd00>
  80dd24:	843ffc04 	addi	r16,r16,-16
  80dd28:	d8c01c17 	ldw	r3,112(sp)
  80dd2c:	d8801b17 	ldw	r2,108(sp)
  80dd30:	d811883a 	mov	r8,sp
  80dd34:	8c3fed16 	blt	r17,r16,80dcec <__alt_mem_onchip_ram+0xff809cec>
  80dd38:	d9402817 	ldw	r5,160(sp)
  80dd3c:	1c07883a 	add	r3,r3,r16
  80dd40:	10800044 	addi	r2,r2,1
  80dd44:	41400015 	stw	r5,0(r8)
  80dd48:	44000115 	stw	r16,4(r8)
  80dd4c:	d8c01c15 	stw	r3,112(sp)
  80dd50:	d8801b15 	stw	r2,108(sp)
  80dd54:	010001c4 	movi	r4,7
  80dd58:	2080b516 	blt	r4,r2,80e030 <___svfiprintf_internal_r+0xf88>
  80dd5c:	d8802517 	ldw	r2,148(sp)
  80dd60:	1480010e 	bge	r2,r18,80dd68 <___svfiprintf_internal_r+0xcc0>
  80dd64:	9005883a 	mov	r2,r18
  80dd68:	d9002617 	ldw	r4,152(sp)
  80dd6c:	2089883a 	add	r4,r4,r2
  80dd70:	d9002615 	stw	r4,152(sp)
  80dd74:	18005a1e 	bne	r3,zero,80dee0 <___svfiprintf_internal_r+0xe38>
  80dd78:	98800007 	ldb	r2,0(r19)
  80dd7c:	d8001b15 	stw	zero,108(sp)
  80dd80:	d811883a 	mov	r8,sp
  80dd84:	103cec1e 	bne	r2,zero,80d138 <__alt_mem_onchip_ram+0xff809138>
  80dd88:	9825883a 	mov	r18,r19
  80dd8c:	003d0206 	br	80d198 <__alt_mem_onchip_ram+0xff809198>
  80dd90:	d8801c17 	ldw	r2,112(sp)
  80dd94:	10000426 	beq	r2,zero,80dda8 <___svfiprintf_internal_r+0xd00>
  80dd98:	d9402317 	ldw	r5,140(sp)
  80dd9c:	d9002717 	ldw	r4,156(sp)
  80dda0:	d9801a04 	addi	r6,sp,104
  80dda4:	080ced80 	call	80ced8 <__ssprint_r>
  80dda8:	d9402317 	ldw	r5,140(sp)
  80ddac:	d8802617 	ldw	r2,152(sp)
  80ddb0:	28c0030b 	ldhu	r3,12(r5)
  80ddb4:	18c0100c 	andi	r3,r3,64
  80ddb8:	18015c1e 	bne	r3,zero,80e32c <___svfiprintf_internal_r+0x1284>
  80ddbc:	dfc03717 	ldw	ra,220(sp)
  80ddc0:	df003617 	ldw	fp,216(sp)
  80ddc4:	ddc03517 	ldw	r23,212(sp)
  80ddc8:	dd803417 	ldw	r22,208(sp)
  80ddcc:	dd403317 	ldw	r21,204(sp)
  80ddd0:	dd003217 	ldw	r20,200(sp)
  80ddd4:	dcc03117 	ldw	r19,196(sp)
  80ddd8:	dc803017 	ldw	r18,192(sp)
  80dddc:	dc402f17 	ldw	r17,188(sp)
  80dde0:	dc002e17 	ldw	r16,184(sp)
  80dde4:	dec03804 	addi	sp,sp,224
  80dde8:	f800283a 	ret
  80ddec:	d9002517 	ldw	r4,148(sp)
  80ddf0:	24afc83a 	sub	r23,r4,r18
  80ddf4:	05ff6e0e 	bge	zero,r23,80dbb0 <__alt_mem_onchip_ram+0xff809bb0>
  80ddf8:	07000404 	movi	fp,16
  80ddfc:	e5c15c0e 	bge	fp,r23,80e370 <___svfiprintf_internal_r+0x12c8>
  80de00:	01002074 	movhi	r4,129
  80de04:	2113d404 	addi	r4,r4,20304
  80de08:	dc002215 	stw	r16,136(sp)
  80de0c:	dc402815 	stw	r17,160(sp)
  80de10:	d9002115 	stw	r4,132(sp)
  80de14:	b823883a 	mov	r17,r23
  80de18:	054001c4 	movi	r21,7
  80de1c:	982f883a 	mov	r23,r19
  80de20:	dc002717 	ldw	r16,156(sp)
  80de24:	9027883a 	mov	r19,r18
  80de28:	dc802317 	ldw	r18,140(sp)
  80de2c:	00000306 	br	80de3c <___svfiprintf_internal_r+0xd94>
  80de30:	8c7ffc04 	addi	r17,r17,-16
  80de34:	42000204 	addi	r8,r8,8
  80de38:	e440110e 	bge	fp,r17,80de80 <___svfiprintf_internal_r+0xdd8>
  80de3c:	18c00404 	addi	r3,r3,16
  80de40:	10800044 	addi	r2,r2,1
  80de44:	45800015 	stw	r22,0(r8)
  80de48:	47000115 	stw	fp,4(r8)
  80de4c:	d8c01c15 	stw	r3,112(sp)
  80de50:	d8801b15 	stw	r2,108(sp)
  80de54:	a8bff60e 	bge	r21,r2,80de30 <__alt_mem_onchip_ram+0xff809e30>
  80de58:	d9801a04 	addi	r6,sp,104
  80de5c:	900b883a 	mov	r5,r18
  80de60:	8009883a 	mov	r4,r16
  80de64:	080ced80 	call	80ced8 <__ssprint_r>
  80de68:	103fcf1e 	bne	r2,zero,80dda8 <__alt_mem_onchip_ram+0xff809da8>
  80de6c:	8c7ffc04 	addi	r17,r17,-16
  80de70:	d8c01c17 	ldw	r3,112(sp)
  80de74:	d8801b17 	ldw	r2,108(sp)
  80de78:	d811883a 	mov	r8,sp
  80de7c:	e47fef16 	blt	fp,r17,80de3c <__alt_mem_onchip_ram+0xff809e3c>
  80de80:	9825883a 	mov	r18,r19
  80de84:	dc002217 	ldw	r16,136(sp)
  80de88:	b827883a 	mov	r19,r23
  80de8c:	882f883a 	mov	r23,r17
  80de90:	dc402817 	ldw	r17,160(sp)
  80de94:	d9402117 	ldw	r5,132(sp)
  80de98:	1dc7883a 	add	r3,r3,r23
  80de9c:	10800044 	addi	r2,r2,1
  80dea0:	41400015 	stw	r5,0(r8)
  80dea4:	45c00115 	stw	r23,4(r8)
  80dea8:	d8c01c15 	stw	r3,112(sp)
  80deac:	d8801b15 	stw	r2,108(sp)
  80deb0:	010001c4 	movi	r4,7
  80deb4:	2080b716 	blt	r4,r2,80e194 <___svfiprintf_internal_r+0x10ec>
  80deb8:	42000204 	addi	r8,r8,8
  80debc:	003f3c06 	br	80dbb0 <__alt_mem_onchip_ram+0xff809bb0>
  80dec0:	d9402317 	ldw	r5,140(sp)
  80dec4:	d9002717 	ldw	r4,156(sp)
  80dec8:	d9801a04 	addi	r6,sp,104
  80decc:	080ced80 	call	80ced8 <__ssprint_r>
  80ded0:	103fb51e 	bne	r2,zero,80dda8 <__alt_mem_onchip_ram+0xff809da8>
  80ded4:	d8c01c17 	ldw	r3,112(sp)
  80ded8:	d811883a 	mov	r8,sp
  80dedc:	003f7106 	br	80dca4 <__alt_mem_onchip_ram+0xff809ca4>
  80dee0:	d9402317 	ldw	r5,140(sp)
  80dee4:	d9002717 	ldw	r4,156(sp)
  80dee8:	d9801a04 	addi	r6,sp,104
  80deec:	080ced80 	call	80ced8 <__ssprint_r>
  80def0:	103fa126 	beq	r2,zero,80dd78 <__alt_mem_onchip_ram+0xff809d78>
  80def4:	003fac06 	br	80dda8 <__alt_mem_onchip_ram+0xff809da8>
  80def8:	d9402317 	ldw	r5,140(sp)
  80defc:	d9002717 	ldw	r4,156(sp)
  80df00:	d9801a04 	addi	r6,sp,104
  80df04:	080ced80 	call	80ced8 <__ssprint_r>
  80df08:	103fa71e 	bne	r2,zero,80dda8 <__alt_mem_onchip_ram+0xff809da8>
  80df0c:	d811883a 	mov	r8,sp
  80df10:	003c9e06 	br	80d18c <__alt_mem_onchip_ram+0xff80918c>
  80df14:	d9402317 	ldw	r5,140(sp)
  80df18:	d9002717 	ldw	r4,156(sp)
  80df1c:	d9801a04 	addi	r6,sp,104
  80df20:	080ced80 	call	80ced8 <__ssprint_r>
  80df24:	103fa01e 	bne	r2,zero,80dda8 <__alt_mem_onchip_ram+0xff809da8>
  80df28:	d8c01c17 	ldw	r3,112(sp)
  80df2c:	d8801b17 	ldw	r2,108(sp)
  80df30:	d811883a 	mov	r8,sp
  80df34:	003f5206 	br	80dc80 <__alt_mem_onchip_ram+0xff809c80>
  80df38:	d9402317 	ldw	r5,140(sp)
  80df3c:	d9002717 	ldw	r4,156(sp)
  80df40:	d9801a04 	addi	r6,sp,104
  80df44:	080ced80 	call	80ced8 <__ssprint_r>
  80df48:	103f971e 	bne	r2,zero,80dda8 <__alt_mem_onchip_ram+0xff809da8>
  80df4c:	d8c01c17 	ldw	r3,112(sp)
  80df50:	d8801b17 	ldw	r2,108(sp)
  80df54:	d811883a 	mov	r8,sp
  80df58:	003f0506 	br	80db70 <__alt_mem_onchip_ram+0xff809b70>
  80df5c:	d9402317 	ldw	r5,140(sp)
  80df60:	d9002717 	ldw	r4,156(sp)
  80df64:	d9801a04 	addi	r6,sp,104
  80df68:	080ced80 	call	80ced8 <__ssprint_r>
  80df6c:	103f8e1e 	bne	r2,zero,80dda8 <__alt_mem_onchip_ram+0xff809da8>
  80df70:	d8c01c17 	ldw	r3,112(sp)
  80df74:	d8801b17 	ldw	r2,108(sp)
  80df78:	d811883a 	mov	r8,sp
  80df7c:	003f0906 	br	80dba4 <__alt_mem_onchip_ram+0xff809ba4>
  80df80:	d9402017 	ldw	r5,128(sp)
  80df84:	d8001d85 	stb	zero,118(sp)
  80df88:	28007716 	blt	r5,zero,80e168 <___svfiprintf_internal_r+0x10c0>
  80df8c:	00ffdfc4 	movi	r3,-129
  80df90:	9504b03a 	or	r2,r18,r20
  80df94:	80e0703a 	and	r16,r16,r3
  80df98:	103d3926 	beq	r2,zero,80d480 <__alt_mem_onchip_ram+0xff809480>
  80df9c:	002b883a 	mov	r21,zero
  80dfa0:	003d3c06 	br	80d494 <__alt_mem_onchip_ram+0xff809494>
  80dfa4:	d9402317 	ldw	r5,140(sp)
  80dfa8:	d9002717 	ldw	r4,156(sp)
  80dfac:	d9801a04 	addi	r6,sp,104
  80dfb0:	080ced80 	call	80ced8 <__ssprint_r>
  80dfb4:	103f7c1e 	bne	r2,zero,80dda8 <__alt_mem_onchip_ram+0xff809da8>
  80dfb8:	d8c01c17 	ldw	r3,112(sp)
  80dfbc:	d8801b17 	ldw	r2,108(sp)
  80dfc0:	d811883a 	mov	r8,sp
  80dfc4:	003edd06 	br	80db3c <__alt_mem_onchip_ram+0xff809b3c>
  80dfc8:	8080100c 	andi	r2,r16,64
  80dfcc:	d8001d85 	stb	zero,118(sp)
  80dfd0:	10008426 	beq	r2,zero,80e1e4 <___svfiprintf_internal_r+0x113c>
  80dfd4:	d9402417 	ldw	r5,144(sp)
  80dfd8:	d8c02017 	ldw	r3,128(sp)
  80dfdc:	0029883a 	mov	r20,zero
  80dfe0:	28800104 	addi	r2,r5,4
  80dfe4:	2c80000b 	ldhu	r18,0(r5)
  80dfe8:	183eab0e 	bge	r3,zero,80da98 <__alt_mem_onchip_ram+0xff809a98>
  80dfec:	d8802415 	stw	r2,144(sp)
  80dff0:	002b883a 	mov	r21,zero
  80dff4:	9504b03a 	or	r2,r18,r20
  80dff8:	103e171e 	bne	r2,zero,80d858 <__alt_mem_onchip_ram+0xff809858>
  80dffc:	00800044 	movi	r2,1
  80e000:	10803fcc 	andi	r2,r2,255
  80e004:	00c00044 	movi	r3,1
  80e008:	10c05c26 	beq	r2,r3,80e17c <___svfiprintf_internal_r+0x10d4>
  80e00c:	00c00084 	movi	r3,2
  80e010:	10fd1e26 	beq	r2,r3,80d48c <__alt_mem_onchip_ram+0xff80948c>
  80e014:	003ec406 	br	80db28 <__alt_mem_onchip_ram+0xff809b28>
  80e018:	d9401e17 	ldw	r5,120(sp)
  80e01c:	2c69c83a 	sub	r20,r5,r17
  80e020:	003d4506 	br	80d538 <__alt_mem_onchip_ram+0xff809538>
  80e024:	d8802415 	stw	r2,144(sp)
  80e028:	98c00007 	ldb	r3,0(r19)
  80e02c:	003c6a06 	br	80d1d8 <__alt_mem_onchip_ram+0xff8091d8>
  80e030:	d9402317 	ldw	r5,140(sp)
  80e034:	d9002717 	ldw	r4,156(sp)
  80e038:	d9801a04 	addi	r6,sp,104
  80e03c:	080ced80 	call	80ced8 <__ssprint_r>
  80e040:	103f591e 	bne	r2,zero,80dda8 <__alt_mem_onchip_ram+0xff809da8>
  80e044:	d8c01c17 	ldw	r3,112(sp)
  80e048:	003f4406 	br	80dd5c <__alt_mem_onchip_ram+0xff809d5c>
  80e04c:	01402074 	movhi	r5,129
  80e050:	29533704 	addi	r5,r5,19676
  80e054:	d9402915 	stw	r5,164(sp)
  80e058:	003d0906 	br	80d480 <__alt_mem_onchip_ram+0xff809480>
  80e05c:	d8c02417 	ldw	r3,144(sp)
  80e060:	d9002617 	ldw	r4,152(sp)
  80e064:	d9402417 	ldw	r5,144(sp)
  80e068:	18800017 	ldw	r2,0(r3)
  80e06c:	2007d7fa 	srai	r3,r4,31
  80e070:	29400104 	addi	r5,r5,4
  80e074:	d9402415 	stw	r5,144(sp)
  80e078:	11000015 	stw	r4,0(r2)
  80e07c:	10c00115 	stw	r3,4(r2)
  80e080:	003c2b06 	br	80d130 <__alt_mem_onchip_ram+0xff809130>
  80e084:	d8c01d45 	stb	r3,117(sp)
  80e088:	d8c02017 	ldw	r3,128(sp)
  80e08c:	00800c04 	movi	r2,48
  80e090:	d8801d05 	stb	r2,116(sp)
  80e094:	d8001d85 	stb	zero,118(sp)
  80e098:	80800094 	ori	r2,r16,2
  80e09c:	1800ac16 	blt	r3,zero,80e350 <___svfiprintf_internal_r+0x12a8>
  80e0a0:	00bfdfc4 	movi	r2,-129
  80e0a4:	80a0703a 	and	r16,r16,r2
  80e0a8:	84000094 	ori	r16,r16,2
  80e0ac:	002b883a 	mov	r21,zero
  80e0b0:	003cf806 	br	80d494 <__alt_mem_onchip_ram+0xff809494>
  80e0b4:	98c00007 	ldb	r3,0(r19)
  80e0b8:	003c4706 	br	80d1d8 <__alt_mem_onchip_ram+0xff8091d8>
  80e0bc:	d9402417 	ldw	r5,144(sp)
  80e0c0:	2c800017 	ldw	r18,0(r5)
  80e0c4:	29400104 	addi	r5,r5,4
  80e0c8:	d9402415 	stw	r5,144(sp)
  80e0cc:	9029d7fa 	srai	r20,r18,31
  80e0d0:	a005883a 	mov	r2,r20
  80e0d4:	003dd806 	br	80d838 <__alt_mem_onchip_ram+0xff809838>
  80e0d8:	d9402417 	ldw	r5,144(sp)
  80e0dc:	0029883a 	mov	r20,zero
  80e0e0:	2c800017 	ldw	r18,0(r5)
  80e0e4:	29400104 	addi	r5,r5,4
  80e0e8:	d9402415 	stw	r5,144(sp)
  80e0ec:	003cdb06 	br	80d45c <__alt_mem_onchip_ram+0xff80945c>
  80e0f0:	8080100c 	andi	r2,r16,64
  80e0f4:	d8001d85 	stb	zero,118(sp)
  80e0f8:	10003326 	beq	r2,zero,80e1c8 <___svfiprintf_internal_r+0x1120>
  80e0fc:	d9002417 	ldw	r4,144(sp)
  80e100:	d9402017 	ldw	r5,128(sp)
  80e104:	0029883a 	mov	r20,zero
  80e108:	20800104 	addi	r2,r4,4
  80e10c:	2480000b 	ldhu	r18,0(r4)
  80e110:	283e7e0e 	bge	r5,zero,80db0c <__alt_mem_onchip_ram+0xff809b0c>
  80e114:	9506b03a 	or	r3,r18,r20
  80e118:	d8802415 	stw	r2,144(sp)
  80e11c:	183d271e 	bne	r3,zero,80d5bc <__alt_mem_onchip_ram+0xff8095bc>
  80e120:	002b883a 	mov	r21,zero
  80e124:	0005883a 	mov	r2,zero
  80e128:	003fb506 	br	80e000 <__alt_mem_onchip_ram+0xff80a000>
  80e12c:	98c00043 	ldbu	r3,1(r19)
  80e130:	8c400814 	ori	r17,r17,32
  80e134:	9cc00044 	addi	r19,r19,1
  80e138:	18c03fcc 	andi	r3,r3,255
  80e13c:	18c0201c 	xori	r3,r3,128
  80e140:	18ffe004 	addi	r3,r3,-128
  80e144:	003c2406 	br	80d1d8 <__alt_mem_onchip_ram+0xff8091d8>
  80e148:	d8c02415 	stw	r3,144(sp)
  80e14c:	002b883a 	mov	r21,zero
  80e150:	003fa806 	br	80dff4 <__alt_mem_onchip_ram+0xff809ff4>
  80e154:	01002074 	movhi	r4,129
  80e158:	21133704 	addi	r4,r4,19676
  80e15c:	d9002915 	stw	r4,164(sp)
  80e160:	d8c02415 	stw	r3,144(sp)
  80e164:	1021883a 	mov	r16,r2
  80e168:	9504b03a 	or	r2,r18,r20
  80e16c:	103f8b1e 	bne	r2,zero,80df9c <__alt_mem_onchip_ram+0xff809f9c>
  80e170:	002b883a 	mov	r21,zero
  80e174:	00800084 	movi	r2,2
  80e178:	003fa106 	br	80e000 <__alt_mem_onchip_ram+0xff80a000>
  80e17c:	0025883a 	mov	r18,zero
  80e180:	94800c04 	addi	r18,r18,48
  80e184:	dc8019c5 	stb	r18,103(sp)
  80e188:	dd002c17 	ldw	r20,176(sp)
  80e18c:	dc4019c4 	addi	r17,sp,103
  80e190:	003ce906 	br	80d538 <__alt_mem_onchip_ram+0xff809538>
  80e194:	d9402317 	ldw	r5,140(sp)
  80e198:	d9002717 	ldw	r4,156(sp)
  80e19c:	d9801a04 	addi	r6,sp,104
  80e1a0:	080ced80 	call	80ced8 <__ssprint_r>
  80e1a4:	103f001e 	bne	r2,zero,80dda8 <__alt_mem_onchip_ram+0xff809da8>
  80e1a8:	d8c01c17 	ldw	r3,112(sp)
  80e1ac:	d8801b17 	ldw	r2,108(sp)
  80e1b0:	d811883a 	mov	r8,sp
  80e1b4:	003e7e06 	br	80dbb0 <__alt_mem_onchip_ram+0xff809bb0>
  80e1b8:	01402074 	movhi	r5,129
  80e1bc:	2953d404 	addi	r5,r5,20304
  80e1c0:	d9402115 	stw	r5,132(sp)
  80e1c4:	003ea406 	br	80dc58 <__alt_mem_onchip_ram+0xff809c58>
  80e1c8:	d8c02417 	ldw	r3,144(sp)
  80e1cc:	d9002017 	ldw	r4,128(sp)
  80e1d0:	0029883a 	mov	r20,zero
  80e1d4:	18800104 	addi	r2,r3,4
  80e1d8:	1c800017 	ldw	r18,0(r3)
  80e1dc:	203e4b0e 	bge	r4,zero,80db0c <__alt_mem_onchip_ram+0xff809b0c>
  80e1e0:	003fcc06 	br	80e114 <__alt_mem_onchip_ram+0xff80a114>
  80e1e4:	d9002417 	ldw	r4,144(sp)
  80e1e8:	d9402017 	ldw	r5,128(sp)
  80e1ec:	0029883a 	mov	r20,zero
  80e1f0:	20800104 	addi	r2,r4,4
  80e1f4:	24800017 	ldw	r18,0(r4)
  80e1f8:	283e270e 	bge	r5,zero,80da98 <__alt_mem_onchip_ram+0xff809a98>
  80e1fc:	003f7b06 	br	80dfec <__alt_mem_onchip_ram+0xff809fec>
  80e200:	8400100c 	andi	r16,r16,64
  80e204:	80003326 	beq	r16,zero,80e2d4 <___svfiprintf_internal_r+0x122c>
  80e208:	d9402417 	ldw	r5,144(sp)
  80e20c:	d8c02617 	ldw	r3,152(sp)
  80e210:	28800017 	ldw	r2,0(r5)
  80e214:	29400104 	addi	r5,r5,4
  80e218:	d9402415 	stw	r5,144(sp)
  80e21c:	10c0000d 	sth	r3,0(r2)
  80e220:	003bc306 	br	80d130 <__alt_mem_onchip_ram+0xff809130>
  80e224:	d9002417 	ldw	r4,144(sp)
  80e228:	0029883a 	mov	r20,zero
  80e22c:	24800017 	ldw	r18,0(r4)
  80e230:	21000104 	addi	r4,r4,4
  80e234:	d9002415 	stw	r4,144(sp)
  80e238:	003c8806 	br	80d45c <__alt_mem_onchip_ram+0xff80945c>
  80e23c:	d8c02417 	ldw	r3,144(sp)
  80e240:	1c800017 	ldw	r18,0(r3)
  80e244:	18c00104 	addi	r3,r3,4
  80e248:	d8c02415 	stw	r3,144(sp)
  80e24c:	9029d7fa 	srai	r20,r18,31
  80e250:	a005883a 	mov	r2,r20
  80e254:	003d7806 	br	80d838 <__alt_mem_onchip_ram+0xff809838>
  80e258:	8809883a 	mov	r4,r17
  80e25c:	da002d15 	stw	r8,180(sp)
  80e260:	080cd700 	call	80cd70 <strlen>
  80e264:	1029883a 	mov	r20,r2
  80e268:	dd401d83 	ldbu	r21,118(sp)
  80e26c:	ddc02415 	stw	r23,144(sp)
  80e270:	d8002015 	stw	zero,128(sp)
  80e274:	da002d17 	ldw	r8,180(sp)
  80e278:	003caf06 	br	80d538 <__alt_mem_onchip_ram+0xff809538>
  80e27c:	013fffc4 	movi	r4,-1
  80e280:	003df206 	br	80da4c <__alt_mem_onchip_ram+0xff809a4c>
  80e284:	dd002017 	ldw	r20,128(sp)
  80e288:	00800184 	movi	r2,6
  80e28c:	1500012e 	bgeu	r2,r20,80e294 <___svfiprintf_internal_r+0x11ec>
  80e290:	1029883a 	mov	r20,r2
  80e294:	a025883a 	mov	r18,r20
  80e298:	a0004116 	blt	r20,zero,80e3a0 <___svfiprintf_internal_r+0x12f8>
  80e29c:	04402074 	movhi	r17,129
  80e2a0:	ddc02415 	stw	r23,144(sp)
  80e2a4:	8c533c04 	addi	r17,r17,19696
  80e2a8:	003ce806 	br	80d64c <__alt_mem_onchip_ram+0xff80964c>
  80e2ac:	04001004 	movi	r16,64
  80e2b0:	800b883a 	mov	r5,r16
  80e2b4:	08034100 	call	803410 <_malloc_r>
  80e2b8:	d8c02317 	ldw	r3,140(sp)
  80e2bc:	18800015 	stw	r2,0(r3)
  80e2c0:	18800415 	stw	r2,16(r3)
  80e2c4:	10004d26 	beq	r2,zero,80e3fc <___svfiprintf_internal_r+0x1354>
  80e2c8:	d9402317 	ldw	r5,140(sp)
  80e2cc:	2c000515 	stw	r16,20(r5)
  80e2d0:	003b8906 	br	80d0f8 <__alt_mem_onchip_ram+0xff8090f8>
  80e2d4:	d9002417 	ldw	r4,144(sp)
  80e2d8:	d9402617 	ldw	r5,152(sp)
  80e2dc:	20800017 	ldw	r2,0(r4)
  80e2e0:	21000104 	addi	r4,r4,4
  80e2e4:	d9002415 	stw	r4,144(sp)
  80e2e8:	11400015 	stw	r5,0(r2)
  80e2ec:	003b9006 	br	80d130 <__alt_mem_onchip_ram+0xff809130>
  80e2f0:	8080004c 	andi	r2,r16,1
  80e2f4:	002b883a 	mov	r21,zero
  80e2f8:	10000526 	beq	r2,zero,80e310 <___svfiprintf_internal_r+0x1268>
  80e2fc:	00800c04 	movi	r2,48
  80e300:	d88019c5 	stb	r2,103(sp)
  80e304:	dd002c17 	ldw	r20,176(sp)
  80e308:	dc4019c4 	addi	r17,sp,103
  80e30c:	003c8a06 	br	80d538 <__alt_mem_onchip_ram+0xff809538>
  80e310:	0029883a 	mov	r20,zero
  80e314:	dc401a04 	addi	r17,sp,104
  80e318:	003c8706 	br	80d538 <__alt_mem_onchip_ram+0xff809538>
  80e31c:	01402074 	movhi	r5,129
  80e320:	2953d804 	addi	r5,r5,20320
  80e324:	d9402815 	stw	r5,160(sp)
  80e328:	003cff06 	br	80d728 <__alt_mem_onchip_ram+0xff809728>
  80e32c:	00bfffc4 	movi	r2,-1
  80e330:	003ea206 	br	80ddbc <__alt_mem_onchip_ram+0xff809dbc>
  80e334:	00800044 	movi	r2,1
  80e338:	10803fcc 	andi	r2,r2,255
  80e33c:	00c00044 	movi	r3,1
  80e340:	10fd4526 	beq	r2,r3,80d858 <__alt_mem_onchip_ram+0xff809858>
  80e344:	00c00084 	movi	r3,2
  80e348:	10fc5226 	beq	r2,r3,80d494 <__alt_mem_onchip_ram+0xff809494>
  80e34c:	003c9c06 	br	80d5c0 <__alt_mem_onchip_ram+0xff8095c0>
  80e350:	1021883a 	mov	r16,r2
  80e354:	002b883a 	mov	r21,zero
  80e358:	00800084 	movi	r2,2
  80e35c:	003ff606 	br	80e338 <__alt_mem_onchip_ram+0xff80a338>
  80e360:	01002074 	movhi	r4,129
  80e364:	2113d804 	addi	r4,r4,20320
  80e368:	d9002815 	stw	r4,160(sp)
  80e36c:	003e7206 	br	80dd38 <__alt_mem_onchip_ram+0xff809d38>
  80e370:	01402074 	movhi	r5,129
  80e374:	2953d404 	addi	r5,r5,20304
  80e378:	d9402115 	stw	r5,132(sp)
  80e37c:	003ec506 	br	80de94 <__alt_mem_onchip_ram+0xff809e94>
  80e380:	e027883a 	mov	r19,fp
  80e384:	d8002015 	stw	zero,128(sp)
  80e388:	003b9406 	br	80d1dc <__alt_mem_onchip_ram+0xff8091dc>
  80e38c:	dd002017 	ldw	r20,128(sp)
  80e390:	dd401d83 	ldbu	r21,118(sp)
  80e394:	ddc02415 	stw	r23,144(sp)
  80e398:	d8002015 	stw	zero,128(sp)
  80e39c:	003c6606 	br	80d538 <__alt_mem_onchip_ram+0xff809538>
  80e3a0:	0025883a 	mov	r18,zero
  80e3a4:	003fbd06 	br	80e29c <__alt_mem_onchip_ram+0xff80a29c>
  80e3a8:	d9402417 	ldw	r5,144(sp)
  80e3ac:	d8c02417 	ldw	r3,144(sp)
  80e3b0:	29400017 	ldw	r5,0(r5)
  80e3b4:	19000104 	addi	r4,r3,4
  80e3b8:	d9002415 	stw	r4,144(sp)
  80e3bc:	d9402015 	stw	r5,128(sp)
  80e3c0:	98c00043 	ldbu	r3,1(r19)
  80e3c4:	e027883a 	mov	r19,fp
  80e3c8:	283f5b0e 	bge	r5,zero,80e138 <__alt_mem_onchip_ram+0xff80a138>
  80e3cc:	18c03fcc 	andi	r3,r3,255
  80e3d0:	013fffc4 	movi	r4,-1
  80e3d4:	18c0201c 	xori	r3,r3,128
  80e3d8:	d9002015 	stw	r4,128(sp)
  80e3dc:	18ffe004 	addi	r3,r3,-128
  80e3e0:	003b7d06 	br	80d1d8 <__alt_mem_onchip_ram+0xff8091d8>
  80e3e4:	dd401d85 	stb	r21,118(sp)
  80e3e8:	003cf306 	br	80d7b8 <__alt_mem_onchip_ram+0xff8097b8>
  80e3ec:	dd401d85 	stb	r21,118(sp)
  80e3f0:	003d4e06 	br	80d92c <__alt_mem_onchip_ram+0xff80992c>
  80e3f4:	dd401d85 	stb	r21,118(sp)
  80e3f8:	003c0e06 	br	80d434 <__alt_mem_onchip_ram+0xff809434>
  80e3fc:	d9002717 	ldw	r4,156(sp)
  80e400:	00800304 	movi	r2,12
  80e404:	20800015 	stw	r2,0(r4)
  80e408:	00bfffc4 	movi	r2,-1
  80e40c:	003e6b06 	br	80ddbc <__alt_mem_onchip_ram+0xff809dbc>
  80e410:	dd401d85 	stb	r21,118(sp)
  80e414:	003d0006 	br	80d818 <__alt_mem_onchip_ram+0xff809818>
  80e418:	dd401d85 	stb	r21,118(sp)
  80e41c:	003d7106 	br	80d9e4 <__alt_mem_onchip_ram+0xff8099e4>
  80e420:	dd401d85 	stb	r21,118(sp)
  80e424:	003c5706 	br	80d584 <__alt_mem_onchip_ram+0xff809584>
  80e428:	dd401d85 	stb	r21,118(sp)
  80e42c:	003c2e06 	br	80d4e8 <__alt_mem_onchip_ram+0xff8094e8>
  80e430:	dd401d85 	stb	r21,118(sp)
  80e434:	003d8c06 	br	80da68 <__alt_mem_onchip_ram+0xff809a68>
  80e438:	dd401d85 	stb	r21,118(sp)
  80e43c:	003da706 	br	80dadc <__alt_mem_onchip_ram+0xff809adc>
  80e440:	dd401d85 	stb	r21,118(sp)
  80e444:	003cc806 	br	80d768 <__alt_mem_onchip_ram+0xff809768>

0080e448 <_calloc_r>:
  80e448:	defffe04 	addi	sp,sp,-8
  80e44c:	2805883a 	mov	r2,r5
  80e450:	dc000015 	stw	r16,0(sp)
  80e454:	300b883a 	mov	r5,r6
  80e458:	2021883a 	mov	r16,r4
  80e45c:	1009883a 	mov	r4,r2
  80e460:	dfc00115 	stw	ra,4(sp)
  80e464:	080f5740 	call	80f574 <__mulsi3>
  80e468:	100b883a 	mov	r5,r2
  80e46c:	8009883a 	mov	r4,r16
  80e470:	08034100 	call	803410 <_malloc_r>
  80e474:	10002926 	beq	r2,zero,80e51c <_calloc_r+0xd4>
  80e478:	11bfff17 	ldw	r6,-4(r2)
  80e47c:	1021883a 	mov	r16,r2
  80e480:	00bfff04 	movi	r2,-4
  80e484:	308c703a 	and	r6,r6,r2
  80e488:	00c00904 	movi	r3,36
  80e48c:	308d883a 	add	r6,r6,r2
  80e490:	19801636 	bltu	r3,r6,80e4ec <_calloc_r+0xa4>
  80e494:	008004c4 	movi	r2,19
  80e498:	11800b2e 	bgeu	r2,r6,80e4c8 <_calloc_r+0x80>
  80e49c:	80000015 	stw	zero,0(r16)
  80e4a0:	80000115 	stw	zero,4(r16)
  80e4a4:	008006c4 	movi	r2,27
  80e4a8:	11801a2e 	bgeu	r2,r6,80e514 <_calloc_r+0xcc>
  80e4ac:	80000215 	stw	zero,8(r16)
  80e4b0:	80000315 	stw	zero,12(r16)
  80e4b4:	30c0151e 	bne	r6,r3,80e50c <_calloc_r+0xc4>
  80e4b8:	80000415 	stw	zero,16(r16)
  80e4bc:	80800604 	addi	r2,r16,24
  80e4c0:	80000515 	stw	zero,20(r16)
  80e4c4:	00000106 	br	80e4cc <_calloc_r+0x84>
  80e4c8:	8005883a 	mov	r2,r16
  80e4cc:	10000015 	stw	zero,0(r2)
  80e4d0:	10000115 	stw	zero,4(r2)
  80e4d4:	10000215 	stw	zero,8(r2)
  80e4d8:	8005883a 	mov	r2,r16
  80e4dc:	dfc00117 	ldw	ra,4(sp)
  80e4e0:	dc000017 	ldw	r16,0(sp)
  80e4e4:	dec00204 	addi	sp,sp,8
  80e4e8:	f800283a 	ret
  80e4ec:	000b883a 	mov	r5,zero
  80e4f0:	8009883a 	mov	r4,r16
  80e4f4:	0803f880 	call	803f88 <memset>
  80e4f8:	8005883a 	mov	r2,r16
  80e4fc:	dfc00117 	ldw	ra,4(sp)
  80e500:	dc000017 	ldw	r16,0(sp)
  80e504:	dec00204 	addi	sp,sp,8
  80e508:	f800283a 	ret
  80e50c:	80800404 	addi	r2,r16,16
  80e510:	003fee06 	br	80e4cc <__alt_mem_onchip_ram+0xff80a4cc>
  80e514:	80800204 	addi	r2,r16,8
  80e518:	003fec06 	br	80e4cc <__alt_mem_onchip_ram+0xff80a4cc>
  80e51c:	0005883a 	mov	r2,zero
  80e520:	003fee06 	br	80e4dc <__alt_mem_onchip_ram+0xff80a4dc>

0080e524 <memmove>:
  80e524:	2005883a 	mov	r2,r4
  80e528:	29000b2e 	bgeu	r5,r4,80e558 <memmove+0x34>
  80e52c:	298f883a 	add	r7,r5,r6
  80e530:	21c0092e 	bgeu	r4,r7,80e558 <memmove+0x34>
  80e534:	2187883a 	add	r3,r4,r6
  80e538:	198bc83a 	sub	r5,r3,r6
  80e53c:	30004826 	beq	r6,zero,80e660 <memmove+0x13c>
  80e540:	39ffffc4 	addi	r7,r7,-1
  80e544:	39000003 	ldbu	r4,0(r7)
  80e548:	18ffffc4 	addi	r3,r3,-1
  80e54c:	19000005 	stb	r4,0(r3)
  80e550:	28fffb1e 	bne	r5,r3,80e540 <__alt_mem_onchip_ram+0xff80a540>
  80e554:	f800283a 	ret
  80e558:	00c003c4 	movi	r3,15
  80e55c:	1980412e 	bgeu	r3,r6,80e664 <memmove+0x140>
  80e560:	2886b03a 	or	r3,r5,r2
  80e564:	18c000cc 	andi	r3,r3,3
  80e568:	1800401e 	bne	r3,zero,80e66c <memmove+0x148>
  80e56c:	33fffc04 	addi	r15,r6,-16
  80e570:	781ed13a 	srli	r15,r15,4
  80e574:	28c00104 	addi	r3,r5,4
  80e578:	13400104 	addi	r13,r2,4
  80e57c:	781c913a 	slli	r14,r15,4
  80e580:	2b000204 	addi	r12,r5,8
  80e584:	12c00204 	addi	r11,r2,8
  80e588:	73800504 	addi	r14,r14,20
  80e58c:	2a800304 	addi	r10,r5,12
  80e590:	12400304 	addi	r9,r2,12
  80e594:	2b9d883a 	add	r14,r5,r14
  80e598:	2811883a 	mov	r8,r5
  80e59c:	100f883a 	mov	r7,r2
  80e5a0:	41000017 	ldw	r4,0(r8)
  80e5a4:	39c00404 	addi	r7,r7,16
  80e5a8:	18c00404 	addi	r3,r3,16
  80e5ac:	393ffc15 	stw	r4,-16(r7)
  80e5b0:	193ffc17 	ldw	r4,-16(r3)
  80e5b4:	6b400404 	addi	r13,r13,16
  80e5b8:	5ac00404 	addi	r11,r11,16
  80e5bc:	693ffc15 	stw	r4,-16(r13)
  80e5c0:	61000017 	ldw	r4,0(r12)
  80e5c4:	4a400404 	addi	r9,r9,16
  80e5c8:	42000404 	addi	r8,r8,16
  80e5cc:	593ffc15 	stw	r4,-16(r11)
  80e5d0:	51000017 	ldw	r4,0(r10)
  80e5d4:	63000404 	addi	r12,r12,16
  80e5d8:	52800404 	addi	r10,r10,16
  80e5dc:	493ffc15 	stw	r4,-16(r9)
  80e5e0:	1bbfef1e 	bne	r3,r14,80e5a0 <__alt_mem_onchip_ram+0xff80a5a0>
  80e5e4:	79000044 	addi	r4,r15,1
  80e5e8:	2008913a 	slli	r4,r4,4
  80e5ec:	328003cc 	andi	r10,r6,15
  80e5f0:	02c000c4 	movi	r11,3
  80e5f4:	1107883a 	add	r3,r2,r4
  80e5f8:	290b883a 	add	r5,r5,r4
  80e5fc:	5a801e2e 	bgeu	r11,r10,80e678 <memmove+0x154>
  80e600:	1813883a 	mov	r9,r3
  80e604:	2811883a 	mov	r8,r5
  80e608:	500f883a 	mov	r7,r10
  80e60c:	41000017 	ldw	r4,0(r8)
  80e610:	4a400104 	addi	r9,r9,4
  80e614:	39ffff04 	addi	r7,r7,-4
  80e618:	493fff15 	stw	r4,-4(r9)
  80e61c:	42000104 	addi	r8,r8,4
  80e620:	59fffa36 	bltu	r11,r7,80e60c <__alt_mem_onchip_ram+0xff80a60c>
  80e624:	513fff04 	addi	r4,r10,-4
  80e628:	2008d0ba 	srli	r4,r4,2
  80e62c:	318000cc 	andi	r6,r6,3
  80e630:	21000044 	addi	r4,r4,1
  80e634:	2109883a 	add	r4,r4,r4
  80e638:	2109883a 	add	r4,r4,r4
  80e63c:	1907883a 	add	r3,r3,r4
  80e640:	290b883a 	add	r5,r5,r4
  80e644:	30000b26 	beq	r6,zero,80e674 <memmove+0x150>
  80e648:	198d883a 	add	r6,r3,r6
  80e64c:	29c00003 	ldbu	r7,0(r5)
  80e650:	18c00044 	addi	r3,r3,1
  80e654:	29400044 	addi	r5,r5,1
  80e658:	19ffffc5 	stb	r7,-1(r3)
  80e65c:	19bffb1e 	bne	r3,r6,80e64c <__alt_mem_onchip_ram+0xff80a64c>
  80e660:	f800283a 	ret
  80e664:	1007883a 	mov	r3,r2
  80e668:	003ff606 	br	80e644 <__alt_mem_onchip_ram+0xff80a644>
  80e66c:	1007883a 	mov	r3,r2
  80e670:	003ff506 	br	80e648 <__alt_mem_onchip_ram+0xff80a648>
  80e674:	f800283a 	ret
  80e678:	500d883a 	mov	r6,r10
  80e67c:	003ff106 	br	80e644 <__alt_mem_onchip_ram+0xff80a644>

0080e680 <__muldi3>:
  80e680:	defff604 	addi	sp,sp,-40
  80e684:	dd800615 	stw	r22,24(sp)
  80e688:	dd400515 	stw	r21,20(sp)
  80e68c:	dc400115 	stw	r17,4(sp)
  80e690:	357fffcc 	andi	r21,r6,65535
  80e694:	2022d43a 	srli	r17,r4,16
  80e698:	25bfffcc 	andi	r22,r4,65535
  80e69c:	dcc00315 	stw	r19,12(sp)
  80e6a0:	dc800215 	stw	r18,8(sp)
  80e6a4:	2027883a 	mov	r19,r4
  80e6a8:	2825883a 	mov	r18,r5
  80e6ac:	b009883a 	mov	r4,r22
  80e6b0:	a80b883a 	mov	r5,r21
  80e6b4:	dfc00915 	stw	ra,36(sp)
  80e6b8:	df000815 	stw	fp,32(sp)
  80e6bc:	ddc00715 	stw	r23,28(sp)
  80e6c0:	3839883a 	mov	fp,r7
  80e6c4:	302ed43a 	srli	r23,r6,16
  80e6c8:	dd000415 	stw	r20,16(sp)
  80e6cc:	dc000015 	stw	r16,0(sp)
  80e6d0:	3029883a 	mov	r20,r6
  80e6d4:	080f5740 	call	80f574 <__mulsi3>
  80e6d8:	a80b883a 	mov	r5,r21
  80e6dc:	8809883a 	mov	r4,r17
  80e6e0:	1021883a 	mov	r16,r2
  80e6e4:	080f5740 	call	80f574 <__mulsi3>
  80e6e8:	8809883a 	mov	r4,r17
  80e6ec:	b80b883a 	mov	r5,r23
  80e6f0:	102b883a 	mov	r21,r2
  80e6f4:	080f5740 	call	80f574 <__mulsi3>
  80e6f8:	b80b883a 	mov	r5,r23
  80e6fc:	b009883a 	mov	r4,r22
  80e700:	1023883a 	mov	r17,r2
  80e704:	080f5740 	call	80f574 <__mulsi3>
  80e708:	8006d43a 	srli	r3,r16,16
  80e70c:	1545883a 	add	r2,r2,r21
  80e710:	1885883a 	add	r2,r3,r2
  80e714:	1540022e 	bgeu	r2,r21,80e720 <__muldi3+0xa0>
  80e718:	00c00074 	movhi	r3,1
  80e71c:	88e3883a 	add	r17,r17,r3
  80e720:	1006d43a 	srli	r3,r2,16
  80e724:	1004943a 	slli	r2,r2,16
  80e728:	e00b883a 	mov	r5,fp
  80e72c:	9809883a 	mov	r4,r19
  80e730:	843fffcc 	andi	r16,r16,65535
  80e734:	1c63883a 	add	r17,r3,r17
  80e738:	1421883a 	add	r16,r2,r16
  80e73c:	080f5740 	call	80f574 <__mulsi3>
  80e740:	900b883a 	mov	r5,r18
  80e744:	a009883a 	mov	r4,r20
  80e748:	1027883a 	mov	r19,r2
  80e74c:	080f5740 	call	80f574 <__mulsi3>
  80e750:	9885883a 	add	r2,r19,r2
  80e754:	1447883a 	add	r3,r2,r17
  80e758:	8005883a 	mov	r2,r16
  80e75c:	dfc00917 	ldw	ra,36(sp)
  80e760:	df000817 	ldw	fp,32(sp)
  80e764:	ddc00717 	ldw	r23,28(sp)
  80e768:	dd800617 	ldw	r22,24(sp)
  80e76c:	dd400517 	ldw	r21,20(sp)
  80e770:	dd000417 	ldw	r20,16(sp)
  80e774:	dcc00317 	ldw	r19,12(sp)
  80e778:	dc800217 	ldw	r18,8(sp)
  80e77c:	dc400117 	ldw	r17,4(sp)
  80e780:	dc000017 	ldw	r16,0(sp)
  80e784:	dec00a04 	addi	sp,sp,40
  80e788:	f800283a 	ret

0080e78c <__fixunsdfsi>:
  80e78c:	defffd04 	addi	sp,sp,-12
  80e790:	000d883a 	mov	r6,zero
  80e794:	01d07834 	movhi	r7,16864
  80e798:	dc400115 	stw	r17,4(sp)
  80e79c:	dc000015 	stw	r16,0(sp)
  80e7a0:	dfc00215 	stw	ra,8(sp)
  80e7a4:	2023883a 	mov	r17,r4
  80e7a8:	2821883a 	mov	r16,r5
  80e7ac:	0810a9c0 	call	810a9c <__gedf2>
  80e7b0:	1000080e 	bge	r2,zero,80e7d4 <__fixunsdfsi+0x48>
  80e7b4:	8809883a 	mov	r4,r17
  80e7b8:	800b883a 	mov	r5,r16
  80e7bc:	0811dd00 	call	811dd0 <__fixdfsi>
  80e7c0:	dfc00217 	ldw	ra,8(sp)
  80e7c4:	dc400117 	ldw	r17,4(sp)
  80e7c8:	dc000017 	ldw	r16,0(sp)
  80e7cc:	dec00304 	addi	sp,sp,12
  80e7d0:	f800283a 	ret
  80e7d4:	000d883a 	mov	r6,zero
  80e7d8:	01d07834 	movhi	r7,16864
  80e7dc:	8809883a 	mov	r4,r17
  80e7e0:	800b883a 	mov	r5,r16
  80e7e4:	08114d40 	call	8114d4 <__subdf3>
  80e7e8:	180b883a 	mov	r5,r3
  80e7ec:	1009883a 	mov	r4,r2
  80e7f0:	0811dd00 	call	811dd0 <__fixdfsi>
  80e7f4:	00e00034 	movhi	r3,32768
  80e7f8:	10c5883a 	add	r2,r2,r3
  80e7fc:	003ff006 	br	80e7c0 <__alt_mem_onchip_ram+0xff80a7c0>

0080e800 <__udivdi3>:
  80e800:	defff404 	addi	sp,sp,-48
  80e804:	dcc00515 	stw	r19,20(sp)
  80e808:	dc000215 	stw	r16,8(sp)
  80e80c:	dfc00b15 	stw	ra,44(sp)
  80e810:	df000a15 	stw	fp,40(sp)
  80e814:	ddc00915 	stw	r23,36(sp)
  80e818:	dd800815 	stw	r22,32(sp)
  80e81c:	dd400715 	stw	r21,28(sp)
  80e820:	dd000615 	stw	r20,24(sp)
  80e824:	dc800415 	stw	r18,16(sp)
  80e828:	dc400315 	stw	r17,12(sp)
  80e82c:	2027883a 	mov	r19,r4
  80e830:	2821883a 	mov	r16,r5
  80e834:	3800461e 	bne	r7,zero,80e950 <__udivdi3+0x150>
  80e838:	3023883a 	mov	r17,r6
  80e83c:	2025883a 	mov	r18,r4
  80e840:	2980572e 	bgeu	r5,r6,80e9a0 <__udivdi3+0x1a0>
  80e844:	00bfffd4 	movui	r2,65535
  80e848:	282d883a 	mov	r22,r5
  80e84c:	1180b236 	bltu	r2,r6,80eb18 <__udivdi3+0x318>
  80e850:	00803fc4 	movi	r2,255
  80e854:	1185803a 	cmpltu	r2,r2,r6
  80e858:	100490fa 	slli	r2,r2,3
  80e85c:	3086d83a 	srl	r3,r6,r2
  80e860:	01002074 	movhi	r4,129
  80e864:	2113dc04 	addi	r4,r4,20336
  80e868:	20c7883a 	add	r3,r4,r3
  80e86c:	18c00003 	ldbu	r3,0(r3)
  80e870:	1885883a 	add	r2,r3,r2
  80e874:	00c00804 	movi	r3,32
  80e878:	1887c83a 	sub	r3,r3,r2
  80e87c:	18000526 	beq	r3,zero,80e894 <__udivdi3+0x94>
  80e880:	80e0983a 	sll	r16,r16,r3
  80e884:	9884d83a 	srl	r2,r19,r2
  80e888:	30e2983a 	sll	r17,r6,r3
  80e88c:	98e4983a 	sll	r18,r19,r3
  80e890:	142cb03a 	or	r22,r2,r16
  80e894:	882ad43a 	srli	r21,r17,16
  80e898:	b009883a 	mov	r4,r22
  80e89c:	8d3fffcc 	andi	r20,r17,65535
  80e8a0:	a80b883a 	mov	r5,r21
  80e8a4:	080f51c0 	call	80f51c <__umodsi3>
  80e8a8:	b009883a 	mov	r4,r22
  80e8ac:	a80b883a 	mov	r5,r21
  80e8b0:	1027883a 	mov	r19,r2
  80e8b4:	080f4b80 	call	80f4b8 <__udivsi3>
  80e8b8:	100b883a 	mov	r5,r2
  80e8bc:	a009883a 	mov	r4,r20
  80e8c0:	102d883a 	mov	r22,r2
  80e8c4:	080f5740 	call	80f574 <__mulsi3>
  80e8c8:	9826943a 	slli	r19,r19,16
  80e8cc:	9006d43a 	srli	r3,r18,16
  80e8d0:	1cc6b03a 	or	r3,r3,r19
  80e8d4:	1880052e 	bgeu	r3,r2,80e8ec <__udivdi3+0xec>
  80e8d8:	1c47883a 	add	r3,r3,r17
  80e8dc:	b13fffc4 	addi	r4,r22,-1
  80e8e0:	1c400136 	bltu	r3,r17,80e8e8 <__udivdi3+0xe8>
  80e8e4:	18814236 	bltu	r3,r2,80edf0 <__udivdi3+0x5f0>
  80e8e8:	202d883a 	mov	r22,r4
  80e8ec:	18a1c83a 	sub	r16,r3,r2
  80e8f0:	8009883a 	mov	r4,r16
  80e8f4:	a80b883a 	mov	r5,r21
  80e8f8:	080f51c0 	call	80f51c <__umodsi3>
  80e8fc:	1027883a 	mov	r19,r2
  80e900:	8009883a 	mov	r4,r16
  80e904:	a80b883a 	mov	r5,r21
  80e908:	9826943a 	slli	r19,r19,16
  80e90c:	080f4b80 	call	80f4b8 <__udivsi3>
  80e910:	100b883a 	mov	r5,r2
  80e914:	a009883a 	mov	r4,r20
  80e918:	94bfffcc 	andi	r18,r18,65535
  80e91c:	1021883a 	mov	r16,r2
  80e920:	94e4b03a 	or	r18,r18,r19
  80e924:	080f5740 	call	80f574 <__mulsi3>
  80e928:	9080052e 	bgeu	r18,r2,80e940 <__udivdi3+0x140>
  80e92c:	8ca5883a 	add	r18,r17,r18
  80e930:	80ffffc4 	addi	r3,r16,-1
  80e934:	94410c36 	bltu	r18,r17,80ed68 <__udivdi3+0x568>
  80e938:	90810b2e 	bgeu	r18,r2,80ed68 <__udivdi3+0x568>
  80e93c:	843fff84 	addi	r16,r16,-2
  80e940:	b004943a 	slli	r2,r22,16
  80e944:	0007883a 	mov	r3,zero
  80e948:	1404b03a 	or	r2,r2,r16
  80e94c:	00005e06 	br	80eac8 <__udivdi3+0x2c8>
  80e950:	29c05b36 	bltu	r5,r7,80eac0 <__udivdi3+0x2c0>
  80e954:	00bfffd4 	movui	r2,65535
  80e958:	11c0672e 	bgeu	r2,r7,80eaf8 <__udivdi3+0x2f8>
  80e95c:	00804034 	movhi	r2,256
  80e960:	10bfffc4 	addi	r2,r2,-1
  80e964:	11c10a36 	bltu	r2,r7,80ed90 <__udivdi3+0x590>
  80e968:	00800404 	movi	r2,16
  80e96c:	3886d83a 	srl	r3,r7,r2
  80e970:	01002074 	movhi	r4,129
  80e974:	2113dc04 	addi	r4,r4,20336
  80e978:	20c7883a 	add	r3,r4,r3
  80e97c:	18c00003 	ldbu	r3,0(r3)
  80e980:	05c00804 	movi	r23,32
  80e984:	1885883a 	add	r2,r3,r2
  80e988:	b8afc83a 	sub	r23,r23,r2
  80e98c:	b800671e 	bne	r23,zero,80eb2c <__udivdi3+0x32c>
  80e990:	3c010536 	bltu	r7,r16,80eda8 <__udivdi3+0x5a8>
  80e994:	9985403a 	cmpgeu	r2,r19,r6
  80e998:	0007883a 	mov	r3,zero
  80e99c:	00004a06 	br	80eac8 <__udivdi3+0x2c8>
  80e9a0:	3000041e 	bne	r6,zero,80e9b4 <__udivdi3+0x1b4>
  80e9a4:	000b883a 	mov	r5,zero
  80e9a8:	01000044 	movi	r4,1
  80e9ac:	080f4b80 	call	80f4b8 <__udivsi3>
  80e9b0:	1023883a 	mov	r17,r2
  80e9b4:	00bfffd4 	movui	r2,65535
  80e9b8:	1440532e 	bgeu	r2,r17,80eb08 <__udivdi3+0x308>
  80e9bc:	00804034 	movhi	r2,256
  80e9c0:	10bfffc4 	addi	r2,r2,-1
  80e9c4:	1440f436 	bltu	r2,r17,80ed98 <__udivdi3+0x598>
  80e9c8:	00800404 	movi	r2,16
  80e9cc:	8886d83a 	srl	r3,r17,r2
  80e9d0:	01002074 	movhi	r4,129
  80e9d4:	2113dc04 	addi	r4,r4,20336
  80e9d8:	20c7883a 	add	r3,r4,r3
  80e9dc:	18c00003 	ldbu	r3,0(r3)
  80e9e0:	1885883a 	add	r2,r3,r2
  80e9e4:	00c00804 	movi	r3,32
  80e9e8:	1887c83a 	sub	r3,r3,r2
  80e9ec:	1800a51e 	bne	r3,zero,80ec84 <__udivdi3+0x484>
  80e9f0:	882ad43a 	srli	r21,r17,16
  80e9f4:	8461c83a 	sub	r16,r16,r17
  80e9f8:	8d3fffcc 	andi	r20,r17,65535
  80e9fc:	00c00044 	movi	r3,1
  80ea00:	a80b883a 	mov	r5,r21
  80ea04:	8009883a 	mov	r4,r16
  80ea08:	d8c00115 	stw	r3,4(sp)
  80ea0c:	080f51c0 	call	80f51c <__umodsi3>
  80ea10:	a80b883a 	mov	r5,r21
  80ea14:	8009883a 	mov	r4,r16
  80ea18:	1027883a 	mov	r19,r2
  80ea1c:	080f4b80 	call	80f4b8 <__udivsi3>
  80ea20:	a00b883a 	mov	r5,r20
  80ea24:	1009883a 	mov	r4,r2
  80ea28:	102d883a 	mov	r22,r2
  80ea2c:	080f5740 	call	80f574 <__mulsi3>
  80ea30:	9826943a 	slli	r19,r19,16
  80ea34:	900ed43a 	srli	r7,r18,16
  80ea38:	d8c00117 	ldw	r3,4(sp)
  80ea3c:	3cceb03a 	or	r7,r7,r19
  80ea40:	3880052e 	bgeu	r7,r2,80ea58 <__udivdi3+0x258>
  80ea44:	3c4f883a 	add	r7,r7,r17
  80ea48:	b13fffc4 	addi	r4,r22,-1
  80ea4c:	3c400136 	bltu	r7,r17,80ea54 <__udivdi3+0x254>
  80ea50:	3880e436 	bltu	r7,r2,80ede4 <__udivdi3+0x5e4>
  80ea54:	202d883a 	mov	r22,r4
  80ea58:	38a1c83a 	sub	r16,r7,r2
  80ea5c:	8009883a 	mov	r4,r16
  80ea60:	a80b883a 	mov	r5,r21
  80ea64:	d8c00115 	stw	r3,4(sp)
  80ea68:	080f51c0 	call	80f51c <__umodsi3>
  80ea6c:	1027883a 	mov	r19,r2
  80ea70:	8009883a 	mov	r4,r16
  80ea74:	a80b883a 	mov	r5,r21
  80ea78:	9826943a 	slli	r19,r19,16
  80ea7c:	080f4b80 	call	80f4b8 <__udivsi3>
  80ea80:	a00b883a 	mov	r5,r20
  80ea84:	1009883a 	mov	r4,r2
  80ea88:	94bfffcc 	andi	r18,r18,65535
  80ea8c:	1021883a 	mov	r16,r2
  80ea90:	94e4b03a 	or	r18,r18,r19
  80ea94:	080f5740 	call	80f574 <__mulsi3>
  80ea98:	d8c00117 	ldw	r3,4(sp)
  80ea9c:	9080052e 	bgeu	r18,r2,80eab4 <__udivdi3+0x2b4>
  80eaa0:	8ca5883a 	add	r18,r17,r18
  80eaa4:	813fffc4 	addi	r4,r16,-1
  80eaa8:	9440ad36 	bltu	r18,r17,80ed60 <__udivdi3+0x560>
  80eaac:	9080ac2e 	bgeu	r18,r2,80ed60 <__udivdi3+0x560>
  80eab0:	843fff84 	addi	r16,r16,-2
  80eab4:	b004943a 	slli	r2,r22,16
  80eab8:	1404b03a 	or	r2,r2,r16
  80eabc:	00000206 	br	80eac8 <__udivdi3+0x2c8>
  80eac0:	0007883a 	mov	r3,zero
  80eac4:	0005883a 	mov	r2,zero
  80eac8:	dfc00b17 	ldw	ra,44(sp)
  80eacc:	df000a17 	ldw	fp,40(sp)
  80ead0:	ddc00917 	ldw	r23,36(sp)
  80ead4:	dd800817 	ldw	r22,32(sp)
  80ead8:	dd400717 	ldw	r21,28(sp)
  80eadc:	dd000617 	ldw	r20,24(sp)
  80eae0:	dcc00517 	ldw	r19,20(sp)
  80eae4:	dc800417 	ldw	r18,16(sp)
  80eae8:	dc400317 	ldw	r17,12(sp)
  80eaec:	dc000217 	ldw	r16,8(sp)
  80eaf0:	dec00c04 	addi	sp,sp,48
  80eaf4:	f800283a 	ret
  80eaf8:	00803fc4 	movi	r2,255
  80eafc:	11c5803a 	cmpltu	r2,r2,r7
  80eb00:	100490fa 	slli	r2,r2,3
  80eb04:	003f9906 	br	80e96c <__alt_mem_onchip_ram+0xff80a96c>
  80eb08:	00803fc4 	movi	r2,255
  80eb0c:	1445803a 	cmpltu	r2,r2,r17
  80eb10:	100490fa 	slli	r2,r2,3
  80eb14:	003fad06 	br	80e9cc <__alt_mem_onchip_ram+0xff80a9cc>
  80eb18:	00804034 	movhi	r2,256
  80eb1c:	10bfffc4 	addi	r2,r2,-1
  80eb20:	11809f36 	bltu	r2,r6,80eda0 <__udivdi3+0x5a0>
  80eb24:	00800404 	movi	r2,16
  80eb28:	003f4c06 	br	80e85c <__alt_mem_onchip_ram+0xff80a85c>
  80eb2c:	3dce983a 	sll	r7,r7,r23
  80eb30:	30b8d83a 	srl	fp,r6,r2
  80eb34:	80a2d83a 	srl	r17,r16,r2
  80eb38:	35cc983a 	sll	r6,r6,r23
  80eb3c:	3f38b03a 	or	fp,r7,fp
  80eb40:	e024d43a 	srli	r18,fp,16
  80eb44:	9884d83a 	srl	r2,r19,r2
  80eb48:	85e0983a 	sll	r16,r16,r23
  80eb4c:	8809883a 	mov	r4,r17
  80eb50:	900b883a 	mov	r5,r18
  80eb54:	d9800015 	stw	r6,0(sp)
  80eb58:	1420b03a 	or	r16,r2,r16
  80eb5c:	080f51c0 	call	80f51c <__umodsi3>
  80eb60:	900b883a 	mov	r5,r18
  80eb64:	8809883a 	mov	r4,r17
  80eb68:	1029883a 	mov	r20,r2
  80eb6c:	e5bfffcc 	andi	r22,fp,65535
  80eb70:	080f4b80 	call	80f4b8 <__udivsi3>
  80eb74:	100b883a 	mov	r5,r2
  80eb78:	b009883a 	mov	r4,r22
  80eb7c:	102b883a 	mov	r21,r2
  80eb80:	080f5740 	call	80f574 <__mulsi3>
  80eb84:	a028943a 	slli	r20,r20,16
  80eb88:	8006d43a 	srli	r3,r16,16
  80eb8c:	1d06b03a 	or	r3,r3,r20
  80eb90:	1880042e 	bgeu	r3,r2,80eba4 <__udivdi3+0x3a4>
  80eb94:	1f07883a 	add	r3,r3,fp
  80eb98:	a93fffc4 	addi	r4,r21,-1
  80eb9c:	1f00892e 	bgeu	r3,fp,80edc4 <__udivdi3+0x5c4>
  80eba0:	202b883a 	mov	r21,r4
  80eba4:	18a3c83a 	sub	r17,r3,r2
  80eba8:	8809883a 	mov	r4,r17
  80ebac:	900b883a 	mov	r5,r18
  80ebb0:	080f51c0 	call	80f51c <__umodsi3>
  80ebb4:	1029883a 	mov	r20,r2
  80ebb8:	8809883a 	mov	r4,r17
  80ebbc:	900b883a 	mov	r5,r18
  80ebc0:	a028943a 	slli	r20,r20,16
  80ebc4:	080f4b80 	call	80f4b8 <__udivsi3>
  80ebc8:	100b883a 	mov	r5,r2
  80ebcc:	b009883a 	mov	r4,r22
  80ebd0:	843fffcc 	andi	r16,r16,65535
  80ebd4:	1023883a 	mov	r17,r2
  80ebd8:	8520b03a 	or	r16,r16,r20
  80ebdc:	080f5740 	call	80f574 <__mulsi3>
  80ebe0:	8080042e 	bgeu	r16,r2,80ebf4 <__udivdi3+0x3f4>
  80ebe4:	8721883a 	add	r16,r16,fp
  80ebe8:	88ffffc4 	addi	r3,r17,-1
  80ebec:	8700712e 	bgeu	r16,fp,80edb4 <__udivdi3+0x5b4>
  80ebf0:	1823883a 	mov	r17,r3
  80ebf4:	a80e943a 	slli	r7,r21,16
  80ebf8:	d8c00017 	ldw	r3,0(sp)
  80ebfc:	80a1c83a 	sub	r16,r16,r2
  80ec00:	3c64b03a 	or	r18,r7,r17
  80ec04:	1d3fffcc 	andi	r20,r3,65535
  80ec08:	9022d43a 	srli	r17,r18,16
  80ec0c:	95bfffcc 	andi	r22,r18,65535
  80ec10:	a00b883a 	mov	r5,r20
  80ec14:	b009883a 	mov	r4,r22
  80ec18:	182ad43a 	srli	r21,r3,16
  80ec1c:	080f5740 	call	80f574 <__mulsi3>
  80ec20:	a00b883a 	mov	r5,r20
  80ec24:	8809883a 	mov	r4,r17
  80ec28:	1039883a 	mov	fp,r2
  80ec2c:	080f5740 	call	80f574 <__mulsi3>
  80ec30:	8809883a 	mov	r4,r17
  80ec34:	a80b883a 	mov	r5,r21
  80ec38:	1029883a 	mov	r20,r2
  80ec3c:	080f5740 	call	80f574 <__mulsi3>
  80ec40:	a80b883a 	mov	r5,r21
  80ec44:	b009883a 	mov	r4,r22
  80ec48:	1023883a 	mov	r17,r2
  80ec4c:	080f5740 	call	80f574 <__mulsi3>
  80ec50:	e006d43a 	srli	r3,fp,16
  80ec54:	1505883a 	add	r2,r2,r20
  80ec58:	1887883a 	add	r3,r3,r2
  80ec5c:	1d00022e 	bgeu	r3,r20,80ec68 <__udivdi3+0x468>
  80ec60:	00800074 	movhi	r2,1
  80ec64:	88a3883a 	add	r17,r17,r2
  80ec68:	1804d43a 	srli	r2,r3,16
  80ec6c:	1463883a 	add	r17,r2,r17
  80ec70:	84404436 	bltu	r16,r17,80ed84 <__udivdi3+0x584>
  80ec74:	84403e26 	beq	r16,r17,80ed70 <__udivdi3+0x570>
  80ec78:	9005883a 	mov	r2,r18
  80ec7c:	0007883a 	mov	r3,zero
  80ec80:	003f9106 	br	80eac8 <__alt_mem_onchip_ram+0xff80aac8>
  80ec84:	88e2983a 	sll	r17,r17,r3
  80ec88:	80aed83a 	srl	r23,r16,r2
  80ec8c:	80e0983a 	sll	r16,r16,r3
  80ec90:	882ad43a 	srli	r21,r17,16
  80ec94:	9884d83a 	srl	r2,r19,r2
  80ec98:	b809883a 	mov	r4,r23
  80ec9c:	a80b883a 	mov	r5,r21
  80eca0:	98e4983a 	sll	r18,r19,r3
  80eca4:	142cb03a 	or	r22,r2,r16
  80eca8:	080f51c0 	call	80f51c <__umodsi3>
  80ecac:	b809883a 	mov	r4,r23
  80ecb0:	a80b883a 	mov	r5,r21
  80ecb4:	1027883a 	mov	r19,r2
  80ecb8:	8d3fffcc 	andi	r20,r17,65535
  80ecbc:	080f4b80 	call	80f4b8 <__udivsi3>
  80ecc0:	a009883a 	mov	r4,r20
  80ecc4:	100b883a 	mov	r5,r2
  80ecc8:	102f883a 	mov	r23,r2
  80eccc:	080f5740 	call	80f574 <__mulsi3>
  80ecd0:	9826943a 	slli	r19,r19,16
  80ecd4:	b008d43a 	srli	r4,r22,16
  80ecd8:	24c8b03a 	or	r4,r4,r19
  80ecdc:	2080062e 	bgeu	r4,r2,80ecf8 <__udivdi3+0x4f8>
  80ece0:	2449883a 	add	r4,r4,r17
  80ece4:	b8ffffc4 	addi	r3,r23,-1
  80ece8:	24403c36 	bltu	r4,r17,80eddc <__udivdi3+0x5dc>
  80ecec:	20803b2e 	bgeu	r4,r2,80eddc <__udivdi3+0x5dc>
  80ecf0:	bdffff84 	addi	r23,r23,-2
  80ecf4:	2449883a 	add	r4,r4,r17
  80ecf8:	20a1c83a 	sub	r16,r4,r2
  80ecfc:	a80b883a 	mov	r5,r21
  80ed00:	8009883a 	mov	r4,r16
  80ed04:	080f51c0 	call	80f51c <__umodsi3>
  80ed08:	a80b883a 	mov	r5,r21
  80ed0c:	8009883a 	mov	r4,r16
  80ed10:	1027883a 	mov	r19,r2
  80ed14:	080f4b80 	call	80f4b8 <__udivsi3>
  80ed18:	a009883a 	mov	r4,r20
  80ed1c:	100b883a 	mov	r5,r2
  80ed20:	9826943a 	slli	r19,r19,16
  80ed24:	1039883a 	mov	fp,r2
  80ed28:	080f5740 	call	80f574 <__mulsi3>
  80ed2c:	b13fffcc 	andi	r4,r22,65535
  80ed30:	24c8b03a 	or	r4,r4,r19
  80ed34:	2080062e 	bgeu	r4,r2,80ed50 <__udivdi3+0x550>
  80ed38:	2449883a 	add	r4,r4,r17
  80ed3c:	e0ffffc4 	addi	r3,fp,-1
  80ed40:	24402436 	bltu	r4,r17,80edd4 <__udivdi3+0x5d4>
  80ed44:	2080232e 	bgeu	r4,r2,80edd4 <__udivdi3+0x5d4>
  80ed48:	e73fff84 	addi	fp,fp,-2
  80ed4c:	2449883a 	add	r4,r4,r17
  80ed50:	b82e943a 	slli	r23,r23,16
  80ed54:	20a1c83a 	sub	r16,r4,r2
  80ed58:	bf06b03a 	or	r3,r23,fp
  80ed5c:	003f2806 	br	80ea00 <__alt_mem_onchip_ram+0xff80aa00>
  80ed60:	2021883a 	mov	r16,r4
  80ed64:	003f5306 	br	80eab4 <__alt_mem_onchip_ram+0xff80aab4>
  80ed68:	1821883a 	mov	r16,r3
  80ed6c:	003ef406 	br	80e940 <__alt_mem_onchip_ram+0xff80a940>
  80ed70:	1806943a 	slli	r3,r3,16
  80ed74:	9de6983a 	sll	r19,r19,r23
  80ed78:	e73fffcc 	andi	fp,fp,65535
  80ed7c:	1f07883a 	add	r3,r3,fp
  80ed80:	98ffbd2e 	bgeu	r19,r3,80ec78 <__alt_mem_onchip_ram+0xff80ac78>
  80ed84:	90bfffc4 	addi	r2,r18,-1
  80ed88:	0007883a 	mov	r3,zero
  80ed8c:	003f4e06 	br	80eac8 <__alt_mem_onchip_ram+0xff80aac8>
  80ed90:	00800604 	movi	r2,24
  80ed94:	003ef506 	br	80e96c <__alt_mem_onchip_ram+0xff80a96c>
  80ed98:	00800604 	movi	r2,24
  80ed9c:	003f0b06 	br	80e9cc <__alt_mem_onchip_ram+0xff80a9cc>
  80eda0:	00800604 	movi	r2,24
  80eda4:	003ead06 	br	80e85c <__alt_mem_onchip_ram+0xff80a85c>
  80eda8:	0007883a 	mov	r3,zero
  80edac:	00800044 	movi	r2,1
  80edb0:	003f4506 	br	80eac8 <__alt_mem_onchip_ram+0xff80aac8>
  80edb4:	80bf8e2e 	bgeu	r16,r2,80ebf0 <__alt_mem_onchip_ram+0xff80abf0>
  80edb8:	8c7fff84 	addi	r17,r17,-2
  80edbc:	8721883a 	add	r16,r16,fp
  80edc0:	003f8c06 	br	80ebf4 <__alt_mem_onchip_ram+0xff80abf4>
  80edc4:	18bf762e 	bgeu	r3,r2,80eba0 <__alt_mem_onchip_ram+0xff80aba0>
  80edc8:	ad7fff84 	addi	r21,r21,-2
  80edcc:	1f07883a 	add	r3,r3,fp
  80edd0:	003f7406 	br	80eba4 <__alt_mem_onchip_ram+0xff80aba4>
  80edd4:	1839883a 	mov	fp,r3
  80edd8:	003fdd06 	br	80ed50 <__alt_mem_onchip_ram+0xff80ad50>
  80eddc:	182f883a 	mov	r23,r3
  80ede0:	003fc506 	br	80ecf8 <__alt_mem_onchip_ram+0xff80acf8>
  80ede4:	b5bfff84 	addi	r22,r22,-2
  80ede8:	3c4f883a 	add	r7,r7,r17
  80edec:	003f1a06 	br	80ea58 <__alt_mem_onchip_ram+0xff80aa58>
  80edf0:	b5bfff84 	addi	r22,r22,-2
  80edf4:	1c47883a 	add	r3,r3,r17
  80edf8:	003ebc06 	br	80e8ec <__alt_mem_onchip_ram+0xff80a8ec>

0080edfc <__umoddi3>:
  80edfc:	defff304 	addi	sp,sp,-52
  80ee00:	df000b15 	stw	fp,44(sp)
  80ee04:	dc400415 	stw	r17,16(sp)
  80ee08:	dc000315 	stw	r16,12(sp)
  80ee0c:	dfc00c15 	stw	ra,48(sp)
  80ee10:	ddc00a15 	stw	r23,40(sp)
  80ee14:	dd800915 	stw	r22,36(sp)
  80ee18:	dd400815 	stw	r21,32(sp)
  80ee1c:	dd000715 	stw	r20,28(sp)
  80ee20:	dcc00615 	stw	r19,24(sp)
  80ee24:	dc800515 	stw	r18,20(sp)
  80ee28:	2021883a 	mov	r16,r4
  80ee2c:	2823883a 	mov	r17,r5
  80ee30:	2839883a 	mov	fp,r5
  80ee34:	3800401e 	bne	r7,zero,80ef38 <__umoddi3+0x13c>
  80ee38:	3027883a 	mov	r19,r6
  80ee3c:	2029883a 	mov	r20,r4
  80ee40:	2980552e 	bgeu	r5,r6,80ef98 <__umoddi3+0x19c>
  80ee44:	00bfffd4 	movui	r2,65535
  80ee48:	1180a236 	bltu	r2,r6,80f0d4 <__umoddi3+0x2d8>
  80ee4c:	01003fc4 	movi	r4,255
  80ee50:	2189803a 	cmpltu	r4,r4,r6
  80ee54:	200890fa 	slli	r4,r4,3
  80ee58:	3104d83a 	srl	r2,r6,r4
  80ee5c:	00c02074 	movhi	r3,129
  80ee60:	18d3dc04 	addi	r3,r3,20336
  80ee64:	1885883a 	add	r2,r3,r2
  80ee68:	10c00003 	ldbu	r3,0(r2)
  80ee6c:	00800804 	movi	r2,32
  80ee70:	1909883a 	add	r4,r3,r4
  80ee74:	1125c83a 	sub	r18,r2,r4
  80ee78:	90000526 	beq	r18,zero,80ee90 <__umoddi3+0x94>
  80ee7c:	8ca2983a 	sll	r17,r17,r18
  80ee80:	8108d83a 	srl	r4,r16,r4
  80ee84:	34a6983a 	sll	r19,r6,r18
  80ee88:	84a8983a 	sll	r20,r16,r18
  80ee8c:	2478b03a 	or	fp,r4,r17
  80ee90:	982cd43a 	srli	r22,r19,16
  80ee94:	e009883a 	mov	r4,fp
  80ee98:	9dffffcc 	andi	r23,r19,65535
  80ee9c:	b00b883a 	mov	r5,r22
  80eea0:	080f51c0 	call	80f51c <__umodsi3>
  80eea4:	b00b883a 	mov	r5,r22
  80eea8:	e009883a 	mov	r4,fp
  80eeac:	102b883a 	mov	r21,r2
  80eeb0:	080f4b80 	call	80f4b8 <__udivsi3>
  80eeb4:	100b883a 	mov	r5,r2
  80eeb8:	b809883a 	mov	r4,r23
  80eebc:	080f5740 	call	80f574 <__mulsi3>
  80eec0:	a82a943a 	slli	r21,r21,16
  80eec4:	a006d43a 	srli	r3,r20,16
  80eec8:	1d46b03a 	or	r3,r3,r21
  80eecc:	1880032e 	bgeu	r3,r2,80eedc <__umoddi3+0xe0>
  80eed0:	1cc7883a 	add	r3,r3,r19
  80eed4:	1cc00136 	bltu	r3,r19,80eedc <__umoddi3+0xe0>
  80eed8:	18813136 	bltu	r3,r2,80f3a0 <__umoddi3+0x5a4>
  80eedc:	18a1c83a 	sub	r16,r3,r2
  80eee0:	b00b883a 	mov	r5,r22
  80eee4:	8009883a 	mov	r4,r16
  80eee8:	080f51c0 	call	80f51c <__umodsi3>
  80eeec:	b00b883a 	mov	r5,r22
  80eef0:	8009883a 	mov	r4,r16
  80eef4:	1023883a 	mov	r17,r2
  80eef8:	080f4b80 	call	80f4b8 <__udivsi3>
  80eefc:	100b883a 	mov	r5,r2
  80ef00:	b809883a 	mov	r4,r23
  80ef04:	8822943a 	slli	r17,r17,16
  80ef08:	080f5740 	call	80f574 <__mulsi3>
  80ef0c:	a0ffffcc 	andi	r3,r20,65535
  80ef10:	1c46b03a 	or	r3,r3,r17
  80ef14:	1880042e 	bgeu	r3,r2,80ef28 <__umoddi3+0x12c>
  80ef18:	1cc7883a 	add	r3,r3,r19
  80ef1c:	1cc00236 	bltu	r3,r19,80ef28 <__umoddi3+0x12c>
  80ef20:	1880012e 	bgeu	r3,r2,80ef28 <__umoddi3+0x12c>
  80ef24:	1cc7883a 	add	r3,r3,r19
  80ef28:	1885c83a 	sub	r2,r3,r2
  80ef2c:	1484d83a 	srl	r2,r2,r18
  80ef30:	0007883a 	mov	r3,zero
  80ef34:	00005306 	br	80f084 <__umoddi3+0x288>
  80ef38:	29c05036 	bltu	r5,r7,80f07c <__umoddi3+0x280>
  80ef3c:	00bfffd4 	movui	r2,65535
  80ef40:	11c05c2e 	bgeu	r2,r7,80f0b4 <__umoddi3+0x2b8>
  80ef44:	00804034 	movhi	r2,256
  80ef48:	10bfffc4 	addi	r2,r2,-1
  80ef4c:	11c10636 	bltu	r2,r7,80f368 <__umoddi3+0x56c>
  80ef50:	01000404 	movi	r4,16
  80ef54:	3904d83a 	srl	r2,r7,r4
  80ef58:	00c02074 	movhi	r3,129
  80ef5c:	18d3dc04 	addi	r3,r3,20336
  80ef60:	1885883a 	add	r2,r3,r2
  80ef64:	14c00003 	ldbu	r19,0(r2)
  80ef68:	00c00804 	movi	r3,32
  80ef6c:	9927883a 	add	r19,r19,r4
  80ef70:	1ce9c83a 	sub	r20,r3,r19
  80ef74:	a0005c1e 	bne	r20,zero,80f0e8 <__umoddi3+0x2ec>
  80ef78:	3c400136 	bltu	r7,r17,80ef80 <__umoddi3+0x184>
  80ef7c:	81810a36 	bltu	r16,r6,80f3a8 <__umoddi3+0x5ac>
  80ef80:	8185c83a 	sub	r2,r16,r6
  80ef84:	89e3c83a 	sub	r17,r17,r7
  80ef88:	8089803a 	cmpltu	r4,r16,r2
  80ef8c:	8939c83a 	sub	fp,r17,r4
  80ef90:	e007883a 	mov	r3,fp
  80ef94:	00003b06 	br	80f084 <__umoddi3+0x288>
  80ef98:	3000041e 	bne	r6,zero,80efac <__umoddi3+0x1b0>
  80ef9c:	000b883a 	mov	r5,zero
  80efa0:	01000044 	movi	r4,1
  80efa4:	080f4b80 	call	80f4b8 <__udivsi3>
  80efa8:	1027883a 	mov	r19,r2
  80efac:	00bfffd4 	movui	r2,65535
  80efb0:	14c0442e 	bgeu	r2,r19,80f0c4 <__umoddi3+0x2c8>
  80efb4:	00804034 	movhi	r2,256
  80efb8:	10bfffc4 	addi	r2,r2,-1
  80efbc:	14c0ec36 	bltu	r2,r19,80f370 <__umoddi3+0x574>
  80efc0:	00800404 	movi	r2,16
  80efc4:	9886d83a 	srl	r3,r19,r2
  80efc8:	01002074 	movhi	r4,129
  80efcc:	2113dc04 	addi	r4,r4,20336
  80efd0:	20c7883a 	add	r3,r4,r3
  80efd4:	18c00003 	ldbu	r3,0(r3)
  80efd8:	1887883a 	add	r3,r3,r2
  80efdc:	00800804 	movi	r2,32
  80efe0:	10e5c83a 	sub	r18,r2,r3
  80efe4:	9000ab1e 	bne	r18,zero,80f294 <__umoddi3+0x498>
  80efe8:	982cd43a 	srli	r22,r19,16
  80efec:	8ce3c83a 	sub	r17,r17,r19
  80eff0:	9dffffcc 	andi	r23,r19,65535
  80eff4:	b00b883a 	mov	r5,r22
  80eff8:	8809883a 	mov	r4,r17
  80effc:	080f51c0 	call	80f51c <__umodsi3>
  80f000:	b00b883a 	mov	r5,r22
  80f004:	8809883a 	mov	r4,r17
  80f008:	102b883a 	mov	r21,r2
  80f00c:	080f4b80 	call	80f4b8 <__udivsi3>
  80f010:	b80b883a 	mov	r5,r23
  80f014:	1009883a 	mov	r4,r2
  80f018:	080f5740 	call	80f574 <__mulsi3>
  80f01c:	a82a943a 	slli	r21,r21,16
  80f020:	a006d43a 	srli	r3,r20,16
  80f024:	1d46b03a 	or	r3,r3,r21
  80f028:	1880042e 	bgeu	r3,r2,80f03c <__umoddi3+0x240>
  80f02c:	1cc7883a 	add	r3,r3,r19
  80f030:	1cc00236 	bltu	r3,r19,80f03c <__umoddi3+0x240>
  80f034:	1880012e 	bgeu	r3,r2,80f03c <__umoddi3+0x240>
  80f038:	1cc7883a 	add	r3,r3,r19
  80f03c:	18a1c83a 	sub	r16,r3,r2
  80f040:	b00b883a 	mov	r5,r22
  80f044:	8009883a 	mov	r4,r16
  80f048:	080f51c0 	call	80f51c <__umodsi3>
  80f04c:	1023883a 	mov	r17,r2
  80f050:	b00b883a 	mov	r5,r22
  80f054:	8009883a 	mov	r4,r16
  80f058:	080f4b80 	call	80f4b8 <__udivsi3>
  80f05c:	8822943a 	slli	r17,r17,16
  80f060:	b80b883a 	mov	r5,r23
  80f064:	1009883a 	mov	r4,r2
  80f068:	080f5740 	call	80f574 <__mulsi3>
  80f06c:	a53fffcc 	andi	r20,r20,65535
  80f070:	a446b03a 	or	r3,r20,r17
  80f074:	18bfac2e 	bgeu	r3,r2,80ef28 <__alt_mem_onchip_ram+0xff80af28>
  80f078:	003fa706 	br	80ef18 <__alt_mem_onchip_ram+0xff80af18>
  80f07c:	2005883a 	mov	r2,r4
  80f080:	2807883a 	mov	r3,r5
  80f084:	dfc00c17 	ldw	ra,48(sp)
  80f088:	df000b17 	ldw	fp,44(sp)
  80f08c:	ddc00a17 	ldw	r23,40(sp)
  80f090:	dd800917 	ldw	r22,36(sp)
  80f094:	dd400817 	ldw	r21,32(sp)
  80f098:	dd000717 	ldw	r20,28(sp)
  80f09c:	dcc00617 	ldw	r19,24(sp)
  80f0a0:	dc800517 	ldw	r18,20(sp)
  80f0a4:	dc400417 	ldw	r17,16(sp)
  80f0a8:	dc000317 	ldw	r16,12(sp)
  80f0ac:	dec00d04 	addi	sp,sp,52
  80f0b0:	f800283a 	ret
  80f0b4:	04c03fc4 	movi	r19,255
  80f0b8:	99c9803a 	cmpltu	r4,r19,r7
  80f0bc:	200890fa 	slli	r4,r4,3
  80f0c0:	003fa406 	br	80ef54 <__alt_mem_onchip_ram+0xff80af54>
  80f0c4:	00803fc4 	movi	r2,255
  80f0c8:	14c5803a 	cmpltu	r2,r2,r19
  80f0cc:	100490fa 	slli	r2,r2,3
  80f0d0:	003fbc06 	br	80efc4 <__alt_mem_onchip_ram+0xff80afc4>
  80f0d4:	00804034 	movhi	r2,256
  80f0d8:	10bfffc4 	addi	r2,r2,-1
  80f0dc:	1180a636 	bltu	r2,r6,80f378 <__umoddi3+0x57c>
  80f0e0:	01000404 	movi	r4,16
  80f0e4:	003f5c06 	br	80ee58 <__alt_mem_onchip_ram+0xff80ae58>
  80f0e8:	3d0e983a 	sll	r7,r7,r20
  80f0ec:	34ead83a 	srl	r21,r6,r19
  80f0f0:	8cc6d83a 	srl	r3,r17,r19
  80f0f4:	8d10983a 	sll	r8,r17,r20
  80f0f8:	3d6ab03a 	or	r21,r7,r21
  80f0fc:	a82cd43a 	srli	r22,r21,16
  80f100:	84e2d83a 	srl	r17,r16,r19
  80f104:	1809883a 	mov	r4,r3
  80f108:	b00b883a 	mov	r5,r22
  80f10c:	8a22b03a 	or	r17,r17,r8
  80f110:	3524983a 	sll	r18,r6,r20
  80f114:	dc400015 	stw	r17,0(sp)
  80f118:	d8c00115 	stw	r3,4(sp)
  80f11c:	080f51c0 	call	80f51c <__umodsi3>
  80f120:	d8c00117 	ldw	r3,4(sp)
  80f124:	b00b883a 	mov	r5,r22
  80f128:	1039883a 	mov	fp,r2
  80f12c:	1809883a 	mov	r4,r3
  80f130:	080f4b80 	call	80f4b8 <__udivsi3>
  80f134:	adffffcc 	andi	r23,r21,65535
  80f138:	100b883a 	mov	r5,r2
  80f13c:	b809883a 	mov	r4,r23
  80f140:	1023883a 	mov	r17,r2
  80f144:	080f5740 	call	80f574 <__mulsi3>
  80f148:	d9400017 	ldw	r5,0(sp)
  80f14c:	e008943a 	slli	r4,fp,16
  80f150:	8520983a 	sll	r16,r16,r20
  80f154:	2806d43a 	srli	r3,r5,16
  80f158:	1906b03a 	or	r3,r3,r4
  80f15c:	1880042e 	bgeu	r3,r2,80f170 <__umoddi3+0x374>
  80f160:	1d47883a 	add	r3,r3,r21
  80f164:	893fffc4 	addi	r4,r17,-1
  80f168:	1d40892e 	bgeu	r3,r21,80f390 <__umoddi3+0x594>
  80f16c:	2023883a 	mov	r17,r4
  80f170:	18b9c83a 	sub	fp,r3,r2
  80f174:	b00b883a 	mov	r5,r22
  80f178:	e009883a 	mov	r4,fp
  80f17c:	080f51c0 	call	80f51c <__umodsi3>
  80f180:	b00b883a 	mov	r5,r22
  80f184:	e009883a 	mov	r4,fp
  80f188:	d8800215 	stw	r2,8(sp)
  80f18c:	080f4b80 	call	80f4b8 <__udivsi3>
  80f190:	100b883a 	mov	r5,r2
  80f194:	b809883a 	mov	r4,r23
  80f198:	102d883a 	mov	r22,r2
  80f19c:	080f5740 	call	80f574 <__mulsi3>
  80f1a0:	d9800217 	ldw	r6,8(sp)
  80f1a4:	d8c00017 	ldw	r3,0(sp)
  80f1a8:	300c943a 	slli	r6,r6,16
  80f1ac:	1a3fffcc 	andi	r8,r3,65535
  80f1b0:	4190b03a 	or	r8,r8,r6
  80f1b4:	4080042e 	bgeu	r8,r2,80f1c8 <__umoddi3+0x3cc>
  80f1b8:	4551883a 	add	r8,r8,r21
  80f1bc:	b0ffffc4 	addi	r3,r22,-1
  80f1c0:	45406f2e 	bgeu	r8,r21,80f380 <__umoddi3+0x584>
  80f1c4:	182d883a 	mov	r22,r3
  80f1c8:	880e943a 	slli	r7,r17,16
  80f1cc:	9006d43a 	srli	r3,r18,16
  80f1d0:	91bfffcc 	andi	r6,r18,65535
  80f1d4:	3dacb03a 	or	r22,r7,r22
  80f1d8:	b02ed43a 	srli	r23,r22,16
  80f1dc:	b5bfffcc 	andi	r22,r22,65535
  80f1e0:	300b883a 	mov	r5,r6
  80f1e4:	b009883a 	mov	r4,r22
  80f1e8:	40a3c83a 	sub	r17,r8,r2
  80f1ec:	d8c00115 	stw	r3,4(sp)
  80f1f0:	d9800215 	stw	r6,8(sp)
  80f1f4:	080f5740 	call	80f574 <__mulsi3>
  80f1f8:	d9800217 	ldw	r6,8(sp)
  80f1fc:	b809883a 	mov	r4,r23
  80f200:	1039883a 	mov	fp,r2
  80f204:	300b883a 	mov	r5,r6
  80f208:	080f5740 	call	80f574 <__mulsi3>
  80f20c:	d8c00117 	ldw	r3,4(sp)
  80f210:	b809883a 	mov	r4,r23
  80f214:	d8800215 	stw	r2,8(sp)
  80f218:	180b883a 	mov	r5,r3
  80f21c:	080f5740 	call	80f574 <__mulsi3>
  80f220:	d8c00117 	ldw	r3,4(sp)
  80f224:	b009883a 	mov	r4,r22
  80f228:	102f883a 	mov	r23,r2
  80f22c:	180b883a 	mov	r5,r3
  80f230:	080f5740 	call	80f574 <__mulsi3>
  80f234:	d9800217 	ldw	r6,8(sp)
  80f238:	e006d43a 	srli	r3,fp,16
  80f23c:	1185883a 	add	r2,r2,r6
  80f240:	1885883a 	add	r2,r3,r2
  80f244:	1180022e 	bgeu	r2,r6,80f250 <__umoddi3+0x454>
  80f248:	00c00074 	movhi	r3,1
  80f24c:	b8ef883a 	add	r23,r23,r3
  80f250:	1006d43a 	srli	r3,r2,16
  80f254:	1004943a 	slli	r2,r2,16
  80f258:	e73fffcc 	andi	fp,fp,65535
  80f25c:	1dc7883a 	add	r3,r3,r23
  80f260:	1739883a 	add	fp,r2,fp
  80f264:	88c03a36 	bltu	r17,r3,80f350 <__umoddi3+0x554>
  80f268:	88c05126 	beq	r17,r3,80f3b0 <__umoddi3+0x5b4>
  80f26c:	88c9c83a 	sub	r4,r17,r3
  80f270:	e00f883a 	mov	r7,fp
  80f274:	81cfc83a 	sub	r7,r16,r7
  80f278:	81c7803a 	cmpltu	r3,r16,r7
  80f27c:	20c7c83a 	sub	r3,r4,r3
  80f280:	1cc4983a 	sll	r2,r3,r19
  80f284:	3d0ed83a 	srl	r7,r7,r20
  80f288:	1d06d83a 	srl	r3,r3,r20
  80f28c:	11c4b03a 	or	r2,r2,r7
  80f290:	003f7c06 	br	80f084 <__alt_mem_onchip_ram+0xff80b084>
  80f294:	9ca6983a 	sll	r19,r19,r18
  80f298:	88f8d83a 	srl	fp,r17,r3
  80f29c:	80c4d83a 	srl	r2,r16,r3
  80f2a0:	982cd43a 	srli	r22,r19,16
  80f2a4:	8ca2983a 	sll	r17,r17,r18
  80f2a8:	e009883a 	mov	r4,fp
  80f2ac:	b00b883a 	mov	r5,r22
  80f2b0:	146ab03a 	or	r21,r2,r17
  80f2b4:	080f51c0 	call	80f51c <__umodsi3>
  80f2b8:	b00b883a 	mov	r5,r22
  80f2bc:	e009883a 	mov	r4,fp
  80f2c0:	1029883a 	mov	r20,r2
  80f2c4:	9dffffcc 	andi	r23,r19,65535
  80f2c8:	080f4b80 	call	80f4b8 <__udivsi3>
  80f2cc:	b809883a 	mov	r4,r23
  80f2d0:	100b883a 	mov	r5,r2
  80f2d4:	080f5740 	call	80f574 <__mulsi3>
  80f2d8:	a008943a 	slli	r4,r20,16
  80f2dc:	a806d43a 	srli	r3,r21,16
  80f2e0:	84a8983a 	sll	r20,r16,r18
  80f2e4:	1906b03a 	or	r3,r3,r4
  80f2e8:	1880042e 	bgeu	r3,r2,80f2fc <__umoddi3+0x500>
  80f2ec:	1cc7883a 	add	r3,r3,r19
  80f2f0:	1cc00236 	bltu	r3,r19,80f2fc <__umoddi3+0x500>
  80f2f4:	1880012e 	bgeu	r3,r2,80f2fc <__umoddi3+0x500>
  80f2f8:	1cc7883a 	add	r3,r3,r19
  80f2fc:	18a3c83a 	sub	r17,r3,r2
  80f300:	b00b883a 	mov	r5,r22
  80f304:	8809883a 	mov	r4,r17
  80f308:	080f51c0 	call	80f51c <__umodsi3>
  80f30c:	b00b883a 	mov	r5,r22
  80f310:	8809883a 	mov	r4,r17
  80f314:	1021883a 	mov	r16,r2
  80f318:	080f4b80 	call	80f4b8 <__udivsi3>
  80f31c:	100b883a 	mov	r5,r2
  80f320:	b809883a 	mov	r4,r23
  80f324:	8020943a 	slli	r16,r16,16
  80f328:	080f5740 	call	80f574 <__mulsi3>
  80f32c:	a8ffffcc 	andi	r3,r21,65535
  80f330:	1c06b03a 	or	r3,r3,r16
  80f334:	1880042e 	bgeu	r3,r2,80f348 <__umoddi3+0x54c>
  80f338:	1cc7883a 	add	r3,r3,r19
  80f33c:	1cc00236 	bltu	r3,r19,80f348 <__umoddi3+0x54c>
  80f340:	1880012e 	bgeu	r3,r2,80f348 <__umoddi3+0x54c>
  80f344:	1cc7883a 	add	r3,r3,r19
  80f348:	18a3c83a 	sub	r17,r3,r2
  80f34c:	003f2906 	br	80eff4 <__alt_mem_onchip_ram+0xff80aff4>
  80f350:	e48fc83a 	sub	r7,fp,r18
  80f354:	1d49c83a 	sub	r4,r3,r21
  80f358:	e1f9803a 	cmpltu	fp,fp,r7
  80f35c:	2739c83a 	sub	fp,r4,fp
  80f360:	8f09c83a 	sub	r4,r17,fp
  80f364:	003fc306 	br	80f274 <__alt_mem_onchip_ram+0xff80b274>
  80f368:	01000604 	movi	r4,24
  80f36c:	003ef906 	br	80ef54 <__alt_mem_onchip_ram+0xff80af54>
  80f370:	00800604 	movi	r2,24
  80f374:	003f1306 	br	80efc4 <__alt_mem_onchip_ram+0xff80afc4>
  80f378:	01000604 	movi	r4,24
  80f37c:	003eb606 	br	80ee58 <__alt_mem_onchip_ram+0xff80ae58>
  80f380:	40bf902e 	bgeu	r8,r2,80f1c4 <__alt_mem_onchip_ram+0xff80b1c4>
  80f384:	b5bfff84 	addi	r22,r22,-2
  80f388:	4551883a 	add	r8,r8,r21
  80f38c:	003f8e06 	br	80f1c8 <__alt_mem_onchip_ram+0xff80b1c8>
  80f390:	18bf762e 	bgeu	r3,r2,80f16c <__alt_mem_onchip_ram+0xff80b16c>
  80f394:	8c7fff84 	addi	r17,r17,-2
  80f398:	1d47883a 	add	r3,r3,r21
  80f39c:	003f7406 	br	80f170 <__alt_mem_onchip_ram+0xff80b170>
  80f3a0:	1cc7883a 	add	r3,r3,r19
  80f3a4:	003ecd06 	br	80eedc <__alt_mem_onchip_ram+0xff80aedc>
  80f3a8:	8005883a 	mov	r2,r16
  80f3ac:	003ef806 	br	80ef90 <__alt_mem_onchip_ram+0xff80af90>
  80f3b0:	873fe736 	bltu	r16,fp,80f350 <__alt_mem_onchip_ram+0xff80b350>
  80f3b4:	e00f883a 	mov	r7,fp
  80f3b8:	0009883a 	mov	r4,zero
  80f3bc:	003fad06 	br	80f274 <__alt_mem_onchip_ram+0xff80b274>

0080f3c0 <__divsi3>:
  80f3c0:	20001b16 	blt	r4,zero,80f430 <__divsi3+0x70>
  80f3c4:	000f883a 	mov	r7,zero
  80f3c8:	28001616 	blt	r5,zero,80f424 <__divsi3+0x64>
  80f3cc:	200d883a 	mov	r6,r4
  80f3d0:	29001a2e 	bgeu	r5,r4,80f43c <__divsi3+0x7c>
  80f3d4:	00800804 	movi	r2,32
  80f3d8:	00c00044 	movi	r3,1
  80f3dc:	00000106 	br	80f3e4 <__divsi3+0x24>
  80f3e0:	10000d26 	beq	r2,zero,80f418 <__divsi3+0x58>
  80f3e4:	294b883a 	add	r5,r5,r5
  80f3e8:	10bfffc4 	addi	r2,r2,-1
  80f3ec:	18c7883a 	add	r3,r3,r3
  80f3f0:	293ffb36 	bltu	r5,r4,80f3e0 <__alt_mem_onchip_ram+0xff80b3e0>
  80f3f4:	0005883a 	mov	r2,zero
  80f3f8:	18000726 	beq	r3,zero,80f418 <__divsi3+0x58>
  80f3fc:	0005883a 	mov	r2,zero
  80f400:	31400236 	bltu	r6,r5,80f40c <__divsi3+0x4c>
  80f404:	314dc83a 	sub	r6,r6,r5
  80f408:	10c4b03a 	or	r2,r2,r3
  80f40c:	1806d07a 	srli	r3,r3,1
  80f410:	280ad07a 	srli	r5,r5,1
  80f414:	183ffa1e 	bne	r3,zero,80f400 <__alt_mem_onchip_ram+0xff80b400>
  80f418:	38000126 	beq	r7,zero,80f420 <__divsi3+0x60>
  80f41c:	0085c83a 	sub	r2,zero,r2
  80f420:	f800283a 	ret
  80f424:	014bc83a 	sub	r5,zero,r5
  80f428:	39c0005c 	xori	r7,r7,1
  80f42c:	003fe706 	br	80f3cc <__alt_mem_onchip_ram+0xff80b3cc>
  80f430:	0109c83a 	sub	r4,zero,r4
  80f434:	01c00044 	movi	r7,1
  80f438:	003fe306 	br	80f3c8 <__alt_mem_onchip_ram+0xff80b3c8>
  80f43c:	00c00044 	movi	r3,1
  80f440:	003fee06 	br	80f3fc <__alt_mem_onchip_ram+0xff80b3fc>

0080f444 <__modsi3>:
  80f444:	20001716 	blt	r4,zero,80f4a4 <__modsi3+0x60>
  80f448:	000f883a 	mov	r7,zero
  80f44c:	2005883a 	mov	r2,r4
  80f450:	28001216 	blt	r5,zero,80f49c <__modsi3+0x58>
  80f454:	2900162e 	bgeu	r5,r4,80f4b0 <__modsi3+0x6c>
  80f458:	01800804 	movi	r6,32
  80f45c:	00c00044 	movi	r3,1
  80f460:	00000106 	br	80f468 <__modsi3+0x24>
  80f464:	30000a26 	beq	r6,zero,80f490 <__modsi3+0x4c>
  80f468:	294b883a 	add	r5,r5,r5
  80f46c:	31bfffc4 	addi	r6,r6,-1
  80f470:	18c7883a 	add	r3,r3,r3
  80f474:	293ffb36 	bltu	r5,r4,80f464 <__alt_mem_onchip_ram+0xff80b464>
  80f478:	18000526 	beq	r3,zero,80f490 <__modsi3+0x4c>
  80f47c:	1806d07a 	srli	r3,r3,1
  80f480:	11400136 	bltu	r2,r5,80f488 <__modsi3+0x44>
  80f484:	1145c83a 	sub	r2,r2,r5
  80f488:	280ad07a 	srli	r5,r5,1
  80f48c:	183ffb1e 	bne	r3,zero,80f47c <__alt_mem_onchip_ram+0xff80b47c>
  80f490:	38000126 	beq	r7,zero,80f498 <__modsi3+0x54>
  80f494:	0085c83a 	sub	r2,zero,r2
  80f498:	f800283a 	ret
  80f49c:	014bc83a 	sub	r5,zero,r5
  80f4a0:	003fec06 	br	80f454 <__alt_mem_onchip_ram+0xff80b454>
  80f4a4:	0109c83a 	sub	r4,zero,r4
  80f4a8:	01c00044 	movi	r7,1
  80f4ac:	003fe706 	br	80f44c <__alt_mem_onchip_ram+0xff80b44c>
  80f4b0:	00c00044 	movi	r3,1
  80f4b4:	003ff106 	br	80f47c <__alt_mem_onchip_ram+0xff80b47c>

0080f4b8 <__udivsi3>:
  80f4b8:	200d883a 	mov	r6,r4
  80f4bc:	2900152e 	bgeu	r5,r4,80f514 <__udivsi3+0x5c>
  80f4c0:	28001416 	blt	r5,zero,80f514 <__udivsi3+0x5c>
  80f4c4:	00800804 	movi	r2,32
  80f4c8:	00c00044 	movi	r3,1
  80f4cc:	00000206 	br	80f4d8 <__udivsi3+0x20>
  80f4d0:	10000e26 	beq	r2,zero,80f50c <__udivsi3+0x54>
  80f4d4:	28000516 	blt	r5,zero,80f4ec <__udivsi3+0x34>
  80f4d8:	294b883a 	add	r5,r5,r5
  80f4dc:	10bfffc4 	addi	r2,r2,-1
  80f4e0:	18c7883a 	add	r3,r3,r3
  80f4e4:	293ffa36 	bltu	r5,r4,80f4d0 <__alt_mem_onchip_ram+0xff80b4d0>
  80f4e8:	18000826 	beq	r3,zero,80f50c <__udivsi3+0x54>
  80f4ec:	0005883a 	mov	r2,zero
  80f4f0:	31400236 	bltu	r6,r5,80f4fc <__udivsi3+0x44>
  80f4f4:	314dc83a 	sub	r6,r6,r5
  80f4f8:	10c4b03a 	or	r2,r2,r3
  80f4fc:	1806d07a 	srli	r3,r3,1
  80f500:	280ad07a 	srli	r5,r5,1
  80f504:	183ffa1e 	bne	r3,zero,80f4f0 <__alt_mem_onchip_ram+0xff80b4f0>
  80f508:	f800283a 	ret
  80f50c:	0005883a 	mov	r2,zero
  80f510:	f800283a 	ret
  80f514:	00c00044 	movi	r3,1
  80f518:	003ff406 	br	80f4ec <__alt_mem_onchip_ram+0xff80b4ec>

0080f51c <__umodsi3>:
  80f51c:	2005883a 	mov	r2,r4
  80f520:	2900122e 	bgeu	r5,r4,80f56c <__umodsi3+0x50>
  80f524:	28001116 	blt	r5,zero,80f56c <__umodsi3+0x50>
  80f528:	01800804 	movi	r6,32
  80f52c:	00c00044 	movi	r3,1
  80f530:	00000206 	br	80f53c <__umodsi3+0x20>
  80f534:	30000c26 	beq	r6,zero,80f568 <__umodsi3+0x4c>
  80f538:	28000516 	blt	r5,zero,80f550 <__umodsi3+0x34>
  80f53c:	294b883a 	add	r5,r5,r5
  80f540:	31bfffc4 	addi	r6,r6,-1
  80f544:	18c7883a 	add	r3,r3,r3
  80f548:	293ffa36 	bltu	r5,r4,80f534 <__alt_mem_onchip_ram+0xff80b534>
  80f54c:	18000626 	beq	r3,zero,80f568 <__umodsi3+0x4c>
  80f550:	1806d07a 	srli	r3,r3,1
  80f554:	11400136 	bltu	r2,r5,80f55c <__umodsi3+0x40>
  80f558:	1145c83a 	sub	r2,r2,r5
  80f55c:	280ad07a 	srli	r5,r5,1
  80f560:	183ffb1e 	bne	r3,zero,80f550 <__alt_mem_onchip_ram+0xff80b550>
  80f564:	f800283a 	ret
  80f568:	f800283a 	ret
  80f56c:	00c00044 	movi	r3,1
  80f570:	003ff706 	br	80f550 <__alt_mem_onchip_ram+0xff80b550>

0080f574 <__mulsi3>:
  80f574:	0005883a 	mov	r2,zero
  80f578:	20000726 	beq	r4,zero,80f598 <__mulsi3+0x24>
  80f57c:	20c0004c 	andi	r3,r4,1
  80f580:	2008d07a 	srli	r4,r4,1
  80f584:	18000126 	beq	r3,zero,80f58c <__mulsi3+0x18>
  80f588:	1145883a 	add	r2,r2,r5
  80f58c:	294b883a 	add	r5,r5,r5
  80f590:	203ffa1e 	bne	r4,zero,80f57c <__alt_mem_onchip_ram+0xff80b57c>
  80f594:	f800283a 	ret
  80f598:	f800283a 	ret

0080f59c <__eqsf2>:
  80f59c:	2006d5fa 	srli	r3,r4,23
  80f5a0:	280cd5fa 	srli	r6,r5,23
  80f5a4:	01c02034 	movhi	r7,128
  80f5a8:	39ffffc4 	addi	r7,r7,-1
  80f5ac:	18c03fcc 	andi	r3,r3,255
  80f5b0:	02003fc4 	movi	r8,255
  80f5b4:	3904703a 	and	r2,r7,r4
  80f5b8:	31803fcc 	andi	r6,r6,255
  80f5bc:	394e703a 	and	r7,r7,r5
  80f5c0:	2008d7fa 	srli	r4,r4,31
  80f5c4:	280ad7fa 	srli	r5,r5,31
  80f5c8:	1a000d26 	beq	r3,r8,80f600 <__eqsf2+0x64>
  80f5cc:	02003fc4 	movi	r8,255
  80f5d0:	32000826 	beq	r6,r8,80f5f4 <__eqsf2+0x58>
  80f5d4:	19800226 	beq	r3,r6,80f5e0 <__eqsf2+0x44>
  80f5d8:	00800044 	movi	r2,1
  80f5dc:	f800283a 	ret
  80f5e0:	11fffd1e 	bne	r2,r7,80f5d8 <__alt_mem_onchip_ram+0xff80b5d8>
  80f5e4:	21400926 	beq	r4,r5,80f60c <__eqsf2+0x70>
  80f5e8:	183ffb1e 	bne	r3,zero,80f5d8 <__alt_mem_onchip_ram+0xff80b5d8>
  80f5ec:	1004c03a 	cmpne	r2,r2,zero
  80f5f0:	f800283a 	ret
  80f5f4:	383ff726 	beq	r7,zero,80f5d4 <__alt_mem_onchip_ram+0xff80b5d4>
  80f5f8:	00800044 	movi	r2,1
  80f5fc:	f800283a 	ret
  80f600:	103ff226 	beq	r2,zero,80f5cc <__alt_mem_onchip_ram+0xff80b5cc>
  80f604:	00800044 	movi	r2,1
  80f608:	f800283a 	ret
  80f60c:	0005883a 	mov	r2,zero
  80f610:	f800283a 	ret

0080f614 <__gesf2>:
  80f614:	2004d5fa 	srli	r2,r4,23
  80f618:	2806d5fa 	srli	r3,r5,23
  80f61c:	01802034 	movhi	r6,128
  80f620:	31bfffc4 	addi	r6,r6,-1
  80f624:	10803fcc 	andi	r2,r2,255
  80f628:	01c03fc4 	movi	r7,255
  80f62c:	3110703a 	and	r8,r6,r4
  80f630:	18c03fcc 	andi	r3,r3,255
  80f634:	314c703a 	and	r6,r6,r5
  80f638:	2008d7fa 	srli	r4,r4,31
  80f63c:	280ad7fa 	srli	r5,r5,31
  80f640:	11c01926 	beq	r2,r7,80f6a8 <__gesf2+0x94>
  80f644:	01c03fc4 	movi	r7,255
  80f648:	19c00f26 	beq	r3,r7,80f688 <__gesf2+0x74>
  80f64c:	1000061e 	bne	r2,zero,80f668 <__gesf2+0x54>
  80f650:	400f003a 	cmpeq	r7,r8,zero
  80f654:	1800071e 	bne	r3,zero,80f674 <__gesf2+0x60>
  80f658:	3000061e 	bne	r6,zero,80f674 <__gesf2+0x60>
  80f65c:	0005883a 	mov	r2,zero
  80f660:	40000e1e 	bne	r8,zero,80f69c <__gesf2+0x88>
  80f664:	f800283a 	ret
  80f668:	18000a1e 	bne	r3,zero,80f694 <__gesf2+0x80>
  80f66c:	30000b26 	beq	r6,zero,80f69c <__gesf2+0x88>
  80f670:	000f883a 	mov	r7,zero
  80f674:	29403fcc 	andi	r5,r5,255
  80f678:	38000726 	beq	r7,zero,80f698 <__gesf2+0x84>
  80f67c:	28000826 	beq	r5,zero,80f6a0 <__gesf2+0x8c>
  80f680:	00800044 	movi	r2,1
  80f684:	f800283a 	ret
  80f688:	303ff026 	beq	r6,zero,80f64c <__alt_mem_onchip_ram+0xff80b64c>
  80f68c:	00bfff84 	movi	r2,-2
  80f690:	f800283a 	ret
  80f694:	29403fcc 	andi	r5,r5,255
  80f698:	21400526 	beq	r4,r5,80f6b0 <__gesf2+0x9c>
  80f69c:	203ff826 	beq	r4,zero,80f680 <__alt_mem_onchip_ram+0xff80b680>
  80f6a0:	00bfffc4 	movi	r2,-1
  80f6a4:	f800283a 	ret
  80f6a8:	403fe626 	beq	r8,zero,80f644 <__alt_mem_onchip_ram+0xff80b644>
  80f6ac:	003ff706 	br	80f68c <__alt_mem_onchip_ram+0xff80b68c>
  80f6b0:	18bffa16 	blt	r3,r2,80f69c <__alt_mem_onchip_ram+0xff80b69c>
  80f6b4:	10c00216 	blt	r2,r3,80f6c0 <__gesf2+0xac>
  80f6b8:	323ff836 	bltu	r6,r8,80f69c <__alt_mem_onchip_ram+0xff80b69c>
  80f6bc:	4180022e 	bgeu	r8,r6,80f6c8 <__gesf2+0xb4>
  80f6c0:	203fef1e 	bne	r4,zero,80f680 <__alt_mem_onchip_ram+0xff80b680>
  80f6c4:	003ff606 	br	80f6a0 <__alt_mem_onchip_ram+0xff80b6a0>
  80f6c8:	0005883a 	mov	r2,zero
  80f6cc:	f800283a 	ret

0080f6d0 <__lesf2>:
  80f6d0:	2004d5fa 	srli	r2,r4,23
  80f6d4:	280cd5fa 	srli	r6,r5,23
  80f6d8:	00c02034 	movhi	r3,128
  80f6dc:	18ffffc4 	addi	r3,r3,-1
  80f6e0:	10803fcc 	andi	r2,r2,255
  80f6e4:	01c03fc4 	movi	r7,255
  80f6e8:	1910703a 	and	r8,r3,r4
  80f6ec:	31803fcc 	andi	r6,r6,255
  80f6f0:	1946703a 	and	r3,r3,r5
  80f6f4:	2008d7fa 	srli	r4,r4,31
  80f6f8:	280ad7fa 	srli	r5,r5,31
  80f6fc:	11c01b26 	beq	r2,r7,80f76c <__lesf2+0x9c>
  80f700:	01c03fc4 	movi	r7,255
  80f704:	31c01126 	beq	r6,r7,80f74c <__lesf2+0x7c>
  80f708:	1000071e 	bne	r2,zero,80f728 <__lesf2+0x58>
  80f70c:	400f003a 	cmpeq	r7,r8,zero
  80f710:	21003fcc 	andi	r4,r4,255
  80f714:	3000081e 	bne	r6,zero,80f738 <__lesf2+0x68>
  80f718:	1800071e 	bne	r3,zero,80f738 <__lesf2+0x68>
  80f71c:	0005883a 	mov	r2,zero
  80f720:	40000f1e 	bne	r8,zero,80f760 <__lesf2+0x90>
  80f724:	f800283a 	ret
  80f728:	21003fcc 	andi	r4,r4,255
  80f72c:	30000a1e 	bne	r6,zero,80f758 <__lesf2+0x88>
  80f730:	18000b26 	beq	r3,zero,80f760 <__lesf2+0x90>
  80f734:	000f883a 	mov	r7,zero
  80f738:	29403fcc 	andi	r5,r5,255
  80f73c:	38000726 	beq	r7,zero,80f75c <__lesf2+0x8c>
  80f740:	28000826 	beq	r5,zero,80f764 <__lesf2+0x94>
  80f744:	00800044 	movi	r2,1
  80f748:	f800283a 	ret
  80f74c:	183fee26 	beq	r3,zero,80f708 <__alt_mem_onchip_ram+0xff80b708>
  80f750:	00800084 	movi	r2,2
  80f754:	f800283a 	ret
  80f758:	29403fcc 	andi	r5,r5,255
  80f75c:	21400626 	beq	r4,r5,80f778 <__lesf2+0xa8>
  80f760:	203ff826 	beq	r4,zero,80f744 <__alt_mem_onchip_ram+0xff80b744>
  80f764:	00bfffc4 	movi	r2,-1
  80f768:	f800283a 	ret
  80f76c:	403fe426 	beq	r8,zero,80f700 <__alt_mem_onchip_ram+0xff80b700>
  80f770:	00800084 	movi	r2,2
  80f774:	f800283a 	ret
  80f778:	30bff916 	blt	r6,r2,80f760 <__alt_mem_onchip_ram+0xff80b760>
  80f77c:	11800216 	blt	r2,r6,80f788 <__lesf2+0xb8>
  80f780:	1a3ff736 	bltu	r3,r8,80f760 <__alt_mem_onchip_ram+0xff80b760>
  80f784:	40c0022e 	bgeu	r8,r3,80f790 <__lesf2+0xc0>
  80f788:	203fee1e 	bne	r4,zero,80f744 <__alt_mem_onchip_ram+0xff80b744>
  80f78c:	003ff506 	br	80f764 <__alt_mem_onchip_ram+0xff80b764>
  80f790:	0005883a 	mov	r2,zero
  80f794:	f800283a 	ret

0080f798 <__adddf3>:
  80f798:	02c00434 	movhi	r11,16
  80f79c:	5affffc4 	addi	r11,r11,-1
  80f7a0:	2806d7fa 	srli	r3,r5,31
  80f7a4:	2ad4703a 	and	r10,r5,r11
  80f7a8:	3ad2703a 	and	r9,r7,r11
  80f7ac:	3804d53a 	srli	r2,r7,20
  80f7b0:	3018d77a 	srli	r12,r6,29
  80f7b4:	280ad53a 	srli	r5,r5,20
  80f7b8:	501490fa 	slli	r10,r10,3
  80f7bc:	2010d77a 	srli	r8,r4,29
  80f7c0:	481290fa 	slli	r9,r9,3
  80f7c4:	380ed7fa 	srli	r7,r7,31
  80f7c8:	defffb04 	addi	sp,sp,-20
  80f7cc:	dc800215 	stw	r18,8(sp)
  80f7d0:	dc400115 	stw	r17,4(sp)
  80f7d4:	dc000015 	stw	r16,0(sp)
  80f7d8:	dfc00415 	stw	ra,16(sp)
  80f7dc:	dcc00315 	stw	r19,12(sp)
  80f7e0:	1c803fcc 	andi	r18,r3,255
  80f7e4:	2c01ffcc 	andi	r16,r5,2047
  80f7e8:	5210b03a 	or	r8,r10,r8
  80f7ec:	202290fa 	slli	r17,r4,3
  80f7f0:	1081ffcc 	andi	r2,r2,2047
  80f7f4:	4b12b03a 	or	r9,r9,r12
  80f7f8:	300c90fa 	slli	r6,r6,3
  80f7fc:	91c07526 	beq	r18,r7,80f9d4 <__adddf3+0x23c>
  80f800:	8087c83a 	sub	r3,r16,r2
  80f804:	00c0ab0e 	bge	zero,r3,80fab4 <__adddf3+0x31c>
  80f808:	10002a1e 	bne	r2,zero,80f8b4 <__adddf3+0x11c>
  80f80c:	4984b03a 	or	r2,r9,r6
  80f810:	1000961e 	bne	r2,zero,80fa6c <__adddf3+0x2d4>
  80f814:	888001cc 	andi	r2,r17,7
  80f818:	10000726 	beq	r2,zero,80f838 <__adddf3+0xa0>
  80f81c:	888003cc 	andi	r2,r17,15
  80f820:	00c00104 	movi	r3,4
  80f824:	10c00426 	beq	r2,r3,80f838 <__adddf3+0xa0>
  80f828:	88c7883a 	add	r3,r17,r3
  80f82c:	1c63803a 	cmpltu	r17,r3,r17
  80f830:	4451883a 	add	r8,r8,r17
  80f834:	1823883a 	mov	r17,r3
  80f838:	4080202c 	andhi	r2,r8,128
  80f83c:	10005926 	beq	r2,zero,80f9a4 <__adddf3+0x20c>
  80f840:	84000044 	addi	r16,r16,1
  80f844:	0081ffc4 	movi	r2,2047
  80f848:	8080ba26 	beq	r16,r2,80fb34 <__adddf3+0x39c>
  80f84c:	00bfe034 	movhi	r2,65408
  80f850:	10bfffc4 	addi	r2,r2,-1
  80f854:	4090703a 	and	r8,r8,r2
  80f858:	4004977a 	slli	r2,r8,29
  80f85c:	4010927a 	slli	r8,r8,9
  80f860:	8822d0fa 	srli	r17,r17,3
  80f864:	8401ffcc 	andi	r16,r16,2047
  80f868:	4010d33a 	srli	r8,r8,12
  80f86c:	9007883a 	mov	r3,r18
  80f870:	1444b03a 	or	r2,r2,r17
  80f874:	8401ffcc 	andi	r16,r16,2047
  80f878:	8020953a 	slli	r16,r16,20
  80f87c:	18c03fcc 	andi	r3,r3,255
  80f880:	01000434 	movhi	r4,16
  80f884:	213fffc4 	addi	r4,r4,-1
  80f888:	180697fa 	slli	r3,r3,31
  80f88c:	4110703a 	and	r8,r8,r4
  80f890:	4410b03a 	or	r8,r8,r16
  80f894:	40c6b03a 	or	r3,r8,r3
  80f898:	dfc00417 	ldw	ra,16(sp)
  80f89c:	dcc00317 	ldw	r19,12(sp)
  80f8a0:	dc800217 	ldw	r18,8(sp)
  80f8a4:	dc400117 	ldw	r17,4(sp)
  80f8a8:	dc000017 	ldw	r16,0(sp)
  80f8ac:	dec00504 	addi	sp,sp,20
  80f8b0:	f800283a 	ret
  80f8b4:	0081ffc4 	movi	r2,2047
  80f8b8:	80bfd626 	beq	r16,r2,80f814 <__alt_mem_onchip_ram+0xff80b814>
  80f8bc:	4a402034 	orhi	r9,r9,128
  80f8c0:	00800e04 	movi	r2,56
  80f8c4:	10c09f16 	blt	r2,r3,80fb44 <__adddf3+0x3ac>
  80f8c8:	008007c4 	movi	r2,31
  80f8cc:	10c0c216 	blt	r2,r3,80fbd8 <__adddf3+0x440>
  80f8d0:	00800804 	movi	r2,32
  80f8d4:	10c5c83a 	sub	r2,r2,r3
  80f8d8:	488a983a 	sll	r5,r9,r2
  80f8dc:	30c8d83a 	srl	r4,r6,r3
  80f8e0:	3084983a 	sll	r2,r6,r2
  80f8e4:	48c6d83a 	srl	r3,r9,r3
  80f8e8:	290cb03a 	or	r6,r5,r4
  80f8ec:	1004c03a 	cmpne	r2,r2,zero
  80f8f0:	308cb03a 	or	r6,r6,r2
  80f8f4:	898dc83a 	sub	r6,r17,r6
  80f8f8:	89a3803a 	cmpltu	r17,r17,r6
  80f8fc:	40d1c83a 	sub	r8,r8,r3
  80f900:	4451c83a 	sub	r8,r8,r17
  80f904:	3023883a 	mov	r17,r6
  80f908:	4080202c 	andhi	r2,r8,128
  80f90c:	10002326 	beq	r2,zero,80f99c <__adddf3+0x204>
  80f910:	04c02034 	movhi	r19,128
  80f914:	9cffffc4 	addi	r19,r19,-1
  80f918:	44e6703a 	and	r19,r8,r19
  80f91c:	98007626 	beq	r19,zero,80faf8 <__adddf3+0x360>
  80f920:	9809883a 	mov	r4,r19
  80f924:	081217c0 	call	81217c <__clzsi2>
  80f928:	10fffe04 	addi	r3,r2,-8
  80f92c:	010007c4 	movi	r4,31
  80f930:	20c07716 	blt	r4,r3,80fb10 <__adddf3+0x378>
  80f934:	00800804 	movi	r2,32
  80f938:	10c5c83a 	sub	r2,r2,r3
  80f93c:	8884d83a 	srl	r2,r17,r2
  80f940:	98d0983a 	sll	r8,r19,r3
  80f944:	88e2983a 	sll	r17,r17,r3
  80f948:	1204b03a 	or	r2,r2,r8
  80f94c:	1c007416 	blt	r3,r16,80fb20 <__adddf3+0x388>
  80f950:	1c21c83a 	sub	r16,r3,r16
  80f954:	82000044 	addi	r8,r16,1
  80f958:	00c007c4 	movi	r3,31
  80f95c:	1a009116 	blt	r3,r8,80fba4 <__adddf3+0x40c>
  80f960:	00c00804 	movi	r3,32
  80f964:	1a07c83a 	sub	r3,r3,r8
  80f968:	8a08d83a 	srl	r4,r17,r8
  80f96c:	88e2983a 	sll	r17,r17,r3
  80f970:	10c6983a 	sll	r3,r2,r3
  80f974:	1210d83a 	srl	r8,r2,r8
  80f978:	8804c03a 	cmpne	r2,r17,zero
  80f97c:	1906b03a 	or	r3,r3,r4
  80f980:	18a2b03a 	or	r17,r3,r2
  80f984:	0021883a 	mov	r16,zero
  80f988:	003fa206 	br	80f814 <__alt_mem_onchip_ram+0xff80b814>
  80f98c:	1890b03a 	or	r8,r3,r2
  80f990:	40017d26 	beq	r8,zero,80ff88 <__adddf3+0x7f0>
  80f994:	1011883a 	mov	r8,r2
  80f998:	1823883a 	mov	r17,r3
  80f99c:	888001cc 	andi	r2,r17,7
  80f9a0:	103f9e1e 	bne	r2,zero,80f81c <__alt_mem_onchip_ram+0xff80b81c>
  80f9a4:	4004977a 	slli	r2,r8,29
  80f9a8:	8822d0fa 	srli	r17,r17,3
  80f9ac:	4010d0fa 	srli	r8,r8,3
  80f9b0:	9007883a 	mov	r3,r18
  80f9b4:	1444b03a 	or	r2,r2,r17
  80f9b8:	0101ffc4 	movi	r4,2047
  80f9bc:	81002426 	beq	r16,r4,80fa50 <__adddf3+0x2b8>
  80f9c0:	8120703a 	and	r16,r16,r4
  80f9c4:	01000434 	movhi	r4,16
  80f9c8:	213fffc4 	addi	r4,r4,-1
  80f9cc:	4110703a 	and	r8,r8,r4
  80f9d0:	003fa806 	br	80f874 <__alt_mem_onchip_ram+0xff80b874>
  80f9d4:	8089c83a 	sub	r4,r16,r2
  80f9d8:	01005e0e 	bge	zero,r4,80fb54 <__adddf3+0x3bc>
  80f9dc:	10002b26 	beq	r2,zero,80fa8c <__adddf3+0x2f4>
  80f9e0:	0081ffc4 	movi	r2,2047
  80f9e4:	80bf8b26 	beq	r16,r2,80f814 <__alt_mem_onchip_ram+0xff80b814>
  80f9e8:	4a402034 	orhi	r9,r9,128
  80f9ec:	00800e04 	movi	r2,56
  80f9f0:	1100a40e 	bge	r2,r4,80fc84 <__adddf3+0x4ec>
  80f9f4:	498cb03a 	or	r6,r9,r6
  80f9f8:	300ac03a 	cmpne	r5,r6,zero
  80f9fc:	0013883a 	mov	r9,zero
  80fa00:	2c4b883a 	add	r5,r5,r17
  80fa04:	2c63803a 	cmpltu	r17,r5,r17
  80fa08:	4a11883a 	add	r8,r9,r8
  80fa0c:	8a11883a 	add	r8,r17,r8
  80fa10:	2823883a 	mov	r17,r5
  80fa14:	4080202c 	andhi	r2,r8,128
  80fa18:	103fe026 	beq	r2,zero,80f99c <__alt_mem_onchip_ram+0xff80b99c>
  80fa1c:	84000044 	addi	r16,r16,1
  80fa20:	0081ffc4 	movi	r2,2047
  80fa24:	8080d226 	beq	r16,r2,80fd70 <__adddf3+0x5d8>
  80fa28:	00bfe034 	movhi	r2,65408
  80fa2c:	10bfffc4 	addi	r2,r2,-1
  80fa30:	4090703a 	and	r8,r8,r2
  80fa34:	880ad07a 	srli	r5,r17,1
  80fa38:	400897fa 	slli	r4,r8,31
  80fa3c:	88c0004c 	andi	r3,r17,1
  80fa40:	28e2b03a 	or	r17,r5,r3
  80fa44:	4010d07a 	srli	r8,r8,1
  80fa48:	2462b03a 	or	r17,r4,r17
  80fa4c:	003f7106 	br	80f814 <__alt_mem_onchip_ram+0xff80b814>
  80fa50:	4088b03a 	or	r4,r8,r2
  80fa54:	20014526 	beq	r4,zero,80ff6c <__adddf3+0x7d4>
  80fa58:	01000434 	movhi	r4,16
  80fa5c:	42000234 	orhi	r8,r8,8
  80fa60:	213fffc4 	addi	r4,r4,-1
  80fa64:	4110703a 	and	r8,r8,r4
  80fa68:	003f8206 	br	80f874 <__alt_mem_onchip_ram+0xff80b874>
  80fa6c:	18ffffc4 	addi	r3,r3,-1
  80fa70:	1800491e 	bne	r3,zero,80fb98 <__adddf3+0x400>
  80fa74:	898bc83a 	sub	r5,r17,r6
  80fa78:	8963803a 	cmpltu	r17,r17,r5
  80fa7c:	4251c83a 	sub	r8,r8,r9
  80fa80:	4451c83a 	sub	r8,r8,r17
  80fa84:	2823883a 	mov	r17,r5
  80fa88:	003f9f06 	br	80f908 <__alt_mem_onchip_ram+0xff80b908>
  80fa8c:	4984b03a 	or	r2,r9,r6
  80fa90:	103f6026 	beq	r2,zero,80f814 <__alt_mem_onchip_ram+0xff80b814>
  80fa94:	213fffc4 	addi	r4,r4,-1
  80fa98:	2000931e 	bne	r4,zero,80fce8 <__adddf3+0x550>
  80fa9c:	898d883a 	add	r6,r17,r6
  80faa0:	3463803a 	cmpltu	r17,r6,r17
  80faa4:	4251883a 	add	r8,r8,r9
  80faa8:	8a11883a 	add	r8,r17,r8
  80faac:	3023883a 	mov	r17,r6
  80fab0:	003fd806 	br	80fa14 <__alt_mem_onchip_ram+0xff80ba14>
  80fab4:	1800541e 	bne	r3,zero,80fc08 <__adddf3+0x470>
  80fab8:	80800044 	addi	r2,r16,1
  80fabc:	1081ffcc 	andi	r2,r2,2047
  80fac0:	00c00044 	movi	r3,1
  80fac4:	1880a00e 	bge	r3,r2,80fd48 <__adddf3+0x5b0>
  80fac8:	8989c83a 	sub	r4,r17,r6
  80facc:	8905803a 	cmpltu	r2,r17,r4
  80fad0:	4267c83a 	sub	r19,r8,r9
  80fad4:	98a7c83a 	sub	r19,r19,r2
  80fad8:	9880202c 	andhi	r2,r19,128
  80fadc:	10006326 	beq	r2,zero,80fc6c <__adddf3+0x4d4>
  80fae0:	3463c83a 	sub	r17,r6,r17
  80fae4:	4a07c83a 	sub	r3,r9,r8
  80fae8:	344d803a 	cmpltu	r6,r6,r17
  80faec:	19a7c83a 	sub	r19,r3,r6
  80faf0:	3825883a 	mov	r18,r7
  80faf4:	983f8a1e 	bne	r19,zero,80f920 <__alt_mem_onchip_ram+0xff80b920>
  80faf8:	8809883a 	mov	r4,r17
  80fafc:	081217c0 	call	81217c <__clzsi2>
  80fb00:	10800804 	addi	r2,r2,32
  80fb04:	10fffe04 	addi	r3,r2,-8
  80fb08:	010007c4 	movi	r4,31
  80fb0c:	20ff890e 	bge	r4,r3,80f934 <__alt_mem_onchip_ram+0xff80b934>
  80fb10:	10bff604 	addi	r2,r2,-40
  80fb14:	8884983a 	sll	r2,r17,r2
  80fb18:	0023883a 	mov	r17,zero
  80fb1c:	1c3f8c0e 	bge	r3,r16,80f950 <__alt_mem_onchip_ram+0xff80b950>
  80fb20:	023fe034 	movhi	r8,65408
  80fb24:	423fffc4 	addi	r8,r8,-1
  80fb28:	80e1c83a 	sub	r16,r16,r3
  80fb2c:	1210703a 	and	r8,r2,r8
  80fb30:	003f3806 	br	80f814 <__alt_mem_onchip_ram+0xff80b814>
  80fb34:	9007883a 	mov	r3,r18
  80fb38:	0011883a 	mov	r8,zero
  80fb3c:	0005883a 	mov	r2,zero
  80fb40:	003f4c06 	br	80f874 <__alt_mem_onchip_ram+0xff80b874>
  80fb44:	498cb03a 	or	r6,r9,r6
  80fb48:	300cc03a 	cmpne	r6,r6,zero
  80fb4c:	0007883a 	mov	r3,zero
  80fb50:	003f6806 	br	80f8f4 <__alt_mem_onchip_ram+0xff80b8f4>
  80fb54:	20009c1e 	bne	r4,zero,80fdc8 <__adddf3+0x630>
  80fb58:	80800044 	addi	r2,r16,1
  80fb5c:	1141ffcc 	andi	r5,r2,2047
  80fb60:	01000044 	movi	r4,1
  80fb64:	2140670e 	bge	r4,r5,80fd04 <__adddf3+0x56c>
  80fb68:	0101ffc4 	movi	r4,2047
  80fb6c:	11007f26 	beq	r2,r4,80fd6c <__adddf3+0x5d4>
  80fb70:	898d883a 	add	r6,r17,r6
  80fb74:	4247883a 	add	r3,r8,r9
  80fb78:	3451803a 	cmpltu	r8,r6,r17
  80fb7c:	40d1883a 	add	r8,r8,r3
  80fb80:	402297fa 	slli	r17,r8,31
  80fb84:	300cd07a 	srli	r6,r6,1
  80fb88:	4010d07a 	srli	r8,r8,1
  80fb8c:	1021883a 	mov	r16,r2
  80fb90:	89a2b03a 	or	r17,r17,r6
  80fb94:	003f1f06 	br	80f814 <__alt_mem_onchip_ram+0xff80b814>
  80fb98:	0081ffc4 	movi	r2,2047
  80fb9c:	80bf481e 	bne	r16,r2,80f8c0 <__alt_mem_onchip_ram+0xff80b8c0>
  80fba0:	003f1c06 	br	80f814 <__alt_mem_onchip_ram+0xff80b814>
  80fba4:	843ff844 	addi	r16,r16,-31
  80fba8:	01000804 	movi	r4,32
  80fbac:	1406d83a 	srl	r3,r2,r16
  80fbb0:	41005026 	beq	r8,r4,80fcf4 <__adddf3+0x55c>
  80fbb4:	01001004 	movi	r4,64
  80fbb8:	2211c83a 	sub	r8,r4,r8
  80fbbc:	1204983a 	sll	r2,r2,r8
  80fbc0:	88a2b03a 	or	r17,r17,r2
  80fbc4:	8822c03a 	cmpne	r17,r17,zero
  80fbc8:	1c62b03a 	or	r17,r3,r17
  80fbcc:	0011883a 	mov	r8,zero
  80fbd0:	0021883a 	mov	r16,zero
  80fbd4:	003f7106 	br	80f99c <__alt_mem_onchip_ram+0xff80b99c>
  80fbd8:	193ff804 	addi	r4,r3,-32
  80fbdc:	00800804 	movi	r2,32
  80fbe0:	4908d83a 	srl	r4,r9,r4
  80fbe4:	18804526 	beq	r3,r2,80fcfc <__adddf3+0x564>
  80fbe8:	00801004 	movi	r2,64
  80fbec:	10c5c83a 	sub	r2,r2,r3
  80fbf0:	4886983a 	sll	r3,r9,r2
  80fbf4:	198cb03a 	or	r6,r3,r6
  80fbf8:	300cc03a 	cmpne	r6,r6,zero
  80fbfc:	218cb03a 	or	r6,r4,r6
  80fc00:	0007883a 	mov	r3,zero
  80fc04:	003f3b06 	br	80f8f4 <__alt_mem_onchip_ram+0xff80b8f4>
  80fc08:	80002a26 	beq	r16,zero,80fcb4 <__adddf3+0x51c>
  80fc0c:	0101ffc4 	movi	r4,2047
  80fc10:	11006826 	beq	r2,r4,80fdb4 <__adddf3+0x61c>
  80fc14:	00c7c83a 	sub	r3,zero,r3
  80fc18:	42002034 	orhi	r8,r8,128
  80fc1c:	01000e04 	movi	r4,56
  80fc20:	20c07c16 	blt	r4,r3,80fe14 <__adddf3+0x67c>
  80fc24:	010007c4 	movi	r4,31
  80fc28:	20c0da16 	blt	r4,r3,80ff94 <__adddf3+0x7fc>
  80fc2c:	01000804 	movi	r4,32
  80fc30:	20c9c83a 	sub	r4,r4,r3
  80fc34:	4114983a 	sll	r10,r8,r4
  80fc38:	88cad83a 	srl	r5,r17,r3
  80fc3c:	8908983a 	sll	r4,r17,r4
  80fc40:	40c6d83a 	srl	r3,r8,r3
  80fc44:	5162b03a 	or	r17,r10,r5
  80fc48:	2008c03a 	cmpne	r4,r4,zero
  80fc4c:	8922b03a 	or	r17,r17,r4
  80fc50:	3463c83a 	sub	r17,r6,r17
  80fc54:	48c7c83a 	sub	r3,r9,r3
  80fc58:	344d803a 	cmpltu	r6,r6,r17
  80fc5c:	1991c83a 	sub	r8,r3,r6
  80fc60:	1021883a 	mov	r16,r2
  80fc64:	3825883a 	mov	r18,r7
  80fc68:	003f2706 	br	80f908 <__alt_mem_onchip_ram+0xff80b908>
  80fc6c:	24d0b03a 	or	r8,r4,r19
  80fc70:	40001b1e 	bne	r8,zero,80fce0 <__adddf3+0x548>
  80fc74:	0005883a 	mov	r2,zero
  80fc78:	0007883a 	mov	r3,zero
  80fc7c:	0021883a 	mov	r16,zero
  80fc80:	003f4d06 	br	80f9b8 <__alt_mem_onchip_ram+0xff80b9b8>
  80fc84:	008007c4 	movi	r2,31
  80fc88:	11003c16 	blt	r2,r4,80fd7c <__adddf3+0x5e4>
  80fc8c:	00800804 	movi	r2,32
  80fc90:	1105c83a 	sub	r2,r2,r4
  80fc94:	488e983a 	sll	r7,r9,r2
  80fc98:	310ad83a 	srl	r5,r6,r4
  80fc9c:	3084983a 	sll	r2,r6,r2
  80fca0:	4912d83a 	srl	r9,r9,r4
  80fca4:	394ab03a 	or	r5,r7,r5
  80fca8:	1004c03a 	cmpne	r2,r2,zero
  80fcac:	288ab03a 	or	r5,r5,r2
  80fcb0:	003f5306 	br	80fa00 <__alt_mem_onchip_ram+0xff80ba00>
  80fcb4:	4448b03a 	or	r4,r8,r17
  80fcb8:	20003e26 	beq	r4,zero,80fdb4 <__adddf3+0x61c>
  80fcbc:	00c6303a 	nor	r3,zero,r3
  80fcc0:	18003a1e 	bne	r3,zero,80fdac <__adddf3+0x614>
  80fcc4:	3463c83a 	sub	r17,r6,r17
  80fcc8:	4a07c83a 	sub	r3,r9,r8
  80fccc:	344d803a 	cmpltu	r6,r6,r17
  80fcd0:	1991c83a 	sub	r8,r3,r6
  80fcd4:	1021883a 	mov	r16,r2
  80fcd8:	3825883a 	mov	r18,r7
  80fcdc:	003f0a06 	br	80f908 <__alt_mem_onchip_ram+0xff80b908>
  80fce0:	2023883a 	mov	r17,r4
  80fce4:	003f0d06 	br	80f91c <__alt_mem_onchip_ram+0xff80b91c>
  80fce8:	0081ffc4 	movi	r2,2047
  80fcec:	80bf3f1e 	bne	r16,r2,80f9ec <__alt_mem_onchip_ram+0xff80b9ec>
  80fcf0:	003ec806 	br	80f814 <__alt_mem_onchip_ram+0xff80b814>
  80fcf4:	0005883a 	mov	r2,zero
  80fcf8:	003fb106 	br	80fbc0 <__alt_mem_onchip_ram+0xff80bbc0>
  80fcfc:	0007883a 	mov	r3,zero
  80fd00:	003fbc06 	br	80fbf4 <__alt_mem_onchip_ram+0xff80bbf4>
  80fd04:	4444b03a 	or	r2,r8,r17
  80fd08:	8000871e 	bne	r16,zero,80ff28 <__adddf3+0x790>
  80fd0c:	1000ba26 	beq	r2,zero,80fff8 <__adddf3+0x860>
  80fd10:	4984b03a 	or	r2,r9,r6
  80fd14:	103ebf26 	beq	r2,zero,80f814 <__alt_mem_onchip_ram+0xff80b814>
  80fd18:	8985883a 	add	r2,r17,r6
  80fd1c:	4247883a 	add	r3,r8,r9
  80fd20:	1451803a 	cmpltu	r8,r2,r17
  80fd24:	40d1883a 	add	r8,r8,r3
  80fd28:	40c0202c 	andhi	r3,r8,128
  80fd2c:	1023883a 	mov	r17,r2
  80fd30:	183f1a26 	beq	r3,zero,80f99c <__alt_mem_onchip_ram+0xff80b99c>
  80fd34:	00bfe034 	movhi	r2,65408
  80fd38:	10bfffc4 	addi	r2,r2,-1
  80fd3c:	2021883a 	mov	r16,r4
  80fd40:	4090703a 	and	r8,r8,r2
  80fd44:	003eb306 	br	80f814 <__alt_mem_onchip_ram+0xff80b814>
  80fd48:	4444b03a 	or	r2,r8,r17
  80fd4c:	8000291e 	bne	r16,zero,80fdf4 <__adddf3+0x65c>
  80fd50:	10004b1e 	bne	r2,zero,80fe80 <__adddf3+0x6e8>
  80fd54:	4990b03a 	or	r8,r9,r6
  80fd58:	40008b26 	beq	r8,zero,80ff88 <__adddf3+0x7f0>
  80fd5c:	4811883a 	mov	r8,r9
  80fd60:	3023883a 	mov	r17,r6
  80fd64:	3825883a 	mov	r18,r7
  80fd68:	003eaa06 	br	80f814 <__alt_mem_onchip_ram+0xff80b814>
  80fd6c:	1021883a 	mov	r16,r2
  80fd70:	0011883a 	mov	r8,zero
  80fd74:	0005883a 	mov	r2,zero
  80fd78:	003f0f06 	br	80f9b8 <__alt_mem_onchip_ram+0xff80b9b8>
  80fd7c:	217ff804 	addi	r5,r4,-32
  80fd80:	00800804 	movi	r2,32
  80fd84:	494ad83a 	srl	r5,r9,r5
  80fd88:	20807d26 	beq	r4,r2,80ff80 <__adddf3+0x7e8>
  80fd8c:	00801004 	movi	r2,64
  80fd90:	1109c83a 	sub	r4,r2,r4
  80fd94:	4912983a 	sll	r9,r9,r4
  80fd98:	498cb03a 	or	r6,r9,r6
  80fd9c:	300cc03a 	cmpne	r6,r6,zero
  80fda0:	298ab03a 	or	r5,r5,r6
  80fda4:	0013883a 	mov	r9,zero
  80fda8:	003f1506 	br	80fa00 <__alt_mem_onchip_ram+0xff80ba00>
  80fdac:	0101ffc4 	movi	r4,2047
  80fdb0:	113f9a1e 	bne	r2,r4,80fc1c <__alt_mem_onchip_ram+0xff80bc1c>
  80fdb4:	4811883a 	mov	r8,r9
  80fdb8:	3023883a 	mov	r17,r6
  80fdbc:	1021883a 	mov	r16,r2
  80fdc0:	3825883a 	mov	r18,r7
  80fdc4:	003e9306 	br	80f814 <__alt_mem_onchip_ram+0xff80b814>
  80fdc8:	8000161e 	bne	r16,zero,80fe24 <__adddf3+0x68c>
  80fdcc:	444ab03a 	or	r5,r8,r17
  80fdd0:	28005126 	beq	r5,zero,80ff18 <__adddf3+0x780>
  80fdd4:	0108303a 	nor	r4,zero,r4
  80fdd8:	20004d1e 	bne	r4,zero,80ff10 <__adddf3+0x778>
  80fddc:	89a3883a 	add	r17,r17,r6
  80fde0:	4253883a 	add	r9,r8,r9
  80fde4:	898d803a 	cmpltu	r6,r17,r6
  80fde8:	3251883a 	add	r8,r6,r9
  80fdec:	1021883a 	mov	r16,r2
  80fdf0:	003f0806 	br	80fa14 <__alt_mem_onchip_ram+0xff80ba14>
  80fdf4:	1000301e 	bne	r2,zero,80feb8 <__adddf3+0x720>
  80fdf8:	4984b03a 	or	r2,r9,r6
  80fdfc:	10007126 	beq	r2,zero,80ffc4 <__adddf3+0x82c>
  80fe00:	4811883a 	mov	r8,r9
  80fe04:	3023883a 	mov	r17,r6
  80fe08:	3825883a 	mov	r18,r7
  80fe0c:	0401ffc4 	movi	r16,2047
  80fe10:	003e8006 	br	80f814 <__alt_mem_onchip_ram+0xff80b814>
  80fe14:	4462b03a 	or	r17,r8,r17
  80fe18:	8822c03a 	cmpne	r17,r17,zero
  80fe1c:	0007883a 	mov	r3,zero
  80fe20:	003f8b06 	br	80fc50 <__alt_mem_onchip_ram+0xff80bc50>
  80fe24:	0141ffc4 	movi	r5,2047
  80fe28:	11403b26 	beq	r2,r5,80ff18 <__adddf3+0x780>
  80fe2c:	0109c83a 	sub	r4,zero,r4
  80fe30:	42002034 	orhi	r8,r8,128
  80fe34:	01400e04 	movi	r5,56
  80fe38:	29006716 	blt	r5,r4,80ffd8 <__adddf3+0x840>
  80fe3c:	014007c4 	movi	r5,31
  80fe40:	29007016 	blt	r5,r4,810004 <__adddf3+0x86c>
  80fe44:	01400804 	movi	r5,32
  80fe48:	290bc83a 	sub	r5,r5,r4
  80fe4c:	4154983a 	sll	r10,r8,r5
  80fe50:	890ed83a 	srl	r7,r17,r4
  80fe54:	894a983a 	sll	r5,r17,r5
  80fe58:	4108d83a 	srl	r4,r8,r4
  80fe5c:	51e2b03a 	or	r17,r10,r7
  80fe60:	280ac03a 	cmpne	r5,r5,zero
  80fe64:	8962b03a 	or	r17,r17,r5
  80fe68:	89a3883a 	add	r17,r17,r6
  80fe6c:	2253883a 	add	r9,r4,r9
  80fe70:	898d803a 	cmpltu	r6,r17,r6
  80fe74:	3251883a 	add	r8,r6,r9
  80fe78:	1021883a 	mov	r16,r2
  80fe7c:	003ee506 	br	80fa14 <__alt_mem_onchip_ram+0xff80ba14>
  80fe80:	4984b03a 	or	r2,r9,r6
  80fe84:	103e6326 	beq	r2,zero,80f814 <__alt_mem_onchip_ram+0xff80b814>
  80fe88:	8987c83a 	sub	r3,r17,r6
  80fe8c:	88c9803a 	cmpltu	r4,r17,r3
  80fe90:	4245c83a 	sub	r2,r8,r9
  80fe94:	1105c83a 	sub	r2,r2,r4
  80fe98:	1100202c 	andhi	r4,r2,128
  80fe9c:	203ebb26 	beq	r4,zero,80f98c <__alt_mem_onchip_ram+0xff80b98c>
  80fea0:	3463c83a 	sub	r17,r6,r17
  80fea4:	4a07c83a 	sub	r3,r9,r8
  80fea8:	344d803a 	cmpltu	r6,r6,r17
  80feac:	1991c83a 	sub	r8,r3,r6
  80feb0:	3825883a 	mov	r18,r7
  80feb4:	003e5706 	br	80f814 <__alt_mem_onchip_ram+0xff80b814>
  80feb8:	4984b03a 	or	r2,r9,r6
  80febc:	10002e26 	beq	r2,zero,80ff78 <__adddf3+0x7e0>
  80fec0:	4004d0fa 	srli	r2,r8,3
  80fec4:	8822d0fa 	srli	r17,r17,3
  80fec8:	4010977a 	slli	r8,r8,29
  80fecc:	10c0022c 	andhi	r3,r2,8
  80fed0:	4462b03a 	or	r17,r8,r17
  80fed4:	18000826 	beq	r3,zero,80fef8 <__adddf3+0x760>
  80fed8:	4808d0fa 	srli	r4,r9,3
  80fedc:	20c0022c 	andhi	r3,r4,8
  80fee0:	1800051e 	bne	r3,zero,80fef8 <__adddf3+0x760>
  80fee4:	300cd0fa 	srli	r6,r6,3
  80fee8:	4806977a 	slli	r3,r9,29
  80feec:	2005883a 	mov	r2,r4
  80fef0:	3825883a 	mov	r18,r7
  80fef4:	19a2b03a 	or	r17,r3,r6
  80fef8:	8810d77a 	srli	r8,r17,29
  80fefc:	100490fa 	slli	r2,r2,3
  80ff00:	882290fa 	slli	r17,r17,3
  80ff04:	0401ffc4 	movi	r16,2047
  80ff08:	4090b03a 	or	r8,r8,r2
  80ff0c:	003e4106 	br	80f814 <__alt_mem_onchip_ram+0xff80b814>
  80ff10:	0141ffc4 	movi	r5,2047
  80ff14:	117fc71e 	bne	r2,r5,80fe34 <__alt_mem_onchip_ram+0xff80be34>
  80ff18:	4811883a 	mov	r8,r9
  80ff1c:	3023883a 	mov	r17,r6
  80ff20:	1021883a 	mov	r16,r2
  80ff24:	003e3b06 	br	80f814 <__alt_mem_onchip_ram+0xff80b814>
  80ff28:	10002f26 	beq	r2,zero,80ffe8 <__adddf3+0x850>
  80ff2c:	4984b03a 	or	r2,r9,r6
  80ff30:	10001126 	beq	r2,zero,80ff78 <__adddf3+0x7e0>
  80ff34:	4004d0fa 	srli	r2,r8,3
  80ff38:	8822d0fa 	srli	r17,r17,3
  80ff3c:	4010977a 	slli	r8,r8,29
  80ff40:	10c0022c 	andhi	r3,r2,8
  80ff44:	4462b03a 	or	r17,r8,r17
  80ff48:	183feb26 	beq	r3,zero,80fef8 <__alt_mem_onchip_ram+0xff80bef8>
  80ff4c:	4808d0fa 	srli	r4,r9,3
  80ff50:	20c0022c 	andhi	r3,r4,8
  80ff54:	183fe81e 	bne	r3,zero,80fef8 <__alt_mem_onchip_ram+0xff80bef8>
  80ff58:	300cd0fa 	srli	r6,r6,3
  80ff5c:	4806977a 	slli	r3,r9,29
  80ff60:	2005883a 	mov	r2,r4
  80ff64:	19a2b03a 	or	r17,r3,r6
  80ff68:	003fe306 	br	80fef8 <__alt_mem_onchip_ram+0xff80bef8>
  80ff6c:	0011883a 	mov	r8,zero
  80ff70:	0005883a 	mov	r2,zero
  80ff74:	003e3f06 	br	80f874 <__alt_mem_onchip_ram+0xff80b874>
  80ff78:	0401ffc4 	movi	r16,2047
  80ff7c:	003e2506 	br	80f814 <__alt_mem_onchip_ram+0xff80b814>
  80ff80:	0013883a 	mov	r9,zero
  80ff84:	003f8406 	br	80fd98 <__alt_mem_onchip_ram+0xff80bd98>
  80ff88:	0005883a 	mov	r2,zero
  80ff8c:	0007883a 	mov	r3,zero
  80ff90:	003e8906 	br	80f9b8 <__alt_mem_onchip_ram+0xff80b9b8>
  80ff94:	197ff804 	addi	r5,r3,-32
  80ff98:	01000804 	movi	r4,32
  80ff9c:	414ad83a 	srl	r5,r8,r5
  80ffa0:	19002426 	beq	r3,r4,810034 <__adddf3+0x89c>
  80ffa4:	01001004 	movi	r4,64
  80ffa8:	20c7c83a 	sub	r3,r4,r3
  80ffac:	40c6983a 	sll	r3,r8,r3
  80ffb0:	1c46b03a 	or	r3,r3,r17
  80ffb4:	1806c03a 	cmpne	r3,r3,zero
  80ffb8:	28e2b03a 	or	r17,r5,r3
  80ffbc:	0007883a 	mov	r3,zero
  80ffc0:	003f2306 	br	80fc50 <__alt_mem_onchip_ram+0xff80bc50>
  80ffc4:	0007883a 	mov	r3,zero
  80ffc8:	5811883a 	mov	r8,r11
  80ffcc:	00bfffc4 	movi	r2,-1
  80ffd0:	0401ffc4 	movi	r16,2047
  80ffd4:	003e7806 	br	80f9b8 <__alt_mem_onchip_ram+0xff80b9b8>
  80ffd8:	4462b03a 	or	r17,r8,r17
  80ffdc:	8822c03a 	cmpne	r17,r17,zero
  80ffe0:	0009883a 	mov	r4,zero
  80ffe4:	003fa006 	br	80fe68 <__alt_mem_onchip_ram+0xff80be68>
  80ffe8:	4811883a 	mov	r8,r9
  80ffec:	3023883a 	mov	r17,r6
  80fff0:	0401ffc4 	movi	r16,2047
  80fff4:	003e0706 	br	80f814 <__alt_mem_onchip_ram+0xff80b814>
  80fff8:	4811883a 	mov	r8,r9
  80fffc:	3023883a 	mov	r17,r6
  810000:	003e0406 	br	80f814 <__alt_mem_onchip_ram+0xff80b814>
  810004:	21fff804 	addi	r7,r4,-32
  810008:	01400804 	movi	r5,32
  81000c:	41ced83a 	srl	r7,r8,r7
  810010:	21400a26 	beq	r4,r5,81003c <__adddf3+0x8a4>
  810014:	01401004 	movi	r5,64
  810018:	2909c83a 	sub	r4,r5,r4
  81001c:	4108983a 	sll	r4,r8,r4
  810020:	2448b03a 	or	r4,r4,r17
  810024:	2008c03a 	cmpne	r4,r4,zero
  810028:	3922b03a 	or	r17,r7,r4
  81002c:	0009883a 	mov	r4,zero
  810030:	003f8d06 	br	80fe68 <__alt_mem_onchip_ram+0xff80be68>
  810034:	0007883a 	mov	r3,zero
  810038:	003fdd06 	br	80ffb0 <__alt_mem_onchip_ram+0xff80bfb0>
  81003c:	0009883a 	mov	r4,zero
  810040:	003ff706 	br	810020 <__alt_mem_onchip_ram+0xff80c020>

00810044 <__divdf3>:
  810044:	defff004 	addi	sp,sp,-64
  810048:	dc800815 	stw	r18,32(sp)
  81004c:	2824d53a 	srli	r18,r5,20
  810050:	dd800c15 	stw	r22,48(sp)
  810054:	282cd7fa 	srli	r22,r5,31
  810058:	dc000615 	stw	r16,24(sp)
  81005c:	04000434 	movhi	r16,16
  810060:	843fffc4 	addi	r16,r16,-1
  810064:	dfc00f15 	stw	ra,60(sp)
  810068:	df000e15 	stw	fp,56(sp)
  81006c:	ddc00d15 	stw	r23,52(sp)
  810070:	dd400b15 	stw	r21,44(sp)
  810074:	dd000a15 	stw	r20,40(sp)
  810078:	dcc00915 	stw	r19,36(sp)
  81007c:	dc400715 	stw	r17,28(sp)
  810080:	9481ffcc 	andi	r18,r18,2047
  810084:	2c20703a 	and	r16,r5,r16
  810088:	b2003fcc 	andi	r8,r22,255
  81008c:	90006126 	beq	r18,zero,810214 <__divdf3+0x1d0>
  810090:	0081ffc4 	movi	r2,2047
  810094:	202b883a 	mov	r21,r4
  810098:	90803726 	beq	r18,r2,810178 <__divdf3+0x134>
  81009c:	80c00434 	orhi	r3,r16,16
  8100a0:	180690fa 	slli	r3,r3,3
  8100a4:	2020d77a 	srli	r16,r4,29
  8100a8:	202a90fa 	slli	r21,r4,3
  8100ac:	94bf0044 	addi	r18,r18,-1023
  8100b0:	80e0b03a 	or	r16,r16,r3
  8100b4:	0013883a 	mov	r9,zero
  8100b8:	000b883a 	mov	r5,zero
  8100bc:	3806d53a 	srli	r3,r7,20
  8100c0:	382ed7fa 	srli	r23,r7,31
  8100c4:	04400434 	movhi	r17,16
  8100c8:	8c7fffc4 	addi	r17,r17,-1
  8100cc:	18c1ffcc 	andi	r3,r3,2047
  8100d0:	3029883a 	mov	r20,r6
  8100d4:	3c62703a 	and	r17,r7,r17
  8100d8:	bf003fcc 	andi	fp,r23,255
  8100dc:	18006e26 	beq	r3,zero,810298 <__divdf3+0x254>
  8100e0:	0081ffc4 	movi	r2,2047
  8100e4:	18806626 	beq	r3,r2,810280 <__divdf3+0x23c>
  8100e8:	89000434 	orhi	r4,r17,16
  8100ec:	200890fa 	slli	r4,r4,3
  8100f0:	3022d77a 	srli	r17,r6,29
  8100f4:	302890fa 	slli	r20,r6,3
  8100f8:	18ff0044 	addi	r3,r3,-1023
  8100fc:	8922b03a 	or	r17,r17,r4
  810100:	000f883a 	mov	r7,zero
  810104:	b5e6f03a 	xor	r19,r22,r23
  810108:	3a4cb03a 	or	r6,r7,r9
  81010c:	008003c4 	movi	r2,15
  810110:	9809883a 	mov	r4,r19
  810114:	90c7c83a 	sub	r3,r18,r3
  810118:	9cc03fcc 	andi	r19,r19,255
  81011c:	11809636 	bltu	r2,r6,810378 <__divdf3+0x334>
  810120:	300c90ba 	slli	r6,r6,2
  810124:	00802074 	movhi	r2,129
  810128:	10804e04 	addi	r2,r2,312
  81012c:	308d883a 	add	r6,r6,r2
  810130:	30800017 	ldw	r2,0(r6)
  810134:	1000683a 	jmp	r2
  810138:	00810378 	rdprs	r2,zero,1037
  81013c:	008101b0 	cmpltui	r2,zero,1030
  810140:	00810368 	cmpgeui	r2,zero,1037
  810144:	008101a4 	muli	r2,zero,1030
  810148:	00810368 	cmpgeui	r2,zero,1037
  81014c:	0081033c 	xorhi	r2,zero,1036
  810150:	00810368 	cmpgeui	r2,zero,1037
  810154:	008101a4 	muli	r2,zero,1030
  810158:	008101b0 	cmpltui	r2,zero,1030
  81015c:	008101b0 	cmpltui	r2,zero,1030
  810160:	0081033c 	xorhi	r2,zero,1036
  810164:	008101a4 	muli	r2,zero,1030
  810168:	00810194 	movui	r2,1030
  81016c:	00810194 	movui	r2,1030
  810170:	00810194 	movui	r2,1030
  810174:	00810700 	call	81070 <__reset-0x77ef90>
  810178:	2404b03a 	or	r2,r4,r16
  81017c:	10006c1e 	bne	r2,zero,810330 <__divdf3+0x2ec>
  810180:	02400204 	movi	r9,8
  810184:	0021883a 	mov	r16,zero
  810188:	002b883a 	mov	r21,zero
  81018c:	01400084 	movi	r5,2
  810190:	003fca06 	br	8100bc <__alt_mem_onchip_ram+0xff80c0bc>
  810194:	8023883a 	mov	r17,r16
  810198:	a829883a 	mov	r20,r21
  81019c:	4039883a 	mov	fp,r8
  8101a0:	280f883a 	mov	r7,r5
  8101a4:	00800084 	movi	r2,2
  8101a8:	3881601e 	bne	r7,r2,81072c <__divdf3+0x6e8>
  8101ac:	e027883a 	mov	r19,fp
  8101b0:	9900004c 	andi	r4,r19,1
  8101b4:	0081ffc4 	movi	r2,2047
  8101b8:	0021883a 	mov	r16,zero
  8101bc:	002b883a 	mov	r21,zero
  8101c0:	1004953a 	slli	r2,r2,20
  8101c4:	20c03fcc 	andi	r3,r4,255
  8101c8:	01400434 	movhi	r5,16
  8101cc:	297fffc4 	addi	r5,r5,-1
  8101d0:	180697fa 	slli	r3,r3,31
  8101d4:	8160703a 	and	r16,r16,r5
  8101d8:	80a0b03a 	or	r16,r16,r2
  8101dc:	80c6b03a 	or	r3,r16,r3
  8101e0:	a805883a 	mov	r2,r21
  8101e4:	dfc00f17 	ldw	ra,60(sp)
  8101e8:	df000e17 	ldw	fp,56(sp)
  8101ec:	ddc00d17 	ldw	r23,52(sp)
  8101f0:	dd800c17 	ldw	r22,48(sp)
  8101f4:	dd400b17 	ldw	r21,44(sp)
  8101f8:	dd000a17 	ldw	r20,40(sp)
  8101fc:	dcc00917 	ldw	r19,36(sp)
  810200:	dc800817 	ldw	r18,32(sp)
  810204:	dc400717 	ldw	r17,28(sp)
  810208:	dc000617 	ldw	r16,24(sp)
  81020c:	dec01004 	addi	sp,sp,64
  810210:	f800283a 	ret
  810214:	2404b03a 	or	r2,r4,r16
  810218:	2023883a 	mov	r17,r4
  81021c:	10003f26 	beq	r2,zero,81031c <__divdf3+0x2d8>
  810220:	80015e26 	beq	r16,zero,81079c <__divdf3+0x758>
  810224:	8009883a 	mov	r4,r16
  810228:	d9800215 	stw	r6,8(sp)
  81022c:	d9c00515 	stw	r7,20(sp)
  810230:	da000415 	stw	r8,16(sp)
  810234:	081217c0 	call	81217c <__clzsi2>
  810238:	d9800217 	ldw	r6,8(sp)
  81023c:	d9c00517 	ldw	r7,20(sp)
  810240:	da000417 	ldw	r8,16(sp)
  810244:	10fffd44 	addi	r3,r2,-11
  810248:	01000704 	movi	r4,28
  81024c:	20c14f16 	blt	r4,r3,81078c <__divdf3+0x748>
  810250:	01000744 	movi	r4,29
  810254:	157ffe04 	addi	r21,r2,-8
  810258:	20c9c83a 	sub	r4,r4,r3
  81025c:	8560983a 	sll	r16,r16,r21
  810260:	8908d83a 	srl	r4,r17,r4
  810264:	8d6a983a 	sll	r21,r17,r21
  810268:	2420b03a 	or	r16,r4,r16
  81026c:	04bf0084 	movi	r18,-1022
  810270:	90e5c83a 	sub	r18,r18,r3
  810274:	0013883a 	mov	r9,zero
  810278:	000b883a 	mov	r5,zero
  81027c:	003f8f06 	br	8100bc <__alt_mem_onchip_ram+0xff80c0bc>
  810280:	3444b03a 	or	r2,r6,r17
  810284:	1000231e 	bne	r2,zero,810314 <__divdf3+0x2d0>
  810288:	0023883a 	mov	r17,zero
  81028c:	0029883a 	mov	r20,zero
  810290:	01c00084 	movi	r7,2
  810294:	003f9b06 	br	810104 <__alt_mem_onchip_ram+0xff80c104>
  810298:	3444b03a 	or	r2,r6,r17
  81029c:	10001926 	beq	r2,zero,810304 <__divdf3+0x2c0>
  8102a0:	88014b26 	beq	r17,zero,8107d0 <__divdf3+0x78c>
  8102a4:	8809883a 	mov	r4,r17
  8102a8:	d9400115 	stw	r5,4(sp)
  8102ac:	d9800215 	stw	r6,8(sp)
  8102b0:	da000415 	stw	r8,16(sp)
  8102b4:	da400315 	stw	r9,12(sp)
  8102b8:	081217c0 	call	81217c <__clzsi2>
  8102bc:	d9400117 	ldw	r5,4(sp)
  8102c0:	d9800217 	ldw	r6,8(sp)
  8102c4:	da000417 	ldw	r8,16(sp)
  8102c8:	da400317 	ldw	r9,12(sp)
  8102cc:	10fffd44 	addi	r3,r2,-11
  8102d0:	01000704 	movi	r4,28
  8102d4:	20c13a16 	blt	r4,r3,8107c0 <__divdf3+0x77c>
  8102d8:	01000744 	movi	r4,29
  8102dc:	153ffe04 	addi	r20,r2,-8
  8102e0:	20c9c83a 	sub	r4,r4,r3
  8102e4:	8d22983a 	sll	r17,r17,r20
  8102e8:	3108d83a 	srl	r4,r6,r4
  8102ec:	3528983a 	sll	r20,r6,r20
  8102f0:	2462b03a 	or	r17,r4,r17
  8102f4:	00bf0084 	movi	r2,-1022
  8102f8:	10c7c83a 	sub	r3,r2,r3
  8102fc:	000f883a 	mov	r7,zero
  810300:	003f8006 	br	810104 <__alt_mem_onchip_ram+0xff80c104>
  810304:	0023883a 	mov	r17,zero
  810308:	0029883a 	mov	r20,zero
  81030c:	01c00044 	movi	r7,1
  810310:	003f7c06 	br	810104 <__alt_mem_onchip_ram+0xff80c104>
  810314:	01c000c4 	movi	r7,3
  810318:	003f7a06 	br	810104 <__alt_mem_onchip_ram+0xff80c104>
  81031c:	02400104 	movi	r9,4
  810320:	0021883a 	mov	r16,zero
  810324:	002b883a 	mov	r21,zero
  810328:	01400044 	movi	r5,1
  81032c:	003f6306 	br	8100bc <__alt_mem_onchip_ram+0xff80c0bc>
  810330:	02400304 	movi	r9,12
  810334:	014000c4 	movi	r5,3
  810338:	003f6006 	br	8100bc <__alt_mem_onchip_ram+0xff80c0bc>
  81033c:	04000434 	movhi	r16,16
  810340:	0009883a 	mov	r4,zero
  810344:	843fffc4 	addi	r16,r16,-1
  810348:	057fffc4 	movi	r21,-1
  81034c:	0081ffc4 	movi	r2,2047
  810350:	003f9b06 	br	8101c0 <__alt_mem_onchip_ram+0xff80c1c0>
  810354:	00c00044 	movi	r3,1
  810358:	1887c83a 	sub	r3,r3,r2
  81035c:	01000e04 	movi	r4,56
  810360:	20c1530e 	bge	r4,r3,8108b0 <__divdf3+0x86c>
  810364:	9900004c 	andi	r4,r19,1
  810368:	0005883a 	mov	r2,zero
  81036c:	0021883a 	mov	r16,zero
  810370:	002b883a 	mov	r21,zero
  810374:	003f9206 	br	8101c0 <__alt_mem_onchip_ram+0xff80c1c0>
  810378:	8c012e36 	bltu	r17,r16,810834 <__divdf3+0x7f0>
  81037c:	84412c26 	beq	r16,r17,810830 <__divdf3+0x7ec>
  810380:	a82f883a 	mov	r23,r21
  810384:	18ffffc4 	addi	r3,r3,-1
  810388:	002b883a 	mov	r21,zero
  81038c:	a00ad63a 	srli	r5,r20,24
  810390:	8822923a 	slli	r17,r17,8
  810394:	a028923a 	slli	r20,r20,8
  810398:	8009883a 	mov	r4,r16
  81039c:	896cb03a 	or	r22,r17,r5
  8103a0:	dd000015 	stw	r20,0(sp)
  8103a4:	b028d43a 	srli	r20,r22,16
  8103a8:	d8c00215 	stw	r3,8(sp)
  8103ac:	b4bfffcc 	andi	r18,r22,65535
  8103b0:	a00b883a 	mov	r5,r20
  8103b4:	080f4b80 	call	80f4b8 <__udivsi3>
  8103b8:	100b883a 	mov	r5,r2
  8103bc:	9009883a 	mov	r4,r18
  8103c0:	1023883a 	mov	r17,r2
  8103c4:	080f5740 	call	80f574 <__mulsi3>
  8103c8:	8009883a 	mov	r4,r16
  8103cc:	a00b883a 	mov	r5,r20
  8103d0:	1039883a 	mov	fp,r2
  8103d4:	080f51c0 	call	80f51c <__umodsi3>
  8103d8:	1004943a 	slli	r2,r2,16
  8103dc:	b808d43a 	srli	r4,r23,16
  8103e0:	d8c00217 	ldw	r3,8(sp)
  8103e4:	2084b03a 	or	r2,r4,r2
  8103e8:	1700062e 	bgeu	r2,fp,810404 <__divdf3+0x3c0>
  8103ec:	1585883a 	add	r2,r2,r22
  8103f0:	893fffc4 	addi	r4,r17,-1
  8103f4:	15811d36 	bltu	r2,r22,81086c <__divdf3+0x828>
  8103f8:	17011c2e 	bgeu	r2,fp,81086c <__divdf3+0x828>
  8103fc:	8c7fff84 	addi	r17,r17,-2
  810400:	1585883a 	add	r2,r2,r22
  810404:	1739c83a 	sub	fp,r2,fp
  810408:	a00b883a 	mov	r5,r20
  81040c:	e009883a 	mov	r4,fp
  810410:	d8c00215 	stw	r3,8(sp)
  810414:	080f4b80 	call	80f4b8 <__udivsi3>
  810418:	100b883a 	mov	r5,r2
  81041c:	9009883a 	mov	r4,r18
  810420:	1021883a 	mov	r16,r2
  810424:	080f5740 	call	80f574 <__mulsi3>
  810428:	a00b883a 	mov	r5,r20
  81042c:	e009883a 	mov	r4,fp
  810430:	d8800415 	stw	r2,16(sp)
  810434:	080f51c0 	call	80f51c <__umodsi3>
  810438:	1004943a 	slli	r2,r2,16
  81043c:	da000417 	ldw	r8,16(sp)
  810440:	bdffffcc 	andi	r23,r23,65535
  810444:	b884b03a 	or	r2,r23,r2
  810448:	d8c00217 	ldw	r3,8(sp)
  81044c:	1200062e 	bgeu	r2,r8,810468 <__divdf3+0x424>
  810450:	1585883a 	add	r2,r2,r22
  810454:	813fffc4 	addi	r4,r16,-1
  810458:	15810236 	bltu	r2,r22,810864 <__divdf3+0x820>
  81045c:	1201012e 	bgeu	r2,r8,810864 <__divdf3+0x820>
  810460:	843fff84 	addi	r16,r16,-2
  810464:	1585883a 	add	r2,r2,r22
  810468:	8822943a 	slli	r17,r17,16
  81046c:	d9800017 	ldw	r6,0(sp)
  810470:	1211c83a 	sub	r8,r2,r8
  810474:	8c22b03a 	or	r17,r17,r16
  810478:	373fffcc 	andi	fp,r6,65535
  81047c:	8abfffcc 	andi	r10,r17,65535
  810480:	8820d43a 	srli	r16,r17,16
  810484:	5009883a 	mov	r4,r10
  810488:	e00b883a 	mov	r5,fp
  81048c:	302ed43a 	srli	r23,r6,16
  810490:	d8c00215 	stw	r3,8(sp)
  810494:	da000415 	stw	r8,16(sp)
  810498:	da800115 	stw	r10,4(sp)
  81049c:	080f5740 	call	80f574 <__mulsi3>
  8104a0:	800b883a 	mov	r5,r16
  8104a4:	e009883a 	mov	r4,fp
  8104a8:	d8800515 	stw	r2,20(sp)
  8104ac:	080f5740 	call	80f574 <__mulsi3>
  8104b0:	8009883a 	mov	r4,r16
  8104b4:	b80b883a 	mov	r5,r23
  8104b8:	d8800315 	stw	r2,12(sp)
  8104bc:	080f5740 	call	80f574 <__mulsi3>
  8104c0:	da800117 	ldw	r10,4(sp)
  8104c4:	b80b883a 	mov	r5,r23
  8104c8:	1021883a 	mov	r16,r2
  8104cc:	5009883a 	mov	r4,r10
  8104d0:	080f5740 	call	80f574 <__mulsi3>
  8104d4:	d9c00517 	ldw	r7,20(sp)
  8104d8:	da400317 	ldw	r9,12(sp)
  8104dc:	d8c00217 	ldw	r3,8(sp)
  8104e0:	3808d43a 	srli	r4,r7,16
  8104e4:	1245883a 	add	r2,r2,r9
  8104e8:	da000417 	ldw	r8,16(sp)
  8104ec:	2085883a 	add	r2,r4,r2
  8104f0:	1240022e 	bgeu	r2,r9,8104fc <__divdf3+0x4b8>
  8104f4:	01000074 	movhi	r4,1
  8104f8:	8121883a 	add	r16,r16,r4
  8104fc:	1008d43a 	srli	r4,r2,16
  810500:	1004943a 	slli	r2,r2,16
  810504:	39ffffcc 	andi	r7,r7,65535
  810508:	2409883a 	add	r4,r4,r16
  81050c:	11c5883a 	add	r2,r2,r7
  810510:	4100bb36 	bltu	r8,r4,810800 <__divdf3+0x7bc>
  810514:	4100d726 	beq	r8,r4,810874 <__divdf3+0x830>
  810518:	4109c83a 	sub	r4,r8,r4
  81051c:	a8a1c83a 	sub	r16,r21,r2
  810520:	ac2b803a 	cmpltu	r21,r21,r16
  810524:	256bc83a 	sub	r21,r4,r21
  810528:	b540d926 	beq	r22,r21,810890 <__divdf3+0x84c>
  81052c:	a00b883a 	mov	r5,r20
  810530:	a809883a 	mov	r4,r21
  810534:	d8c00215 	stw	r3,8(sp)
  810538:	080f4b80 	call	80f4b8 <__udivsi3>
  81053c:	100b883a 	mov	r5,r2
  810540:	9009883a 	mov	r4,r18
  810544:	d8800515 	stw	r2,20(sp)
  810548:	080f5740 	call	80f574 <__mulsi3>
  81054c:	a809883a 	mov	r4,r21
  810550:	a00b883a 	mov	r5,r20
  810554:	d8800415 	stw	r2,16(sp)
  810558:	080f51c0 	call	80f51c <__umodsi3>
  81055c:	1004943a 	slli	r2,r2,16
  810560:	8008d43a 	srli	r4,r16,16
  810564:	da000417 	ldw	r8,16(sp)
  810568:	d8c00217 	ldw	r3,8(sp)
  81056c:	2084b03a 	or	r2,r4,r2
  810570:	d9c00517 	ldw	r7,20(sp)
  810574:	1200062e 	bgeu	r2,r8,810590 <__divdf3+0x54c>
  810578:	1585883a 	add	r2,r2,r22
  81057c:	393fffc4 	addi	r4,r7,-1
  810580:	1580c536 	bltu	r2,r22,810898 <__divdf3+0x854>
  810584:	1200c42e 	bgeu	r2,r8,810898 <__divdf3+0x854>
  810588:	39ffff84 	addi	r7,r7,-2
  81058c:	1585883a 	add	r2,r2,r22
  810590:	122bc83a 	sub	r21,r2,r8
  810594:	a00b883a 	mov	r5,r20
  810598:	a809883a 	mov	r4,r21
  81059c:	d8c00215 	stw	r3,8(sp)
  8105a0:	d9c00515 	stw	r7,20(sp)
  8105a4:	080f4b80 	call	80f4b8 <__udivsi3>
  8105a8:	9009883a 	mov	r4,r18
  8105ac:	100b883a 	mov	r5,r2
  8105b0:	d8800415 	stw	r2,16(sp)
  8105b4:	080f5740 	call	80f574 <__mulsi3>
  8105b8:	a809883a 	mov	r4,r21
  8105bc:	a00b883a 	mov	r5,r20
  8105c0:	1025883a 	mov	r18,r2
  8105c4:	080f51c0 	call	80f51c <__umodsi3>
  8105c8:	1004943a 	slli	r2,r2,16
  8105cc:	813fffcc 	andi	r4,r16,65535
  8105d0:	d8c00217 	ldw	r3,8(sp)
  8105d4:	20a0b03a 	or	r16,r4,r2
  8105d8:	d9c00517 	ldw	r7,20(sp)
  8105dc:	da000417 	ldw	r8,16(sp)
  8105e0:	8480062e 	bgeu	r16,r18,8105fc <__divdf3+0x5b8>
  8105e4:	85a1883a 	add	r16,r16,r22
  8105e8:	40bfffc4 	addi	r2,r8,-1
  8105ec:	8580ac36 	bltu	r16,r22,8108a0 <__divdf3+0x85c>
  8105f0:	8480ab2e 	bgeu	r16,r18,8108a0 <__divdf3+0x85c>
  8105f4:	423fff84 	addi	r8,r8,-2
  8105f8:	85a1883a 	add	r16,r16,r22
  8105fc:	3804943a 	slli	r2,r7,16
  810600:	84a1c83a 	sub	r16,r16,r18
  810604:	e009883a 	mov	r4,fp
  810608:	1228b03a 	or	r20,r2,r8
  81060c:	a1ffffcc 	andi	r7,r20,65535
  810610:	a024d43a 	srli	r18,r20,16
  810614:	380b883a 	mov	r5,r7
  810618:	d8c00215 	stw	r3,8(sp)
  81061c:	d9c00515 	stw	r7,20(sp)
  810620:	080f5740 	call	80f574 <__mulsi3>
  810624:	900b883a 	mov	r5,r18
  810628:	e009883a 	mov	r4,fp
  81062c:	102b883a 	mov	r21,r2
  810630:	080f5740 	call	80f574 <__mulsi3>
  810634:	900b883a 	mov	r5,r18
  810638:	b809883a 	mov	r4,r23
  81063c:	1039883a 	mov	fp,r2
  810640:	080f5740 	call	80f574 <__mulsi3>
  810644:	d9c00517 	ldw	r7,20(sp)
  810648:	b80b883a 	mov	r5,r23
  81064c:	1025883a 	mov	r18,r2
  810650:	3809883a 	mov	r4,r7
  810654:	080f5740 	call	80f574 <__mulsi3>
  810658:	a808d43a 	srli	r4,r21,16
  81065c:	1705883a 	add	r2,r2,fp
  810660:	d8c00217 	ldw	r3,8(sp)
  810664:	2085883a 	add	r2,r4,r2
  810668:	1700022e 	bgeu	r2,fp,810674 <__divdf3+0x630>
  81066c:	01000074 	movhi	r4,1
  810670:	9125883a 	add	r18,r18,r4
  810674:	1008d43a 	srli	r4,r2,16
  810678:	1004943a 	slli	r2,r2,16
  81067c:	ad7fffcc 	andi	r21,r21,65535
  810680:	2489883a 	add	r4,r4,r18
  810684:	1545883a 	add	r2,r2,r21
  810688:	81003836 	bltu	r16,r4,81076c <__divdf3+0x728>
  81068c:	81003626 	beq	r16,r4,810768 <__divdf3+0x724>
  810690:	a5000054 	ori	r20,r20,1
  810694:	1880ffc4 	addi	r2,r3,1023
  810698:	00bf2e0e 	bge	zero,r2,810354 <__alt_mem_onchip_ram+0xff80c354>
  81069c:	a10001cc 	andi	r4,r20,7
  8106a0:	20000726 	beq	r4,zero,8106c0 <__divdf3+0x67c>
  8106a4:	a10003cc 	andi	r4,r20,15
  8106a8:	01400104 	movi	r5,4
  8106ac:	21400426 	beq	r4,r5,8106c0 <__divdf3+0x67c>
  8106b0:	a149883a 	add	r4,r20,r5
  8106b4:	2529803a 	cmpltu	r20,r4,r20
  8106b8:	8d23883a 	add	r17,r17,r20
  8106bc:	2029883a 	mov	r20,r4
  8106c0:	8900402c 	andhi	r4,r17,256
  8106c4:	20000426 	beq	r4,zero,8106d8 <__divdf3+0x694>
  8106c8:	18810004 	addi	r2,r3,1024
  8106cc:	00ffc034 	movhi	r3,65280
  8106d0:	18ffffc4 	addi	r3,r3,-1
  8106d4:	88e2703a 	and	r17,r17,r3
  8106d8:	00c1ff84 	movi	r3,2046
  8106dc:	18beb416 	blt	r3,r2,8101b0 <__alt_mem_onchip_ram+0xff80c1b0>
  8106e0:	a028d0fa 	srli	r20,r20,3
  8106e4:	882a977a 	slli	r21,r17,29
  8106e8:	8820927a 	slli	r16,r17,9
  8106ec:	1081ffcc 	andi	r2,r2,2047
  8106f0:	ad2ab03a 	or	r21,r21,r20
  8106f4:	8020d33a 	srli	r16,r16,12
  8106f8:	9900004c 	andi	r4,r19,1
  8106fc:	003eb006 	br	8101c0 <__alt_mem_onchip_ram+0xff80c1c0>
  810700:	8080022c 	andhi	r2,r16,8
  810704:	10001226 	beq	r2,zero,810750 <__divdf3+0x70c>
  810708:	8880022c 	andhi	r2,r17,8
  81070c:	1000101e 	bne	r2,zero,810750 <__divdf3+0x70c>
  810710:	00800434 	movhi	r2,16
  810714:	8c000234 	orhi	r16,r17,8
  810718:	10bfffc4 	addi	r2,r2,-1
  81071c:	b809883a 	mov	r4,r23
  810720:	80a0703a 	and	r16,r16,r2
  810724:	a02b883a 	mov	r21,r20
  810728:	003f0806 	br	81034c <__alt_mem_onchip_ram+0xff80c34c>
  81072c:	008000c4 	movi	r2,3
  810730:	3880b126 	beq	r7,r2,8109f8 <__divdf3+0x9b4>
  810734:	00800044 	movi	r2,1
  810738:	38805b1e 	bne	r7,r2,8108a8 <__divdf3+0x864>
  81073c:	e009883a 	mov	r4,fp
  810740:	0005883a 	mov	r2,zero
  810744:	0021883a 	mov	r16,zero
  810748:	002b883a 	mov	r21,zero
  81074c:	003e9c06 	br	8101c0 <__alt_mem_onchip_ram+0xff80c1c0>
  810750:	00800434 	movhi	r2,16
  810754:	84000234 	orhi	r16,r16,8
  810758:	10bfffc4 	addi	r2,r2,-1
  81075c:	b009883a 	mov	r4,r22
  810760:	80a0703a 	and	r16,r16,r2
  810764:	003ef906 	br	81034c <__alt_mem_onchip_ram+0xff80c34c>
  810768:	103fca26 	beq	r2,zero,810694 <__alt_mem_onchip_ram+0xff80c694>
  81076c:	b421883a 	add	r16,r22,r16
  810770:	a17fffc4 	addi	r5,r20,-1
  810774:	8580422e 	bgeu	r16,r22,810880 <__divdf3+0x83c>
  810778:	2829883a 	mov	r20,r5
  81077c:	813fc41e 	bne	r16,r4,810690 <__alt_mem_onchip_ram+0xff80c690>
  810780:	d9800017 	ldw	r6,0(sp)
  810784:	30bfc21e 	bne	r6,r2,810690 <__alt_mem_onchip_ram+0xff80c690>
  810788:	003fc206 	br	810694 <__alt_mem_onchip_ram+0xff80c694>
  81078c:	10bff604 	addi	r2,r2,-40
  810790:	88a0983a 	sll	r16,r17,r2
  810794:	002b883a 	mov	r21,zero
  810798:	003eb406 	br	81026c <__alt_mem_onchip_ram+0xff80c26c>
  81079c:	d9800215 	stw	r6,8(sp)
  8107a0:	d9c00515 	stw	r7,20(sp)
  8107a4:	da000415 	stw	r8,16(sp)
  8107a8:	081217c0 	call	81217c <__clzsi2>
  8107ac:	10800804 	addi	r2,r2,32
  8107b0:	da000417 	ldw	r8,16(sp)
  8107b4:	d9c00517 	ldw	r7,20(sp)
  8107b8:	d9800217 	ldw	r6,8(sp)
  8107bc:	003ea106 	br	810244 <__alt_mem_onchip_ram+0xff80c244>
  8107c0:	10bff604 	addi	r2,r2,-40
  8107c4:	30a2983a 	sll	r17,r6,r2
  8107c8:	0029883a 	mov	r20,zero
  8107cc:	003ec906 	br	8102f4 <__alt_mem_onchip_ram+0xff80c2f4>
  8107d0:	3009883a 	mov	r4,r6
  8107d4:	d9400115 	stw	r5,4(sp)
  8107d8:	d9800215 	stw	r6,8(sp)
  8107dc:	da000415 	stw	r8,16(sp)
  8107e0:	da400315 	stw	r9,12(sp)
  8107e4:	081217c0 	call	81217c <__clzsi2>
  8107e8:	10800804 	addi	r2,r2,32
  8107ec:	da400317 	ldw	r9,12(sp)
  8107f0:	da000417 	ldw	r8,16(sp)
  8107f4:	d9800217 	ldw	r6,8(sp)
  8107f8:	d9400117 	ldw	r5,4(sp)
  8107fc:	003eb306 	br	8102cc <__alt_mem_onchip_ram+0xff80c2cc>
  810800:	d9800017 	ldw	r6,0(sp)
  810804:	a9ab883a 	add	r21,r21,r6
  810808:	a98b803a 	cmpltu	r5,r21,r6
  81080c:	2d8b883a 	add	r5,r5,r22
  810810:	2a11883a 	add	r8,r5,r8
  810814:	897fffc4 	addi	r5,r17,-1
  810818:	b2000c2e 	bgeu	r22,r8,81084c <__divdf3+0x808>
  81081c:	41003f36 	bltu	r8,r4,81091c <__divdf3+0x8d8>
  810820:	22006c26 	beq	r4,r8,8109d4 <__divdf3+0x990>
  810824:	4109c83a 	sub	r4,r8,r4
  810828:	2823883a 	mov	r17,r5
  81082c:	003f3b06 	br	81051c <__alt_mem_onchip_ram+0xff80c51c>
  810830:	ad3ed336 	bltu	r21,r20,810380 <__alt_mem_onchip_ram+0xff80c380>
  810834:	a804d07a 	srli	r2,r21,1
  810838:	802e97fa 	slli	r23,r16,31
  81083c:	a82a97fa 	slli	r21,r21,31
  810840:	8020d07a 	srli	r16,r16,1
  810844:	b8aeb03a 	or	r23,r23,r2
  810848:	003ed006 	br	81038c <__alt_mem_onchip_ram+0xff80c38c>
  81084c:	b23ff51e 	bne	r22,r8,810824 <__alt_mem_onchip_ram+0xff80c824>
  810850:	d9800017 	ldw	r6,0(sp)
  810854:	a9bff12e 	bgeu	r21,r6,81081c <__alt_mem_onchip_ram+0xff80c81c>
  810858:	b109c83a 	sub	r4,r22,r4
  81085c:	2823883a 	mov	r17,r5
  810860:	003f2e06 	br	81051c <__alt_mem_onchip_ram+0xff80c51c>
  810864:	2021883a 	mov	r16,r4
  810868:	003eff06 	br	810468 <__alt_mem_onchip_ram+0xff80c468>
  81086c:	2023883a 	mov	r17,r4
  810870:	003ee406 	br	810404 <__alt_mem_onchip_ram+0xff80c404>
  810874:	a8bfe236 	bltu	r21,r2,810800 <__alt_mem_onchip_ram+0xff80c800>
  810878:	0009883a 	mov	r4,zero
  81087c:	003f2706 	br	81051c <__alt_mem_onchip_ram+0xff80c51c>
  810880:	81002d36 	bltu	r16,r4,810938 <__divdf3+0x8f4>
  810884:	24005626 	beq	r4,r16,8109e0 <__divdf3+0x99c>
  810888:	2829883a 	mov	r20,r5
  81088c:	003f8006 	br	810690 <__alt_mem_onchip_ram+0xff80c690>
  810890:	053fffc4 	movi	r20,-1
  810894:	003f7f06 	br	810694 <__alt_mem_onchip_ram+0xff80c694>
  810898:	200f883a 	mov	r7,r4
  81089c:	003f3c06 	br	810590 <__alt_mem_onchip_ram+0xff80c590>
  8108a0:	1011883a 	mov	r8,r2
  8108a4:	003f5506 	br	8105fc <__alt_mem_onchip_ram+0xff80c5fc>
  8108a8:	e027883a 	mov	r19,fp
  8108ac:	003f7906 	br	810694 <__alt_mem_onchip_ram+0xff80c694>
  8108b0:	010007c4 	movi	r4,31
  8108b4:	20c02816 	blt	r4,r3,810958 <__divdf3+0x914>
  8108b8:	00800804 	movi	r2,32
  8108bc:	10c5c83a 	sub	r2,r2,r3
  8108c0:	888a983a 	sll	r5,r17,r2
  8108c4:	a0c8d83a 	srl	r4,r20,r3
  8108c8:	a084983a 	sll	r2,r20,r2
  8108cc:	88e2d83a 	srl	r17,r17,r3
  8108d0:	2906b03a 	or	r3,r5,r4
  8108d4:	1004c03a 	cmpne	r2,r2,zero
  8108d8:	1886b03a 	or	r3,r3,r2
  8108dc:	188001cc 	andi	r2,r3,7
  8108e0:	10000726 	beq	r2,zero,810900 <__divdf3+0x8bc>
  8108e4:	188003cc 	andi	r2,r3,15
  8108e8:	01000104 	movi	r4,4
  8108ec:	11000426 	beq	r2,r4,810900 <__divdf3+0x8bc>
  8108f0:	1805883a 	mov	r2,r3
  8108f4:	10c00104 	addi	r3,r2,4
  8108f8:	1885803a 	cmpltu	r2,r3,r2
  8108fc:	88a3883a 	add	r17,r17,r2
  810900:	8880202c 	andhi	r2,r17,128
  810904:	10002926 	beq	r2,zero,8109ac <__divdf3+0x968>
  810908:	9900004c 	andi	r4,r19,1
  81090c:	00800044 	movi	r2,1
  810910:	0021883a 	mov	r16,zero
  810914:	002b883a 	mov	r21,zero
  810918:	003e2906 	br	8101c0 <__alt_mem_onchip_ram+0xff80c1c0>
  81091c:	d9800017 	ldw	r6,0(sp)
  810920:	8c7fff84 	addi	r17,r17,-2
  810924:	a9ab883a 	add	r21,r21,r6
  810928:	a98b803a 	cmpltu	r5,r21,r6
  81092c:	2d8b883a 	add	r5,r5,r22
  810930:	2a11883a 	add	r8,r5,r8
  810934:	003ef806 	br	810518 <__alt_mem_onchip_ram+0xff80c518>
  810938:	d9800017 	ldw	r6,0(sp)
  81093c:	318f883a 	add	r7,r6,r6
  810940:	398b803a 	cmpltu	r5,r7,r6
  810944:	2d8d883a 	add	r6,r5,r22
  810948:	81a1883a 	add	r16,r16,r6
  81094c:	a17fff84 	addi	r5,r20,-2
  810950:	d9c00015 	stw	r7,0(sp)
  810954:	003f8806 	br	810778 <__alt_mem_onchip_ram+0xff80c778>
  810958:	013ff844 	movi	r4,-31
  81095c:	2085c83a 	sub	r2,r4,r2
  810960:	8888d83a 	srl	r4,r17,r2
  810964:	00800804 	movi	r2,32
  810968:	18802126 	beq	r3,r2,8109f0 <__divdf3+0x9ac>
  81096c:	04001004 	movi	r16,64
  810970:	80c7c83a 	sub	r3,r16,r3
  810974:	88e0983a 	sll	r16,r17,r3
  810978:	8504b03a 	or	r2,r16,r20
  81097c:	1004c03a 	cmpne	r2,r2,zero
  810980:	2084b03a 	or	r2,r4,r2
  810984:	144001cc 	andi	r17,r2,7
  810988:	88000d1e 	bne	r17,zero,8109c0 <__divdf3+0x97c>
  81098c:	0021883a 	mov	r16,zero
  810990:	102ad0fa 	srli	r21,r2,3
  810994:	9900004c 	andi	r4,r19,1
  810998:	0005883a 	mov	r2,zero
  81099c:	ac6ab03a 	or	r21,r21,r17
  8109a0:	003e0706 	br	8101c0 <__alt_mem_onchip_ram+0xff80c1c0>
  8109a4:	1007883a 	mov	r3,r2
  8109a8:	0023883a 	mov	r17,zero
  8109ac:	8820927a 	slli	r16,r17,9
  8109b0:	1805883a 	mov	r2,r3
  8109b4:	8822977a 	slli	r17,r17,29
  8109b8:	8020d33a 	srli	r16,r16,12
  8109bc:	003ff406 	br	810990 <__alt_mem_onchip_ram+0xff80c990>
  8109c0:	10c003cc 	andi	r3,r2,15
  8109c4:	01000104 	movi	r4,4
  8109c8:	193ff626 	beq	r3,r4,8109a4 <__alt_mem_onchip_ram+0xff80c9a4>
  8109cc:	0023883a 	mov	r17,zero
  8109d0:	003fc806 	br	8108f4 <__alt_mem_onchip_ram+0xff80c8f4>
  8109d4:	a8bfd136 	bltu	r21,r2,81091c <__alt_mem_onchip_ram+0xff80c91c>
  8109d8:	2823883a 	mov	r17,r5
  8109dc:	003fa606 	br	810878 <__alt_mem_onchip_ram+0xff80c878>
  8109e0:	d9800017 	ldw	r6,0(sp)
  8109e4:	30bfd436 	bltu	r6,r2,810938 <__alt_mem_onchip_ram+0xff80c938>
  8109e8:	2829883a 	mov	r20,r5
  8109ec:	003f6406 	br	810780 <__alt_mem_onchip_ram+0xff80c780>
  8109f0:	0021883a 	mov	r16,zero
  8109f4:	003fe006 	br	810978 <__alt_mem_onchip_ram+0xff80c978>
  8109f8:	00800434 	movhi	r2,16
  8109fc:	8c000234 	orhi	r16,r17,8
  810a00:	10bfffc4 	addi	r2,r2,-1
  810a04:	e009883a 	mov	r4,fp
  810a08:	80a0703a 	and	r16,r16,r2
  810a0c:	a02b883a 	mov	r21,r20
  810a10:	003e4e06 	br	81034c <__alt_mem_onchip_ram+0xff80c34c>

00810a14 <__eqdf2>:
  810a14:	2804d53a 	srli	r2,r5,20
  810a18:	3806d53a 	srli	r3,r7,20
  810a1c:	02000434 	movhi	r8,16
  810a20:	423fffc4 	addi	r8,r8,-1
  810a24:	1081ffcc 	andi	r2,r2,2047
  810a28:	0281ffc4 	movi	r10,2047
  810a2c:	2a12703a 	and	r9,r5,r8
  810a30:	18c1ffcc 	andi	r3,r3,2047
  810a34:	3a10703a 	and	r8,r7,r8
  810a38:	280ad7fa 	srli	r5,r5,31
  810a3c:	380ed7fa 	srli	r7,r7,31
  810a40:	12801026 	beq	r2,r10,810a84 <__eqdf2+0x70>
  810a44:	0281ffc4 	movi	r10,2047
  810a48:	1a800a26 	beq	r3,r10,810a74 <__eqdf2+0x60>
  810a4c:	10c00226 	beq	r2,r3,810a58 <__eqdf2+0x44>
  810a50:	00800044 	movi	r2,1
  810a54:	f800283a 	ret
  810a58:	4a3ffd1e 	bne	r9,r8,810a50 <__alt_mem_onchip_ram+0xff80ca50>
  810a5c:	21bffc1e 	bne	r4,r6,810a50 <__alt_mem_onchip_ram+0xff80ca50>
  810a60:	29c00c26 	beq	r5,r7,810a94 <__eqdf2+0x80>
  810a64:	103ffa1e 	bne	r2,zero,810a50 <__alt_mem_onchip_ram+0xff80ca50>
  810a68:	2244b03a 	or	r2,r4,r9
  810a6c:	1004c03a 	cmpne	r2,r2,zero
  810a70:	f800283a 	ret
  810a74:	3214b03a 	or	r10,r6,r8
  810a78:	503ff426 	beq	r10,zero,810a4c <__alt_mem_onchip_ram+0xff80ca4c>
  810a7c:	00800044 	movi	r2,1
  810a80:	f800283a 	ret
  810a84:	2254b03a 	or	r10,r4,r9
  810a88:	503fee26 	beq	r10,zero,810a44 <__alt_mem_onchip_ram+0xff80ca44>
  810a8c:	00800044 	movi	r2,1
  810a90:	f800283a 	ret
  810a94:	0005883a 	mov	r2,zero
  810a98:	f800283a 	ret

00810a9c <__gedf2>:
  810a9c:	2804d53a 	srli	r2,r5,20
  810aa0:	3806d53a 	srli	r3,r7,20
  810aa4:	02000434 	movhi	r8,16
  810aa8:	423fffc4 	addi	r8,r8,-1
  810aac:	1081ffcc 	andi	r2,r2,2047
  810ab0:	0241ffc4 	movi	r9,2047
  810ab4:	2a14703a 	and	r10,r5,r8
  810ab8:	18c1ffcc 	andi	r3,r3,2047
  810abc:	3a10703a 	and	r8,r7,r8
  810ac0:	280ad7fa 	srli	r5,r5,31
  810ac4:	380ed7fa 	srli	r7,r7,31
  810ac8:	12401d26 	beq	r2,r9,810b40 <__gedf2+0xa4>
  810acc:	0241ffc4 	movi	r9,2047
  810ad0:	1a401226 	beq	r3,r9,810b1c <__gedf2+0x80>
  810ad4:	1000081e 	bne	r2,zero,810af8 <__gedf2+0x5c>
  810ad8:	2296b03a 	or	r11,r4,r10
  810adc:	5813003a 	cmpeq	r9,r11,zero
  810ae0:	1800091e 	bne	r3,zero,810b08 <__gedf2+0x6c>
  810ae4:	3218b03a 	or	r12,r6,r8
  810ae8:	6000071e 	bne	r12,zero,810b08 <__gedf2+0x6c>
  810aec:	0005883a 	mov	r2,zero
  810af0:	5800101e 	bne	r11,zero,810b34 <__gedf2+0x98>
  810af4:	f800283a 	ret
  810af8:	18000c1e 	bne	r3,zero,810b2c <__gedf2+0x90>
  810afc:	3212b03a 	or	r9,r6,r8
  810b00:	48000c26 	beq	r9,zero,810b34 <__gedf2+0x98>
  810b04:	0013883a 	mov	r9,zero
  810b08:	39c03fcc 	andi	r7,r7,255
  810b0c:	48000826 	beq	r9,zero,810b30 <__gedf2+0x94>
  810b10:	38000926 	beq	r7,zero,810b38 <__gedf2+0x9c>
  810b14:	00800044 	movi	r2,1
  810b18:	f800283a 	ret
  810b1c:	3212b03a 	or	r9,r6,r8
  810b20:	483fec26 	beq	r9,zero,810ad4 <__alt_mem_onchip_ram+0xff80cad4>
  810b24:	00bfff84 	movi	r2,-2
  810b28:	f800283a 	ret
  810b2c:	39c03fcc 	andi	r7,r7,255
  810b30:	29c00626 	beq	r5,r7,810b4c <__gedf2+0xb0>
  810b34:	283ff726 	beq	r5,zero,810b14 <__alt_mem_onchip_ram+0xff80cb14>
  810b38:	00bfffc4 	movi	r2,-1
  810b3c:	f800283a 	ret
  810b40:	2292b03a 	or	r9,r4,r10
  810b44:	483fe126 	beq	r9,zero,810acc <__alt_mem_onchip_ram+0xff80cacc>
  810b48:	003ff606 	br	810b24 <__alt_mem_onchip_ram+0xff80cb24>
  810b4c:	18bff916 	blt	r3,r2,810b34 <__alt_mem_onchip_ram+0xff80cb34>
  810b50:	10c00316 	blt	r2,r3,810b60 <__gedf2+0xc4>
  810b54:	42bff736 	bltu	r8,r10,810b34 <__alt_mem_onchip_ram+0xff80cb34>
  810b58:	52000326 	beq	r10,r8,810b68 <__gedf2+0xcc>
  810b5c:	5200042e 	bgeu	r10,r8,810b70 <__gedf2+0xd4>
  810b60:	283fec1e 	bne	r5,zero,810b14 <__alt_mem_onchip_ram+0xff80cb14>
  810b64:	003ff406 	br	810b38 <__alt_mem_onchip_ram+0xff80cb38>
  810b68:	313ff236 	bltu	r6,r4,810b34 <__alt_mem_onchip_ram+0xff80cb34>
  810b6c:	21bffc36 	bltu	r4,r6,810b60 <__alt_mem_onchip_ram+0xff80cb60>
  810b70:	0005883a 	mov	r2,zero
  810b74:	f800283a 	ret

00810b78 <__ledf2>:
  810b78:	2804d53a 	srli	r2,r5,20
  810b7c:	3810d53a 	srli	r8,r7,20
  810b80:	00c00434 	movhi	r3,16
  810b84:	18ffffc4 	addi	r3,r3,-1
  810b88:	1081ffcc 	andi	r2,r2,2047
  810b8c:	0241ffc4 	movi	r9,2047
  810b90:	28d4703a 	and	r10,r5,r3
  810b94:	4201ffcc 	andi	r8,r8,2047
  810b98:	38c6703a 	and	r3,r7,r3
  810b9c:	280ad7fa 	srli	r5,r5,31
  810ba0:	380ed7fa 	srli	r7,r7,31
  810ba4:	12401f26 	beq	r2,r9,810c24 <__ledf2+0xac>
  810ba8:	0241ffc4 	movi	r9,2047
  810bac:	42401426 	beq	r8,r9,810c00 <__ledf2+0x88>
  810bb0:	1000091e 	bne	r2,zero,810bd8 <__ledf2+0x60>
  810bb4:	2296b03a 	or	r11,r4,r10
  810bb8:	5813003a 	cmpeq	r9,r11,zero
  810bbc:	29403fcc 	andi	r5,r5,255
  810bc0:	40000a1e 	bne	r8,zero,810bec <__ledf2+0x74>
  810bc4:	30d8b03a 	or	r12,r6,r3
  810bc8:	6000081e 	bne	r12,zero,810bec <__ledf2+0x74>
  810bcc:	0005883a 	mov	r2,zero
  810bd0:	5800111e 	bne	r11,zero,810c18 <__ledf2+0xa0>
  810bd4:	f800283a 	ret
  810bd8:	29403fcc 	andi	r5,r5,255
  810bdc:	40000c1e 	bne	r8,zero,810c10 <__ledf2+0x98>
  810be0:	30d2b03a 	or	r9,r6,r3
  810be4:	48000c26 	beq	r9,zero,810c18 <__ledf2+0xa0>
  810be8:	0013883a 	mov	r9,zero
  810bec:	39c03fcc 	andi	r7,r7,255
  810bf0:	48000826 	beq	r9,zero,810c14 <__ledf2+0x9c>
  810bf4:	38001126 	beq	r7,zero,810c3c <__ledf2+0xc4>
  810bf8:	00800044 	movi	r2,1
  810bfc:	f800283a 	ret
  810c00:	30d2b03a 	or	r9,r6,r3
  810c04:	483fea26 	beq	r9,zero,810bb0 <__alt_mem_onchip_ram+0xff80cbb0>
  810c08:	00800084 	movi	r2,2
  810c0c:	f800283a 	ret
  810c10:	39c03fcc 	andi	r7,r7,255
  810c14:	39400726 	beq	r7,r5,810c34 <__ledf2+0xbc>
  810c18:	2800081e 	bne	r5,zero,810c3c <__ledf2+0xc4>
  810c1c:	00800044 	movi	r2,1
  810c20:	f800283a 	ret
  810c24:	2292b03a 	or	r9,r4,r10
  810c28:	483fdf26 	beq	r9,zero,810ba8 <__alt_mem_onchip_ram+0xff80cba8>
  810c2c:	00800084 	movi	r2,2
  810c30:	f800283a 	ret
  810c34:	4080030e 	bge	r8,r2,810c44 <__ledf2+0xcc>
  810c38:	383fef26 	beq	r7,zero,810bf8 <__alt_mem_onchip_ram+0xff80cbf8>
  810c3c:	00bfffc4 	movi	r2,-1
  810c40:	f800283a 	ret
  810c44:	123feb16 	blt	r2,r8,810bf4 <__alt_mem_onchip_ram+0xff80cbf4>
  810c48:	1abff336 	bltu	r3,r10,810c18 <__alt_mem_onchip_ram+0xff80cc18>
  810c4c:	50c00326 	beq	r10,r3,810c5c <__ledf2+0xe4>
  810c50:	50c0042e 	bgeu	r10,r3,810c64 <__ledf2+0xec>
  810c54:	283fe81e 	bne	r5,zero,810bf8 <__alt_mem_onchip_ram+0xff80cbf8>
  810c58:	003ff806 	br	810c3c <__alt_mem_onchip_ram+0xff80cc3c>
  810c5c:	313fee36 	bltu	r6,r4,810c18 <__alt_mem_onchip_ram+0xff80cc18>
  810c60:	21bffc36 	bltu	r4,r6,810c54 <__alt_mem_onchip_ram+0xff80cc54>
  810c64:	0005883a 	mov	r2,zero
  810c68:	f800283a 	ret

00810c6c <__muldf3>:
  810c6c:	deffee04 	addi	sp,sp,-72
  810c70:	dd000c15 	stw	r20,48(sp)
  810c74:	2828d53a 	srli	r20,r5,20
  810c78:	ddc00f15 	stw	r23,60(sp)
  810c7c:	282ed7fa 	srli	r23,r5,31
  810c80:	dc000815 	stw	r16,32(sp)
  810c84:	04000434 	movhi	r16,16
  810c88:	dcc00b15 	stw	r19,44(sp)
  810c8c:	843fffc4 	addi	r16,r16,-1
  810c90:	dfc01115 	stw	ra,68(sp)
  810c94:	df001015 	stw	fp,64(sp)
  810c98:	dd800e15 	stw	r22,56(sp)
  810c9c:	dd400d15 	stw	r21,52(sp)
  810ca0:	dc800a15 	stw	r18,40(sp)
  810ca4:	dc400915 	stw	r17,36(sp)
  810ca8:	a501ffcc 	andi	r20,r20,2047
  810cac:	2c20703a 	and	r16,r5,r16
  810cb0:	b827883a 	mov	r19,r23
  810cb4:	ba403fcc 	andi	r9,r23,255
  810cb8:	a0006026 	beq	r20,zero,810e3c <__muldf3+0x1d0>
  810cbc:	0081ffc4 	movi	r2,2047
  810cc0:	202d883a 	mov	r22,r4
  810cc4:	a0803626 	beq	r20,r2,810da0 <__muldf3+0x134>
  810cc8:	84000434 	orhi	r16,r16,16
  810ccc:	200ad77a 	srli	r5,r4,29
  810cd0:	800690fa 	slli	r3,r16,3
  810cd4:	202c90fa 	slli	r22,r4,3
  810cd8:	a53f0044 	addi	r20,r20,-1023
  810cdc:	28e0b03a 	or	r16,r5,r3
  810ce0:	002b883a 	mov	r21,zero
  810ce4:	000b883a 	mov	r5,zero
  810ce8:	3806d53a 	srli	r3,r7,20
  810cec:	3838d7fa 	srli	fp,r7,31
  810cf0:	04400434 	movhi	r17,16
  810cf4:	8c7fffc4 	addi	r17,r17,-1
  810cf8:	18c1ffcc 	andi	r3,r3,2047
  810cfc:	3025883a 	mov	r18,r6
  810d00:	3c62703a 	and	r17,r7,r17
  810d04:	e2803fcc 	andi	r10,fp,255
  810d08:	18006d26 	beq	r3,zero,810ec0 <__muldf3+0x254>
  810d0c:	0081ffc4 	movi	r2,2047
  810d10:	18806526 	beq	r3,r2,810ea8 <__muldf3+0x23c>
  810d14:	8c400434 	orhi	r17,r17,16
  810d18:	300ed77a 	srli	r7,r6,29
  810d1c:	880890fa 	slli	r4,r17,3
  810d20:	302490fa 	slli	r18,r6,3
  810d24:	18ff0044 	addi	r3,r3,-1023
  810d28:	3922b03a 	or	r17,r7,r4
  810d2c:	000f883a 	mov	r7,zero
  810d30:	a0c7883a 	add	r3,r20,r3
  810d34:	3d48b03a 	or	r4,r7,r21
  810d38:	008003c4 	movi	r2,15
  810d3c:	e5ccf03a 	xor	r6,fp,r23
  810d40:	1a000044 	addi	r8,r3,1
  810d44:	11009b36 	bltu	r2,r4,810fb4 <__muldf3+0x348>
  810d48:	200890ba 	slli	r4,r4,2
  810d4c:	00802074 	movhi	r2,129
  810d50:	10835804 	addi	r2,r2,3424
  810d54:	2089883a 	add	r4,r4,r2
  810d58:	20800017 	ldw	r2,0(r4)
  810d5c:	1000683a 	jmp	r2
  810d60:	00810fb4 	movhi	r2,1086
  810d64:	00810dc0 	call	810dc <__reset-0x77ef24>
  810d68:	00810dc0 	call	810dc <__reset-0x77ef24>
  810d6c:	00810dbc 	xorhi	r2,zero,1078
  810d70:	00810f90 	cmplti	r2,zero,1086
  810d74:	00810f90 	cmplti	r2,zero,1086
  810d78:	00810f78 	rdprs	r2,zero,1085
  810d7c:	00810dbc 	xorhi	r2,zero,1078
  810d80:	00810f90 	cmplti	r2,zero,1086
  810d84:	00810f78 	rdprs	r2,zero,1085
  810d88:	00810f90 	cmplti	r2,zero,1086
  810d8c:	00810dbc 	xorhi	r2,zero,1078
  810d90:	00810fa0 	cmpeqi	r2,zero,1086
  810d94:	00810fa0 	cmpeqi	r2,zero,1086
  810d98:	00810fa0 	cmpeqi	r2,zero,1086
  810d9c:	008112fc 	xorhi	r2,zero,1099
  810da0:	2404b03a 	or	r2,r4,r16
  810da4:	1000711e 	bne	r2,zero,810f6c <__muldf3+0x300>
  810da8:	05400204 	movi	r21,8
  810dac:	0021883a 	mov	r16,zero
  810db0:	002d883a 	mov	r22,zero
  810db4:	01400084 	movi	r5,2
  810db8:	003fcb06 	br	810ce8 <__alt_mem_onchip_ram+0xff80cce8>
  810dbc:	500d883a 	mov	r6,r10
  810dc0:	00800084 	movi	r2,2
  810dc4:	38805926 	beq	r7,r2,810f2c <__muldf3+0x2c0>
  810dc8:	008000c4 	movi	r2,3
  810dcc:	3881ba26 	beq	r7,r2,8114b8 <__muldf3+0x84c>
  810dd0:	00800044 	movi	r2,1
  810dd4:	3881951e 	bne	r7,r2,81142c <__muldf3+0x7c0>
  810dd8:	3027883a 	mov	r19,r6
  810ddc:	0005883a 	mov	r2,zero
  810de0:	0021883a 	mov	r16,zero
  810de4:	002d883a 	mov	r22,zero
  810de8:	1004953a 	slli	r2,r2,20
  810dec:	98c03fcc 	andi	r3,r19,255
  810df0:	04400434 	movhi	r17,16
  810df4:	8c7fffc4 	addi	r17,r17,-1
  810df8:	180697fa 	slli	r3,r3,31
  810dfc:	8460703a 	and	r16,r16,r17
  810e00:	80a0b03a 	or	r16,r16,r2
  810e04:	80c6b03a 	or	r3,r16,r3
  810e08:	b005883a 	mov	r2,r22
  810e0c:	dfc01117 	ldw	ra,68(sp)
  810e10:	df001017 	ldw	fp,64(sp)
  810e14:	ddc00f17 	ldw	r23,60(sp)
  810e18:	dd800e17 	ldw	r22,56(sp)
  810e1c:	dd400d17 	ldw	r21,52(sp)
  810e20:	dd000c17 	ldw	r20,48(sp)
  810e24:	dcc00b17 	ldw	r19,44(sp)
  810e28:	dc800a17 	ldw	r18,40(sp)
  810e2c:	dc400917 	ldw	r17,36(sp)
  810e30:	dc000817 	ldw	r16,32(sp)
  810e34:	dec01204 	addi	sp,sp,72
  810e38:	f800283a 	ret
  810e3c:	2404b03a 	or	r2,r4,r16
  810e40:	202b883a 	mov	r21,r4
  810e44:	10004426 	beq	r2,zero,810f58 <__muldf3+0x2ec>
  810e48:	80015026 	beq	r16,zero,81138c <__muldf3+0x720>
  810e4c:	8009883a 	mov	r4,r16
  810e50:	d9800715 	stw	r6,28(sp)
  810e54:	d9c00215 	stw	r7,8(sp)
  810e58:	da400415 	stw	r9,16(sp)
  810e5c:	081217c0 	call	81217c <__clzsi2>
  810e60:	d9800717 	ldw	r6,28(sp)
  810e64:	d9c00217 	ldw	r7,8(sp)
  810e68:	da400417 	ldw	r9,16(sp)
  810e6c:	10fffd44 	addi	r3,r2,-11
  810e70:	01000704 	movi	r4,28
  810e74:	20c14116 	blt	r4,r3,81137c <__muldf3+0x710>
  810e78:	01000744 	movi	r4,29
  810e7c:	15bffe04 	addi	r22,r2,-8
  810e80:	20c9c83a 	sub	r4,r4,r3
  810e84:	85a0983a 	sll	r16,r16,r22
  810e88:	a908d83a 	srl	r4,r21,r4
  810e8c:	adac983a 	sll	r22,r21,r22
  810e90:	2420b03a 	or	r16,r4,r16
  810e94:	053f0084 	movi	r20,-1022
  810e98:	a0e9c83a 	sub	r20,r20,r3
  810e9c:	002b883a 	mov	r21,zero
  810ea0:	000b883a 	mov	r5,zero
  810ea4:	003f9006 	br	810ce8 <__alt_mem_onchip_ram+0xff80cce8>
  810ea8:	3444b03a 	or	r2,r6,r17
  810eac:	1000281e 	bne	r2,zero,810f50 <__muldf3+0x2e4>
  810eb0:	0023883a 	mov	r17,zero
  810eb4:	0025883a 	mov	r18,zero
  810eb8:	01c00084 	movi	r7,2
  810ebc:	003f9c06 	br	810d30 <__alt_mem_onchip_ram+0xff80cd30>
  810ec0:	3444b03a 	or	r2,r6,r17
  810ec4:	10001e26 	beq	r2,zero,810f40 <__muldf3+0x2d4>
  810ec8:	88012026 	beq	r17,zero,81134c <__muldf3+0x6e0>
  810ecc:	8809883a 	mov	r4,r17
  810ed0:	d9400215 	stw	r5,8(sp)
  810ed4:	d9800715 	stw	r6,28(sp)
  810ed8:	da400415 	stw	r9,16(sp)
  810edc:	da800315 	stw	r10,12(sp)
  810ee0:	081217c0 	call	81217c <__clzsi2>
  810ee4:	d9400217 	ldw	r5,8(sp)
  810ee8:	d9800717 	ldw	r6,28(sp)
  810eec:	da400417 	ldw	r9,16(sp)
  810ef0:	da800317 	ldw	r10,12(sp)
  810ef4:	113ffd44 	addi	r4,r2,-11
  810ef8:	00c00704 	movi	r3,28
  810efc:	19010f16 	blt	r3,r4,81133c <__muldf3+0x6d0>
  810f00:	00c00744 	movi	r3,29
  810f04:	14bffe04 	addi	r18,r2,-8
  810f08:	1907c83a 	sub	r3,r3,r4
  810f0c:	8ca2983a 	sll	r17,r17,r18
  810f10:	30c6d83a 	srl	r3,r6,r3
  810f14:	34a4983a 	sll	r18,r6,r18
  810f18:	1c62b03a 	or	r17,r3,r17
  810f1c:	00ff0084 	movi	r3,-1022
  810f20:	1907c83a 	sub	r3,r3,r4
  810f24:	000f883a 	mov	r7,zero
  810f28:	003f8106 	br	810d30 <__alt_mem_onchip_ram+0xff80cd30>
  810f2c:	3027883a 	mov	r19,r6
  810f30:	0081ffc4 	movi	r2,2047
  810f34:	0021883a 	mov	r16,zero
  810f38:	002d883a 	mov	r22,zero
  810f3c:	003faa06 	br	810de8 <__alt_mem_onchip_ram+0xff80cde8>
  810f40:	0023883a 	mov	r17,zero
  810f44:	0025883a 	mov	r18,zero
  810f48:	01c00044 	movi	r7,1
  810f4c:	003f7806 	br	810d30 <__alt_mem_onchip_ram+0xff80cd30>
  810f50:	01c000c4 	movi	r7,3
  810f54:	003f7606 	br	810d30 <__alt_mem_onchip_ram+0xff80cd30>
  810f58:	05400104 	movi	r21,4
  810f5c:	0021883a 	mov	r16,zero
  810f60:	002d883a 	mov	r22,zero
  810f64:	01400044 	movi	r5,1
  810f68:	003f5f06 	br	810ce8 <__alt_mem_onchip_ram+0xff80cce8>
  810f6c:	05400304 	movi	r21,12
  810f70:	014000c4 	movi	r5,3
  810f74:	003f5c06 	br	810ce8 <__alt_mem_onchip_ram+0xff80cce8>
  810f78:	04000434 	movhi	r16,16
  810f7c:	0027883a 	mov	r19,zero
  810f80:	843fffc4 	addi	r16,r16,-1
  810f84:	05bfffc4 	movi	r22,-1
  810f88:	0081ffc4 	movi	r2,2047
  810f8c:	003f9606 	br	810de8 <__alt_mem_onchip_ram+0xff80cde8>
  810f90:	8023883a 	mov	r17,r16
  810f94:	b025883a 	mov	r18,r22
  810f98:	280f883a 	mov	r7,r5
  810f9c:	003f8806 	br	810dc0 <__alt_mem_onchip_ram+0xff80cdc0>
  810fa0:	8023883a 	mov	r17,r16
  810fa4:	b025883a 	mov	r18,r22
  810fa8:	480d883a 	mov	r6,r9
  810fac:	280f883a 	mov	r7,r5
  810fb0:	003f8306 	br	810dc0 <__alt_mem_onchip_ram+0xff80cdc0>
  810fb4:	b028d43a 	srli	r20,r22,16
  810fb8:	902ed43a 	srli	r23,r18,16
  810fbc:	b5bfffcc 	andi	r22,r22,65535
  810fc0:	94bfffcc 	andi	r18,r18,65535
  810fc4:	b00b883a 	mov	r5,r22
  810fc8:	9009883a 	mov	r4,r18
  810fcc:	d8c00515 	stw	r3,20(sp)
  810fd0:	d9800715 	stw	r6,28(sp)
  810fd4:	da000615 	stw	r8,24(sp)
  810fd8:	080f5740 	call	80f574 <__mulsi3>
  810fdc:	a00b883a 	mov	r5,r20
  810fe0:	9009883a 	mov	r4,r18
  810fe4:	1027883a 	mov	r19,r2
  810fe8:	080f5740 	call	80f574 <__mulsi3>
  810fec:	b80b883a 	mov	r5,r23
  810ff0:	a009883a 	mov	r4,r20
  810ff4:	102b883a 	mov	r21,r2
  810ff8:	080f5740 	call	80f574 <__mulsi3>
  810ffc:	b809883a 	mov	r4,r23
  811000:	b00b883a 	mov	r5,r22
  811004:	1039883a 	mov	fp,r2
  811008:	080f5740 	call	80f574 <__mulsi3>
  81100c:	9808d43a 	srli	r4,r19,16
  811010:	1545883a 	add	r2,r2,r21
  811014:	d8c00517 	ldw	r3,20(sp)
  811018:	2085883a 	add	r2,r4,r2
  81101c:	d9800717 	ldw	r6,28(sp)
  811020:	da000617 	ldw	r8,24(sp)
  811024:	1540022e 	bgeu	r2,r21,811030 <__muldf3+0x3c4>
  811028:	01000074 	movhi	r4,1
  81102c:	e139883a 	add	fp,fp,r4
  811030:	100e943a 	slli	r7,r2,16
  811034:	1004d43a 	srli	r2,r2,16
  811038:	882ad43a 	srli	r21,r17,16
  81103c:	9cffffcc 	andi	r19,r19,65535
  811040:	8c7fffcc 	andi	r17,r17,65535
  811044:	3ce7883a 	add	r19,r7,r19
  811048:	b00b883a 	mov	r5,r22
  81104c:	8809883a 	mov	r4,r17
  811050:	d8c00515 	stw	r3,20(sp)
  811054:	d9800715 	stw	r6,28(sp)
  811058:	da000615 	stw	r8,24(sp)
  81105c:	dcc00115 	stw	r19,4(sp)
  811060:	d8800015 	stw	r2,0(sp)
  811064:	080f5740 	call	80f574 <__mulsi3>
  811068:	a00b883a 	mov	r5,r20
  81106c:	8809883a 	mov	r4,r17
  811070:	d8800215 	stw	r2,8(sp)
  811074:	080f5740 	call	80f574 <__mulsi3>
  811078:	a009883a 	mov	r4,r20
  81107c:	a80b883a 	mov	r5,r21
  811080:	1027883a 	mov	r19,r2
  811084:	080f5740 	call	80f574 <__mulsi3>
  811088:	a809883a 	mov	r4,r21
  81108c:	b00b883a 	mov	r5,r22
  811090:	1029883a 	mov	r20,r2
  811094:	080f5740 	call	80f574 <__mulsi3>
  811098:	d9c00217 	ldw	r7,8(sp)
  81109c:	14c5883a 	add	r2,r2,r19
  8110a0:	d8c00517 	ldw	r3,20(sp)
  8110a4:	3808d43a 	srli	r4,r7,16
  8110a8:	d9800717 	ldw	r6,28(sp)
  8110ac:	da000617 	ldw	r8,24(sp)
  8110b0:	2085883a 	add	r2,r4,r2
  8110b4:	14c0022e 	bgeu	r2,r19,8110c0 <__muldf3+0x454>
  8110b8:	01000074 	movhi	r4,1
  8110bc:	a129883a 	add	r20,r20,r4
  8110c0:	1012d43a 	srli	r9,r2,16
  8110c4:	1004943a 	slli	r2,r2,16
  8110c8:	802cd43a 	srli	r22,r16,16
  8110cc:	843fffcc 	andi	r16,r16,65535
  8110d0:	3cffffcc 	andi	r19,r7,65535
  8110d4:	9009883a 	mov	r4,r18
  8110d8:	800b883a 	mov	r5,r16
  8110dc:	4d29883a 	add	r20,r9,r20
  8110e0:	d8c00515 	stw	r3,20(sp)
  8110e4:	d9800715 	stw	r6,28(sp)
  8110e8:	da000615 	stw	r8,24(sp)
  8110ec:	14e7883a 	add	r19,r2,r19
  8110f0:	080f5740 	call	80f574 <__mulsi3>
  8110f4:	9009883a 	mov	r4,r18
  8110f8:	b00b883a 	mov	r5,r22
  8110fc:	d8800315 	stw	r2,12(sp)
  811100:	080f5740 	call	80f574 <__mulsi3>
  811104:	b809883a 	mov	r4,r23
  811108:	b00b883a 	mov	r5,r22
  81110c:	d8800215 	stw	r2,8(sp)
  811110:	080f5740 	call	80f574 <__mulsi3>
  811114:	b80b883a 	mov	r5,r23
  811118:	8009883a 	mov	r4,r16
  81111c:	d8800415 	stw	r2,16(sp)
  811120:	080f5740 	call	80f574 <__mulsi3>
  811124:	da800317 	ldw	r10,12(sp)
  811128:	d9c00217 	ldw	r7,8(sp)
  81112c:	d9000017 	ldw	r4,0(sp)
  811130:	502ed43a 	srli	r23,r10,16
  811134:	11c5883a 	add	r2,r2,r7
  811138:	24e5883a 	add	r18,r4,r19
  81113c:	b885883a 	add	r2,r23,r2
  811140:	d8c00517 	ldw	r3,20(sp)
  811144:	d9800717 	ldw	r6,28(sp)
  811148:	da000617 	ldw	r8,24(sp)
  81114c:	da400417 	ldw	r9,16(sp)
  811150:	11c0022e 	bgeu	r2,r7,81115c <__muldf3+0x4f0>
  811154:	01000074 	movhi	r4,1
  811158:	4913883a 	add	r9,r9,r4
  81115c:	100ed43a 	srli	r7,r2,16
  811160:	1004943a 	slli	r2,r2,16
  811164:	55ffffcc 	andi	r23,r10,65535
  811168:	3a53883a 	add	r9,r7,r9
  81116c:	8809883a 	mov	r4,r17
  811170:	800b883a 	mov	r5,r16
  811174:	d8c00515 	stw	r3,20(sp)
  811178:	d9800715 	stw	r6,28(sp)
  81117c:	da000615 	stw	r8,24(sp)
  811180:	da400415 	stw	r9,16(sp)
  811184:	15ef883a 	add	r23,r2,r23
  811188:	080f5740 	call	80f574 <__mulsi3>
  81118c:	8809883a 	mov	r4,r17
  811190:	b00b883a 	mov	r5,r22
  811194:	d8800215 	stw	r2,8(sp)
  811198:	080f5740 	call	80f574 <__mulsi3>
  81119c:	b00b883a 	mov	r5,r22
  8111a0:	a809883a 	mov	r4,r21
  8111a4:	d8800315 	stw	r2,12(sp)
  8111a8:	080f5740 	call	80f574 <__mulsi3>
  8111ac:	8009883a 	mov	r4,r16
  8111b0:	a80b883a 	mov	r5,r21
  8111b4:	1023883a 	mov	r17,r2
  8111b8:	080f5740 	call	80f574 <__mulsi3>
  8111bc:	d9c00217 	ldw	r7,8(sp)
  8111c0:	da800317 	ldw	r10,12(sp)
  8111c4:	d8c00517 	ldw	r3,20(sp)
  8111c8:	3808d43a 	srli	r4,r7,16
  8111cc:	1285883a 	add	r2,r2,r10
  8111d0:	d9800717 	ldw	r6,28(sp)
  8111d4:	2085883a 	add	r2,r4,r2
  8111d8:	da000617 	ldw	r8,24(sp)
  8111dc:	da400417 	ldw	r9,16(sp)
  8111e0:	1280022e 	bgeu	r2,r10,8111ec <__muldf3+0x580>
  8111e4:	01000074 	movhi	r4,1
  8111e8:	8923883a 	add	r17,r17,r4
  8111ec:	1008943a 	slli	r4,r2,16
  8111f0:	39ffffcc 	andi	r7,r7,65535
  8111f4:	e4b9883a 	add	fp,fp,r18
  8111f8:	21cf883a 	add	r7,r4,r7
  8111fc:	e4e7803a 	cmpltu	r19,fp,r19
  811200:	3d0f883a 	add	r7,r7,r20
  811204:	bf39883a 	add	fp,r23,fp
  811208:	99c9883a 	add	r4,r19,r7
  81120c:	e5ef803a 	cmpltu	r23,fp,r23
  811210:	490b883a 	add	r5,r9,r4
  811214:	1004d43a 	srli	r2,r2,16
  811218:	b965883a 	add	r18,r23,r5
  81121c:	24c9803a 	cmpltu	r4,r4,r19
  811220:	3d29803a 	cmpltu	r20,r7,r20
  811224:	a128b03a 	or	r20,r20,r4
  811228:	95ef803a 	cmpltu	r23,r18,r23
  81122c:	2a53803a 	cmpltu	r9,r5,r9
  811230:	a0a9883a 	add	r20,r20,r2
  811234:	4deeb03a 	or	r23,r9,r23
  811238:	a5ef883a 	add	r23,r20,r23
  81123c:	bc63883a 	add	r17,r23,r17
  811240:	e004927a 	slli	r2,fp,9
  811244:	d9000117 	ldw	r4,4(sp)
  811248:	882e927a 	slli	r23,r17,9
  81124c:	9022d5fa 	srli	r17,r18,23
  811250:	e038d5fa 	srli	fp,fp,23
  811254:	1104b03a 	or	r2,r2,r4
  811258:	9024927a 	slli	r18,r18,9
  81125c:	1004c03a 	cmpne	r2,r2,zero
  811260:	bc62b03a 	or	r17,r23,r17
  811264:	1738b03a 	or	fp,r2,fp
  811268:	8880402c 	andhi	r2,r17,256
  81126c:	e4a4b03a 	or	r18,fp,r18
  811270:	10000726 	beq	r2,zero,811290 <__muldf3+0x624>
  811274:	9006d07a 	srli	r3,r18,1
  811278:	880497fa 	slli	r2,r17,31
  81127c:	9480004c 	andi	r18,r18,1
  811280:	8822d07a 	srli	r17,r17,1
  811284:	1ca4b03a 	or	r18,r3,r18
  811288:	14a4b03a 	or	r18,r2,r18
  81128c:	4007883a 	mov	r3,r8
  811290:	1880ffc4 	addi	r2,r3,1023
  811294:	0080460e 	bge	zero,r2,8113b0 <__muldf3+0x744>
  811298:	910001cc 	andi	r4,r18,7
  81129c:	20000726 	beq	r4,zero,8112bc <__muldf3+0x650>
  8112a0:	910003cc 	andi	r4,r18,15
  8112a4:	01400104 	movi	r5,4
  8112a8:	21400426 	beq	r4,r5,8112bc <__muldf3+0x650>
  8112ac:	9149883a 	add	r4,r18,r5
  8112b0:	24a5803a 	cmpltu	r18,r4,r18
  8112b4:	8ca3883a 	add	r17,r17,r18
  8112b8:	2025883a 	mov	r18,r4
  8112bc:	8900402c 	andhi	r4,r17,256
  8112c0:	20000426 	beq	r4,zero,8112d4 <__muldf3+0x668>
  8112c4:	18810004 	addi	r2,r3,1024
  8112c8:	00ffc034 	movhi	r3,65280
  8112cc:	18ffffc4 	addi	r3,r3,-1
  8112d0:	88e2703a 	and	r17,r17,r3
  8112d4:	00c1ff84 	movi	r3,2046
  8112d8:	18bf1416 	blt	r3,r2,810f2c <__alt_mem_onchip_ram+0xff80cf2c>
  8112dc:	882c977a 	slli	r22,r17,29
  8112e0:	9024d0fa 	srli	r18,r18,3
  8112e4:	8822927a 	slli	r17,r17,9
  8112e8:	1081ffcc 	andi	r2,r2,2047
  8112ec:	b4acb03a 	or	r22,r22,r18
  8112f0:	8820d33a 	srli	r16,r17,12
  8112f4:	3027883a 	mov	r19,r6
  8112f8:	003ebb06 	br	810de8 <__alt_mem_onchip_ram+0xff80cde8>
  8112fc:	8080022c 	andhi	r2,r16,8
  811300:	10000926 	beq	r2,zero,811328 <__muldf3+0x6bc>
  811304:	8880022c 	andhi	r2,r17,8
  811308:	1000071e 	bne	r2,zero,811328 <__muldf3+0x6bc>
  81130c:	00800434 	movhi	r2,16
  811310:	8c000234 	orhi	r16,r17,8
  811314:	10bfffc4 	addi	r2,r2,-1
  811318:	e027883a 	mov	r19,fp
  81131c:	80a0703a 	and	r16,r16,r2
  811320:	902d883a 	mov	r22,r18
  811324:	003f1806 	br	810f88 <__alt_mem_onchip_ram+0xff80cf88>
  811328:	00800434 	movhi	r2,16
  81132c:	84000234 	orhi	r16,r16,8
  811330:	10bfffc4 	addi	r2,r2,-1
  811334:	80a0703a 	and	r16,r16,r2
  811338:	003f1306 	br	810f88 <__alt_mem_onchip_ram+0xff80cf88>
  81133c:	147ff604 	addi	r17,r2,-40
  811340:	3462983a 	sll	r17,r6,r17
  811344:	0025883a 	mov	r18,zero
  811348:	003ef406 	br	810f1c <__alt_mem_onchip_ram+0xff80cf1c>
  81134c:	3009883a 	mov	r4,r6
  811350:	d9400215 	stw	r5,8(sp)
  811354:	d9800715 	stw	r6,28(sp)
  811358:	da400415 	stw	r9,16(sp)
  81135c:	da800315 	stw	r10,12(sp)
  811360:	081217c0 	call	81217c <__clzsi2>
  811364:	10800804 	addi	r2,r2,32
  811368:	da800317 	ldw	r10,12(sp)
  81136c:	da400417 	ldw	r9,16(sp)
  811370:	d9800717 	ldw	r6,28(sp)
  811374:	d9400217 	ldw	r5,8(sp)
  811378:	003ede06 	br	810ef4 <__alt_mem_onchip_ram+0xff80cef4>
  81137c:	143ff604 	addi	r16,r2,-40
  811380:	ac20983a 	sll	r16,r21,r16
  811384:	002d883a 	mov	r22,zero
  811388:	003ec206 	br	810e94 <__alt_mem_onchip_ram+0xff80ce94>
  81138c:	d9800715 	stw	r6,28(sp)
  811390:	d9c00215 	stw	r7,8(sp)
  811394:	da400415 	stw	r9,16(sp)
  811398:	081217c0 	call	81217c <__clzsi2>
  81139c:	10800804 	addi	r2,r2,32
  8113a0:	da400417 	ldw	r9,16(sp)
  8113a4:	d9c00217 	ldw	r7,8(sp)
  8113a8:	d9800717 	ldw	r6,28(sp)
  8113ac:	003eaf06 	br	810e6c <__alt_mem_onchip_ram+0xff80ce6c>
  8113b0:	00c00044 	movi	r3,1
  8113b4:	1887c83a 	sub	r3,r3,r2
  8113b8:	01000e04 	movi	r4,56
  8113bc:	20fe8616 	blt	r4,r3,810dd8 <__alt_mem_onchip_ram+0xff80cdd8>
  8113c0:	010007c4 	movi	r4,31
  8113c4:	20c01b16 	blt	r4,r3,811434 <__muldf3+0x7c8>
  8113c8:	00800804 	movi	r2,32
  8113cc:	10c5c83a 	sub	r2,r2,r3
  8113d0:	888a983a 	sll	r5,r17,r2
  8113d4:	90c8d83a 	srl	r4,r18,r3
  8113d8:	9084983a 	sll	r2,r18,r2
  8113dc:	88e2d83a 	srl	r17,r17,r3
  8113e0:	2906b03a 	or	r3,r5,r4
  8113e4:	1004c03a 	cmpne	r2,r2,zero
  8113e8:	1886b03a 	or	r3,r3,r2
  8113ec:	188001cc 	andi	r2,r3,7
  8113f0:	10000726 	beq	r2,zero,811410 <__muldf3+0x7a4>
  8113f4:	188003cc 	andi	r2,r3,15
  8113f8:	01000104 	movi	r4,4
  8113fc:	11000426 	beq	r2,r4,811410 <__muldf3+0x7a4>
  811400:	1805883a 	mov	r2,r3
  811404:	10c00104 	addi	r3,r2,4
  811408:	1885803a 	cmpltu	r2,r3,r2
  81140c:	88a3883a 	add	r17,r17,r2
  811410:	8880202c 	andhi	r2,r17,128
  811414:	10001c26 	beq	r2,zero,811488 <__muldf3+0x81c>
  811418:	3027883a 	mov	r19,r6
  81141c:	00800044 	movi	r2,1
  811420:	0021883a 	mov	r16,zero
  811424:	002d883a 	mov	r22,zero
  811428:	003e6f06 	br	810de8 <__alt_mem_onchip_ram+0xff80cde8>
  81142c:	4007883a 	mov	r3,r8
  811430:	003f9706 	br	811290 <__alt_mem_onchip_ram+0xff80d290>
  811434:	017ff844 	movi	r5,-31
  811438:	2885c83a 	sub	r2,r5,r2
  81143c:	888ad83a 	srl	r5,r17,r2
  811440:	00800804 	movi	r2,32
  811444:	18801a26 	beq	r3,r2,8114b0 <__muldf3+0x844>
  811448:	01001004 	movi	r4,64
  81144c:	20c7c83a 	sub	r3,r4,r3
  811450:	88e2983a 	sll	r17,r17,r3
  811454:	8ca4b03a 	or	r18,r17,r18
  811458:	9004c03a 	cmpne	r2,r18,zero
  81145c:	2884b03a 	or	r2,r5,r2
  811460:	144001cc 	andi	r17,r2,7
  811464:	88000d1e 	bne	r17,zero,81149c <__muldf3+0x830>
  811468:	0021883a 	mov	r16,zero
  81146c:	102cd0fa 	srli	r22,r2,3
  811470:	3027883a 	mov	r19,r6
  811474:	0005883a 	mov	r2,zero
  811478:	b46cb03a 	or	r22,r22,r17
  81147c:	003e5a06 	br	810de8 <__alt_mem_onchip_ram+0xff80cde8>
  811480:	1007883a 	mov	r3,r2
  811484:	0023883a 	mov	r17,zero
  811488:	8820927a 	slli	r16,r17,9
  81148c:	1805883a 	mov	r2,r3
  811490:	8822977a 	slli	r17,r17,29
  811494:	8020d33a 	srli	r16,r16,12
  811498:	003ff406 	br	81146c <__alt_mem_onchip_ram+0xff80d46c>
  81149c:	10c003cc 	andi	r3,r2,15
  8114a0:	01000104 	movi	r4,4
  8114a4:	193ff626 	beq	r3,r4,811480 <__alt_mem_onchip_ram+0xff80d480>
  8114a8:	0023883a 	mov	r17,zero
  8114ac:	003fd506 	br	811404 <__alt_mem_onchip_ram+0xff80d404>
  8114b0:	0023883a 	mov	r17,zero
  8114b4:	003fe706 	br	811454 <__alt_mem_onchip_ram+0xff80d454>
  8114b8:	00800434 	movhi	r2,16
  8114bc:	8c000234 	orhi	r16,r17,8
  8114c0:	10bfffc4 	addi	r2,r2,-1
  8114c4:	3027883a 	mov	r19,r6
  8114c8:	80a0703a 	and	r16,r16,r2
  8114cc:	902d883a 	mov	r22,r18
  8114d0:	003ead06 	br	810f88 <__alt_mem_onchip_ram+0xff80cf88>

008114d4 <__subdf3>:
  8114d4:	02000434 	movhi	r8,16
  8114d8:	423fffc4 	addi	r8,r8,-1
  8114dc:	defffb04 	addi	sp,sp,-20
  8114e0:	2a14703a 	and	r10,r5,r8
  8114e4:	3812d53a 	srli	r9,r7,20
  8114e8:	3a10703a 	and	r8,r7,r8
  8114ec:	2006d77a 	srli	r3,r4,29
  8114f0:	3004d77a 	srli	r2,r6,29
  8114f4:	dc000015 	stw	r16,0(sp)
  8114f8:	501490fa 	slli	r10,r10,3
  8114fc:	2820d53a 	srli	r16,r5,20
  811500:	401090fa 	slli	r8,r8,3
  811504:	dc800215 	stw	r18,8(sp)
  811508:	dc400115 	stw	r17,4(sp)
  81150c:	dfc00415 	stw	ra,16(sp)
  811510:	202290fa 	slli	r17,r4,3
  811514:	dcc00315 	stw	r19,12(sp)
  811518:	4a41ffcc 	andi	r9,r9,2047
  81151c:	0101ffc4 	movi	r4,2047
  811520:	2824d7fa 	srli	r18,r5,31
  811524:	8401ffcc 	andi	r16,r16,2047
  811528:	50c6b03a 	or	r3,r10,r3
  81152c:	380ed7fa 	srli	r7,r7,31
  811530:	408ab03a 	or	r5,r8,r2
  811534:	300c90fa 	slli	r6,r6,3
  811538:	49009626 	beq	r9,r4,811794 <__subdf3+0x2c0>
  81153c:	39c0005c 	xori	r7,r7,1
  811540:	8245c83a 	sub	r2,r16,r9
  811544:	3c807426 	beq	r7,r18,811718 <__subdf3+0x244>
  811548:	0080af0e 	bge	zero,r2,811808 <__subdf3+0x334>
  81154c:	48002a1e 	bne	r9,zero,8115f8 <__subdf3+0x124>
  811550:	2988b03a 	or	r4,r5,r6
  811554:	20009a1e 	bne	r4,zero,8117c0 <__subdf3+0x2ec>
  811558:	888001cc 	andi	r2,r17,7
  81155c:	10000726 	beq	r2,zero,81157c <__subdf3+0xa8>
  811560:	888003cc 	andi	r2,r17,15
  811564:	01000104 	movi	r4,4
  811568:	11000426 	beq	r2,r4,81157c <__subdf3+0xa8>
  81156c:	890b883a 	add	r5,r17,r4
  811570:	2c63803a 	cmpltu	r17,r5,r17
  811574:	1c47883a 	add	r3,r3,r17
  811578:	2823883a 	mov	r17,r5
  81157c:	1880202c 	andhi	r2,r3,128
  811580:	10005926 	beq	r2,zero,8116e8 <__subdf3+0x214>
  811584:	84000044 	addi	r16,r16,1
  811588:	0081ffc4 	movi	r2,2047
  81158c:	8080be26 	beq	r16,r2,811888 <__subdf3+0x3b4>
  811590:	017fe034 	movhi	r5,65408
  811594:	297fffc4 	addi	r5,r5,-1
  811598:	1946703a 	and	r3,r3,r5
  81159c:	1804977a 	slli	r2,r3,29
  8115a0:	1806927a 	slli	r3,r3,9
  8115a4:	8822d0fa 	srli	r17,r17,3
  8115a8:	8401ffcc 	andi	r16,r16,2047
  8115ac:	180ad33a 	srli	r5,r3,12
  8115b0:	9100004c 	andi	r4,r18,1
  8115b4:	1444b03a 	or	r2,r2,r17
  8115b8:	80c1ffcc 	andi	r3,r16,2047
  8115bc:	1820953a 	slli	r16,r3,20
  8115c0:	20c03fcc 	andi	r3,r4,255
  8115c4:	180897fa 	slli	r4,r3,31
  8115c8:	00c00434 	movhi	r3,16
  8115cc:	18ffffc4 	addi	r3,r3,-1
  8115d0:	28c6703a 	and	r3,r5,r3
  8115d4:	1c06b03a 	or	r3,r3,r16
  8115d8:	1906b03a 	or	r3,r3,r4
  8115dc:	dfc00417 	ldw	ra,16(sp)
  8115e0:	dcc00317 	ldw	r19,12(sp)
  8115e4:	dc800217 	ldw	r18,8(sp)
  8115e8:	dc400117 	ldw	r17,4(sp)
  8115ec:	dc000017 	ldw	r16,0(sp)
  8115f0:	dec00504 	addi	sp,sp,20
  8115f4:	f800283a 	ret
  8115f8:	0101ffc4 	movi	r4,2047
  8115fc:	813fd626 	beq	r16,r4,811558 <__alt_mem_onchip_ram+0xff80d558>
  811600:	29402034 	orhi	r5,r5,128
  811604:	01000e04 	movi	r4,56
  811608:	2080a316 	blt	r4,r2,811898 <__subdf3+0x3c4>
  81160c:	010007c4 	movi	r4,31
  811610:	2080c616 	blt	r4,r2,81192c <__subdf3+0x458>
  811614:	01000804 	movi	r4,32
  811618:	2089c83a 	sub	r4,r4,r2
  81161c:	2910983a 	sll	r8,r5,r4
  811620:	308ed83a 	srl	r7,r6,r2
  811624:	3108983a 	sll	r4,r6,r4
  811628:	2884d83a 	srl	r2,r5,r2
  81162c:	41ccb03a 	or	r6,r8,r7
  811630:	2008c03a 	cmpne	r4,r4,zero
  811634:	310cb03a 	or	r6,r6,r4
  811638:	898dc83a 	sub	r6,r17,r6
  81163c:	89a3803a 	cmpltu	r17,r17,r6
  811640:	1887c83a 	sub	r3,r3,r2
  811644:	1c47c83a 	sub	r3,r3,r17
  811648:	3023883a 	mov	r17,r6
  81164c:	1880202c 	andhi	r2,r3,128
  811650:	10002326 	beq	r2,zero,8116e0 <__subdf3+0x20c>
  811654:	04c02034 	movhi	r19,128
  811658:	9cffffc4 	addi	r19,r19,-1
  81165c:	1ce6703a 	and	r19,r3,r19
  811660:	98007a26 	beq	r19,zero,81184c <__subdf3+0x378>
  811664:	9809883a 	mov	r4,r19
  811668:	081217c0 	call	81217c <__clzsi2>
  81166c:	113ffe04 	addi	r4,r2,-8
  811670:	00c007c4 	movi	r3,31
  811674:	19007b16 	blt	r3,r4,811864 <__subdf3+0x390>
  811678:	00800804 	movi	r2,32
  81167c:	1105c83a 	sub	r2,r2,r4
  811680:	8884d83a 	srl	r2,r17,r2
  811684:	9906983a 	sll	r3,r19,r4
  811688:	8922983a 	sll	r17,r17,r4
  81168c:	10c4b03a 	or	r2,r2,r3
  811690:	24007816 	blt	r4,r16,811874 <__subdf3+0x3a0>
  811694:	2421c83a 	sub	r16,r4,r16
  811698:	80c00044 	addi	r3,r16,1
  81169c:	010007c4 	movi	r4,31
  8116a0:	20c09516 	blt	r4,r3,8118f8 <__subdf3+0x424>
  8116a4:	01400804 	movi	r5,32
  8116a8:	28cbc83a 	sub	r5,r5,r3
  8116ac:	88c8d83a 	srl	r4,r17,r3
  8116b0:	8962983a 	sll	r17,r17,r5
  8116b4:	114a983a 	sll	r5,r2,r5
  8116b8:	10c6d83a 	srl	r3,r2,r3
  8116bc:	8804c03a 	cmpne	r2,r17,zero
  8116c0:	290ab03a 	or	r5,r5,r4
  8116c4:	28a2b03a 	or	r17,r5,r2
  8116c8:	0021883a 	mov	r16,zero
  8116cc:	003fa206 	br	811558 <__alt_mem_onchip_ram+0xff80d558>
  8116d0:	2090b03a 	or	r8,r4,r2
  8116d4:	40018e26 	beq	r8,zero,811d10 <__subdf3+0x83c>
  8116d8:	1007883a 	mov	r3,r2
  8116dc:	2023883a 	mov	r17,r4
  8116e0:	888001cc 	andi	r2,r17,7
  8116e4:	103f9e1e 	bne	r2,zero,811560 <__alt_mem_onchip_ram+0xff80d560>
  8116e8:	1804977a 	slli	r2,r3,29
  8116ec:	8822d0fa 	srli	r17,r17,3
  8116f0:	1810d0fa 	srli	r8,r3,3
  8116f4:	9100004c 	andi	r4,r18,1
  8116f8:	1444b03a 	or	r2,r2,r17
  8116fc:	00c1ffc4 	movi	r3,2047
  811700:	80c02826 	beq	r16,r3,8117a4 <__subdf3+0x2d0>
  811704:	01400434 	movhi	r5,16
  811708:	297fffc4 	addi	r5,r5,-1
  81170c:	80e0703a 	and	r16,r16,r3
  811710:	414a703a 	and	r5,r8,r5
  811714:	003fa806 	br	8115b8 <__alt_mem_onchip_ram+0xff80d5b8>
  811718:	0080630e 	bge	zero,r2,8118a8 <__subdf3+0x3d4>
  81171c:	48003026 	beq	r9,zero,8117e0 <__subdf3+0x30c>
  811720:	0101ffc4 	movi	r4,2047
  811724:	813f8c26 	beq	r16,r4,811558 <__alt_mem_onchip_ram+0xff80d558>
  811728:	29402034 	orhi	r5,r5,128
  81172c:	01000e04 	movi	r4,56
  811730:	2080a90e 	bge	r4,r2,8119d8 <__subdf3+0x504>
  811734:	298cb03a 	or	r6,r5,r6
  811738:	3012c03a 	cmpne	r9,r6,zero
  81173c:	0005883a 	mov	r2,zero
  811740:	4c53883a 	add	r9,r9,r17
  811744:	4c63803a 	cmpltu	r17,r9,r17
  811748:	10c7883a 	add	r3,r2,r3
  81174c:	88c7883a 	add	r3,r17,r3
  811750:	4823883a 	mov	r17,r9
  811754:	1880202c 	andhi	r2,r3,128
  811758:	1000d026 	beq	r2,zero,811a9c <__subdf3+0x5c8>
  81175c:	84000044 	addi	r16,r16,1
  811760:	0081ffc4 	movi	r2,2047
  811764:	8080fe26 	beq	r16,r2,811b60 <__subdf3+0x68c>
  811768:	00bfe034 	movhi	r2,65408
  81176c:	10bfffc4 	addi	r2,r2,-1
  811770:	1886703a 	and	r3,r3,r2
  811774:	880ad07a 	srli	r5,r17,1
  811778:	180497fa 	slli	r2,r3,31
  81177c:	8900004c 	andi	r4,r17,1
  811780:	2922b03a 	or	r17,r5,r4
  811784:	1806d07a 	srli	r3,r3,1
  811788:	1462b03a 	or	r17,r2,r17
  81178c:	3825883a 	mov	r18,r7
  811790:	003f7106 	br	811558 <__alt_mem_onchip_ram+0xff80d558>
  811794:	2984b03a 	or	r2,r5,r6
  811798:	103f6826 	beq	r2,zero,81153c <__alt_mem_onchip_ram+0xff80d53c>
  81179c:	39c03fcc 	andi	r7,r7,255
  8117a0:	003f6706 	br	811540 <__alt_mem_onchip_ram+0xff80d540>
  8117a4:	4086b03a 	or	r3,r8,r2
  8117a8:	18015226 	beq	r3,zero,811cf4 <__subdf3+0x820>
  8117ac:	00c00434 	movhi	r3,16
  8117b0:	41400234 	orhi	r5,r8,8
  8117b4:	18ffffc4 	addi	r3,r3,-1
  8117b8:	28ca703a 	and	r5,r5,r3
  8117bc:	003f7e06 	br	8115b8 <__alt_mem_onchip_ram+0xff80d5b8>
  8117c0:	10bfffc4 	addi	r2,r2,-1
  8117c4:	1000491e 	bne	r2,zero,8118ec <__subdf3+0x418>
  8117c8:	898fc83a 	sub	r7,r17,r6
  8117cc:	89e3803a 	cmpltu	r17,r17,r7
  8117d0:	1947c83a 	sub	r3,r3,r5
  8117d4:	1c47c83a 	sub	r3,r3,r17
  8117d8:	3823883a 	mov	r17,r7
  8117dc:	003f9b06 	br	81164c <__alt_mem_onchip_ram+0xff80d64c>
  8117e0:	2988b03a 	or	r4,r5,r6
  8117e4:	203f5c26 	beq	r4,zero,811558 <__alt_mem_onchip_ram+0xff80d558>
  8117e8:	10bfffc4 	addi	r2,r2,-1
  8117ec:	1000931e 	bne	r2,zero,811a3c <__subdf3+0x568>
  8117f0:	898d883a 	add	r6,r17,r6
  8117f4:	3463803a 	cmpltu	r17,r6,r17
  8117f8:	1947883a 	add	r3,r3,r5
  8117fc:	88c7883a 	add	r3,r17,r3
  811800:	3023883a 	mov	r17,r6
  811804:	003fd306 	br	811754 <__alt_mem_onchip_ram+0xff80d754>
  811808:	1000541e 	bne	r2,zero,81195c <__subdf3+0x488>
  81180c:	80800044 	addi	r2,r16,1
  811810:	1081ffcc 	andi	r2,r2,2047
  811814:	01000044 	movi	r4,1
  811818:	2080a20e 	bge	r4,r2,811aa4 <__subdf3+0x5d0>
  81181c:	8989c83a 	sub	r4,r17,r6
  811820:	8905803a 	cmpltu	r2,r17,r4
  811824:	1967c83a 	sub	r19,r3,r5
  811828:	98a7c83a 	sub	r19,r19,r2
  81182c:	9880202c 	andhi	r2,r19,128
  811830:	10006326 	beq	r2,zero,8119c0 <__subdf3+0x4ec>
  811834:	3463c83a 	sub	r17,r6,r17
  811838:	28c7c83a 	sub	r3,r5,r3
  81183c:	344d803a 	cmpltu	r6,r6,r17
  811840:	19a7c83a 	sub	r19,r3,r6
  811844:	3825883a 	mov	r18,r7
  811848:	983f861e 	bne	r19,zero,811664 <__alt_mem_onchip_ram+0xff80d664>
  81184c:	8809883a 	mov	r4,r17
  811850:	081217c0 	call	81217c <__clzsi2>
  811854:	10800804 	addi	r2,r2,32
  811858:	113ffe04 	addi	r4,r2,-8
  81185c:	00c007c4 	movi	r3,31
  811860:	193f850e 	bge	r3,r4,811678 <__alt_mem_onchip_ram+0xff80d678>
  811864:	10bff604 	addi	r2,r2,-40
  811868:	8884983a 	sll	r2,r17,r2
  81186c:	0023883a 	mov	r17,zero
  811870:	243f880e 	bge	r4,r16,811694 <__alt_mem_onchip_ram+0xff80d694>
  811874:	00ffe034 	movhi	r3,65408
  811878:	18ffffc4 	addi	r3,r3,-1
  81187c:	8121c83a 	sub	r16,r16,r4
  811880:	10c6703a 	and	r3,r2,r3
  811884:	003f3406 	br	811558 <__alt_mem_onchip_ram+0xff80d558>
  811888:	9100004c 	andi	r4,r18,1
  81188c:	000b883a 	mov	r5,zero
  811890:	0005883a 	mov	r2,zero
  811894:	003f4806 	br	8115b8 <__alt_mem_onchip_ram+0xff80d5b8>
  811898:	298cb03a 	or	r6,r5,r6
  81189c:	300cc03a 	cmpne	r6,r6,zero
  8118a0:	0005883a 	mov	r2,zero
  8118a4:	003f6406 	br	811638 <__alt_mem_onchip_ram+0xff80d638>
  8118a8:	10009a1e 	bne	r2,zero,811b14 <__subdf3+0x640>
  8118ac:	82400044 	addi	r9,r16,1
  8118b0:	4881ffcc 	andi	r2,r9,2047
  8118b4:	02800044 	movi	r10,1
  8118b8:	5080670e 	bge	r10,r2,811a58 <__subdf3+0x584>
  8118bc:	0081ffc4 	movi	r2,2047
  8118c0:	4880af26 	beq	r9,r2,811b80 <__subdf3+0x6ac>
  8118c4:	898d883a 	add	r6,r17,r6
  8118c8:	1945883a 	add	r2,r3,r5
  8118cc:	3447803a 	cmpltu	r3,r6,r17
  8118d0:	1887883a 	add	r3,r3,r2
  8118d4:	182297fa 	slli	r17,r3,31
  8118d8:	300cd07a 	srli	r6,r6,1
  8118dc:	1806d07a 	srli	r3,r3,1
  8118e0:	4821883a 	mov	r16,r9
  8118e4:	89a2b03a 	or	r17,r17,r6
  8118e8:	003f1b06 	br	811558 <__alt_mem_onchip_ram+0xff80d558>
  8118ec:	0101ffc4 	movi	r4,2047
  8118f0:	813f441e 	bne	r16,r4,811604 <__alt_mem_onchip_ram+0xff80d604>
  8118f4:	003f1806 	br	811558 <__alt_mem_onchip_ram+0xff80d558>
  8118f8:	843ff844 	addi	r16,r16,-31
  8118fc:	01400804 	movi	r5,32
  811900:	1408d83a 	srl	r4,r2,r16
  811904:	19405026 	beq	r3,r5,811a48 <__subdf3+0x574>
  811908:	01401004 	movi	r5,64
  81190c:	28c7c83a 	sub	r3,r5,r3
  811910:	10c4983a 	sll	r2,r2,r3
  811914:	88a2b03a 	or	r17,r17,r2
  811918:	8822c03a 	cmpne	r17,r17,zero
  81191c:	2462b03a 	or	r17,r4,r17
  811920:	0007883a 	mov	r3,zero
  811924:	0021883a 	mov	r16,zero
  811928:	003f6d06 	br	8116e0 <__alt_mem_onchip_ram+0xff80d6e0>
  81192c:	11fff804 	addi	r7,r2,-32
  811930:	01000804 	movi	r4,32
  811934:	29ced83a 	srl	r7,r5,r7
  811938:	11004526 	beq	r2,r4,811a50 <__subdf3+0x57c>
  81193c:	01001004 	movi	r4,64
  811940:	2089c83a 	sub	r4,r4,r2
  811944:	2904983a 	sll	r2,r5,r4
  811948:	118cb03a 	or	r6,r2,r6
  81194c:	300cc03a 	cmpne	r6,r6,zero
  811950:	398cb03a 	or	r6,r7,r6
  811954:	0005883a 	mov	r2,zero
  811958:	003f3706 	br	811638 <__alt_mem_onchip_ram+0xff80d638>
  81195c:	80002a26 	beq	r16,zero,811a08 <__subdf3+0x534>
  811960:	0101ffc4 	movi	r4,2047
  811964:	49006626 	beq	r9,r4,811b00 <__subdf3+0x62c>
  811968:	0085c83a 	sub	r2,zero,r2
  81196c:	18c02034 	orhi	r3,r3,128
  811970:	01000e04 	movi	r4,56
  811974:	20807e16 	blt	r4,r2,811b70 <__subdf3+0x69c>
  811978:	010007c4 	movi	r4,31
  81197c:	2080e716 	blt	r4,r2,811d1c <__subdf3+0x848>
  811980:	01000804 	movi	r4,32
  811984:	2089c83a 	sub	r4,r4,r2
  811988:	1914983a 	sll	r10,r3,r4
  81198c:	8890d83a 	srl	r8,r17,r2
  811990:	8908983a 	sll	r4,r17,r4
  811994:	1884d83a 	srl	r2,r3,r2
  811998:	5222b03a 	or	r17,r10,r8
  81199c:	2006c03a 	cmpne	r3,r4,zero
  8119a0:	88e2b03a 	or	r17,r17,r3
  8119a4:	3463c83a 	sub	r17,r6,r17
  8119a8:	2885c83a 	sub	r2,r5,r2
  8119ac:	344d803a 	cmpltu	r6,r6,r17
  8119b0:	1187c83a 	sub	r3,r2,r6
  8119b4:	4821883a 	mov	r16,r9
  8119b8:	3825883a 	mov	r18,r7
  8119bc:	003f2306 	br	81164c <__alt_mem_onchip_ram+0xff80d64c>
  8119c0:	24d0b03a 	or	r8,r4,r19
  8119c4:	40001b1e 	bne	r8,zero,811a34 <__subdf3+0x560>
  8119c8:	0005883a 	mov	r2,zero
  8119cc:	0009883a 	mov	r4,zero
  8119d0:	0021883a 	mov	r16,zero
  8119d4:	003f4906 	br	8116fc <__alt_mem_onchip_ram+0xff80d6fc>
  8119d8:	010007c4 	movi	r4,31
  8119dc:	20803a16 	blt	r4,r2,811ac8 <__subdf3+0x5f4>
  8119e0:	01000804 	movi	r4,32
  8119e4:	2089c83a 	sub	r4,r4,r2
  8119e8:	2912983a 	sll	r9,r5,r4
  8119ec:	3090d83a 	srl	r8,r6,r2
  8119f0:	3108983a 	sll	r4,r6,r4
  8119f4:	2884d83a 	srl	r2,r5,r2
  8119f8:	4a12b03a 	or	r9,r9,r8
  8119fc:	2008c03a 	cmpne	r4,r4,zero
  811a00:	4912b03a 	or	r9,r9,r4
  811a04:	003f4e06 	br	811740 <__alt_mem_onchip_ram+0xff80d740>
  811a08:	1c48b03a 	or	r4,r3,r17
  811a0c:	20003c26 	beq	r4,zero,811b00 <__subdf3+0x62c>
  811a10:	0084303a 	nor	r2,zero,r2
  811a14:	1000381e 	bne	r2,zero,811af8 <__subdf3+0x624>
  811a18:	3463c83a 	sub	r17,r6,r17
  811a1c:	28c5c83a 	sub	r2,r5,r3
  811a20:	344d803a 	cmpltu	r6,r6,r17
  811a24:	1187c83a 	sub	r3,r2,r6
  811a28:	4821883a 	mov	r16,r9
  811a2c:	3825883a 	mov	r18,r7
  811a30:	003f0606 	br	81164c <__alt_mem_onchip_ram+0xff80d64c>
  811a34:	2023883a 	mov	r17,r4
  811a38:	003f0906 	br	811660 <__alt_mem_onchip_ram+0xff80d660>
  811a3c:	0101ffc4 	movi	r4,2047
  811a40:	813f3a1e 	bne	r16,r4,81172c <__alt_mem_onchip_ram+0xff80d72c>
  811a44:	003ec406 	br	811558 <__alt_mem_onchip_ram+0xff80d558>
  811a48:	0005883a 	mov	r2,zero
  811a4c:	003fb106 	br	811914 <__alt_mem_onchip_ram+0xff80d914>
  811a50:	0005883a 	mov	r2,zero
  811a54:	003fbc06 	br	811948 <__alt_mem_onchip_ram+0xff80d948>
  811a58:	1c44b03a 	or	r2,r3,r17
  811a5c:	80008e1e 	bne	r16,zero,811c98 <__subdf3+0x7c4>
  811a60:	1000c826 	beq	r2,zero,811d84 <__subdf3+0x8b0>
  811a64:	2984b03a 	or	r2,r5,r6
  811a68:	103ebb26 	beq	r2,zero,811558 <__alt_mem_onchip_ram+0xff80d558>
  811a6c:	8989883a 	add	r4,r17,r6
  811a70:	1945883a 	add	r2,r3,r5
  811a74:	2447803a 	cmpltu	r3,r4,r17
  811a78:	1887883a 	add	r3,r3,r2
  811a7c:	1880202c 	andhi	r2,r3,128
  811a80:	2023883a 	mov	r17,r4
  811a84:	103f1626 	beq	r2,zero,8116e0 <__alt_mem_onchip_ram+0xff80d6e0>
  811a88:	00bfe034 	movhi	r2,65408
  811a8c:	10bfffc4 	addi	r2,r2,-1
  811a90:	5021883a 	mov	r16,r10
  811a94:	1886703a 	and	r3,r3,r2
  811a98:	003eaf06 	br	811558 <__alt_mem_onchip_ram+0xff80d558>
  811a9c:	3825883a 	mov	r18,r7
  811aa0:	003f0f06 	br	8116e0 <__alt_mem_onchip_ram+0xff80d6e0>
  811aa4:	1c44b03a 	or	r2,r3,r17
  811aa8:	8000251e 	bne	r16,zero,811b40 <__subdf3+0x66c>
  811aac:	1000661e 	bne	r2,zero,811c48 <__subdf3+0x774>
  811ab0:	2990b03a 	or	r8,r5,r6
  811ab4:	40009626 	beq	r8,zero,811d10 <__subdf3+0x83c>
  811ab8:	2807883a 	mov	r3,r5
  811abc:	3023883a 	mov	r17,r6
  811ac0:	3825883a 	mov	r18,r7
  811ac4:	003ea406 	br	811558 <__alt_mem_onchip_ram+0xff80d558>
  811ac8:	127ff804 	addi	r9,r2,-32
  811acc:	01000804 	movi	r4,32
  811ad0:	2a52d83a 	srl	r9,r5,r9
  811ad4:	11008c26 	beq	r2,r4,811d08 <__subdf3+0x834>
  811ad8:	01001004 	movi	r4,64
  811adc:	2085c83a 	sub	r2,r4,r2
  811ae0:	2884983a 	sll	r2,r5,r2
  811ae4:	118cb03a 	or	r6,r2,r6
  811ae8:	300cc03a 	cmpne	r6,r6,zero
  811aec:	4992b03a 	or	r9,r9,r6
  811af0:	0005883a 	mov	r2,zero
  811af4:	003f1206 	br	811740 <__alt_mem_onchip_ram+0xff80d740>
  811af8:	0101ffc4 	movi	r4,2047
  811afc:	493f9c1e 	bne	r9,r4,811970 <__alt_mem_onchip_ram+0xff80d970>
  811b00:	2807883a 	mov	r3,r5
  811b04:	3023883a 	mov	r17,r6
  811b08:	4821883a 	mov	r16,r9
  811b0c:	3825883a 	mov	r18,r7
  811b10:	003e9106 	br	811558 <__alt_mem_onchip_ram+0xff80d558>
  811b14:	80001f1e 	bne	r16,zero,811b94 <__subdf3+0x6c0>
  811b18:	1c48b03a 	or	r4,r3,r17
  811b1c:	20005a26 	beq	r4,zero,811c88 <__subdf3+0x7b4>
  811b20:	0084303a 	nor	r2,zero,r2
  811b24:	1000561e 	bne	r2,zero,811c80 <__subdf3+0x7ac>
  811b28:	89a3883a 	add	r17,r17,r6
  811b2c:	1945883a 	add	r2,r3,r5
  811b30:	898d803a 	cmpltu	r6,r17,r6
  811b34:	3087883a 	add	r3,r6,r2
  811b38:	4821883a 	mov	r16,r9
  811b3c:	003f0506 	br	811754 <__alt_mem_onchip_ram+0xff80d754>
  811b40:	10002b1e 	bne	r2,zero,811bf0 <__subdf3+0x71c>
  811b44:	2984b03a 	or	r2,r5,r6
  811b48:	10008026 	beq	r2,zero,811d4c <__subdf3+0x878>
  811b4c:	2807883a 	mov	r3,r5
  811b50:	3023883a 	mov	r17,r6
  811b54:	3825883a 	mov	r18,r7
  811b58:	0401ffc4 	movi	r16,2047
  811b5c:	003e7e06 	br	811558 <__alt_mem_onchip_ram+0xff80d558>
  811b60:	3809883a 	mov	r4,r7
  811b64:	0011883a 	mov	r8,zero
  811b68:	0005883a 	mov	r2,zero
  811b6c:	003ee306 	br	8116fc <__alt_mem_onchip_ram+0xff80d6fc>
  811b70:	1c62b03a 	or	r17,r3,r17
  811b74:	8822c03a 	cmpne	r17,r17,zero
  811b78:	0005883a 	mov	r2,zero
  811b7c:	003f8906 	br	8119a4 <__alt_mem_onchip_ram+0xff80d9a4>
  811b80:	3809883a 	mov	r4,r7
  811b84:	4821883a 	mov	r16,r9
  811b88:	0011883a 	mov	r8,zero
  811b8c:	0005883a 	mov	r2,zero
  811b90:	003eda06 	br	8116fc <__alt_mem_onchip_ram+0xff80d6fc>
  811b94:	0101ffc4 	movi	r4,2047
  811b98:	49003b26 	beq	r9,r4,811c88 <__subdf3+0x7b4>
  811b9c:	0085c83a 	sub	r2,zero,r2
  811ba0:	18c02034 	orhi	r3,r3,128
  811ba4:	01000e04 	movi	r4,56
  811ba8:	20806e16 	blt	r4,r2,811d64 <__subdf3+0x890>
  811bac:	010007c4 	movi	r4,31
  811bb0:	20807716 	blt	r4,r2,811d90 <__subdf3+0x8bc>
  811bb4:	01000804 	movi	r4,32
  811bb8:	2089c83a 	sub	r4,r4,r2
  811bbc:	1914983a 	sll	r10,r3,r4
  811bc0:	8890d83a 	srl	r8,r17,r2
  811bc4:	8908983a 	sll	r4,r17,r4
  811bc8:	1884d83a 	srl	r2,r3,r2
  811bcc:	5222b03a 	or	r17,r10,r8
  811bd0:	2006c03a 	cmpne	r3,r4,zero
  811bd4:	88e2b03a 	or	r17,r17,r3
  811bd8:	89a3883a 	add	r17,r17,r6
  811bdc:	1145883a 	add	r2,r2,r5
  811be0:	898d803a 	cmpltu	r6,r17,r6
  811be4:	3087883a 	add	r3,r6,r2
  811be8:	4821883a 	mov	r16,r9
  811bec:	003ed906 	br	811754 <__alt_mem_onchip_ram+0xff80d754>
  811bf0:	2984b03a 	or	r2,r5,r6
  811bf4:	10004226 	beq	r2,zero,811d00 <__subdf3+0x82c>
  811bf8:	1808d0fa 	srli	r4,r3,3
  811bfc:	8822d0fa 	srli	r17,r17,3
  811c00:	1806977a 	slli	r3,r3,29
  811c04:	2080022c 	andhi	r2,r4,8
  811c08:	1c62b03a 	or	r17,r3,r17
  811c0c:	10000826 	beq	r2,zero,811c30 <__subdf3+0x75c>
  811c10:	2812d0fa 	srli	r9,r5,3
  811c14:	4880022c 	andhi	r2,r9,8
  811c18:	1000051e 	bne	r2,zero,811c30 <__subdf3+0x75c>
  811c1c:	300cd0fa 	srli	r6,r6,3
  811c20:	2804977a 	slli	r2,r5,29
  811c24:	4809883a 	mov	r4,r9
  811c28:	3825883a 	mov	r18,r7
  811c2c:	11a2b03a 	or	r17,r2,r6
  811c30:	8806d77a 	srli	r3,r17,29
  811c34:	200890fa 	slli	r4,r4,3
  811c38:	882290fa 	slli	r17,r17,3
  811c3c:	0401ffc4 	movi	r16,2047
  811c40:	1906b03a 	or	r3,r3,r4
  811c44:	003e4406 	br	811558 <__alt_mem_onchip_ram+0xff80d558>
  811c48:	2984b03a 	or	r2,r5,r6
  811c4c:	103e4226 	beq	r2,zero,811558 <__alt_mem_onchip_ram+0xff80d558>
  811c50:	8989c83a 	sub	r4,r17,r6
  811c54:	8911803a 	cmpltu	r8,r17,r4
  811c58:	1945c83a 	sub	r2,r3,r5
  811c5c:	1205c83a 	sub	r2,r2,r8
  811c60:	1200202c 	andhi	r8,r2,128
  811c64:	403e9a26 	beq	r8,zero,8116d0 <__alt_mem_onchip_ram+0xff80d6d0>
  811c68:	3463c83a 	sub	r17,r6,r17
  811c6c:	28c5c83a 	sub	r2,r5,r3
  811c70:	344d803a 	cmpltu	r6,r6,r17
  811c74:	1187c83a 	sub	r3,r2,r6
  811c78:	3825883a 	mov	r18,r7
  811c7c:	003e3606 	br	811558 <__alt_mem_onchip_ram+0xff80d558>
  811c80:	0101ffc4 	movi	r4,2047
  811c84:	493fc71e 	bne	r9,r4,811ba4 <__alt_mem_onchip_ram+0xff80dba4>
  811c88:	2807883a 	mov	r3,r5
  811c8c:	3023883a 	mov	r17,r6
  811c90:	4821883a 	mov	r16,r9
  811c94:	003e3006 	br	811558 <__alt_mem_onchip_ram+0xff80d558>
  811c98:	10003626 	beq	r2,zero,811d74 <__subdf3+0x8a0>
  811c9c:	2984b03a 	or	r2,r5,r6
  811ca0:	10001726 	beq	r2,zero,811d00 <__subdf3+0x82c>
  811ca4:	1808d0fa 	srli	r4,r3,3
  811ca8:	8822d0fa 	srli	r17,r17,3
  811cac:	1806977a 	slli	r3,r3,29
  811cb0:	2080022c 	andhi	r2,r4,8
  811cb4:	1c62b03a 	or	r17,r3,r17
  811cb8:	10000726 	beq	r2,zero,811cd8 <__subdf3+0x804>
  811cbc:	2812d0fa 	srli	r9,r5,3
  811cc0:	4880022c 	andhi	r2,r9,8
  811cc4:	1000041e 	bne	r2,zero,811cd8 <__subdf3+0x804>
  811cc8:	300cd0fa 	srli	r6,r6,3
  811ccc:	2804977a 	slli	r2,r5,29
  811cd0:	4809883a 	mov	r4,r9
  811cd4:	11a2b03a 	or	r17,r2,r6
  811cd8:	8806d77a 	srli	r3,r17,29
  811cdc:	200890fa 	slli	r4,r4,3
  811ce0:	882290fa 	slli	r17,r17,3
  811ce4:	3825883a 	mov	r18,r7
  811ce8:	1906b03a 	or	r3,r3,r4
  811cec:	0401ffc4 	movi	r16,2047
  811cf0:	003e1906 	br	811558 <__alt_mem_onchip_ram+0xff80d558>
  811cf4:	000b883a 	mov	r5,zero
  811cf8:	0005883a 	mov	r2,zero
  811cfc:	003e2e06 	br	8115b8 <__alt_mem_onchip_ram+0xff80d5b8>
  811d00:	0401ffc4 	movi	r16,2047
  811d04:	003e1406 	br	811558 <__alt_mem_onchip_ram+0xff80d558>
  811d08:	0005883a 	mov	r2,zero
  811d0c:	003f7506 	br	811ae4 <__alt_mem_onchip_ram+0xff80dae4>
  811d10:	0005883a 	mov	r2,zero
  811d14:	0009883a 	mov	r4,zero
  811d18:	003e7806 	br	8116fc <__alt_mem_onchip_ram+0xff80d6fc>
  811d1c:	123ff804 	addi	r8,r2,-32
  811d20:	01000804 	movi	r4,32
  811d24:	1a10d83a 	srl	r8,r3,r8
  811d28:	11002526 	beq	r2,r4,811dc0 <__subdf3+0x8ec>
  811d2c:	01001004 	movi	r4,64
  811d30:	2085c83a 	sub	r2,r4,r2
  811d34:	1884983a 	sll	r2,r3,r2
  811d38:	1444b03a 	or	r2,r2,r17
  811d3c:	1004c03a 	cmpne	r2,r2,zero
  811d40:	40a2b03a 	or	r17,r8,r2
  811d44:	0005883a 	mov	r2,zero
  811d48:	003f1606 	br	8119a4 <__alt_mem_onchip_ram+0xff80d9a4>
  811d4c:	02000434 	movhi	r8,16
  811d50:	0009883a 	mov	r4,zero
  811d54:	423fffc4 	addi	r8,r8,-1
  811d58:	00bfffc4 	movi	r2,-1
  811d5c:	0401ffc4 	movi	r16,2047
  811d60:	003e6606 	br	8116fc <__alt_mem_onchip_ram+0xff80d6fc>
  811d64:	1c62b03a 	or	r17,r3,r17
  811d68:	8822c03a 	cmpne	r17,r17,zero
  811d6c:	0005883a 	mov	r2,zero
  811d70:	003f9906 	br	811bd8 <__alt_mem_onchip_ram+0xff80dbd8>
  811d74:	2807883a 	mov	r3,r5
  811d78:	3023883a 	mov	r17,r6
  811d7c:	0401ffc4 	movi	r16,2047
  811d80:	003df506 	br	811558 <__alt_mem_onchip_ram+0xff80d558>
  811d84:	2807883a 	mov	r3,r5
  811d88:	3023883a 	mov	r17,r6
  811d8c:	003df206 	br	811558 <__alt_mem_onchip_ram+0xff80d558>
  811d90:	123ff804 	addi	r8,r2,-32
  811d94:	01000804 	movi	r4,32
  811d98:	1a10d83a 	srl	r8,r3,r8
  811d9c:	11000a26 	beq	r2,r4,811dc8 <__subdf3+0x8f4>
  811da0:	01001004 	movi	r4,64
  811da4:	2085c83a 	sub	r2,r4,r2
  811da8:	1884983a 	sll	r2,r3,r2
  811dac:	1444b03a 	or	r2,r2,r17
  811db0:	1004c03a 	cmpne	r2,r2,zero
  811db4:	40a2b03a 	or	r17,r8,r2
  811db8:	0005883a 	mov	r2,zero
  811dbc:	003f8606 	br	811bd8 <__alt_mem_onchip_ram+0xff80dbd8>
  811dc0:	0005883a 	mov	r2,zero
  811dc4:	003fdc06 	br	811d38 <__alt_mem_onchip_ram+0xff80dd38>
  811dc8:	0005883a 	mov	r2,zero
  811dcc:	003ff706 	br	811dac <__alt_mem_onchip_ram+0xff80ddac>

00811dd0 <__fixdfsi>:
  811dd0:	280cd53a 	srli	r6,r5,20
  811dd4:	00c00434 	movhi	r3,16
  811dd8:	18ffffc4 	addi	r3,r3,-1
  811ddc:	3181ffcc 	andi	r6,r6,2047
  811de0:	01c0ff84 	movi	r7,1022
  811de4:	28c6703a 	and	r3,r5,r3
  811de8:	280ad7fa 	srli	r5,r5,31
  811dec:	3980120e 	bge	r7,r6,811e38 <__fixdfsi+0x68>
  811df0:	00810744 	movi	r2,1053
  811df4:	11800c16 	blt	r2,r6,811e28 <__fixdfsi+0x58>
  811df8:	00810cc4 	movi	r2,1075
  811dfc:	1185c83a 	sub	r2,r2,r6
  811e00:	01c007c4 	movi	r7,31
  811e04:	18c00434 	orhi	r3,r3,16
  811e08:	38800d16 	blt	r7,r2,811e40 <__fixdfsi+0x70>
  811e0c:	31befb44 	addi	r6,r6,-1043
  811e10:	2084d83a 	srl	r2,r4,r2
  811e14:	1986983a 	sll	r3,r3,r6
  811e18:	1884b03a 	or	r2,r3,r2
  811e1c:	28000726 	beq	r5,zero,811e3c <__fixdfsi+0x6c>
  811e20:	0085c83a 	sub	r2,zero,r2
  811e24:	f800283a 	ret
  811e28:	00a00034 	movhi	r2,32768
  811e2c:	10bfffc4 	addi	r2,r2,-1
  811e30:	2885883a 	add	r2,r5,r2
  811e34:	f800283a 	ret
  811e38:	0005883a 	mov	r2,zero
  811e3c:	f800283a 	ret
  811e40:	008104c4 	movi	r2,1043
  811e44:	1185c83a 	sub	r2,r2,r6
  811e48:	1884d83a 	srl	r2,r3,r2
  811e4c:	003ff306 	br	811e1c <__alt_mem_onchip_ram+0xff80de1c>

00811e50 <__floatsidf>:
  811e50:	defffd04 	addi	sp,sp,-12
  811e54:	dfc00215 	stw	ra,8(sp)
  811e58:	dc400115 	stw	r17,4(sp)
  811e5c:	dc000015 	stw	r16,0(sp)
  811e60:	20002b26 	beq	r4,zero,811f10 <__floatsidf+0xc0>
  811e64:	2023883a 	mov	r17,r4
  811e68:	2020d7fa 	srli	r16,r4,31
  811e6c:	20002d16 	blt	r4,zero,811f24 <__floatsidf+0xd4>
  811e70:	8809883a 	mov	r4,r17
  811e74:	081217c0 	call	81217c <__clzsi2>
  811e78:	01410784 	movi	r5,1054
  811e7c:	288bc83a 	sub	r5,r5,r2
  811e80:	01010cc4 	movi	r4,1075
  811e84:	2149c83a 	sub	r4,r4,r5
  811e88:	00c007c4 	movi	r3,31
  811e8c:	1900160e 	bge	r3,r4,811ee8 <__floatsidf+0x98>
  811e90:	00c104c4 	movi	r3,1043
  811e94:	1947c83a 	sub	r3,r3,r5
  811e98:	88c6983a 	sll	r3,r17,r3
  811e9c:	00800434 	movhi	r2,16
  811ea0:	10bfffc4 	addi	r2,r2,-1
  811ea4:	1886703a 	and	r3,r3,r2
  811ea8:	2941ffcc 	andi	r5,r5,2047
  811eac:	800d883a 	mov	r6,r16
  811eb0:	0005883a 	mov	r2,zero
  811eb4:	280a953a 	slli	r5,r5,20
  811eb8:	31803fcc 	andi	r6,r6,255
  811ebc:	01000434 	movhi	r4,16
  811ec0:	300c97fa 	slli	r6,r6,31
  811ec4:	213fffc4 	addi	r4,r4,-1
  811ec8:	1906703a 	and	r3,r3,r4
  811ecc:	1946b03a 	or	r3,r3,r5
  811ed0:	1986b03a 	or	r3,r3,r6
  811ed4:	dfc00217 	ldw	ra,8(sp)
  811ed8:	dc400117 	ldw	r17,4(sp)
  811edc:	dc000017 	ldw	r16,0(sp)
  811ee0:	dec00304 	addi	sp,sp,12
  811ee4:	f800283a 	ret
  811ee8:	00c002c4 	movi	r3,11
  811eec:	1887c83a 	sub	r3,r3,r2
  811ef0:	88c6d83a 	srl	r3,r17,r3
  811ef4:	8904983a 	sll	r2,r17,r4
  811ef8:	01000434 	movhi	r4,16
  811efc:	213fffc4 	addi	r4,r4,-1
  811f00:	2941ffcc 	andi	r5,r5,2047
  811f04:	1906703a 	and	r3,r3,r4
  811f08:	800d883a 	mov	r6,r16
  811f0c:	003fe906 	br	811eb4 <__alt_mem_onchip_ram+0xff80deb4>
  811f10:	000d883a 	mov	r6,zero
  811f14:	000b883a 	mov	r5,zero
  811f18:	0007883a 	mov	r3,zero
  811f1c:	0005883a 	mov	r2,zero
  811f20:	003fe406 	br	811eb4 <__alt_mem_onchip_ram+0xff80deb4>
  811f24:	0123c83a 	sub	r17,zero,r4
  811f28:	003fd106 	br	811e70 <__alt_mem_onchip_ram+0xff80de70>

00811f2c <__floatunsidf>:
  811f2c:	defffe04 	addi	sp,sp,-8
  811f30:	dc000015 	stw	r16,0(sp)
  811f34:	dfc00115 	stw	ra,4(sp)
  811f38:	2021883a 	mov	r16,r4
  811f3c:	20002226 	beq	r4,zero,811fc8 <__floatunsidf+0x9c>
  811f40:	081217c0 	call	81217c <__clzsi2>
  811f44:	01010784 	movi	r4,1054
  811f48:	2089c83a 	sub	r4,r4,r2
  811f4c:	01810cc4 	movi	r6,1075
  811f50:	310dc83a 	sub	r6,r6,r4
  811f54:	00c007c4 	movi	r3,31
  811f58:	1980120e 	bge	r3,r6,811fa4 <__floatunsidf+0x78>
  811f5c:	00c104c4 	movi	r3,1043
  811f60:	1907c83a 	sub	r3,r3,r4
  811f64:	80ca983a 	sll	r5,r16,r3
  811f68:	00800434 	movhi	r2,16
  811f6c:	10bfffc4 	addi	r2,r2,-1
  811f70:	2101ffcc 	andi	r4,r4,2047
  811f74:	0021883a 	mov	r16,zero
  811f78:	288a703a 	and	r5,r5,r2
  811f7c:	2008953a 	slli	r4,r4,20
  811f80:	00c00434 	movhi	r3,16
  811f84:	18ffffc4 	addi	r3,r3,-1
  811f88:	28c6703a 	and	r3,r5,r3
  811f8c:	8005883a 	mov	r2,r16
  811f90:	1906b03a 	or	r3,r3,r4
  811f94:	dfc00117 	ldw	ra,4(sp)
  811f98:	dc000017 	ldw	r16,0(sp)
  811f9c:	dec00204 	addi	sp,sp,8
  811fa0:	f800283a 	ret
  811fa4:	00c002c4 	movi	r3,11
  811fa8:	188bc83a 	sub	r5,r3,r2
  811fac:	814ad83a 	srl	r5,r16,r5
  811fb0:	00c00434 	movhi	r3,16
  811fb4:	18ffffc4 	addi	r3,r3,-1
  811fb8:	81a0983a 	sll	r16,r16,r6
  811fbc:	2101ffcc 	andi	r4,r4,2047
  811fc0:	28ca703a 	and	r5,r5,r3
  811fc4:	003fed06 	br	811f7c <__alt_mem_onchip_ram+0xff80df7c>
  811fc8:	0009883a 	mov	r4,zero
  811fcc:	000b883a 	mov	r5,zero
  811fd0:	003fea06 	br	811f7c <__alt_mem_onchip_ram+0xff80df7c>

00811fd4 <__truncdfsf2>:
  811fd4:	2810d53a 	srli	r8,r5,20
  811fd8:	01c00434 	movhi	r7,16
  811fdc:	39ffffc4 	addi	r7,r7,-1
  811fe0:	29ce703a 	and	r7,r5,r7
  811fe4:	4201ffcc 	andi	r8,r8,2047
  811fe8:	380e90fa 	slli	r7,r7,3
  811fec:	200cd77a 	srli	r6,r4,29
  811ff0:	42400044 	addi	r9,r8,1
  811ff4:	4a41ffcc 	andi	r9,r9,2047
  811ff8:	00c00044 	movi	r3,1
  811ffc:	280ad7fa 	srli	r5,r5,31
  812000:	31ceb03a 	or	r7,r6,r7
  812004:	200490fa 	slli	r2,r4,3
  812008:	1a40230e 	bge	r3,r9,812098 <__truncdfsf2+0xc4>
  81200c:	40ff2004 	addi	r3,r8,-896
  812010:	01803f84 	movi	r6,254
  812014:	30c01516 	blt	r6,r3,81206c <__truncdfsf2+0x98>
  812018:	00c0380e 	bge	zero,r3,8120fc <__truncdfsf2+0x128>
  81201c:	200c91ba 	slli	r6,r4,6
  812020:	380e90fa 	slli	r7,r7,3
  812024:	1004d77a 	srli	r2,r2,29
  812028:	300cc03a 	cmpne	r6,r6,zero
  81202c:	31ccb03a 	or	r6,r6,r7
  812030:	308cb03a 	or	r6,r6,r2
  812034:	308001cc 	andi	r2,r6,7
  812038:	10000426 	beq	r2,zero,81204c <__truncdfsf2+0x78>
  81203c:	308003cc 	andi	r2,r6,15
  812040:	01000104 	movi	r4,4
  812044:	11000126 	beq	r2,r4,81204c <__truncdfsf2+0x78>
  812048:	31800104 	addi	r6,r6,4
  81204c:	3081002c 	andhi	r2,r6,1024
  812050:	10001626 	beq	r2,zero,8120ac <__truncdfsf2+0xd8>
  812054:	18c00044 	addi	r3,r3,1
  812058:	00803fc4 	movi	r2,255
  81205c:	18800326 	beq	r3,r2,81206c <__truncdfsf2+0x98>
  812060:	300c91ba 	slli	r6,r6,6
  812064:	300cd27a 	srli	r6,r6,9
  812068:	00000206 	br	812074 <__truncdfsf2+0xa0>
  81206c:	00ffffc4 	movi	r3,-1
  812070:	000d883a 	mov	r6,zero
  812074:	18c03fcc 	andi	r3,r3,255
  812078:	180895fa 	slli	r4,r3,23
  81207c:	00c02034 	movhi	r3,128
  812080:	280a97fa 	slli	r5,r5,31
  812084:	18ffffc4 	addi	r3,r3,-1
  812088:	30c6703a 	and	r3,r6,r3
  81208c:	1906b03a 	or	r3,r3,r4
  812090:	1944b03a 	or	r2,r3,r5
  812094:	f800283a 	ret
  812098:	40000b1e 	bne	r8,zero,8120c8 <__truncdfsf2+0xf4>
  81209c:	388cb03a 	or	r6,r7,r2
  8120a0:	0007883a 	mov	r3,zero
  8120a4:	30000426 	beq	r6,zero,8120b8 <__truncdfsf2+0xe4>
  8120a8:	01800144 	movi	r6,5
  8120ac:	00803fc4 	movi	r2,255
  8120b0:	300cd0fa 	srli	r6,r6,3
  8120b4:	18800a26 	beq	r3,r2,8120e0 <__truncdfsf2+0x10c>
  8120b8:	00802034 	movhi	r2,128
  8120bc:	10bfffc4 	addi	r2,r2,-1
  8120c0:	308c703a 	and	r6,r6,r2
  8120c4:	003feb06 	br	812074 <__alt_mem_onchip_ram+0xff80e074>
  8120c8:	3888b03a 	or	r4,r7,r2
  8120cc:	203fe726 	beq	r4,zero,81206c <__alt_mem_onchip_ram+0xff80e06c>
  8120d0:	380c90fa 	slli	r6,r7,3
  8120d4:	00c03fc4 	movi	r3,255
  8120d8:	31808034 	orhi	r6,r6,512
  8120dc:	003fd506 	br	812034 <__alt_mem_onchip_ram+0xff80e034>
  8120e0:	303fe226 	beq	r6,zero,81206c <__alt_mem_onchip_ram+0xff80e06c>
  8120e4:	00802034 	movhi	r2,128
  8120e8:	31801034 	orhi	r6,r6,64
  8120ec:	10bfffc4 	addi	r2,r2,-1
  8120f0:	00ffffc4 	movi	r3,-1
  8120f4:	308c703a 	and	r6,r6,r2
  8120f8:	003fde06 	br	812074 <__alt_mem_onchip_ram+0xff80e074>
  8120fc:	013ffa44 	movi	r4,-23
  812100:	19000e16 	blt	r3,r4,81213c <__truncdfsf2+0x168>
  812104:	01000784 	movi	r4,30
  812108:	20c9c83a 	sub	r4,r4,r3
  81210c:	018007c4 	movi	r6,31
  812110:	39c02034 	orhi	r7,r7,128
  812114:	31000b16 	blt	r6,r4,812144 <__truncdfsf2+0x170>
  812118:	423f2084 	addi	r8,r8,-894
  81211c:	120c983a 	sll	r6,r2,r8
  812120:	3a0e983a 	sll	r7,r7,r8
  812124:	1104d83a 	srl	r2,r2,r4
  812128:	300cc03a 	cmpne	r6,r6,zero
  81212c:	31ceb03a 	or	r7,r6,r7
  812130:	388cb03a 	or	r6,r7,r2
  812134:	0007883a 	mov	r3,zero
  812138:	003fbe06 	br	812034 <__alt_mem_onchip_ram+0xff80e034>
  81213c:	0007883a 	mov	r3,zero
  812140:	003fd906 	br	8120a8 <__alt_mem_onchip_ram+0xff80e0a8>
  812144:	01bfff84 	movi	r6,-2
  812148:	30cdc83a 	sub	r6,r6,r3
  81214c:	00c00804 	movi	r3,32
  812150:	398cd83a 	srl	r6,r7,r6
  812154:	20c00726 	beq	r4,r3,812174 <__truncdfsf2+0x1a0>
  812158:	423f2884 	addi	r8,r8,-862
  81215c:	3a0e983a 	sll	r7,r7,r8
  812160:	3884b03a 	or	r2,r7,r2
  812164:	1004c03a 	cmpne	r2,r2,zero
  812168:	118cb03a 	or	r6,r2,r6
  81216c:	0007883a 	mov	r3,zero
  812170:	003fb006 	br	812034 <__alt_mem_onchip_ram+0xff80e034>
  812174:	000f883a 	mov	r7,zero
  812178:	003ff906 	br	812160 <__alt_mem_onchip_ram+0xff80e160>

0081217c <__clzsi2>:
  81217c:	00bfffd4 	movui	r2,65535
  812180:	11000536 	bltu	r2,r4,812198 <__clzsi2+0x1c>
  812184:	00803fc4 	movi	r2,255
  812188:	11000f36 	bltu	r2,r4,8121c8 <__clzsi2+0x4c>
  81218c:	00800804 	movi	r2,32
  812190:	0007883a 	mov	r3,zero
  812194:	00000506 	br	8121ac <__clzsi2+0x30>
  812198:	00804034 	movhi	r2,256
  81219c:	10bfffc4 	addi	r2,r2,-1
  8121a0:	11000c2e 	bgeu	r2,r4,8121d4 <__clzsi2+0x58>
  8121a4:	00800204 	movi	r2,8
  8121a8:	00c00604 	movi	r3,24
  8121ac:	20c8d83a 	srl	r4,r4,r3
  8121b0:	00c02074 	movhi	r3,129
  8121b4:	18d3dc04 	addi	r3,r3,20336
  8121b8:	1909883a 	add	r4,r3,r4
  8121bc:	20c00003 	ldbu	r3,0(r4)
  8121c0:	10c5c83a 	sub	r2,r2,r3
  8121c4:	f800283a 	ret
  8121c8:	00800604 	movi	r2,24
  8121cc:	00c00204 	movi	r3,8
  8121d0:	003ff606 	br	8121ac <__alt_mem_onchip_ram+0xff80e1ac>
  8121d4:	00800404 	movi	r2,16
  8121d8:	1007883a 	mov	r3,r2
  8121dc:	003ff306 	br	8121ac <__alt_mem_onchip_ram+0xff80e1ac>

008121e0 <alt_get_errno>:
#undef errno

extern int errno;

static ALT_INLINE int* alt_get_errno(void)
{
  8121e0:	defffe04 	addi	sp,sp,-8
  8121e4:	dfc00115 	stw	ra,4(sp)
  8121e8:	df000015 	stw	fp,0(sp)
  8121ec:	d839883a 	mov	fp,sp
  return ((alt_errno) ? alt_errno() : &errno);
  8121f0:	00802074 	movhi	r2,129
  8121f4:	109ade04 	addi	r2,r2,27512
  8121f8:	10800017 	ldw	r2,0(r2)
  8121fc:	10000526 	beq	r2,zero,812214 <alt_get_errno+0x34>
  812200:	00802074 	movhi	r2,129
  812204:	109ade04 	addi	r2,r2,27512
  812208:	10800017 	ldw	r2,0(r2)
  81220c:	103ee83a 	callr	r2
  812210:	00000206 	br	81221c <alt_get_errno+0x3c>
  812214:	008020b4 	movhi	r2,130
  812218:	10a1a504 	addi	r2,r2,-31084
}
  81221c:	e037883a 	mov	sp,fp
  812220:	dfc00117 	ldw	ra,4(sp)
  812224:	df000017 	ldw	fp,0(sp)
  812228:	dec00204 	addi	sp,sp,8
  81222c:	f800283a 	ret

00812230 <close>:
 *
 * ALT_CLOSE is mapped onto the close() system call in alt_syscall.h
 */
 
int ALT_CLOSE (int fildes)
{
  812230:	defffb04 	addi	sp,sp,-20
  812234:	dfc00415 	stw	ra,16(sp)
  812238:	df000315 	stw	fp,12(sp)
  81223c:	df000304 	addi	fp,sp,12
  812240:	e13fff15 	stw	r4,-4(fp)
   * A common error case is that when the file descriptor was created, the call
   * to open() failed resulting in a negative file descriptor. This is trapped
   * below so that we don't try and process an invalid file descriptor.
   */

  fd = (fildes < 0) ? NULL : &alt_fd_list[fildes];
  812244:	e0bfff17 	ldw	r2,-4(fp)
  812248:	10000816 	blt	r2,zero,81226c <close+0x3c>
  81224c:	01400304 	movi	r5,12
  812250:	e13fff17 	ldw	r4,-4(fp)
  812254:	080f5740 	call	80f574 <__mulsi3>
  812258:	1007883a 	mov	r3,r2
  81225c:	00802074 	movhi	r2,129
  812260:	10965a04 	addi	r2,r2,22888
  812264:	1885883a 	add	r2,r3,r2
  812268:	00000106 	br	812270 <close+0x40>
  81226c:	0005883a 	mov	r2,zero
  812270:	e0bffd15 	stw	r2,-12(fp)

  if (fd)
  812274:	e0bffd17 	ldw	r2,-12(fp)
  812278:	10001926 	beq	r2,zero,8122e0 <close+0xb0>
    /*
     * If the associated file system/device has a close function, call it so 
     * that any necessary cleanup code can run.
     */

    rval = (fd->dev->close) ? fd->dev->close(fd) : 0;
  81227c:	e0bffd17 	ldw	r2,-12(fp)
  812280:	10800017 	ldw	r2,0(r2)
  812284:	10800417 	ldw	r2,16(r2)
  812288:	10000626 	beq	r2,zero,8122a4 <close+0x74>
  81228c:	e0bffd17 	ldw	r2,-12(fp)
  812290:	10800017 	ldw	r2,0(r2)
  812294:	10800417 	ldw	r2,16(r2)
  812298:	e13ffd17 	ldw	r4,-12(fp)
  81229c:	103ee83a 	callr	r2
  8122a0:	00000106 	br	8122a8 <close+0x78>
  8122a4:	0005883a 	mov	r2,zero
  8122a8:	e0bffe15 	stw	r2,-8(fp)

    /* Free the file descriptor structure and return. */

    alt_release_fd (fildes);
  8122ac:	e13fff17 	ldw	r4,-4(fp)
  8122b0:	08129680 	call	812968 <alt_release_fd>
    if (rval < 0)
  8122b4:	e0bffe17 	ldw	r2,-8(fp)
  8122b8:	1000070e 	bge	r2,zero,8122d8 <close+0xa8>
    {
      ALT_ERRNO = -rval;
  8122bc:	08121e00 	call	8121e0 <alt_get_errno>
  8122c0:	1007883a 	mov	r3,r2
  8122c4:	e0bffe17 	ldw	r2,-8(fp)
  8122c8:	0085c83a 	sub	r2,zero,r2
  8122cc:	18800015 	stw	r2,0(r3)
      return -1;
  8122d0:	00bfffc4 	movi	r2,-1
  8122d4:	00000706 	br	8122f4 <close+0xc4>
    }
    return 0;
  8122d8:	0005883a 	mov	r2,zero
  8122dc:	00000506 	br	8122f4 <close+0xc4>
  }
  else
  {
    ALT_ERRNO = EBADFD;
  8122e0:	08121e00 	call	8121e0 <alt_get_errno>
  8122e4:	1007883a 	mov	r3,r2
  8122e8:	00801444 	movi	r2,81
  8122ec:	18800015 	stw	r2,0(r3)
    return -1;
  8122f0:	00bfffc4 	movi	r2,-1
  }
}
  8122f4:	e037883a 	mov	sp,fp
  8122f8:	dfc00117 	ldw	ra,4(sp)
  8122fc:	df000017 	ldw	fp,0(sp)
  812300:	dec00204 	addi	sp,sp,8
  812304:	f800283a 	ret

00812308 <alt_dev_null_write>:
 * by the alt_dev_null device. It simple discards all data passed to it, and
 * indicates that the data has been successfully transmitted.
 */

static int alt_dev_null_write (alt_fd* fd, const char* ptr, int len)
{
  812308:	defffc04 	addi	sp,sp,-16
  81230c:	df000315 	stw	fp,12(sp)
  812310:	df000304 	addi	fp,sp,12
  812314:	e13ffd15 	stw	r4,-12(fp)
  812318:	e17ffe15 	stw	r5,-8(fp)
  81231c:	e1bfff15 	stw	r6,-4(fp)
  return len;
  812320:	e0bfff17 	ldw	r2,-4(fp)
}
  812324:	e037883a 	mov	sp,fp
  812328:	df000017 	ldw	fp,0(sp)
  81232c:	dec00104 	addi	sp,sp,4
  812330:	f800283a 	ret

00812334 <alt_get_errno>:
#undef errno

extern int errno;

static ALT_INLINE int* alt_get_errno(void)
{
  812334:	defffe04 	addi	sp,sp,-8
  812338:	dfc00115 	stw	ra,4(sp)
  81233c:	df000015 	stw	fp,0(sp)
  812340:	d839883a 	mov	fp,sp
  return ((alt_errno) ? alt_errno() : &errno);
  812344:	00802074 	movhi	r2,129
  812348:	109ade04 	addi	r2,r2,27512
  81234c:	10800017 	ldw	r2,0(r2)
  812350:	10000526 	beq	r2,zero,812368 <alt_get_errno+0x34>
  812354:	00802074 	movhi	r2,129
  812358:	109ade04 	addi	r2,r2,27512
  81235c:	10800017 	ldw	r2,0(r2)
  812360:	103ee83a 	callr	r2
  812364:	00000206 	br	812370 <alt_get_errno+0x3c>
  812368:	008020b4 	movhi	r2,130
  81236c:	10a1a504 	addi	r2,r2,-31084
}
  812370:	e037883a 	mov	sp,fp
  812374:	dfc00117 	ldw	ra,4(sp)
  812378:	df000017 	ldw	fp,0(sp)
  81237c:	dec00204 	addi	sp,sp,8
  812380:	f800283a 	ret

00812384 <fstat>:
}

#else /* !ALT_USE_DIRECT_DRIVERS */

int ALT_FSTAT (int file, struct stat *st)
{
  812384:	defffb04 	addi	sp,sp,-20
  812388:	dfc00415 	stw	ra,16(sp)
  81238c:	df000315 	stw	fp,12(sp)
  812390:	df000304 	addi	fp,sp,12
  812394:	e13ffe15 	stw	r4,-8(fp)
  812398:	e17fff15 	stw	r5,-4(fp)
   * A common error case is that when the file descriptor was created, the call
   * to open() failed resulting in a negative file descriptor. This is trapped
   * below so that we don't try and process an invalid file descriptor.
   */

  fd = (file < 0) ? NULL : &alt_fd_list[file];
  81239c:	e0bffe17 	ldw	r2,-8(fp)
  8123a0:	10000816 	blt	r2,zero,8123c4 <fstat+0x40>
  8123a4:	01400304 	movi	r5,12
  8123a8:	e13ffe17 	ldw	r4,-8(fp)
  8123ac:	080f5740 	call	80f574 <__mulsi3>
  8123b0:	1007883a 	mov	r3,r2
  8123b4:	00802074 	movhi	r2,129
  8123b8:	10965a04 	addi	r2,r2,22888
  8123bc:	1885883a 	add	r2,r3,r2
  8123c0:	00000106 	br	8123c8 <fstat+0x44>
  8123c4:	0005883a 	mov	r2,zero
  8123c8:	e0bffd15 	stw	r2,-12(fp)
  
  if (fd)
  8123cc:	e0bffd17 	ldw	r2,-12(fp)
  8123d0:	10001026 	beq	r2,zero,812414 <fstat+0x90>
  {
    /* Call the drivers fstat() function to fill out the "st" structure. */

    if (fd->dev->fstat)
  8123d4:	e0bffd17 	ldw	r2,-12(fp)
  8123d8:	10800017 	ldw	r2,0(r2)
  8123dc:	10800817 	ldw	r2,32(r2)
  8123e0:	10000726 	beq	r2,zero,812400 <fstat+0x7c>
    {
      return fd->dev->fstat(fd, st);
  8123e4:	e0bffd17 	ldw	r2,-12(fp)
  8123e8:	10800017 	ldw	r2,0(r2)
  8123ec:	10800817 	ldw	r2,32(r2)
  8123f0:	e17fff17 	ldw	r5,-4(fp)
  8123f4:	e13ffd17 	ldw	r4,-12(fp)
  8123f8:	103ee83a 	callr	r2
  8123fc:	00000a06 	br	812428 <fstat+0xa4>
     * device.
     */
 
    else
    {
      st->st_mode = _IFCHR;
  812400:	e0bfff17 	ldw	r2,-4(fp)
  812404:	00c80004 	movi	r3,8192
  812408:	10c00115 	stw	r3,4(r2)
      return 0;
  81240c:	0005883a 	mov	r2,zero
  812410:	00000506 	br	812428 <fstat+0xa4>
    }
  }
  else
  {
    ALT_ERRNO = EBADFD;
  812414:	08123340 	call	812334 <alt_get_errno>
  812418:	1007883a 	mov	r3,r2
  81241c:	00801444 	movi	r2,81
  812420:	18800015 	stw	r2,0(r3)
    return -1;
  812424:	00bfffc4 	movi	r2,-1
  }
}
  812428:	e037883a 	mov	sp,fp
  81242c:	dfc00117 	ldw	ra,4(sp)
  812430:	df000017 	ldw	fp,0(sp)
  812434:	dec00204 	addi	sp,sp,8
  812438:	f800283a 	ret

0081243c <alt_get_errno>:
#undef errno

extern int errno;

static ALT_INLINE int* alt_get_errno(void)
{
  81243c:	defffe04 	addi	sp,sp,-8
  812440:	dfc00115 	stw	ra,4(sp)
  812444:	df000015 	stw	fp,0(sp)
  812448:	d839883a 	mov	fp,sp
  return ((alt_errno) ? alt_errno() : &errno);
  81244c:	00802074 	movhi	r2,129
  812450:	109ade04 	addi	r2,r2,27512
  812454:	10800017 	ldw	r2,0(r2)
  812458:	10000526 	beq	r2,zero,812470 <alt_get_errno+0x34>
  81245c:	00802074 	movhi	r2,129
  812460:	109ade04 	addi	r2,r2,27512
  812464:	10800017 	ldw	r2,0(r2)
  812468:	103ee83a 	callr	r2
  81246c:	00000206 	br	812478 <alt_get_errno+0x3c>
  812470:	008020b4 	movhi	r2,130
  812474:	10a1a504 	addi	r2,r2,-31084
}
  812478:	e037883a 	mov	sp,fp
  81247c:	dfc00117 	ldw	ra,4(sp)
  812480:	df000017 	ldw	fp,0(sp)
  812484:	dec00204 	addi	sp,sp,8
  812488:	f800283a 	ret

0081248c <isatty>:
 *
 * ALT_ISATTY is mapped onto the isatty() system call in alt_syscall.h
 */
 
int ALT_ISATTY (int file)
{
  81248c:	deffed04 	addi	sp,sp,-76
  812490:	dfc01215 	stw	ra,72(sp)
  812494:	df001115 	stw	fp,68(sp)
  812498:	df001104 	addi	fp,sp,68
  81249c:	e13fff15 	stw	r4,-4(fp)
   * A common error case is that when the file descriptor was created, the call
   * to open() failed resulting in a negative file descriptor. This is trapped
   * below so that we don't try and process an invalid file descriptor.
   */

  fd = (file < 0) ? NULL : &alt_fd_list[file];
  8124a0:	e0bfff17 	ldw	r2,-4(fp)
  8124a4:	10000816 	blt	r2,zero,8124c8 <isatty+0x3c>
  8124a8:	01400304 	movi	r5,12
  8124ac:	e13fff17 	ldw	r4,-4(fp)
  8124b0:	080f5740 	call	80f574 <__mulsi3>
  8124b4:	1007883a 	mov	r3,r2
  8124b8:	00802074 	movhi	r2,129
  8124bc:	10965a04 	addi	r2,r2,22888
  8124c0:	1885883a 	add	r2,r3,r2
  8124c4:	00000106 	br	8124cc <isatty+0x40>
  8124c8:	0005883a 	mov	r2,zero
  8124cc:	e0bfef15 	stw	r2,-68(fp)
  
  if (fd)
  8124d0:	e0bfef17 	ldw	r2,-68(fp)
  8124d4:	10000e26 	beq	r2,zero,812510 <isatty+0x84>
    /*
     * If a device driver does not provide an fstat() function, then it is 
     * treated as a terminal device by default.
     */

    if (!fd->dev->fstat)
  8124d8:	e0bfef17 	ldw	r2,-68(fp)
  8124dc:	10800017 	ldw	r2,0(r2)
  8124e0:	10800817 	ldw	r2,32(r2)
  8124e4:	1000021e 	bne	r2,zero,8124f0 <isatty+0x64>
    {
      return 1;
  8124e8:	00800044 	movi	r2,1
  8124ec:	00000d06 	br	812524 <isatty+0x98>
     * this is called so that the device can identify itself.
     */ 

    else
    {
      fstat (file, &stat);
  8124f0:	e0bff004 	addi	r2,fp,-64
  8124f4:	100b883a 	mov	r5,r2
  8124f8:	e13fff17 	ldw	r4,-4(fp)
  8124fc:	08123840 	call	812384 <fstat>
      return (stat.st_mode == _IFCHR) ? 1 : 0;
  812500:	e0bff117 	ldw	r2,-60(fp)
  812504:	10880020 	cmpeqi	r2,r2,8192
  812508:	10803fcc 	andi	r2,r2,255
  81250c:	00000506 	br	812524 <isatty+0x98>
    }
  }
  else
  {
    ALT_ERRNO = EBADFD;
  812510:	081243c0 	call	81243c <alt_get_errno>
  812514:	1007883a 	mov	r3,r2
  812518:	00801444 	movi	r2,81
  81251c:	18800015 	stw	r2,0(r3)
    return 0;
  812520:	0005883a 	mov	r2,zero
  }
}
  812524:	e037883a 	mov	sp,fp
  812528:	dfc00117 	ldw	ra,4(sp)
  81252c:	df000017 	ldw	fp,0(sp)
  812530:	dec00204 	addi	sp,sp,8
  812534:	f800283a 	ret

00812538 <alt_load_section>:
 */

static void ALT_INLINE alt_load_section (alt_u32* from, 
                                         alt_u32* to, 
                                         alt_u32* end)
{
  812538:	defffc04 	addi	sp,sp,-16
  81253c:	df000315 	stw	fp,12(sp)
  812540:	df000304 	addi	fp,sp,12
  812544:	e13ffd15 	stw	r4,-12(fp)
  812548:	e17ffe15 	stw	r5,-8(fp)
  81254c:	e1bfff15 	stw	r6,-4(fp)
  if (to != from)
  812550:	e0fffe17 	ldw	r3,-8(fp)
  812554:	e0bffd17 	ldw	r2,-12(fp)
  812558:	18800c26 	beq	r3,r2,81258c <alt_load_section+0x54>
  {
    while( to != end )
  81255c:	00000806 	br	812580 <alt_load_section+0x48>
    {
      *to++ = *from++;
  812560:	e0bffe17 	ldw	r2,-8(fp)
  812564:	10c00104 	addi	r3,r2,4
  812568:	e0fffe15 	stw	r3,-8(fp)
  81256c:	e0fffd17 	ldw	r3,-12(fp)
  812570:	19000104 	addi	r4,r3,4
  812574:	e13ffd15 	stw	r4,-12(fp)
  812578:	18c00017 	ldw	r3,0(r3)
  81257c:	10c00015 	stw	r3,0(r2)
                                         alt_u32* to, 
                                         alt_u32* end)
{
  if (to != from)
  {
    while( to != end )
  812580:	e0fffe17 	ldw	r3,-8(fp)
  812584:	e0bfff17 	ldw	r2,-4(fp)
  812588:	18bff51e 	bne	r3,r2,812560 <__alt_mem_onchip_ram+0xff80e560>
    {
      *to++ = *from++;
    }
  }
}
  81258c:	0001883a 	nop
  812590:	e037883a 	mov	sp,fp
  812594:	df000017 	ldw	fp,0(sp)
  812598:	dec00104 	addi	sp,sp,4
  81259c:	f800283a 	ret

008125a0 <alt_load>:
 * there is no bootloader, so this application is responsible for loading to
 * RAM any sections that are required.
 */  

void alt_load (void)
{
  8125a0:	defffe04 	addi	sp,sp,-8
  8125a4:	dfc00115 	stw	ra,4(sp)
  8125a8:	df000015 	stw	fp,0(sp)
  8125ac:	d839883a 	mov	fp,sp
  /* 
   * Copy the .rwdata section. 
   */

  alt_load_section (&__flash_rwdata_start, 
  8125b0:	01802074 	movhi	r6,129
  8125b4:	319ae304 	addi	r6,r6,27532
  8125b8:	01402074 	movhi	r5,129
  8125bc:	29542704 	addi	r5,r5,20636
  8125c0:	01002074 	movhi	r4,129
  8125c4:	211ae304 	addi	r4,r4,27532
  8125c8:	08125380 	call	812538 <alt_load_section>

  /*
   * Copy the exception handler.
   */

  alt_load_section (&__flash_exceptions_start, 
  8125cc:	01802034 	movhi	r6,128
  8125d0:	31808c04 	addi	r6,r6,560
  8125d4:	01402034 	movhi	r5,128
  8125d8:	29400804 	addi	r5,r5,32
  8125dc:	01002034 	movhi	r4,128
  8125e0:	21000804 	addi	r4,r4,32
  8125e4:	08125380 	call	812538 <alt_load_section>

  /*
   * Copy the .rodata section.
   */

  alt_load_section (&__flash_rodata_start, 
  8125e8:	01802074 	movhi	r6,129
  8125ec:	31942704 	addi	r6,r6,20636
  8125f0:	01402074 	movhi	r5,129
  8125f4:	29526604 	addi	r5,r5,18840
  8125f8:	01002074 	movhi	r4,129
  8125fc:	21126604 	addi	r4,r4,18840
  812600:	08125380 	call	812538 <alt_load_section>
  
  /*
   * Now ensure that the caches are in synch.
   */
  
  alt_dcache_flush_all();
  812604:	08138600 	call	813860 <alt_dcache_flush_all>
  alt_icache_flush_all();
  812608:	0813a340 	call	813a34 <alt_icache_flush_all>
}
  81260c:	0001883a 	nop
  812610:	e037883a 	mov	sp,fp
  812614:	dfc00117 	ldw	ra,4(sp)
  812618:	df000017 	ldw	fp,0(sp)
  81261c:	dec00204 	addi	sp,sp,8
  812620:	f800283a 	ret

00812624 <alt_get_errno>:
#undef errno

extern int errno;

static ALT_INLINE int* alt_get_errno(void)
{
  812624:	defffe04 	addi	sp,sp,-8
  812628:	dfc00115 	stw	ra,4(sp)
  81262c:	df000015 	stw	fp,0(sp)
  812630:	d839883a 	mov	fp,sp
  return ((alt_errno) ? alt_errno() : &errno);
  812634:	00802074 	movhi	r2,129
  812638:	109ade04 	addi	r2,r2,27512
  81263c:	10800017 	ldw	r2,0(r2)
  812640:	10000526 	beq	r2,zero,812658 <alt_get_errno+0x34>
  812644:	00802074 	movhi	r2,129
  812648:	109ade04 	addi	r2,r2,27512
  81264c:	10800017 	ldw	r2,0(r2)
  812650:	103ee83a 	callr	r2
  812654:	00000206 	br	812660 <alt_get_errno+0x3c>
  812658:	008020b4 	movhi	r2,130
  81265c:	10a1a504 	addi	r2,r2,-31084
}
  812660:	e037883a 	mov	sp,fp
  812664:	dfc00117 	ldw	ra,4(sp)
  812668:	df000017 	ldw	fp,0(sp)
  81266c:	dec00204 	addi	sp,sp,8
  812670:	f800283a 	ret

00812674 <lseek>:
 * ALT_LSEEK is mapped onto the lseek() system call in alt_syscall.h
 *
 */

off_t ALT_LSEEK (int file, off_t ptr, int dir)
{
  812674:	defff904 	addi	sp,sp,-28
  812678:	dfc00615 	stw	ra,24(sp)
  81267c:	df000515 	stw	fp,20(sp)
  812680:	df000504 	addi	fp,sp,20
  812684:	e13ffd15 	stw	r4,-12(fp)
  812688:	e17ffe15 	stw	r5,-8(fp)
  81268c:	e1bfff15 	stw	r6,-4(fp)
  alt_fd* fd;
  off_t   rc = 0; 
  812690:	e03ffb15 	stw	zero,-20(fp)
   * A common error case is that when the file descriptor was created, the call
   * to open() failed resulting in a negative file descriptor. This is trapped
   * below so that we don't try and process an invalid file descriptor.
   */

  fd = (file < 0) ? NULL : &alt_fd_list[file];
  812694:	e0bffd17 	ldw	r2,-12(fp)
  812698:	10000816 	blt	r2,zero,8126bc <lseek+0x48>
  81269c:	01400304 	movi	r5,12
  8126a0:	e13ffd17 	ldw	r4,-12(fp)
  8126a4:	080f5740 	call	80f574 <__mulsi3>
  8126a8:	1007883a 	mov	r3,r2
  8126ac:	00802074 	movhi	r2,129
  8126b0:	10965a04 	addi	r2,r2,22888
  8126b4:	1885883a 	add	r2,r3,r2
  8126b8:	00000106 	br	8126c0 <lseek+0x4c>
  8126bc:	0005883a 	mov	r2,zero
  8126c0:	e0bffc15 	stw	r2,-16(fp)
  
  if (fd) 
  8126c4:	e0bffc17 	ldw	r2,-16(fp)
  8126c8:	10001026 	beq	r2,zero,81270c <lseek+0x98>
    /*
     * If the device driver provides an implementation of the lseek() function,
     * then call that to process the request.
     */
 
    if (fd->dev->lseek)
  8126cc:	e0bffc17 	ldw	r2,-16(fp)
  8126d0:	10800017 	ldw	r2,0(r2)
  8126d4:	10800717 	ldw	r2,28(r2)
  8126d8:	10000926 	beq	r2,zero,812700 <lseek+0x8c>
    {
      rc = fd->dev->lseek(fd, ptr, dir);
  8126dc:	e0bffc17 	ldw	r2,-16(fp)
  8126e0:	10800017 	ldw	r2,0(r2)
  8126e4:	10800717 	ldw	r2,28(r2)
  8126e8:	e1bfff17 	ldw	r6,-4(fp)
  8126ec:	e17ffe17 	ldw	r5,-8(fp)
  8126f0:	e13ffc17 	ldw	r4,-16(fp)
  8126f4:	103ee83a 	callr	r2
  8126f8:	e0bffb15 	stw	r2,-20(fp)
  8126fc:	00000506 	br	812714 <lseek+0xa0>
     * Otherwise return an error.
     */

    else
    {
      rc = -ENOTSUP;
  812700:	00bfde84 	movi	r2,-134
  812704:	e0bffb15 	stw	r2,-20(fp)
  812708:	00000206 	br	812714 <lseek+0xa0>
    }
  }
  else  
  {
    rc = -EBADFD;
  81270c:	00bfebc4 	movi	r2,-81
  812710:	e0bffb15 	stw	r2,-20(fp)
  }

  if (rc < 0)
  812714:	e0bffb17 	ldw	r2,-20(fp)
  812718:	1000070e 	bge	r2,zero,812738 <lseek+0xc4>
  {
    ALT_ERRNO = -rc;
  81271c:	08126240 	call	812624 <alt_get_errno>
  812720:	1007883a 	mov	r3,r2
  812724:	e0bffb17 	ldw	r2,-20(fp)
  812728:	0085c83a 	sub	r2,zero,r2
  81272c:	18800015 	stw	r2,0(r3)
    rc = -1;
  812730:	00bfffc4 	movi	r2,-1
  812734:	e0bffb15 	stw	r2,-20(fp)
  }

  return rc;
  812738:	e0bffb17 	ldw	r2,-20(fp)
}
  81273c:	e037883a 	mov	sp,fp
  812740:	dfc00117 	ldw	ra,4(sp)
  812744:	df000017 	ldw	fp,0(sp)
  812748:	dec00204 	addi	sp,sp,8
  81274c:	f800283a 	ret

00812750 <alt_main>:
 * devices/filesystems/components in the system; and call the entry point for
 * the users application, i.e. main().
 */

void alt_main (void)
{
  812750:	defffd04 	addi	sp,sp,-12
  812754:	dfc00215 	stw	ra,8(sp)
  812758:	df000115 	stw	fp,4(sp)
  81275c:	df000104 	addi	fp,sp,4
#endif

  /* ALT LOG - please see HAL/sys/alt_log_printf.h for details */
  ALT_LOG_PRINT_BOOT("[alt_main.c] Entering alt_main, calling alt_irq_init.\r\n");
  /* Initialize the interrupt controller. */
  alt_irq_init (NULL);
  812760:	0009883a 	mov	r4,zero
  812764:	0812c240 	call	812c24 <alt_irq_init>

  /* Initialize the operating system */
  ALT_LOG_PRINT_BOOT("[alt_main.c] Done alt_irq_init, calling alt_os_init.\r\n");
  ALT_OS_INIT();
  812768:	0001883a 	nop
  ALT_LOG_PRINT_BOOT("[alt_main.c] Done OS Init, calling alt_sem_create.\r\n");
  ALT_SEM_CREATE (&alt_fd_list_lock, 1);

  /* Initialize the device drivers/software components. */
  ALT_LOG_PRINT_BOOT("[alt_main.c] Calling alt_sys_init.\r\n");
  alt_sys_init();
  81276c:	0812c5c0 	call	812c5c <alt_sys_init>
   * devices be present (not equal to /dev/null) and if direct drivers
   * aren't being used.
   */

    ALT_LOG_PRINT_BOOT("[alt_main.c] Redirecting IO.\r\n");
    alt_io_redirect(ALT_STDOUT, ALT_STDIN, ALT_STDERR);
  812770:	01802074 	movhi	r6,129
  812774:	31941f04 	addi	r6,r6,20604
  812778:	01402074 	movhi	r5,129
  81277c:	29541f04 	addi	r5,r5,20604
  812780:	01002074 	movhi	r4,129
  812784:	21141f04 	addi	r4,r4,20604
  812788:	0813e080 	call	813e08 <alt_io_redirect>
  /* 
   * Call the C++ constructors 
   */

  ALT_LOG_PRINT_BOOT("[alt_main.c] Calling C++ constructors.\r\n");
  _do_ctors ();
  81278c:	08139740 	call	813974 <_do_ctors>
   * redefined as _exit()). This is in the interest of reducing code footprint,
   * in that the atexit() overhead is removed when it's not needed.
   */

  ALT_LOG_PRINT_BOOT("[alt_main.c] Calling atexit.\r\n");
  atexit (_do_dtors);
  812790:	01002074 	movhi	r4,129
  812794:	210e7504 	addi	r4,r4,14804
  812798:	08146040 	call	814604 <atexit>
  ALT_LOG_PRINT_BOOT("[alt_main.c] Calling main.\r\n");

#ifdef ALT_NO_EXIT
  main (alt_argc, alt_argv, alt_envp);
#else
  result = main (alt_argc, alt_argv, alt_envp);
  81279c:	d0a6d417 	ldw	r2,-25776(gp)
  8127a0:	d0e6d517 	ldw	r3,-25772(gp)
  8127a4:	d126d617 	ldw	r4,-25768(gp)
  8127a8:	200d883a 	mov	r6,r4
  8127ac:	180b883a 	mov	r5,r3
  8127b0:	1009883a 	mov	r4,r2
  8127b4:	080026c0 	call	80026c <main>
  8127b8:	e0bfff15 	stw	r2,-4(fp)
  close(STDOUT_FILENO);
  8127bc:	01000044 	movi	r4,1
  8127c0:	08122300 	call	812230 <close>
  exit (result);
  8127c4:	e13fff17 	ldw	r4,-4(fp)
  8127c8:	08146180 	call	814618 <exit>

008127cc <__malloc_lock>:
 * configuration is single threaded, so there is nothing to do here. Note that 
 * this requires that malloc is never called by an interrupt service routine.
 */

void __malloc_lock ( struct _reent *_r )
{
  8127cc:	defffe04 	addi	sp,sp,-8
  8127d0:	df000115 	stw	fp,4(sp)
  8127d4:	df000104 	addi	fp,sp,4
  8127d8:	e13fff15 	stw	r4,-4(fp)
}
  8127dc:	0001883a 	nop
  8127e0:	e037883a 	mov	sp,fp
  8127e4:	df000017 	ldw	fp,0(sp)
  8127e8:	dec00104 	addi	sp,sp,4
  8127ec:	f800283a 	ret

008127f0 <__malloc_unlock>:
/*
 *
 */

void __malloc_unlock ( struct _reent *_r )
{
  8127f0:	defffe04 	addi	sp,sp,-8
  8127f4:	df000115 	stw	fp,4(sp)
  8127f8:	df000104 	addi	fp,sp,4
  8127fc:	e13fff15 	stw	r4,-4(fp)
}
  812800:	0001883a 	nop
  812804:	e037883a 	mov	sp,fp
  812808:	df000017 	ldw	fp,0(sp)
  81280c:	dec00104 	addi	sp,sp,4
  812810:	f800283a 	ret

00812814 <alt_get_errno>:
#undef errno

extern int errno;

static ALT_INLINE int* alt_get_errno(void)
{
  812814:	defffe04 	addi	sp,sp,-8
  812818:	dfc00115 	stw	ra,4(sp)
  81281c:	df000015 	stw	fp,0(sp)
  812820:	d839883a 	mov	fp,sp
  return ((alt_errno) ? alt_errno() : &errno);
  812824:	00802074 	movhi	r2,129
  812828:	109ade04 	addi	r2,r2,27512
  81282c:	10800017 	ldw	r2,0(r2)
  812830:	10000526 	beq	r2,zero,812848 <alt_get_errno+0x34>
  812834:	00802074 	movhi	r2,129
  812838:	109ade04 	addi	r2,r2,27512
  81283c:	10800017 	ldw	r2,0(r2)
  812840:	103ee83a 	callr	r2
  812844:	00000206 	br	812850 <alt_get_errno+0x3c>
  812848:	008020b4 	movhi	r2,130
  81284c:	10a1a504 	addi	r2,r2,-31084
}
  812850:	e037883a 	mov	sp,fp
  812854:	dfc00117 	ldw	ra,4(sp)
  812858:	df000017 	ldw	fp,0(sp)
  81285c:	dec00204 	addi	sp,sp,8
  812860:	f800283a 	ret

00812864 <read>:
}

#else /* !ALT_USE_DIRECT_DRIVERS */

int ALT_READ (int file, void *ptr, size_t len)
{
  812864:	defff904 	addi	sp,sp,-28
  812868:	dfc00615 	stw	ra,24(sp)
  81286c:	df000515 	stw	fp,20(sp)
  812870:	df000504 	addi	fp,sp,20
  812874:	e13ffd15 	stw	r4,-12(fp)
  812878:	e17ffe15 	stw	r5,-8(fp)
  81287c:	e1bfff15 	stw	r6,-4(fp)
   * A common error case is that when the file descriptor was created, the call
   * to open() failed resulting in a negative file descriptor. This is trapped
   * below so that we don't try and process an invalid file descriptor.
   */

  fd = (file < 0) ? NULL : &alt_fd_list[file];
  812880:	e0bffd17 	ldw	r2,-12(fp)
  812884:	10000816 	blt	r2,zero,8128a8 <read+0x44>
  812888:	01400304 	movi	r5,12
  81288c:	e13ffd17 	ldw	r4,-12(fp)
  812890:	080f5740 	call	80f574 <__mulsi3>
  812894:	1007883a 	mov	r3,r2
  812898:	00802074 	movhi	r2,129
  81289c:	10965a04 	addi	r2,r2,22888
  8128a0:	1885883a 	add	r2,r3,r2
  8128a4:	00000106 	br	8128ac <read+0x48>
  8128a8:	0005883a 	mov	r2,zero
  8128ac:	e0bffb15 	stw	r2,-20(fp)
  
  if (fd)
  8128b0:	e0bffb17 	ldw	r2,-20(fp)
  8128b4:	10002226 	beq	r2,zero,812940 <read+0xdc>
     * If the file has not been opened with read access, or if the driver does
     * not provide an implementation of read(), generate an error. Otherwise
     * call the drivers read() function to process the request.
     */

    if (((fd->fd_flags & O_ACCMODE) != O_WRONLY) && 
  8128b8:	e0bffb17 	ldw	r2,-20(fp)
  8128bc:	10800217 	ldw	r2,8(r2)
  8128c0:	108000cc 	andi	r2,r2,3
  8128c4:	10800060 	cmpeqi	r2,r2,1
  8128c8:	1000181e 	bne	r2,zero,81292c <read+0xc8>
        (fd->dev->read))
  8128cc:	e0bffb17 	ldw	r2,-20(fp)
  8128d0:	10800017 	ldw	r2,0(r2)
  8128d4:	10800517 	ldw	r2,20(r2)
     * If the file has not been opened with read access, or if the driver does
     * not provide an implementation of read(), generate an error. Otherwise
     * call the drivers read() function to process the request.
     */

    if (((fd->fd_flags & O_ACCMODE) != O_WRONLY) && 
  8128d8:	10001426 	beq	r2,zero,81292c <read+0xc8>
        (fd->dev->read))
      {
        if ((rval = fd->dev->read(fd, ptr, len)) < 0)
  8128dc:	e0bffb17 	ldw	r2,-20(fp)
  8128e0:	10800017 	ldw	r2,0(r2)
  8128e4:	10800517 	ldw	r2,20(r2)
  8128e8:	e0ffff17 	ldw	r3,-4(fp)
  8128ec:	180d883a 	mov	r6,r3
  8128f0:	e17ffe17 	ldw	r5,-8(fp)
  8128f4:	e13ffb17 	ldw	r4,-20(fp)
  8128f8:	103ee83a 	callr	r2
  8128fc:	e0bffc15 	stw	r2,-16(fp)
  812900:	e0bffc17 	ldw	r2,-16(fp)
  812904:	1000070e 	bge	r2,zero,812924 <read+0xc0>
        {
          ALT_ERRNO = -rval;
  812908:	08128140 	call	812814 <alt_get_errno>
  81290c:	1007883a 	mov	r3,r2
  812910:	e0bffc17 	ldw	r2,-16(fp)
  812914:	0085c83a 	sub	r2,zero,r2
  812918:	18800015 	stw	r2,0(r3)
          return -1;
  81291c:	00bfffc4 	movi	r2,-1
  812920:	00000c06 	br	812954 <read+0xf0>
        }
        return rval;
  812924:	e0bffc17 	ldw	r2,-16(fp)
  812928:	00000a06 	br	812954 <read+0xf0>
      }
      else
      {
        ALT_ERRNO = EACCES;
  81292c:	08128140 	call	812814 <alt_get_errno>
  812930:	1007883a 	mov	r3,r2
  812934:	00800344 	movi	r2,13
  812938:	18800015 	stw	r2,0(r3)
  81293c:	00000406 	br	812950 <read+0xec>
      }
    }
  else
  {
    ALT_ERRNO = EBADFD;
  812940:	08128140 	call	812814 <alt_get_errno>
  812944:	1007883a 	mov	r3,r2
  812948:	00801444 	movi	r2,81
  81294c:	18800015 	stw	r2,0(r3)
  }
  return -1;
  812950:	00bfffc4 	movi	r2,-1
}
  812954:	e037883a 	mov	sp,fp
  812958:	dfc00117 	ldw	ra,4(sp)
  81295c:	df000017 	ldw	fp,0(sp)
  812960:	dec00204 	addi	sp,sp,8
  812964:	f800283a 	ret

00812968 <alt_release_fd>:
 * File descriptors correcponding to standard in, standard out and standard 
 * error cannont be released backed to the pool. They are always reserved.
 */

void alt_release_fd (int fd)
{
  812968:	defffc04 	addi	sp,sp,-16
  81296c:	dfc00315 	stw	ra,12(sp)
  812970:	df000215 	stw	fp,8(sp)
  812974:	dc000115 	stw	r16,4(sp)
  812978:	df000204 	addi	fp,sp,8
  81297c:	e13ffe15 	stw	r4,-8(fp)
  if (fd > 2)
  812980:	e0bffe17 	ldw	r2,-8(fp)
  812984:	108000d0 	cmplti	r2,r2,3
  812988:	1000111e 	bne	r2,zero,8129d0 <alt_release_fd+0x68>
  {
    alt_fd_list[fd].fd_flags = 0;
  81298c:	04002074 	movhi	r16,129
  812990:	84165a04 	addi	r16,r16,22888
  812994:	e0bffe17 	ldw	r2,-8(fp)
  812998:	01400304 	movi	r5,12
  81299c:	1009883a 	mov	r4,r2
  8129a0:	080f5740 	call	80f574 <__mulsi3>
  8129a4:	8085883a 	add	r2,r16,r2
  8129a8:	10800204 	addi	r2,r2,8
  8129ac:	10000015 	stw	zero,0(r2)
    alt_fd_list[fd].dev      = 0;
  8129b0:	04002074 	movhi	r16,129
  8129b4:	84165a04 	addi	r16,r16,22888
  8129b8:	e0bffe17 	ldw	r2,-8(fp)
  8129bc:	01400304 	movi	r5,12
  8129c0:	1009883a 	mov	r4,r2
  8129c4:	080f5740 	call	80f574 <__mulsi3>
  8129c8:	8085883a 	add	r2,r16,r2
  8129cc:	10000015 	stw	zero,0(r2)
  }
}
  8129d0:	0001883a 	nop
  8129d4:	e6ffff04 	addi	sp,fp,-4
  8129d8:	dfc00217 	ldw	ra,8(sp)
  8129dc:	df000117 	ldw	fp,4(sp)
  8129e0:	dc000017 	ldw	r16,0(sp)
  8129e4:	dec00304 	addi	sp,sp,12
  8129e8:	f800283a 	ret

008129ec <sbrk>:
#endif
 
caddr_t ALT_SBRK (int incr) __attribute__ ((no_instrument_function ));

caddr_t ALT_SBRK (int incr)
{ 
  8129ec:	defff904 	addi	sp,sp,-28
  8129f0:	df000615 	stw	fp,24(sp)
  8129f4:	df000604 	addi	fp,sp,24
  8129f8:	e13fff15 	stw	r4,-4(fp)
static ALT_INLINE alt_irq_context ALT_ALWAYS_INLINE 
       alt_irq_disable_all (void)
{
  alt_irq_context context;

  NIOS2_READ_STATUS (context);
  8129fc:	0005303a 	rdctl	r2,status
  812a00:	e0bffe15 	stw	r2,-8(fp)

  NIOS2_WRITE_STATUS (context & ~NIOS2_STATUS_PIE_MSK);
  812a04:	e0fffe17 	ldw	r3,-8(fp)
  812a08:	00bfff84 	movi	r2,-2
  812a0c:	1884703a 	and	r2,r3,r2
  812a10:	1001703a 	wrctl	status,r2
  
  return context;
  812a14:	e0bffe17 	ldw	r2,-8(fp)
  alt_irq_context context;
  char *prev_heap_end; 

  context = alt_irq_disable_all();
  812a18:	e0bffb15 	stw	r2,-20(fp)

  /* Always return data aligned on a word boundary */
  heap_end = (char *)(((unsigned int)heap_end + 3) & ~3);
  812a1c:	d0a00d17 	ldw	r2,-32716(gp)
  812a20:	10c000c4 	addi	r3,r2,3
  812a24:	00bfff04 	movi	r2,-4
  812a28:	1884703a 	and	r2,r3,r2
  812a2c:	d0a00d15 	stw	r2,-32716(gp)
  if (((heap_end + incr) - __alt_heap_start) > ALT_MAX_HEAP_BYTES) {
    alt_irq_enable_all(context);
    return (caddr_t)-1;
  }
#else
  if ((heap_end + incr) > __alt_heap_limit) {
  812a30:	d0e00d17 	ldw	r3,-32716(gp)
  812a34:	e0bfff17 	ldw	r2,-4(fp)
  812a38:	1887883a 	add	r3,r3,r2
  812a3c:	00804034 	movhi	r2,256
  812a40:	10800004 	addi	r2,r2,0
  812a44:	10c0062e 	bgeu	r2,r3,812a60 <sbrk+0x74>
  812a48:	e0bffb17 	ldw	r2,-20(fp)
  812a4c:	e0bffa15 	stw	r2,-24(fp)
  status &= ~NIOS2_STATUS_PIE_MSK;
  status |= (context & NIOS2_STATUS_PIE_MSK);
  
  NIOS2_WRITE_STATUS (status);
#else
  NIOS2_WRITE_STATUS (context);
  812a50:	e0bffa17 	ldw	r2,-24(fp)
  812a54:	1001703a 	wrctl	status,r2
    alt_irq_enable_all(context);
    return (caddr_t)-1;
  812a58:	00bfffc4 	movi	r2,-1
  812a5c:	00000b06 	br	812a8c <sbrk+0xa0>
  }
#endif

  prev_heap_end = heap_end; 
  812a60:	d0a00d17 	ldw	r2,-32716(gp)
  812a64:	e0bffd15 	stw	r2,-12(fp)
  heap_end += incr; 
  812a68:	d0e00d17 	ldw	r3,-32716(gp)
  812a6c:	e0bfff17 	ldw	r2,-4(fp)
  812a70:	1885883a 	add	r2,r3,r2
  812a74:	d0a00d15 	stw	r2,-32716(gp)
  812a78:	e0bffb17 	ldw	r2,-20(fp)
  812a7c:	e0bffc15 	stw	r2,-16(fp)
  812a80:	e0bffc17 	ldw	r2,-16(fp)
  812a84:	1001703a 	wrctl	status,r2

#endif

  alt_irq_enable_all(context);

  return (caddr_t) prev_heap_end; 
  812a88:	e0bffd17 	ldw	r2,-12(fp)
} 
  812a8c:	e037883a 	mov	sp,fp
  812a90:	df000017 	ldw	fp,0(sp)
  812a94:	dec00104 	addi	sp,sp,4
  812a98:	f800283a 	ret

00812a9c <alt_get_errno>:
#undef errno

extern int errno;

static ALT_INLINE int* alt_get_errno(void)
{
  812a9c:	defffe04 	addi	sp,sp,-8
  812aa0:	dfc00115 	stw	ra,4(sp)
  812aa4:	df000015 	stw	fp,0(sp)
  812aa8:	d839883a 	mov	fp,sp
  return ((alt_errno) ? alt_errno() : &errno);
  812aac:	00802074 	movhi	r2,129
  812ab0:	109ade04 	addi	r2,r2,27512
  812ab4:	10800017 	ldw	r2,0(r2)
  812ab8:	10000526 	beq	r2,zero,812ad0 <alt_get_errno+0x34>
  812abc:	00802074 	movhi	r2,129
  812ac0:	109ade04 	addi	r2,r2,27512
  812ac4:	10800017 	ldw	r2,0(r2)
  812ac8:	103ee83a 	callr	r2
  812acc:	00000206 	br	812ad8 <alt_get_errno+0x3c>
  812ad0:	008020b4 	movhi	r2,130
  812ad4:	10a1a504 	addi	r2,r2,-31084
}
  812ad8:	e037883a 	mov	sp,fp
  812adc:	dfc00117 	ldw	ra,4(sp)
  812ae0:	df000017 	ldw	fp,0(sp)
  812ae4:	dec00204 	addi	sp,sp,8
  812ae8:	f800283a 	ret

00812aec <write>:
}

#else /* !ALT_USE_DIRECT_DRIVERS */

int ALT_WRITE (int file, const void *ptr, size_t len)
{
  812aec:	defff904 	addi	sp,sp,-28
  812af0:	dfc00615 	stw	ra,24(sp)
  812af4:	df000515 	stw	fp,20(sp)
  812af8:	df000504 	addi	fp,sp,20
  812afc:	e13ffd15 	stw	r4,-12(fp)
  812b00:	e17ffe15 	stw	r5,-8(fp)
  812b04:	e1bfff15 	stw	r6,-4(fp)
   * A common error case is that when the file descriptor was created, the call
   * to open() failed resulting in a negative file descriptor. This is trapped
   * below so that we don't try and process an invalid file descriptor.
   */

  fd = (file < 0) ? NULL : &alt_fd_list[file];
  812b08:	e0bffd17 	ldw	r2,-12(fp)
  812b0c:	10000816 	blt	r2,zero,812b30 <write+0x44>
  812b10:	01400304 	movi	r5,12
  812b14:	e13ffd17 	ldw	r4,-12(fp)
  812b18:	080f5740 	call	80f574 <__mulsi3>
  812b1c:	1007883a 	mov	r3,r2
  812b20:	00802074 	movhi	r2,129
  812b24:	10965a04 	addi	r2,r2,22888
  812b28:	1885883a 	add	r2,r3,r2
  812b2c:	00000106 	br	812b34 <write+0x48>
  812b30:	0005883a 	mov	r2,zero
  812b34:	e0bffb15 	stw	r2,-20(fp)
  
  if (fd)
  812b38:	e0bffb17 	ldw	r2,-20(fp)
  812b3c:	10002126 	beq	r2,zero,812bc4 <write+0xd8>
     * If the file has not been opened with write access, or if the driver does
     * not provide an implementation of write(), generate an error. Otherwise
     * call the drivers write() function to process the request.
     */

    if (((fd->fd_flags & O_ACCMODE) != O_RDONLY) && fd->dev->write)
  812b40:	e0bffb17 	ldw	r2,-20(fp)
  812b44:	10800217 	ldw	r2,8(r2)
  812b48:	108000cc 	andi	r2,r2,3
  812b4c:	10001826 	beq	r2,zero,812bb0 <write+0xc4>
  812b50:	e0bffb17 	ldw	r2,-20(fp)
  812b54:	10800017 	ldw	r2,0(r2)
  812b58:	10800617 	ldw	r2,24(r2)
  812b5c:	10001426 	beq	r2,zero,812bb0 <write+0xc4>
    {
      
      /* ALT_LOG - see altera_hal/HAL/inc/sys/alt_log_printf.h */
      ALT_LOG_WRITE_FUNCTION(ptr,len);

      if ((rval = fd->dev->write(fd, ptr, len)) < 0)
  812b60:	e0bffb17 	ldw	r2,-20(fp)
  812b64:	10800017 	ldw	r2,0(r2)
  812b68:	10800617 	ldw	r2,24(r2)
  812b6c:	e0ffff17 	ldw	r3,-4(fp)
  812b70:	180d883a 	mov	r6,r3
  812b74:	e17ffe17 	ldw	r5,-8(fp)
  812b78:	e13ffb17 	ldw	r4,-20(fp)
  812b7c:	103ee83a 	callr	r2
  812b80:	e0bffc15 	stw	r2,-16(fp)
  812b84:	e0bffc17 	ldw	r2,-16(fp)
  812b88:	1000070e 	bge	r2,zero,812ba8 <write+0xbc>
      {
        ALT_ERRNO = -rval;
  812b8c:	0812a9c0 	call	812a9c <alt_get_errno>
  812b90:	1007883a 	mov	r3,r2
  812b94:	e0bffc17 	ldw	r2,-16(fp)
  812b98:	0085c83a 	sub	r2,zero,r2
  812b9c:	18800015 	stw	r2,0(r3)
        return -1;
  812ba0:	00bfffc4 	movi	r2,-1
  812ba4:	00000c06 	br	812bd8 <write+0xec>
      }
      return rval;
  812ba8:	e0bffc17 	ldw	r2,-16(fp)
  812bac:	00000a06 	br	812bd8 <write+0xec>
    }
    else
    {
      ALT_ERRNO = EACCES;
  812bb0:	0812a9c0 	call	812a9c <alt_get_errno>
  812bb4:	1007883a 	mov	r3,r2
  812bb8:	00800344 	movi	r2,13
  812bbc:	18800015 	stw	r2,0(r3)
  812bc0:	00000406 	br	812bd4 <write+0xe8>
    }
  }
  else  
  {
    ALT_ERRNO = EBADFD;
  812bc4:	0812a9c0 	call	812a9c <alt_get_errno>
  812bc8:	1007883a 	mov	r3,r2
  812bcc:	00801444 	movi	r2,81
  812bd0:	18800015 	stw	r2,0(r3)
  }
  return -1;
  812bd4:	00bfffc4 	movi	r2,-1
}
  812bd8:	e037883a 	mov	sp,fp
  812bdc:	dfc00117 	ldw	ra,4(sp)
  812be0:	df000017 	ldw	fp,0(sp)
  812be4:	dec00204 	addi	sp,sp,8
  812be8:	f800283a 	ret

00812bec <alt_dev_reg>:
 */

extern int alt_fs_reg  (alt_dev* dev); 

static ALT_INLINE int alt_dev_reg (alt_dev* dev)
{
  812bec:	defffd04 	addi	sp,sp,-12
  812bf0:	dfc00215 	stw	ra,8(sp)
  812bf4:	df000115 	stw	fp,4(sp)
  812bf8:	df000104 	addi	fp,sp,4
  812bfc:	e13fff15 	stw	r4,-4(fp)
  extern alt_llist alt_dev_list;

  return alt_dev_llist_insert ((alt_dev_llist*) dev, &alt_dev_list);
  812c00:	01402074 	movhi	r5,129
  812c04:	295adb04 	addi	r5,r5,27500
  812c08:	e13fff17 	ldw	r4,-4(fp)
  812c0c:	08138d00 	call	8138d0 <alt_dev_llist_insert>
}
  812c10:	e037883a 	mov	sp,fp
  812c14:	dfc00117 	ldw	ra,4(sp)
  812c18:	df000017 	ldw	fp,0(sp)
  812c1c:	dec00204 	addi	sp,sp,8
  812c20:	f800283a 	ret

00812c24 <alt_irq_init>:
 * The "base" parameter is ignored and only
 * present for backwards-compatibility.
 */

void alt_irq_init ( const void* base )
{
  812c24:	defffd04 	addi	sp,sp,-12
  812c28:	dfc00215 	stw	ra,8(sp)
  812c2c:	df000115 	stw	fp,4(sp)
  812c30:	df000104 	addi	fp,sp,4
  812c34:	e13fff15 	stw	r4,-4(fp)
    ALTERA_NIOS2_GEN2_IRQ_INIT ( NIOS2_CPU, nios2_cpu);
  812c38:	08142cc0 	call	8142cc <altera_nios2_gen2_irq_init>
 * alt_irq_cpu_enable_interrupts() enables the CPU to start taking interrupts.
 */
static ALT_INLINE void ALT_ALWAYS_INLINE 
       alt_irq_cpu_enable_interrupts (void)
{
    NIOS2_WRITE_STATUS(NIOS2_STATUS_PIE_MSK
  812c3c:	00800044 	movi	r2,1
  812c40:	1001703a 	wrctl	status,r2
    alt_irq_cpu_enable_interrupts();
}
  812c44:	0001883a 	nop
  812c48:	e037883a 	mov	sp,fp
  812c4c:	dfc00117 	ldw	ra,4(sp)
  812c50:	df000017 	ldw	fp,0(sp)
  812c54:	dec00204 	addi	sp,sp,8
  812c58:	f800283a 	ret

00812c5c <alt_sys_init>:
 * Initialize the non-interrupt controller devices.
 * Called after alt_irq_init().
 */

void alt_sys_init( void )
{
  812c5c:	defffe04 	addi	sp,sp,-8
  812c60:	dfc00115 	stw	ra,4(sp)
  812c64:	df000015 	stw	fp,0(sp)
  812c68:	d839883a 	mov	fp,sp
    ALTERA_AVALON_JTAG_UART_INIT ( JTAG_UART, jtag_uart);
  812c6c:	000d883a 	mov	r6,zero
  812c70:	000b883a 	mov	r5,zero
  812c74:	01002074 	movhi	r4,129
  812c78:	2116c404 	addi	r4,r4,23312
  812c7c:	0812e0c0 	call	812e0c <altera_avalon_jtag_uart_init>
  812c80:	01002074 	movhi	r4,129
  812c84:	2116ba04 	addi	r4,r4,23272
  812c88:	0812bec0 	call	812bec <alt_dev_reg>
    ALTERA_AVALON_SYSID_QSYS_INIT ( SYSID, sysid);
  812c8c:	0001883a 	nop
}
  812c90:	0001883a 	nop
  812c94:	e037883a 	mov	sp,fp
  812c98:	dfc00117 	ldw	ra,4(sp)
  812c9c:	df000017 	ldw	fp,0(sp)
  812ca0:	dec00204 	addi	sp,sp,8
  812ca4:	f800283a 	ret

00812ca8 <altera_avalon_jtag_uart_read_fd>:
 *
 */

int 
altera_avalon_jtag_uart_read_fd(alt_fd* fd, char* buffer, int space)
{
  812ca8:	defffa04 	addi	sp,sp,-24
  812cac:	dfc00515 	stw	ra,20(sp)
  812cb0:	df000415 	stw	fp,16(sp)
  812cb4:	df000404 	addi	fp,sp,16
  812cb8:	e13ffd15 	stw	r4,-12(fp)
  812cbc:	e17ffe15 	stw	r5,-8(fp)
  812cc0:	e1bfff15 	stw	r6,-4(fp)
    altera_avalon_jtag_uart_dev* dev = (altera_avalon_jtag_uart_dev*) fd->dev; 
  812cc4:	e0bffd17 	ldw	r2,-12(fp)
  812cc8:	10800017 	ldw	r2,0(r2)
  812ccc:	e0bffc15 	stw	r2,-16(fp)

    return altera_avalon_jtag_uart_read(&dev->state, buffer, space,
  812cd0:	e0bffc17 	ldw	r2,-16(fp)
  812cd4:	10c00a04 	addi	r3,r2,40
  812cd8:	e0bffd17 	ldw	r2,-12(fp)
  812cdc:	10800217 	ldw	r2,8(r2)
  812ce0:	100f883a 	mov	r7,r2
  812ce4:	e1bfff17 	ldw	r6,-4(fp)
  812ce8:	e17ffe17 	ldw	r5,-8(fp)
  812cec:	1809883a 	mov	r4,r3
  812cf0:	08132e00 	call	8132e0 <altera_avalon_jtag_uart_read>
      fd->fd_flags);
}
  812cf4:	e037883a 	mov	sp,fp
  812cf8:	dfc00117 	ldw	ra,4(sp)
  812cfc:	df000017 	ldw	fp,0(sp)
  812d00:	dec00204 	addi	sp,sp,8
  812d04:	f800283a 	ret

00812d08 <altera_avalon_jtag_uart_write_fd>:

int 
altera_avalon_jtag_uart_write_fd(alt_fd* fd, const char* buffer, int space)
{
  812d08:	defffa04 	addi	sp,sp,-24
  812d0c:	dfc00515 	stw	ra,20(sp)
  812d10:	df000415 	stw	fp,16(sp)
  812d14:	df000404 	addi	fp,sp,16
  812d18:	e13ffd15 	stw	r4,-12(fp)
  812d1c:	e17ffe15 	stw	r5,-8(fp)
  812d20:	e1bfff15 	stw	r6,-4(fp)
    altera_avalon_jtag_uart_dev* dev = (altera_avalon_jtag_uart_dev*) fd->dev; 
  812d24:	e0bffd17 	ldw	r2,-12(fp)
  812d28:	10800017 	ldw	r2,0(r2)
  812d2c:	e0bffc15 	stw	r2,-16(fp)

    return altera_avalon_jtag_uart_write(&dev->state, buffer, space,
  812d30:	e0bffc17 	ldw	r2,-16(fp)
  812d34:	10c00a04 	addi	r3,r2,40
  812d38:	e0bffd17 	ldw	r2,-12(fp)
  812d3c:	10800217 	ldw	r2,8(r2)
  812d40:	100f883a 	mov	r7,r2
  812d44:	e1bfff17 	ldw	r6,-4(fp)
  812d48:	e17ffe17 	ldw	r5,-8(fp)
  812d4c:	1809883a 	mov	r4,r3
  812d50:	08134fc0 	call	8134fc <altera_avalon_jtag_uart_write>
      fd->fd_flags);
}
  812d54:	e037883a 	mov	sp,fp
  812d58:	dfc00117 	ldw	ra,4(sp)
  812d5c:	df000017 	ldw	fp,0(sp)
  812d60:	dec00204 	addi	sp,sp,8
  812d64:	f800283a 	ret

00812d68 <altera_avalon_jtag_uart_close_fd>:

#ifndef ALTERA_AVALON_JTAG_UART_SMALL

int 
altera_avalon_jtag_uart_close_fd(alt_fd* fd)
{
  812d68:	defffc04 	addi	sp,sp,-16
  812d6c:	dfc00315 	stw	ra,12(sp)
  812d70:	df000215 	stw	fp,8(sp)
  812d74:	df000204 	addi	fp,sp,8
  812d78:	e13fff15 	stw	r4,-4(fp)
    altera_avalon_jtag_uart_dev* dev = (altera_avalon_jtag_uart_dev*) fd->dev; 
  812d7c:	e0bfff17 	ldw	r2,-4(fp)
  812d80:	10800017 	ldw	r2,0(r2)
  812d84:	e0bffe15 	stw	r2,-8(fp)

    return altera_avalon_jtag_uart_close(&dev->state, fd->fd_flags);
  812d88:	e0bffe17 	ldw	r2,-8(fp)
  812d8c:	10c00a04 	addi	r3,r2,40
  812d90:	e0bfff17 	ldw	r2,-4(fp)
  812d94:	10800217 	ldw	r2,8(r2)
  812d98:	100b883a 	mov	r5,r2
  812d9c:	1809883a 	mov	r4,r3
  812da0:	08131880 	call	813188 <altera_avalon_jtag_uart_close>
}
  812da4:	e037883a 	mov	sp,fp
  812da8:	dfc00117 	ldw	ra,4(sp)
  812dac:	df000017 	ldw	fp,0(sp)
  812db0:	dec00204 	addi	sp,sp,8
  812db4:	f800283a 	ret

00812db8 <altera_avalon_jtag_uart_ioctl_fd>:

int 
altera_avalon_jtag_uart_ioctl_fd(alt_fd* fd, int req, void* arg)
{
  812db8:	defffa04 	addi	sp,sp,-24
  812dbc:	dfc00515 	stw	ra,20(sp)
  812dc0:	df000415 	stw	fp,16(sp)
  812dc4:	df000404 	addi	fp,sp,16
  812dc8:	e13ffd15 	stw	r4,-12(fp)
  812dcc:	e17ffe15 	stw	r5,-8(fp)
  812dd0:	e1bfff15 	stw	r6,-4(fp)
    altera_avalon_jtag_uart_dev* dev = (altera_avalon_jtag_uart_dev*) fd->dev;
  812dd4:	e0bffd17 	ldw	r2,-12(fp)
  812dd8:	10800017 	ldw	r2,0(r2)
  812ddc:	e0bffc15 	stw	r2,-16(fp)

    return altera_avalon_jtag_uart_ioctl(&dev->state, req, arg);
  812de0:	e0bffc17 	ldw	r2,-16(fp)
  812de4:	10800a04 	addi	r2,r2,40
  812de8:	e1bfff17 	ldw	r6,-4(fp)
  812dec:	e17ffe17 	ldw	r5,-8(fp)
  812df0:	1009883a 	mov	r4,r2
  812df4:	08131f00 	call	8131f0 <altera_avalon_jtag_uart_ioctl>
}
  812df8:	e037883a 	mov	sp,fp
  812dfc:	dfc00117 	ldw	ra,4(sp)
  812e00:	df000017 	ldw	fp,0(sp)
  812e04:	dec00204 	addi	sp,sp,8
  812e08:	f800283a 	ret

00812e0c <altera_avalon_jtag_uart_init>:
 * Return 1 on sucessful IRQ register and 0 on failure.
 */

void altera_avalon_jtag_uart_init(altera_avalon_jtag_uart_state* sp, 
                                  int irq_controller_id, int irq)
{
  812e0c:	defffa04 	addi	sp,sp,-24
  812e10:	dfc00515 	stw	ra,20(sp)
  812e14:	df000415 	stw	fp,16(sp)
  812e18:	df000404 	addi	fp,sp,16
  812e1c:	e13ffd15 	stw	r4,-12(fp)
  812e20:	e17ffe15 	stw	r5,-8(fp)
  812e24:	e1bfff15 	stw	r6,-4(fp)
  ALT_FLAG_CREATE(&sp->events, 0);
  ALT_SEM_CREATE(&sp->read_lock, 1);
  ALT_SEM_CREATE(&sp->write_lock, 1);

  /* enable read interrupts at the device */
  sp->irq_enable = ALTERA_AVALON_JTAG_UART_CONTROL_RE_MSK;
  812e28:	e0bffd17 	ldw	r2,-12(fp)
  812e2c:	00c00044 	movi	r3,1
  812e30:	10c00815 	stw	r3,32(r2)

  IOWR_ALTERA_AVALON_JTAG_UART_CONTROL(sp->base, sp->irq_enable); 
  812e34:	e0bffd17 	ldw	r2,-12(fp)
  812e38:	10800017 	ldw	r2,0(r2)
  812e3c:	10800104 	addi	r2,r2,4
  812e40:	1007883a 	mov	r3,r2
  812e44:	e0bffd17 	ldw	r2,-12(fp)
  812e48:	10800817 	ldw	r2,32(r2)
  812e4c:	18800035 	stwio	r2,0(r3)
  
  /* register the interrupt handler */
#ifdef ALT_ENHANCED_INTERRUPT_API_PRESENT
  alt_ic_isr_register(irq_controller_id, irq, altera_avalon_jtag_uart_irq, 
  812e50:	e0bffe17 	ldw	r2,-8(fp)
  812e54:	e0ffff17 	ldw	r3,-4(fp)
  812e58:	d8000015 	stw	zero,0(sp)
  812e5c:	e1fffd17 	ldw	r7,-12(fp)
  812e60:	01802074 	movhi	r6,129
  812e64:	318bb504 	addi	r6,r6,11988
  812e68:	180b883a 	mov	r5,r3
  812e6c:	1009883a 	mov	r4,r2
  812e70:	0813a540 	call	813a54 <alt_ic_isr_register>
#else
  alt_irq_register(irq, sp, altera_avalon_jtag_uart_irq);
#endif  

  /* Register an alarm to go off every second to check for presence of host */
  sp->host_inactive = 0;
  812e74:	e0bffd17 	ldw	r2,-12(fp)
  812e78:	10000915 	stw	zero,36(r2)

  if (alt_alarm_start(&sp->alarm, alt_ticks_per_second(), 
  812e7c:	e0bffd17 	ldw	r2,-12(fp)
  812e80:	10c00204 	addi	r3,r2,8
 * Obtain the system clock rate in ticks/s. 
 */

static ALT_INLINE alt_u32 ALT_ALWAYS_INLINE alt_ticks_per_second (void)
{
  return _alt_tick_rate;
  812e84:	008020b4 	movhi	r2,130
  812e88:	10a1aa04 	addi	r2,r2,-31064
  812e8c:	10800017 	ldw	r2,0(r2)
  812e90:	e1fffd17 	ldw	r7,-12(fp)
  812e94:	01802074 	movhi	r6,129
  812e98:	318c3804 	addi	r6,r6,12512
  812e9c:	100b883a 	mov	r5,r2
  812ea0:	1809883a 	mov	r4,r3
  812ea4:	08137200 	call	813720 <alt_alarm_start>
  812ea8:	1000040e 	bge	r2,zero,812ebc <altera_avalon_jtag_uart_init+0xb0>
    &altera_avalon_jtag_uart_timeout, sp) < 0)
  {
    /* If we can't set the alarm then record "don't know if host present" 
     * and behave as though the host is present.
     */
    sp->timeout = INT_MAX;
  812eac:	e0fffd17 	ldw	r3,-12(fp)
  812eb0:	00a00034 	movhi	r2,32768
  812eb4:	10bfffc4 	addi	r2,r2,-1
  812eb8:	18800115 	stw	r2,4(r3)
  }

  /* ALT_LOG - see altera_hal/HAL/inc/sys/alt_log_printf.h */ 
  ALT_LOG_JTAG_UART_ALARM_REGISTER(sp, sp->base);
}
  812ebc:	0001883a 	nop
  812ec0:	e037883a 	mov	sp,fp
  812ec4:	dfc00117 	ldw	ra,4(sp)
  812ec8:	df000017 	ldw	fp,0(sp)
  812ecc:	dec00204 	addi	sp,sp,8
  812ed0:	f800283a 	ret

00812ed4 <altera_avalon_jtag_uart_irq>:
#ifdef ALT_ENHANCED_INTERRUPT_API_PRESENT
static void altera_avalon_jtag_uart_irq(void* context)
#else
static void altera_avalon_jtag_uart_irq(void* context, alt_u32 id)
#endif
{
  812ed4:	defff804 	addi	sp,sp,-32
  812ed8:	df000715 	stw	fp,28(sp)
  812edc:	df000704 	addi	fp,sp,28
  812ee0:	e13fff15 	stw	r4,-4(fp)
  altera_avalon_jtag_uart_state* sp = (altera_avalon_jtag_uart_state*) context;
  812ee4:	e0bfff17 	ldw	r2,-4(fp)
  812ee8:	e0bffb15 	stw	r2,-20(fp)
  unsigned int base = sp->base;
  812eec:	e0bffb17 	ldw	r2,-20(fp)
  812ef0:	10800017 	ldw	r2,0(r2)
  812ef4:	e0bffc15 	stw	r2,-16(fp)
  /* ALT_LOG - see altera_hal/HAL/inc/sys/alt_log_printf.h */ 
  ALT_LOG_JTAG_UART_ISR_FUNCTION(base, sp);

  for ( ; ; )
  {
    unsigned int control = IORD_ALTERA_AVALON_JTAG_UART_CONTROL(base);
  812ef8:	e0bffc17 	ldw	r2,-16(fp)
  812efc:	10800104 	addi	r2,r2,4
  812f00:	10800037 	ldwio	r2,0(r2)
  812f04:	e0bffd15 	stw	r2,-12(fp)

    /* Return once nothing more to do */
    if ((control & (ALTERA_AVALON_JTAG_UART_CONTROL_RI_MSK | ALTERA_AVALON_JTAG_UART_CONTROL_WI_MSK)) == 0)
  812f08:	e0bffd17 	ldw	r2,-12(fp)
  812f0c:	1080c00c 	andi	r2,r2,768
  812f10:	10006d26 	beq	r2,zero,8130c8 <altera_avalon_jtag_uart_irq+0x1f4>
      break;

    if (control & ALTERA_AVALON_JTAG_UART_CONTROL_RI_MSK)
  812f14:	e0bffd17 	ldw	r2,-12(fp)
  812f18:	1080400c 	andi	r2,r2,256
  812f1c:	10003526 	beq	r2,zero,812ff4 <altera_avalon_jtag_uart_irq+0x120>
    {
      /* process a read irq.  Start by assuming that there is data in the
       * receive FIFO (otherwise why would we have been interrupted?)
       */
      unsigned int data = 1 << ALTERA_AVALON_JTAG_UART_DATA_RAVAIL_OFST;
  812f20:	00800074 	movhi	r2,1
  812f24:	e0bff915 	stw	r2,-28(fp)
      for ( ; ; )
      {
        /* Check whether there is space in the buffer.  If not then we must not
         * read any characters from the buffer as they will be lost.
         */
        unsigned int next = (sp->rx_in + 1) % ALTERA_AVALON_JTAG_UART_BUF_LEN;
  812f28:	e0bffb17 	ldw	r2,-20(fp)
  812f2c:	10800a17 	ldw	r2,40(r2)
  812f30:	10800044 	addi	r2,r2,1
  812f34:	1081ffcc 	andi	r2,r2,2047
  812f38:	e0bffe15 	stw	r2,-8(fp)
        if (next == sp->rx_out)
  812f3c:	e0bffb17 	ldw	r2,-20(fp)
  812f40:	10c00b17 	ldw	r3,44(r2)
  812f44:	e0bffe17 	ldw	r2,-8(fp)
  812f48:	18801526 	beq	r3,r2,812fa0 <altera_avalon_jtag_uart_irq+0xcc>
          break;

        /* Try to remove a character from the FIFO and find out whether there
         * are any more characters remaining.
         */
        data = IORD_ALTERA_AVALON_JTAG_UART_DATA(base);
  812f4c:	e0bffc17 	ldw	r2,-16(fp)
  812f50:	10800037 	ldwio	r2,0(r2)
  812f54:	e0bff915 	stw	r2,-28(fp)
        
        if ((data & ALTERA_AVALON_JTAG_UART_DATA_RVALID_MSK) == 0)
  812f58:	e0bff917 	ldw	r2,-28(fp)
  812f5c:	10a0000c 	andi	r2,r2,32768
  812f60:	10001126 	beq	r2,zero,812fa8 <altera_avalon_jtag_uart_irq+0xd4>
          break;

        sp->rx_buf[sp->rx_in] = (data & ALTERA_AVALON_JTAG_UART_DATA_DATA_MSK) >> ALTERA_AVALON_JTAG_UART_DATA_DATA_OFST;
  812f64:	e0bffb17 	ldw	r2,-20(fp)
  812f68:	10800a17 	ldw	r2,40(r2)
  812f6c:	e0fff917 	ldw	r3,-28(fp)
  812f70:	1809883a 	mov	r4,r3
  812f74:	e0fffb17 	ldw	r3,-20(fp)
  812f78:	1885883a 	add	r2,r3,r2
  812f7c:	10800e04 	addi	r2,r2,56
  812f80:	11000005 	stb	r4,0(r2)
        sp->rx_in = (sp->rx_in + 1) % ALTERA_AVALON_JTAG_UART_BUF_LEN;
  812f84:	e0bffb17 	ldw	r2,-20(fp)
  812f88:	10800a17 	ldw	r2,40(r2)
  812f8c:	10800044 	addi	r2,r2,1
  812f90:	10c1ffcc 	andi	r3,r2,2047
  812f94:	e0bffb17 	ldw	r2,-20(fp)
  812f98:	10c00a15 	stw	r3,40(r2)

        /* Post an event to notify jtag_uart_read that a character has been read */
        ALT_FLAG_POST (sp->events, ALT_JTAG_UART_READ_RDY, OS_FLAG_SET);
      }
  812f9c:	003fe206 	br	812f28 <__alt_mem_onchip_ram+0xff80ef28>
        /* Check whether there is space in the buffer.  If not then we must not
         * read any characters from the buffer as they will be lost.
         */
        unsigned int next = (sp->rx_in + 1) % ALTERA_AVALON_JTAG_UART_BUF_LEN;
        if (next == sp->rx_out)
          break;
  812fa0:	0001883a 	nop
  812fa4:	00000106 	br	812fac <altera_avalon_jtag_uart_irq+0xd8>
         * are any more characters remaining.
         */
        data = IORD_ALTERA_AVALON_JTAG_UART_DATA(base);
        
        if ((data & ALTERA_AVALON_JTAG_UART_DATA_RVALID_MSK) == 0)
          break;
  812fa8:	0001883a 	nop

        /* Post an event to notify jtag_uart_read that a character has been read */
        ALT_FLAG_POST (sp->events, ALT_JTAG_UART_READ_RDY, OS_FLAG_SET);
      }

      if (data & ALTERA_AVALON_JTAG_UART_DATA_RAVAIL_MSK)
  812fac:	e0bff917 	ldw	r2,-28(fp)
  812fb0:	10bfffec 	andhi	r2,r2,65535
  812fb4:	10000f26 	beq	r2,zero,812ff4 <altera_avalon_jtag_uart_irq+0x120>
      {
        /* If there is still data available here then the buffer is full 
         * so turn off receive interrupts until some space becomes available.
         */
        sp->irq_enable &= ~ALTERA_AVALON_JTAG_UART_CONTROL_RE_MSK;
  812fb8:	e0bffb17 	ldw	r2,-20(fp)
  812fbc:	10c00817 	ldw	r3,32(r2)
  812fc0:	00bfff84 	movi	r2,-2
  812fc4:	1886703a 	and	r3,r3,r2
  812fc8:	e0bffb17 	ldw	r2,-20(fp)
  812fcc:	10c00815 	stw	r3,32(r2)
        IOWR_ALTERA_AVALON_JTAG_UART_CONTROL(base, sp->irq_enable);
  812fd0:	e0bffc17 	ldw	r2,-16(fp)
  812fd4:	10800104 	addi	r2,r2,4
  812fd8:	1007883a 	mov	r3,r2
  812fdc:	e0bffb17 	ldw	r2,-20(fp)
  812fe0:	10800817 	ldw	r2,32(r2)
  812fe4:	18800035 	stwio	r2,0(r3)
        
        /* Dummy read to ensure IRQ is cleared prior to ISR completion */
        IORD_ALTERA_AVALON_JTAG_UART_CONTROL(base);
  812fe8:	e0bffc17 	ldw	r2,-16(fp)
  812fec:	10800104 	addi	r2,r2,4
  812ff0:	10800037 	ldwio	r2,0(r2)
      }
    }

    if (control & ALTERA_AVALON_JTAG_UART_CONTROL_WI_MSK)
  812ff4:	e0bffd17 	ldw	r2,-12(fp)
  812ff8:	1080800c 	andi	r2,r2,512
  812ffc:	103fbe26 	beq	r2,zero,812ef8 <__alt_mem_onchip_ram+0xff80eef8>
    {
      /* process a write irq */
      unsigned int space = (control & ALTERA_AVALON_JTAG_UART_CONTROL_WSPACE_MSK) >> ALTERA_AVALON_JTAG_UART_CONTROL_WSPACE_OFST;
  813000:	e0bffd17 	ldw	r2,-12(fp)
  813004:	1004d43a 	srli	r2,r2,16
  813008:	e0bffa15 	stw	r2,-24(fp)

      while (space > 0 && sp->tx_out != sp->tx_in)
  81300c:	00001406 	br	813060 <altera_avalon_jtag_uart_irq+0x18c>
      {
        IOWR_ALTERA_AVALON_JTAG_UART_DATA(base, sp->tx_buf[sp->tx_out]);
  813010:	e0bffc17 	ldw	r2,-16(fp)
  813014:	e0fffb17 	ldw	r3,-20(fp)
  813018:	18c00d17 	ldw	r3,52(r3)
  81301c:	e13ffb17 	ldw	r4,-20(fp)
  813020:	20c7883a 	add	r3,r4,r3
  813024:	18c20e04 	addi	r3,r3,2104
  813028:	18c00003 	ldbu	r3,0(r3)
  81302c:	18c03fcc 	andi	r3,r3,255
  813030:	18c0201c 	xori	r3,r3,128
  813034:	18ffe004 	addi	r3,r3,-128
  813038:	10c00035 	stwio	r3,0(r2)

        sp->tx_out = (sp->tx_out + 1) % ALTERA_AVALON_JTAG_UART_BUF_LEN;
  81303c:	e0bffb17 	ldw	r2,-20(fp)
  813040:	10800d17 	ldw	r2,52(r2)
  813044:	10800044 	addi	r2,r2,1
  813048:	10c1ffcc 	andi	r3,r2,2047
  81304c:	e0bffb17 	ldw	r2,-20(fp)
  813050:	10c00d15 	stw	r3,52(r2)

        /* Post an event to notify jtag_uart_write that a character has been written */
        ALT_FLAG_POST (sp->events, ALT_JTAG_UART_WRITE_RDY, OS_FLAG_SET);

        space--;
  813054:	e0bffa17 	ldw	r2,-24(fp)
  813058:	10bfffc4 	addi	r2,r2,-1
  81305c:	e0bffa15 	stw	r2,-24(fp)
    if (control & ALTERA_AVALON_JTAG_UART_CONTROL_WI_MSK)
    {
      /* process a write irq */
      unsigned int space = (control & ALTERA_AVALON_JTAG_UART_CONTROL_WSPACE_MSK) >> ALTERA_AVALON_JTAG_UART_CONTROL_WSPACE_OFST;

      while (space > 0 && sp->tx_out != sp->tx_in)
  813060:	e0bffa17 	ldw	r2,-24(fp)
  813064:	10000526 	beq	r2,zero,81307c <altera_avalon_jtag_uart_irq+0x1a8>
  813068:	e0bffb17 	ldw	r2,-20(fp)
  81306c:	10c00d17 	ldw	r3,52(r2)
  813070:	e0bffb17 	ldw	r2,-20(fp)
  813074:	10800c17 	ldw	r2,48(r2)
  813078:	18bfe51e 	bne	r3,r2,813010 <__alt_mem_onchip_ram+0xff80f010>
        ALT_FLAG_POST (sp->events, ALT_JTAG_UART_WRITE_RDY, OS_FLAG_SET);

        space--;
      }

      if (space > 0)
  81307c:	e0bffa17 	ldw	r2,-24(fp)
  813080:	103f9d26 	beq	r2,zero,812ef8 <__alt_mem_onchip_ram+0xff80eef8>
      {
        /* If we don't have any more data available then turn off the TX interrupt */
        sp->irq_enable &= ~ALTERA_AVALON_JTAG_UART_CONTROL_WE_MSK;
  813084:	e0bffb17 	ldw	r2,-20(fp)
  813088:	10c00817 	ldw	r3,32(r2)
  81308c:	00bfff44 	movi	r2,-3
  813090:	1886703a 	and	r3,r3,r2
  813094:	e0bffb17 	ldw	r2,-20(fp)
  813098:	10c00815 	stw	r3,32(r2)
        IOWR_ALTERA_AVALON_JTAG_UART_CONTROL(sp->base, sp->irq_enable);
  81309c:	e0bffb17 	ldw	r2,-20(fp)
  8130a0:	10800017 	ldw	r2,0(r2)
  8130a4:	10800104 	addi	r2,r2,4
  8130a8:	1007883a 	mov	r3,r2
  8130ac:	e0bffb17 	ldw	r2,-20(fp)
  8130b0:	10800817 	ldw	r2,32(r2)
  8130b4:	18800035 	stwio	r2,0(r3)
        
        /* Dummy read to ensure IRQ is cleared prior to ISR completion */
        IORD_ALTERA_AVALON_JTAG_UART_CONTROL(base);
  8130b8:	e0bffc17 	ldw	r2,-16(fp)
  8130bc:	10800104 	addi	r2,r2,4
  8130c0:	10800037 	ldwio	r2,0(r2)
      }
    }
  }
  8130c4:	003f8c06 	br	812ef8 <__alt_mem_onchip_ram+0xff80eef8>
  {
    unsigned int control = IORD_ALTERA_AVALON_JTAG_UART_CONTROL(base);

    /* Return once nothing more to do */
    if ((control & (ALTERA_AVALON_JTAG_UART_CONTROL_RI_MSK | ALTERA_AVALON_JTAG_UART_CONTROL_WI_MSK)) == 0)
      break;
  8130c8:	0001883a 	nop
        /* Dummy read to ensure IRQ is cleared prior to ISR completion */
        IORD_ALTERA_AVALON_JTAG_UART_CONTROL(base);
      }
    }
  }
}
  8130cc:	0001883a 	nop
  8130d0:	e037883a 	mov	sp,fp
  8130d4:	df000017 	ldw	fp,0(sp)
  8130d8:	dec00104 	addi	sp,sp,4
  8130dc:	f800283a 	ret

008130e0 <altera_avalon_jtag_uart_timeout>:
 * Timeout routine is called every second
 */

static alt_u32 
altera_avalon_jtag_uart_timeout(void* context) 
{
  8130e0:	defff804 	addi	sp,sp,-32
  8130e4:	df000715 	stw	fp,28(sp)
  8130e8:	df000704 	addi	fp,sp,28
  8130ec:	e13ffb15 	stw	r4,-20(fp)
  altera_avalon_jtag_uart_state* sp = (altera_avalon_jtag_uart_state *) context;
  8130f0:	e0bffb17 	ldw	r2,-20(fp)
  8130f4:	e0bff915 	stw	r2,-28(fp)

  unsigned int control = IORD_ALTERA_AVALON_JTAG_UART_CONTROL(sp->base);
  8130f8:	e0bff917 	ldw	r2,-28(fp)
  8130fc:	10800017 	ldw	r2,0(r2)
  813100:	10800104 	addi	r2,r2,4
  813104:	10800037 	ldwio	r2,0(r2)
  813108:	e0bffa15 	stw	r2,-24(fp)

  if (control & ALTERA_AVALON_JTAG_UART_CONTROL_AC_MSK)
  81310c:	e0bffa17 	ldw	r2,-24(fp)
  813110:	1081000c 	andi	r2,r2,1024
  813114:	10000b26 	beq	r2,zero,813144 <altera_avalon_jtag_uart_timeout+0x64>
  {
    IOWR_ALTERA_AVALON_JTAG_UART_CONTROL(sp->base, sp->irq_enable | ALTERA_AVALON_JTAG_UART_CONTROL_AC_MSK);
  813118:	e0bff917 	ldw	r2,-28(fp)
  81311c:	10800017 	ldw	r2,0(r2)
  813120:	10800104 	addi	r2,r2,4
  813124:	1007883a 	mov	r3,r2
  813128:	e0bff917 	ldw	r2,-28(fp)
  81312c:	10800817 	ldw	r2,32(r2)
  813130:	10810014 	ori	r2,r2,1024
  813134:	18800035 	stwio	r2,0(r3)
    sp->host_inactive = 0;
  813138:	e0bff917 	ldw	r2,-28(fp)
  81313c:	10000915 	stw	zero,36(r2)
  813140:	00000a06 	br	81316c <altera_avalon_jtag_uart_timeout+0x8c>
  }
  else if (sp->host_inactive < INT_MAX - 2) {
  813144:	e0bff917 	ldw	r2,-28(fp)
  813148:	10c00917 	ldw	r3,36(r2)
  81314c:	00a00034 	movhi	r2,32768
  813150:	10bfff04 	addi	r2,r2,-4
  813154:	10c00536 	bltu	r2,r3,81316c <altera_avalon_jtag_uart_timeout+0x8c>
    sp->host_inactive++;
  813158:	e0bff917 	ldw	r2,-28(fp)
  81315c:	10800917 	ldw	r2,36(r2)
  813160:	10c00044 	addi	r3,r2,1
  813164:	e0bff917 	ldw	r2,-28(fp)
  813168:	10c00915 	stw	r3,36(r2)
  81316c:	008020b4 	movhi	r2,130
  813170:	10a1aa04 	addi	r2,r2,-31064
  813174:	10800017 	ldw	r2,0(r2)
      ALT_FLAG_POST (sp->events, ALT_JTAG_UART_TIMEOUT, OS_FLAG_SET);
    }
  }

  return alt_ticks_per_second();
}
  813178:	e037883a 	mov	sp,fp
  81317c:	df000017 	ldw	fp,0(sp)
  813180:	dec00104 	addi	sp,sp,4
  813184:	f800283a 	ret

00813188 <altera_avalon_jtag_uart_close>:
 * The close routine is not implemented for the small driver; instead it will
 * map to null. This is because the small driver simply waits while characters
 * are transmitted; there is no interrupt-serviced buffer to empty 
 */
int altera_avalon_jtag_uart_close(altera_avalon_jtag_uart_state* sp, int flags)
{
  813188:	defffd04 	addi	sp,sp,-12
  81318c:	df000215 	stw	fp,8(sp)
  813190:	df000204 	addi	fp,sp,8
  813194:	e13ffe15 	stw	r4,-8(fp)
  813198:	e17fff15 	stw	r5,-4(fp)
  /* 
   * Wait for all transmit data to be emptied by the JTAG UART ISR, or
   * for a host-inactivity timeout, in which case transmit data will be lost
   */
  while ( (sp->tx_out != sp->tx_in) && (sp->host_inactive < sp->timeout) ) {
  81319c:	00000506 	br	8131b4 <altera_avalon_jtag_uart_close+0x2c>
    if (flags & O_NONBLOCK) {
  8131a0:	e0bfff17 	ldw	r2,-4(fp)
  8131a4:	1090000c 	andi	r2,r2,16384
  8131a8:	10000226 	beq	r2,zero,8131b4 <altera_avalon_jtag_uart_close+0x2c>
      return -EWOULDBLOCK; 
  8131ac:	00bffd44 	movi	r2,-11
  8131b0:	00000b06 	br	8131e0 <altera_avalon_jtag_uart_close+0x58>
{
  /* 
   * Wait for all transmit data to be emptied by the JTAG UART ISR, or
   * for a host-inactivity timeout, in which case transmit data will be lost
   */
  while ( (sp->tx_out != sp->tx_in) && (sp->host_inactive < sp->timeout) ) {
  8131b4:	e0bffe17 	ldw	r2,-8(fp)
  8131b8:	10c00d17 	ldw	r3,52(r2)
  8131bc:	e0bffe17 	ldw	r2,-8(fp)
  8131c0:	10800c17 	ldw	r2,48(r2)
  8131c4:	18800526 	beq	r3,r2,8131dc <altera_avalon_jtag_uart_close+0x54>
  8131c8:	e0bffe17 	ldw	r2,-8(fp)
  8131cc:	10c00917 	ldw	r3,36(r2)
  8131d0:	e0bffe17 	ldw	r2,-8(fp)
  8131d4:	10800117 	ldw	r2,4(r2)
  8131d8:	18bff136 	bltu	r3,r2,8131a0 <__alt_mem_onchip_ram+0xff80f1a0>
    if (flags & O_NONBLOCK) {
      return -EWOULDBLOCK; 
    }
  }

  return 0;
  8131dc:	0005883a 	mov	r2,zero
}
  8131e0:	e037883a 	mov	sp,fp
  8131e4:	df000017 	ldw	fp,0(sp)
  8131e8:	dec00104 	addi	sp,sp,4
  8131ec:	f800283a 	ret

008131f0 <altera_avalon_jtag_uart_ioctl>:
/* ----------------------------------------------------------- */

int 
altera_avalon_jtag_uart_ioctl(altera_avalon_jtag_uart_state* sp, int req,
  void* arg)
{
  8131f0:	defffa04 	addi	sp,sp,-24
  8131f4:	df000515 	stw	fp,20(sp)
  8131f8:	df000504 	addi	fp,sp,20
  8131fc:	e13ffd15 	stw	r4,-12(fp)
  813200:	e17ffe15 	stw	r5,-8(fp)
  813204:	e1bfff15 	stw	r6,-4(fp)
  int rc = -ENOTTY;
  813208:	00bff9c4 	movi	r2,-25
  81320c:	e0bffb15 	stw	r2,-20(fp)

  switch (req)
  813210:	e0bffe17 	ldw	r2,-8(fp)
  813214:	10da8060 	cmpeqi	r3,r2,27137
  813218:	1800031e 	bne	r3,zero,813228 <altera_avalon_jtag_uart_ioctl+0x38>
  81321c:	109a80a0 	cmpeqi	r2,r2,27138
  813220:	1000181e 	bne	r2,zero,813284 <altera_avalon_jtag_uart_ioctl+0x94>
      rc = 0;
    }
    break;

  default:
    break;
  813224:	00002906 	br	8132cc <altera_avalon_jtag_uart_ioctl+0xdc>

  switch (req)
  {
  case TIOCSTIMEOUT:
    /* Set the time to wait until assuming host is not connected */
    if (sp->timeout != INT_MAX)
  813228:	e0bffd17 	ldw	r2,-12(fp)
  81322c:	10c00117 	ldw	r3,4(r2)
  813230:	00a00034 	movhi	r2,32768
  813234:	10bfffc4 	addi	r2,r2,-1
  813238:	18802126 	beq	r3,r2,8132c0 <altera_avalon_jtag_uart_ioctl+0xd0>
    {
      int timeout = *((int *)arg);
  81323c:	e0bfff17 	ldw	r2,-4(fp)
  813240:	10800017 	ldw	r2,0(r2)
  813244:	e0bffc15 	stw	r2,-16(fp)
      sp->timeout = (timeout >= 2 && timeout < INT_MAX) ? timeout : INT_MAX - 1;
  813248:	e0bffc17 	ldw	r2,-16(fp)
  81324c:	10800090 	cmplti	r2,r2,2
  813250:	1000061e 	bne	r2,zero,81326c <altera_avalon_jtag_uart_ioctl+0x7c>
  813254:	e0fffc17 	ldw	r3,-16(fp)
  813258:	00a00034 	movhi	r2,32768
  81325c:	10bfffc4 	addi	r2,r2,-1
  813260:	18800226 	beq	r3,r2,81326c <altera_avalon_jtag_uart_ioctl+0x7c>
  813264:	e0bffc17 	ldw	r2,-16(fp)
  813268:	00000206 	br	813274 <altera_avalon_jtag_uart_ioctl+0x84>
  81326c:	00a00034 	movhi	r2,32768
  813270:	10bfff84 	addi	r2,r2,-2
  813274:	e0fffd17 	ldw	r3,-12(fp)
  813278:	18800115 	stw	r2,4(r3)
      rc = 0;
  81327c:	e03ffb15 	stw	zero,-20(fp)
    }
    break;
  813280:	00000f06 	br	8132c0 <altera_avalon_jtag_uart_ioctl+0xd0>

  case TIOCGCONNECTED:
    /* Find out whether host is connected */
    if (sp->timeout != INT_MAX)
  813284:	e0bffd17 	ldw	r2,-12(fp)
  813288:	10c00117 	ldw	r3,4(r2)
  81328c:	00a00034 	movhi	r2,32768
  813290:	10bfffc4 	addi	r2,r2,-1
  813294:	18800c26 	beq	r3,r2,8132c8 <altera_avalon_jtag_uart_ioctl+0xd8>
    {
      *((int *)arg) = (sp->host_inactive < sp->timeout) ? 1 : 0;
  813298:	e0bffd17 	ldw	r2,-12(fp)
  81329c:	10c00917 	ldw	r3,36(r2)
  8132a0:	e0bffd17 	ldw	r2,-12(fp)
  8132a4:	10800117 	ldw	r2,4(r2)
  8132a8:	1885803a 	cmpltu	r2,r3,r2
  8132ac:	10c03fcc 	andi	r3,r2,255
  8132b0:	e0bfff17 	ldw	r2,-4(fp)
  8132b4:	10c00015 	stw	r3,0(r2)
      rc = 0;
  8132b8:	e03ffb15 	stw	zero,-20(fp)
    }
    break;
  8132bc:	00000206 	br	8132c8 <altera_avalon_jtag_uart_ioctl+0xd8>
    {
      int timeout = *((int *)arg);
      sp->timeout = (timeout >= 2 && timeout < INT_MAX) ? timeout : INT_MAX - 1;
      rc = 0;
    }
    break;
  8132c0:	0001883a 	nop
  8132c4:	00000106 	br	8132cc <altera_avalon_jtag_uart_ioctl+0xdc>
    if (sp->timeout != INT_MAX)
    {
      *((int *)arg) = (sp->host_inactive < sp->timeout) ? 1 : 0;
      rc = 0;
    }
    break;
  8132c8:	0001883a 	nop

  default:
    break;
  }

  return rc;
  8132cc:	e0bffb17 	ldw	r2,-20(fp)
}
  8132d0:	e037883a 	mov	sp,fp
  8132d4:	df000017 	ldw	fp,0(sp)
  8132d8:	dec00104 	addi	sp,sp,4
  8132dc:	f800283a 	ret

008132e0 <altera_avalon_jtag_uart_read>:
/* ----------------------------------------------------------- */

int 
altera_avalon_jtag_uart_read(altera_avalon_jtag_uart_state* sp, 
  char * buffer, int space, int flags)
{
  8132e0:	defff304 	addi	sp,sp,-52
  8132e4:	dfc00c15 	stw	ra,48(sp)
  8132e8:	df000b15 	stw	fp,44(sp)
  8132ec:	df000b04 	addi	fp,sp,44
  8132f0:	e13ffc15 	stw	r4,-16(fp)
  8132f4:	e17ffd15 	stw	r5,-12(fp)
  8132f8:	e1bffe15 	stw	r6,-8(fp)
  8132fc:	e1ffff15 	stw	r7,-4(fp)
  char * ptr = buffer;
  813300:	e0bffd17 	ldw	r2,-12(fp)
  813304:	e0bff515 	stw	r2,-44(fp)
   * When running in a multi threaded environment, obtain the "read_lock"
   * semaphore. This ensures that reading from the device is thread-safe.
   */
  ALT_SEM_PEND (sp->read_lock, 0);

  while (space > 0)
  813308:	00004706 	br	813428 <altera_avalon_jtag_uart_read+0x148>
    unsigned int in, out;

    /* Read as much data as possible */
    do
    {
      in  = sp->rx_in;
  81330c:	e0bffc17 	ldw	r2,-16(fp)
  813310:	10800a17 	ldw	r2,40(r2)
  813314:	e0bff715 	stw	r2,-36(fp)
      out = sp->rx_out;
  813318:	e0bffc17 	ldw	r2,-16(fp)
  81331c:	10800b17 	ldw	r2,44(r2)
  813320:	e0bff815 	stw	r2,-32(fp)

      if (in >= out)
  813324:	e0fff717 	ldw	r3,-36(fp)
  813328:	e0bff817 	ldw	r2,-32(fp)
  81332c:	18800536 	bltu	r3,r2,813344 <altera_avalon_jtag_uart_read+0x64>
        n = in - out;
  813330:	e0fff717 	ldw	r3,-36(fp)
  813334:	e0bff817 	ldw	r2,-32(fp)
  813338:	1885c83a 	sub	r2,r3,r2
  81333c:	e0bff615 	stw	r2,-40(fp)
  813340:	00000406 	br	813354 <altera_avalon_jtag_uart_read+0x74>
      else
        n = ALTERA_AVALON_JTAG_UART_BUF_LEN - out;
  813344:	00c20004 	movi	r3,2048
  813348:	e0bff817 	ldw	r2,-32(fp)
  81334c:	1885c83a 	sub	r2,r3,r2
  813350:	e0bff615 	stw	r2,-40(fp)

      if (n == 0)
  813354:	e0bff617 	ldw	r2,-40(fp)
  813358:	10001e26 	beq	r2,zero,8133d4 <altera_avalon_jtag_uart_read+0xf4>
        break; /* No more data available */

      if (n > space)
  81335c:	e0fffe17 	ldw	r3,-8(fp)
  813360:	e0bff617 	ldw	r2,-40(fp)
  813364:	1880022e 	bgeu	r3,r2,813370 <altera_avalon_jtag_uart_read+0x90>
        n = space;
  813368:	e0bffe17 	ldw	r2,-8(fp)
  81336c:	e0bff615 	stw	r2,-40(fp)

      memcpy(ptr, sp->rx_buf + out, n);
  813370:	e0bffc17 	ldw	r2,-16(fp)
  813374:	10c00e04 	addi	r3,r2,56
  813378:	e0bff817 	ldw	r2,-32(fp)
  81337c:	1885883a 	add	r2,r3,r2
  813380:	e1bff617 	ldw	r6,-40(fp)
  813384:	100b883a 	mov	r5,r2
  813388:	e13ff517 	ldw	r4,-44(fp)
  81338c:	0803e400 	call	803e40 <memcpy>
      ptr   += n;
  813390:	e0fff517 	ldw	r3,-44(fp)
  813394:	e0bff617 	ldw	r2,-40(fp)
  813398:	1885883a 	add	r2,r3,r2
  81339c:	e0bff515 	stw	r2,-44(fp)
      space -= n;
  8133a0:	e0fffe17 	ldw	r3,-8(fp)
  8133a4:	e0bff617 	ldw	r2,-40(fp)
  8133a8:	1885c83a 	sub	r2,r3,r2
  8133ac:	e0bffe15 	stw	r2,-8(fp)

      sp->rx_out = (out + n) % ALTERA_AVALON_JTAG_UART_BUF_LEN;
  8133b0:	e0fff817 	ldw	r3,-32(fp)
  8133b4:	e0bff617 	ldw	r2,-40(fp)
  8133b8:	1885883a 	add	r2,r3,r2
  8133bc:	10c1ffcc 	andi	r3,r2,2047
  8133c0:	e0bffc17 	ldw	r2,-16(fp)
  8133c4:	10c00b15 	stw	r3,44(r2)
    }
    while (space > 0);
  8133c8:	e0bffe17 	ldw	r2,-8(fp)
  8133cc:	00bfcf16 	blt	zero,r2,81330c <__alt_mem_onchip_ram+0xff80f30c>
  8133d0:	00000106 	br	8133d8 <altera_avalon_jtag_uart_read+0xf8>
        n = in - out;
      else
        n = ALTERA_AVALON_JTAG_UART_BUF_LEN - out;

      if (n == 0)
        break; /* No more data available */
  8133d4:	0001883a 	nop
      sp->rx_out = (out + n) % ALTERA_AVALON_JTAG_UART_BUF_LEN;
    }
    while (space > 0);

    /* If we read any data then return it */
    if (ptr != buffer)
  8133d8:	e0fff517 	ldw	r3,-44(fp)
  8133dc:	e0bffd17 	ldw	r2,-12(fp)
  8133e0:	1880141e 	bne	r3,r2,813434 <altera_avalon_jtag_uart_read+0x154>
      break;

    /* If in non-blocking mode then return error */
    if (flags & O_NONBLOCK)
  8133e4:	e0bfff17 	ldw	r2,-4(fp)
  8133e8:	1090000c 	andi	r2,r2,16384
  8133ec:	1000131e 	bne	r2,zero,81343c <altera_avalon_jtag_uart_read+0x15c>
      while (in == sp->rx_in && sp->host_inactive < sp->timeout)
        ;
    }
#else
    /* No OS: Always spin */
    while (in == sp->rx_in && sp->host_inactive < sp->timeout)
  8133f0:	0001883a 	nop
  8133f4:	e0bffc17 	ldw	r2,-16(fp)
  8133f8:	10c00a17 	ldw	r3,40(r2)
  8133fc:	e0bff717 	ldw	r2,-36(fp)
  813400:	1880051e 	bne	r3,r2,813418 <altera_avalon_jtag_uart_read+0x138>
  813404:	e0bffc17 	ldw	r2,-16(fp)
  813408:	10c00917 	ldw	r3,36(r2)
  81340c:	e0bffc17 	ldw	r2,-16(fp)
  813410:	10800117 	ldw	r2,4(r2)
  813414:	18bff736 	bltu	r3,r2,8133f4 <__alt_mem_onchip_ram+0xff80f3f4>
      ;
#endif /* __ucosii__ */

    if (in == sp->rx_in)
  813418:	e0bffc17 	ldw	r2,-16(fp)
  81341c:	10c00a17 	ldw	r3,40(r2)
  813420:	e0bff717 	ldw	r2,-36(fp)
  813424:	18800726 	beq	r3,r2,813444 <altera_avalon_jtag_uart_read+0x164>
   * When running in a multi threaded environment, obtain the "read_lock"
   * semaphore. This ensures that reading from the device is thread-safe.
   */
  ALT_SEM_PEND (sp->read_lock, 0);

  while (space > 0)
  813428:	e0bffe17 	ldw	r2,-8(fp)
  81342c:	00bfb716 	blt	zero,r2,81330c <__alt_mem_onchip_ram+0xff80f30c>
  813430:	00000506 	br	813448 <altera_avalon_jtag_uart_read+0x168>
    }
    while (space > 0);

    /* If we read any data then return it */
    if (ptr != buffer)
      break;
  813434:	0001883a 	nop
  813438:	00000306 	br	813448 <altera_avalon_jtag_uart_read+0x168>

    /* If in non-blocking mode then return error */
    if (flags & O_NONBLOCK)
      break;
  81343c:	0001883a 	nop
  813440:	00000106 	br	813448 <altera_avalon_jtag_uart_read+0x168>
    while (in == sp->rx_in && sp->host_inactive < sp->timeout)
      ;
#endif /* __ucosii__ */

    if (in == sp->rx_in)
      break;
  813444:	0001883a 	nop
   * semaphore so that other threads can access the buffer.
   */

  ALT_SEM_POST (sp->read_lock);

  if (ptr != buffer)
  813448:	e0fff517 	ldw	r3,-44(fp)
  81344c:	e0bffd17 	ldw	r2,-12(fp)
  813450:	18801826 	beq	r3,r2,8134b4 <altera_avalon_jtag_uart_read+0x1d4>
static ALT_INLINE alt_irq_context ALT_ALWAYS_INLINE 
       alt_irq_disable_all (void)
{
  alt_irq_context context;

  NIOS2_READ_STATUS (context);
  813454:	0005303a 	rdctl	r2,status
  813458:	e0bffb15 	stw	r2,-20(fp)

  NIOS2_WRITE_STATUS (context & ~NIOS2_STATUS_PIE_MSK);
  81345c:	e0fffb17 	ldw	r3,-20(fp)
  813460:	00bfff84 	movi	r2,-2
  813464:	1884703a 	and	r2,r3,r2
  813468:	1001703a 	wrctl	status,r2
  
  return context;
  81346c:	e0bffb17 	ldw	r2,-20(fp)
  {
    /* If we read any data then there is space in the buffer so enable interrupts */
    context = alt_irq_disable_all();
  813470:	e0bffa15 	stw	r2,-24(fp)
    sp->irq_enable |= ALTERA_AVALON_JTAG_UART_CONTROL_RE_MSK;
  813474:	e0bffc17 	ldw	r2,-16(fp)
  813478:	10800817 	ldw	r2,32(r2)
  81347c:	10c00054 	ori	r3,r2,1
  813480:	e0bffc17 	ldw	r2,-16(fp)
  813484:	10c00815 	stw	r3,32(r2)
    IOWR_ALTERA_AVALON_JTAG_UART_CONTROL(sp->base, sp->irq_enable);
  813488:	e0bffc17 	ldw	r2,-16(fp)
  81348c:	10800017 	ldw	r2,0(r2)
  813490:	10800104 	addi	r2,r2,4
  813494:	1007883a 	mov	r3,r2
  813498:	e0bffc17 	ldw	r2,-16(fp)
  81349c:	10800817 	ldw	r2,32(r2)
  8134a0:	18800035 	stwio	r2,0(r3)
  8134a4:	e0bffa17 	ldw	r2,-24(fp)
  8134a8:	e0bff915 	stw	r2,-28(fp)
  status &= ~NIOS2_STATUS_PIE_MSK;
  status |= (context & NIOS2_STATUS_PIE_MSK);
  
  NIOS2_WRITE_STATUS (status);
#else
  NIOS2_WRITE_STATUS (context);
  8134ac:	e0bff917 	ldw	r2,-28(fp)
  8134b0:	1001703a 	wrctl	status,r2
    alt_irq_enable_all(context);
  }

  if (ptr != buffer)
  8134b4:	e0fff517 	ldw	r3,-44(fp)
  8134b8:	e0bffd17 	ldw	r2,-12(fp)
  8134bc:	18800426 	beq	r3,r2,8134d0 <altera_avalon_jtag_uart_read+0x1f0>
    return ptr - buffer;
  8134c0:	e0fff517 	ldw	r3,-44(fp)
  8134c4:	e0bffd17 	ldw	r2,-12(fp)
  8134c8:	1885c83a 	sub	r2,r3,r2
  8134cc:	00000606 	br	8134e8 <altera_avalon_jtag_uart_read+0x208>
  else if (flags & O_NONBLOCK)
  8134d0:	e0bfff17 	ldw	r2,-4(fp)
  8134d4:	1090000c 	andi	r2,r2,16384
  8134d8:	10000226 	beq	r2,zero,8134e4 <altera_avalon_jtag_uart_read+0x204>
    return -EWOULDBLOCK;
  8134dc:	00bffd44 	movi	r2,-11
  8134e0:	00000106 	br	8134e8 <altera_avalon_jtag_uart_read+0x208>
  else
    return -EIO;
  8134e4:	00bffec4 	movi	r2,-5
}
  8134e8:	e037883a 	mov	sp,fp
  8134ec:	dfc00117 	ldw	ra,4(sp)
  8134f0:	df000017 	ldw	fp,0(sp)
  8134f4:	dec00204 	addi	sp,sp,8
  8134f8:	f800283a 	ret

008134fc <altera_avalon_jtag_uart_write>:
/* ----------------------------------------------------------- */

int 
altera_avalon_jtag_uart_write(altera_avalon_jtag_uart_state* sp, 
  const char * ptr, int count, int flags)
{
  8134fc:	defff304 	addi	sp,sp,-52
  813500:	dfc00c15 	stw	ra,48(sp)
  813504:	df000b15 	stw	fp,44(sp)
  813508:	df000b04 	addi	fp,sp,44
  81350c:	e13ffc15 	stw	r4,-16(fp)
  813510:	e17ffd15 	stw	r5,-12(fp)
  813514:	e1bffe15 	stw	r6,-8(fp)
  813518:	e1ffff15 	stw	r7,-4(fp)
  /* Remove warning at optimisation level 03 by seting out to 0 */
  unsigned int in, out=0;
  81351c:	e03ff515 	stw	zero,-44(fp)
  unsigned int n;
  alt_irq_context context;

  const char * start = ptr;
  813520:	e0bffd17 	ldw	r2,-12(fp)
  813524:	e0bff715 	stw	r2,-36(fp)
  ALT_SEM_PEND (sp->write_lock, 0);

  do
  {
    /* Copy as much as we can into the transmit buffer */
    while (count > 0)
  813528:	00003706 	br	813608 <altera_avalon_jtag_uart_write+0x10c>
    {
      /* We need a stable value of the out pointer to calculate the space available */
      in  = sp->tx_in;
  81352c:	e0bffc17 	ldw	r2,-16(fp)
  813530:	10800c17 	ldw	r2,48(r2)
  813534:	e0bff915 	stw	r2,-28(fp)
      out = sp->tx_out;
  813538:	e0bffc17 	ldw	r2,-16(fp)
  81353c:	10800d17 	ldw	r2,52(r2)
  813540:	e0bff515 	stw	r2,-44(fp)

      if (in < out)
  813544:	e0fff917 	ldw	r3,-28(fp)
  813548:	e0bff517 	ldw	r2,-44(fp)
  81354c:	1880062e 	bgeu	r3,r2,813568 <altera_avalon_jtag_uart_write+0x6c>
        n = out - 1 - in;
  813550:	e0fff517 	ldw	r3,-44(fp)
  813554:	e0bff917 	ldw	r2,-28(fp)
  813558:	1885c83a 	sub	r2,r3,r2
  81355c:	10bfffc4 	addi	r2,r2,-1
  813560:	e0bff615 	stw	r2,-40(fp)
  813564:	00000b06 	br	813594 <altera_avalon_jtag_uart_write+0x98>
      else if (out > 0)
  813568:	e0bff517 	ldw	r2,-44(fp)
  81356c:	10000526 	beq	r2,zero,813584 <altera_avalon_jtag_uart_write+0x88>
        n = ALTERA_AVALON_JTAG_UART_BUF_LEN - in;
  813570:	00c20004 	movi	r3,2048
  813574:	e0bff917 	ldw	r2,-28(fp)
  813578:	1885c83a 	sub	r2,r3,r2
  81357c:	e0bff615 	stw	r2,-40(fp)
  813580:	00000406 	br	813594 <altera_avalon_jtag_uart_write+0x98>
      else
        n = ALTERA_AVALON_JTAG_UART_BUF_LEN - 1 - in;
  813584:	00c1ffc4 	movi	r3,2047
  813588:	e0bff917 	ldw	r2,-28(fp)
  81358c:	1885c83a 	sub	r2,r3,r2
  813590:	e0bff615 	stw	r2,-40(fp)

      if (n == 0)
  813594:	e0bff617 	ldw	r2,-40(fp)
  813598:	10001e26 	beq	r2,zero,813614 <altera_avalon_jtag_uart_write+0x118>
        break;

      if (n > count)
  81359c:	e0fffe17 	ldw	r3,-8(fp)
  8135a0:	e0bff617 	ldw	r2,-40(fp)
  8135a4:	1880022e 	bgeu	r3,r2,8135b0 <altera_avalon_jtag_uart_write+0xb4>
        n = count;
  8135a8:	e0bffe17 	ldw	r2,-8(fp)
  8135ac:	e0bff615 	stw	r2,-40(fp)

      memcpy(sp->tx_buf + in, ptr, n);
  8135b0:	e0bffc17 	ldw	r2,-16(fp)
  8135b4:	10c20e04 	addi	r3,r2,2104
  8135b8:	e0bff917 	ldw	r2,-28(fp)
  8135bc:	1885883a 	add	r2,r3,r2
  8135c0:	e1bff617 	ldw	r6,-40(fp)
  8135c4:	e17ffd17 	ldw	r5,-12(fp)
  8135c8:	1009883a 	mov	r4,r2
  8135cc:	0803e400 	call	803e40 <memcpy>
      ptr   += n;
  8135d0:	e0fffd17 	ldw	r3,-12(fp)
  8135d4:	e0bff617 	ldw	r2,-40(fp)
  8135d8:	1885883a 	add	r2,r3,r2
  8135dc:	e0bffd15 	stw	r2,-12(fp)
      count -= n;
  8135e0:	e0fffe17 	ldw	r3,-8(fp)
  8135e4:	e0bff617 	ldw	r2,-40(fp)
  8135e8:	1885c83a 	sub	r2,r3,r2
  8135ec:	e0bffe15 	stw	r2,-8(fp)

      sp->tx_in = (in + n) % ALTERA_AVALON_JTAG_UART_BUF_LEN;
  8135f0:	e0fff917 	ldw	r3,-28(fp)
  8135f4:	e0bff617 	ldw	r2,-40(fp)
  8135f8:	1885883a 	add	r2,r3,r2
  8135fc:	10c1ffcc 	andi	r3,r2,2047
  813600:	e0bffc17 	ldw	r2,-16(fp)
  813604:	10c00c15 	stw	r3,48(r2)
  ALT_SEM_PEND (sp->write_lock, 0);

  do
  {
    /* Copy as much as we can into the transmit buffer */
    while (count > 0)
  813608:	e0bffe17 	ldw	r2,-8(fp)
  81360c:	00bfc716 	blt	zero,r2,81352c <__alt_mem_onchip_ram+0xff80f52c>
  813610:	00000106 	br	813618 <altera_avalon_jtag_uart_write+0x11c>
        n = ALTERA_AVALON_JTAG_UART_BUF_LEN - in;
      else
        n = ALTERA_AVALON_JTAG_UART_BUF_LEN - 1 - in;

      if (n == 0)
        break;
  813614:	0001883a 	nop
static ALT_INLINE alt_irq_context ALT_ALWAYS_INLINE 
       alt_irq_disable_all (void)
{
  alt_irq_context context;

  NIOS2_READ_STATUS (context);
  813618:	0005303a 	rdctl	r2,status
  81361c:	e0bffb15 	stw	r2,-20(fp)

  NIOS2_WRITE_STATUS (context & ~NIOS2_STATUS_PIE_MSK);
  813620:	e0fffb17 	ldw	r3,-20(fp)
  813624:	00bfff84 	movi	r2,-2
  813628:	1884703a 	and	r2,r3,r2
  81362c:	1001703a 	wrctl	status,r2
  
  return context;
  813630:	e0bffb17 	ldw	r2,-20(fp)
     * to enable interrupts if there is no space left in the FIFO
     *
     * For now kick the interrupt routine every time to make it transmit 
     * the data 
     */
    context = alt_irq_disable_all();
  813634:	e0bffa15 	stw	r2,-24(fp)
    sp->irq_enable |= ALTERA_AVALON_JTAG_UART_CONTROL_WE_MSK;
  813638:	e0bffc17 	ldw	r2,-16(fp)
  81363c:	10800817 	ldw	r2,32(r2)
  813640:	10c00094 	ori	r3,r2,2
  813644:	e0bffc17 	ldw	r2,-16(fp)
  813648:	10c00815 	stw	r3,32(r2)
    IOWR_ALTERA_AVALON_JTAG_UART_CONTROL(sp->base, sp->irq_enable);
  81364c:	e0bffc17 	ldw	r2,-16(fp)
  813650:	10800017 	ldw	r2,0(r2)
  813654:	10800104 	addi	r2,r2,4
  813658:	1007883a 	mov	r3,r2
  81365c:	e0bffc17 	ldw	r2,-16(fp)
  813660:	10800817 	ldw	r2,32(r2)
  813664:	18800035 	stwio	r2,0(r3)
  813668:	e0bffa17 	ldw	r2,-24(fp)
  81366c:	e0bff815 	stw	r2,-32(fp)
  status &= ~NIOS2_STATUS_PIE_MSK;
  status |= (context & NIOS2_STATUS_PIE_MSK);
  
  NIOS2_WRITE_STATUS (status);
#else
  NIOS2_WRITE_STATUS (context);
  813670:	e0bff817 	ldw	r2,-32(fp)
  813674:	1001703a 	wrctl	status,r2
    /* 
     * If there is any data left then either return now or block until 
     * some has been sent 
     */
    /* consider: test whether there is anything there while doing this and delay for at most 2s. */
    if (count > 0)
  813678:	e0bffe17 	ldw	r2,-8(fp)
  81367c:	0080100e 	bge	zero,r2,8136c0 <altera_avalon_jtag_uart_write+0x1c4>
    {
      if (flags & O_NONBLOCK)
  813680:	e0bfff17 	ldw	r2,-4(fp)
  813684:	1090000c 	andi	r2,r2,16384
  813688:	1000101e 	bne	r2,zero,8136cc <altera_avalon_jtag_uart_write+0x1d0>
      /*
       * No OS present: Always wait for data to be removed from buffer.  Once
       * the interrupt routine has removed some data then we will be able to
       * insert some more.
       */
      while (out == sp->tx_out && sp->host_inactive < sp->timeout)
  81368c:	0001883a 	nop
  813690:	e0bffc17 	ldw	r2,-16(fp)
  813694:	10c00d17 	ldw	r3,52(r2)
  813698:	e0bff517 	ldw	r2,-44(fp)
  81369c:	1880051e 	bne	r3,r2,8136b4 <altera_avalon_jtag_uart_write+0x1b8>
  8136a0:	e0bffc17 	ldw	r2,-16(fp)
  8136a4:	10c00917 	ldw	r3,36(r2)
  8136a8:	e0bffc17 	ldw	r2,-16(fp)
  8136ac:	10800117 	ldw	r2,4(r2)
  8136b0:	18bff736 	bltu	r3,r2,813690 <__alt_mem_onchip_ram+0xff80f690>
        ;
#endif /* __ucosii__ */

      if  (sp->host_inactive)
  8136b4:	e0bffc17 	ldw	r2,-16(fp)
  8136b8:	10800917 	ldw	r2,36(r2)
  8136bc:	1000051e 	bne	r2,zero,8136d4 <altera_avalon_jtag_uart_write+0x1d8>
         break;
    }
  }
  while (count > 0);
  8136c0:	e0bffe17 	ldw	r2,-8(fp)
  8136c4:	00bfd016 	blt	zero,r2,813608 <__alt_mem_onchip_ram+0xff80f608>
  8136c8:	00000306 	br	8136d8 <altera_avalon_jtag_uart_write+0x1dc>
     */
    /* consider: test whether there is anything there while doing this and delay for at most 2s. */
    if (count > 0)
    {
      if (flags & O_NONBLOCK)
        break;
  8136cc:	0001883a 	nop
  8136d0:	00000106 	br	8136d8 <altera_avalon_jtag_uart_write+0x1dc>
      while (out == sp->tx_out && sp->host_inactive < sp->timeout)
        ;
#endif /* __ucosii__ */

      if  (sp->host_inactive)
         break;
  8136d4:	0001883a 	nop
   * Now that access to the circular buffer is complete, release the write
   * semaphore so that other threads can access the buffer.
   */
  ALT_SEM_POST (sp->write_lock);

  if (ptr != start)
  8136d8:	e0fffd17 	ldw	r3,-12(fp)
  8136dc:	e0bff717 	ldw	r2,-36(fp)
  8136e0:	18800426 	beq	r3,r2,8136f4 <altera_avalon_jtag_uart_write+0x1f8>
    return ptr - start;
  8136e4:	e0fffd17 	ldw	r3,-12(fp)
  8136e8:	e0bff717 	ldw	r2,-36(fp)
  8136ec:	1885c83a 	sub	r2,r3,r2
  8136f0:	00000606 	br	81370c <altera_avalon_jtag_uart_write+0x210>
  else if (flags & O_NONBLOCK)
  8136f4:	e0bfff17 	ldw	r2,-4(fp)
  8136f8:	1090000c 	andi	r2,r2,16384
  8136fc:	10000226 	beq	r2,zero,813708 <altera_avalon_jtag_uart_write+0x20c>
    return -EWOULDBLOCK;
  813700:	00bffd44 	movi	r2,-11
  813704:	00000106 	br	81370c <altera_avalon_jtag_uart_write+0x210>
    sp->tx_out = sp->tx_in = 0;
    return ptr - start + count;
  }
#endif
  else
    return -EIO; /* Host not connected */
  813708:	00bffec4 	movi	r2,-5
}
  81370c:	e037883a 	mov	sp,fp
  813710:	dfc00117 	ldw	ra,4(sp)
  813714:	df000017 	ldw	fp,0(sp)
  813718:	dec00204 	addi	sp,sp,8
  81371c:	f800283a 	ret

00813720 <alt_alarm_start>:
 */ 

int alt_alarm_start (alt_alarm* alarm, alt_u32 nticks,
                     alt_u32 (*callback) (void* context),
                     void* context)
{
  813720:	defff504 	addi	sp,sp,-44
  813724:	df000a15 	stw	fp,40(sp)
  813728:	df000a04 	addi	fp,sp,40
  81372c:	e13ffc15 	stw	r4,-16(fp)
  813730:	e17ffd15 	stw	r5,-12(fp)
  813734:	e1bffe15 	stw	r6,-8(fp)
  813738:	e1ffff15 	stw	r7,-4(fp)
  alt_irq_context irq_context;
  alt_u32 current_nticks = 0;
  81373c:	e03ff615 	stw	zero,-40(fp)
  813740:	008020b4 	movhi	r2,130
  813744:	10a1aa04 	addi	r2,r2,-31064
  813748:	10800017 	ldw	r2,0(r2)
  
  if (alt_ticks_per_second ())
  81374c:	10003f26 	beq	r2,zero,81384c <alt_alarm_start+0x12c>
  {
    if (alarm)
  813750:	e0bffc17 	ldw	r2,-16(fp)
  813754:	10003b26 	beq	r2,zero,813844 <alt_alarm_start+0x124>
    {
      alarm->callback = callback;
  813758:	e0bffc17 	ldw	r2,-16(fp)
  81375c:	e0fffe17 	ldw	r3,-8(fp)
  813760:	10c00315 	stw	r3,12(r2)
      alarm->context  = context;
  813764:	e0bffc17 	ldw	r2,-16(fp)
  813768:	e0ffff17 	ldw	r3,-4(fp)
  81376c:	10c00515 	stw	r3,20(r2)
static ALT_INLINE alt_irq_context ALT_ALWAYS_INLINE 
       alt_irq_disable_all (void)
{
  alt_irq_context context;

  NIOS2_READ_STATUS (context);
  813770:	0005303a 	rdctl	r2,status
  813774:	e0bff915 	stw	r2,-28(fp)

  NIOS2_WRITE_STATUS (context & ~NIOS2_STATUS_PIE_MSK);
  813778:	e0fff917 	ldw	r3,-28(fp)
  81377c:	00bfff84 	movi	r2,-2
  813780:	1884703a 	and	r2,r3,r2
  813784:	1001703a 	wrctl	status,r2
  
  return context;
  813788:	e0bff917 	ldw	r2,-28(fp)
 
      irq_context = alt_irq_disable_all ();
  81378c:	e0bff815 	stw	r2,-32(fp)
 * alt_nticks() returns the elapsed number of system clock ticks since reset.
 */

static ALT_INLINE alt_u32 ALT_ALWAYS_INLINE alt_nticks (void)
{
  return _alt_nticks;
  813790:	008020b4 	movhi	r2,130
  813794:	10a1ab04 	addi	r2,r2,-31060
  813798:	10800017 	ldw	r2,0(r2)
      
      current_nticks = alt_nticks();
  81379c:	e0bff615 	stw	r2,-40(fp)
      
      alarm->time = nticks + current_nticks + 1; 
  8137a0:	e0fffd17 	ldw	r3,-12(fp)
  8137a4:	e0bff617 	ldw	r2,-40(fp)
  8137a8:	1885883a 	add	r2,r3,r2
  8137ac:	10c00044 	addi	r3,r2,1
  8137b0:	e0bffc17 	ldw	r2,-16(fp)
  8137b4:	10c00215 	stw	r3,8(r2)
      /* 
       * If the desired alarm time causes a roll-over, set the rollover
       * flag. This will prevent the subsequent tick event from causing
       * an alarm too early.
       */
      if(alarm->time < current_nticks)
  8137b8:	e0bffc17 	ldw	r2,-16(fp)
  8137bc:	10c00217 	ldw	r3,8(r2)
  8137c0:	e0bff617 	ldw	r2,-40(fp)
  8137c4:	1880042e 	bgeu	r3,r2,8137d8 <alt_alarm_start+0xb8>
      {
        alarm->rollover = 1;
  8137c8:	e0bffc17 	ldw	r2,-16(fp)
  8137cc:	00c00044 	movi	r3,1
  8137d0:	10c00405 	stb	r3,16(r2)
  8137d4:	00000206 	br	8137e0 <alt_alarm_start+0xc0>
      }
      else
      {
        alarm->rollover = 0;
  8137d8:	e0bffc17 	ldw	r2,-16(fp)
  8137dc:	10000405 	stb	zero,16(r2)
      }
    
      alt_llist_insert (&alt_alarm_list, &alarm->llist);
  8137e0:	e0fffc17 	ldw	r3,-16(fp)
  8137e4:	00802074 	movhi	r2,129
  8137e8:	109ae104 	addi	r2,r2,27524
  8137ec:	e0bffa15 	stw	r2,-24(fp)
  8137f0:	e0fffb15 	stw	r3,-20(fp)
 */

static ALT_INLINE void ALT_ALWAYS_INLINE alt_llist_insert(alt_llist* list, 
                alt_llist* entry)
{
  entry->previous = list;
  8137f4:	e0bffb17 	ldw	r2,-20(fp)
  8137f8:	e0fffa17 	ldw	r3,-24(fp)
  8137fc:	10c00115 	stw	r3,4(r2)
  entry->next     = list->next;
  813800:	e0bffa17 	ldw	r2,-24(fp)
  813804:	10c00017 	ldw	r3,0(r2)
  813808:	e0bffb17 	ldw	r2,-20(fp)
  81380c:	10c00015 	stw	r3,0(r2)

  list->next->previous = entry;
  813810:	e0bffa17 	ldw	r2,-24(fp)
  813814:	10800017 	ldw	r2,0(r2)
  813818:	e0fffb17 	ldw	r3,-20(fp)
  81381c:	10c00115 	stw	r3,4(r2)
  list->next           = entry;
  813820:	e0bffa17 	ldw	r2,-24(fp)
  813824:	e0fffb17 	ldw	r3,-20(fp)
  813828:	10c00015 	stw	r3,0(r2)
  81382c:	e0bff817 	ldw	r2,-32(fp)
  813830:	e0bff715 	stw	r2,-36(fp)
  status &= ~NIOS2_STATUS_PIE_MSK;
  status |= (context & NIOS2_STATUS_PIE_MSK);
  
  NIOS2_WRITE_STATUS (status);
#else
  NIOS2_WRITE_STATUS (context);
  813834:	e0bff717 	ldw	r2,-36(fp)
  813838:	1001703a 	wrctl	status,r2
      alt_irq_enable_all (irq_context);

      return 0;
  81383c:	0005883a 	mov	r2,zero
  813840:	00000306 	br	813850 <alt_alarm_start+0x130>
    }
    else
    {
      return -EINVAL;
  813844:	00bffa84 	movi	r2,-22
  813848:	00000106 	br	813850 <alt_alarm_start+0x130>
    }
  }
  else
  {
    return -ENOTSUP;
  81384c:	00bfde84 	movi	r2,-134
  }
}
  813850:	e037883a 	mov	sp,fp
  813854:	df000017 	ldw	fp,0(sp)
  813858:	dec00104 	addi	sp,sp,4
  81385c:	f800283a 	ret

00813860 <alt_dcache_flush_all>:
/*
 * alt_dcache_flush_all() is called to flush the entire data cache.
 */

void alt_dcache_flush_all (void)
{
  813860:	deffff04 	addi	sp,sp,-4
  813864:	df000015 	stw	fp,0(sp)
  813868:	d839883a 	mov	fp,sp
  for (i = (char*) 0; i < (char*) NIOS2_DCACHE_SIZE; i+= NIOS2_DCACHE_LINE_SIZE)
  { 
    __asm__ volatile ("flushd (%0)" :: "r" (i));
  }
#endif /* NIOS2_DCACHE_SIZE > 0 */
}
  81386c:	0001883a 	nop
  813870:	e037883a 	mov	sp,fp
  813874:	df000017 	ldw	fp,0(sp)
  813878:	dec00104 	addi	sp,sp,4
  81387c:	f800283a 	ret

00813880 <alt_get_errno>:
#undef errno

extern int errno;

static ALT_INLINE int* alt_get_errno(void)
{
  813880:	defffe04 	addi	sp,sp,-8
  813884:	dfc00115 	stw	ra,4(sp)
  813888:	df000015 	stw	fp,0(sp)
  81388c:	d839883a 	mov	fp,sp
  return ((alt_errno) ? alt_errno() : &errno);
  813890:	00802074 	movhi	r2,129
  813894:	109ade04 	addi	r2,r2,27512
  813898:	10800017 	ldw	r2,0(r2)
  81389c:	10000526 	beq	r2,zero,8138b4 <alt_get_errno+0x34>
  8138a0:	00802074 	movhi	r2,129
  8138a4:	109ade04 	addi	r2,r2,27512
  8138a8:	10800017 	ldw	r2,0(r2)
  8138ac:	103ee83a 	callr	r2
  8138b0:	00000206 	br	8138bc <alt_get_errno+0x3c>
  8138b4:	008020b4 	movhi	r2,130
  8138b8:	10a1a504 	addi	r2,r2,-31084
}
  8138bc:	e037883a 	mov	sp,fp
  8138c0:	dfc00117 	ldw	ra,4(sp)
  8138c4:	df000017 	ldw	fp,0(sp)
  8138c8:	dec00204 	addi	sp,sp,8
  8138cc:	f800283a 	ret

008138d0 <alt_dev_llist_insert>:
/*
 *
 */

int alt_dev_llist_insert (alt_dev_llist* dev, alt_llist* list)
{
  8138d0:	defffa04 	addi	sp,sp,-24
  8138d4:	dfc00515 	stw	ra,20(sp)
  8138d8:	df000415 	stw	fp,16(sp)
  8138dc:	df000404 	addi	fp,sp,16
  8138e0:	e13ffe15 	stw	r4,-8(fp)
  8138e4:	e17fff15 	stw	r5,-4(fp)
  /*
   * check that the device exists, and that it has a valid name.
   */

  if (!dev || !dev->name)
  8138e8:	e0bffe17 	ldw	r2,-8(fp)
  8138ec:	10000326 	beq	r2,zero,8138fc <alt_dev_llist_insert+0x2c>
  8138f0:	e0bffe17 	ldw	r2,-8(fp)
  8138f4:	10800217 	ldw	r2,8(r2)
  8138f8:	1000061e 	bne	r2,zero,813914 <alt_dev_llist_insert+0x44>
  {
    ALT_ERRNO = EINVAL;
  8138fc:	08138800 	call	813880 <alt_get_errno>
  813900:	1007883a 	mov	r3,r2
  813904:	00800584 	movi	r2,22
  813908:	18800015 	stw	r2,0(r3)
    return -EINVAL;
  81390c:	00bffa84 	movi	r2,-22
  813910:	00001306 	br	813960 <alt_dev_llist_insert+0x90>
  
  /*
   * register the device.
   */
  
  alt_llist_insert(list, &dev->llist);
  813914:	e0bffe17 	ldw	r2,-8(fp)
  813918:	e0ffff17 	ldw	r3,-4(fp)
  81391c:	e0fffc15 	stw	r3,-16(fp)
  813920:	e0bffd15 	stw	r2,-12(fp)
 */

static ALT_INLINE void ALT_ALWAYS_INLINE alt_llist_insert(alt_llist* list, 
                alt_llist* entry)
{
  entry->previous = list;
  813924:	e0bffd17 	ldw	r2,-12(fp)
  813928:	e0fffc17 	ldw	r3,-16(fp)
  81392c:	10c00115 	stw	r3,4(r2)
  entry->next     = list->next;
  813930:	e0bffc17 	ldw	r2,-16(fp)
  813934:	10c00017 	ldw	r3,0(r2)
  813938:	e0bffd17 	ldw	r2,-12(fp)
  81393c:	10c00015 	stw	r3,0(r2)

  list->next->previous = entry;
  813940:	e0bffc17 	ldw	r2,-16(fp)
  813944:	10800017 	ldw	r2,0(r2)
  813948:	e0fffd17 	ldw	r3,-12(fp)
  81394c:	10c00115 	stw	r3,4(r2)
  list->next           = entry;
  813950:	e0bffc17 	ldw	r2,-16(fp)
  813954:	e0fffd17 	ldw	r3,-12(fp)
  813958:	10c00015 	stw	r3,0(r2)

  return 0;  
  81395c:	0005883a 	mov	r2,zero
}
  813960:	e037883a 	mov	sp,fp
  813964:	dfc00117 	ldw	ra,4(sp)
  813968:	df000017 	ldw	fp,0(sp)
  81396c:	dec00204 	addi	sp,sp,8
  813970:	f800283a 	ret

00813974 <_do_ctors>:
/*
 * Run the C++ static constructors.
 */

void _do_ctors(void)
{
  813974:	defffd04 	addi	sp,sp,-12
  813978:	dfc00215 	stw	ra,8(sp)
  81397c:	df000115 	stw	fp,4(sp)
  813980:	df000104 	addi	fp,sp,4
  constructor* ctor;

  for (ctor = &__CTOR_END__[-1]; ctor >= __CTOR_LIST__; ctor--)
  813984:	00802074 	movhi	r2,129
  813988:	10926504 	addi	r2,r2,18836
  81398c:	e0bfff15 	stw	r2,-4(fp)
  813990:	00000606 	br	8139ac <_do_ctors+0x38>
        (*ctor) (); 
  813994:	e0bfff17 	ldw	r2,-4(fp)
  813998:	10800017 	ldw	r2,0(r2)
  81399c:	103ee83a 	callr	r2

void _do_ctors(void)
{
  constructor* ctor;

  for (ctor = &__CTOR_END__[-1]; ctor >= __CTOR_LIST__; ctor--)
  8139a0:	e0bfff17 	ldw	r2,-4(fp)
  8139a4:	10bfff04 	addi	r2,r2,-4
  8139a8:	e0bfff15 	stw	r2,-4(fp)
  8139ac:	e0ffff17 	ldw	r3,-4(fp)
  8139b0:	00802074 	movhi	r2,129
  8139b4:	10926604 	addi	r2,r2,18840
  8139b8:	18bff62e 	bgeu	r3,r2,813994 <__alt_mem_onchip_ram+0xff80f994>
        (*ctor) (); 
}
  8139bc:	0001883a 	nop
  8139c0:	e037883a 	mov	sp,fp
  8139c4:	dfc00117 	ldw	ra,4(sp)
  8139c8:	df000017 	ldw	fp,0(sp)
  8139cc:	dec00204 	addi	sp,sp,8
  8139d0:	f800283a 	ret

008139d4 <_do_dtors>:
/*
 * Run the C++ static destructors.
 */

void _do_dtors(void)
{
  8139d4:	defffd04 	addi	sp,sp,-12
  8139d8:	dfc00215 	stw	ra,8(sp)
  8139dc:	df000115 	stw	fp,4(sp)
  8139e0:	df000104 	addi	fp,sp,4
  destructor* dtor;

  for (dtor = &__DTOR_END__[-1]; dtor >= __DTOR_LIST__; dtor--)
  8139e4:	00802074 	movhi	r2,129
  8139e8:	10926504 	addi	r2,r2,18836
  8139ec:	e0bfff15 	stw	r2,-4(fp)
  8139f0:	00000606 	br	813a0c <_do_dtors+0x38>
        (*dtor) (); 
  8139f4:	e0bfff17 	ldw	r2,-4(fp)
  8139f8:	10800017 	ldw	r2,0(r2)
  8139fc:	103ee83a 	callr	r2

void _do_dtors(void)
{
  destructor* dtor;

  for (dtor = &__DTOR_END__[-1]; dtor >= __DTOR_LIST__; dtor--)
  813a00:	e0bfff17 	ldw	r2,-4(fp)
  813a04:	10bfff04 	addi	r2,r2,-4
  813a08:	e0bfff15 	stw	r2,-4(fp)
  813a0c:	e0ffff17 	ldw	r3,-4(fp)
  813a10:	00802074 	movhi	r2,129
  813a14:	10926604 	addi	r2,r2,18840
  813a18:	18bff62e 	bgeu	r3,r2,8139f4 <__alt_mem_onchip_ram+0xff80f9f4>
        (*dtor) (); 
}
  813a1c:	0001883a 	nop
  813a20:	e037883a 	mov	sp,fp
  813a24:	dfc00117 	ldw	ra,4(sp)
  813a28:	df000017 	ldw	fp,0(sp)
  813a2c:	dec00204 	addi	sp,sp,8
  813a30:	f800283a 	ret

00813a34 <alt_icache_flush_all>:
/*
 * alt_icache_flush_all() is called to flush the entire instruction cache.
 */

void alt_icache_flush_all (void)
{
  813a34:	deffff04 	addi	sp,sp,-4
  813a38:	df000015 	stw	fp,0(sp)
  813a3c:	d839883a 	mov	fp,sp
#if NIOS2_ICACHE_SIZE > 0
  alt_icache_flush (0, NIOS2_ICACHE_SIZE);
#endif
}
  813a40:	0001883a 	nop
  813a44:	e037883a 	mov	sp,fp
  813a48:	df000017 	ldw	fp,0(sp)
  813a4c:	dec00104 	addi	sp,sp,4
  813a50:	f800283a 	ret

00813a54 <alt_ic_isr_register>:
  * @param irq              IRQ number
  * @return                 0 if successful, else error (-1)
  */
int alt_ic_isr_register(alt_u32 ic_id, alt_u32 irq, alt_isr_func isr, 
  void *isr_context, void *flags)
{
  813a54:	defff904 	addi	sp,sp,-28
  813a58:	dfc00615 	stw	ra,24(sp)
  813a5c:	df000515 	stw	fp,20(sp)
  813a60:	df000504 	addi	fp,sp,20
  813a64:	e13ffc15 	stw	r4,-16(fp)
  813a68:	e17ffd15 	stw	r5,-12(fp)
  813a6c:	e1bffe15 	stw	r6,-8(fp)
  813a70:	e1ffff15 	stw	r7,-4(fp)
    return alt_iic_isr_register(ic_id, irq, isr, isr_context, flags);
  813a74:	e0800217 	ldw	r2,8(fp)
  813a78:	d8800015 	stw	r2,0(sp)
  813a7c:	e1ffff17 	ldw	r7,-4(fp)
  813a80:	e1bffe17 	ldw	r6,-8(fp)
  813a84:	e17ffd17 	ldw	r5,-12(fp)
  813a88:	e13ffc17 	ldw	r4,-16(fp)
  813a8c:	0813c340 	call	813c34 <alt_iic_isr_register>
}  
  813a90:	e037883a 	mov	sp,fp
  813a94:	dfc00117 	ldw	ra,4(sp)
  813a98:	df000017 	ldw	fp,0(sp)
  813a9c:	dec00204 	addi	sp,sp,8
  813aa0:	f800283a 	ret

00813aa4 <alt_ic_irq_enable>:
  * @param ic_id            Ignored.
  * @param irq              IRQ number
  * @return                 0 if successful, else error (-1)
  */
int alt_ic_irq_enable (alt_u32 ic_id, alt_u32 irq)
{
  813aa4:	defff904 	addi	sp,sp,-28
  813aa8:	df000615 	stw	fp,24(sp)
  813aac:	df000604 	addi	fp,sp,24
  813ab0:	e13ffe15 	stw	r4,-8(fp)
  813ab4:	e17fff15 	stw	r5,-4(fp)
  813ab8:	e0bfff17 	ldw	r2,-4(fp)
  813abc:	e0bffa15 	stw	r2,-24(fp)
static ALT_INLINE alt_irq_context ALT_ALWAYS_INLINE 
       alt_irq_disable_all (void)
{
  alt_irq_context context;

  NIOS2_READ_STATUS (context);
  813ac0:	0005303a 	rdctl	r2,status
  813ac4:	e0bffb15 	stw	r2,-20(fp)

  NIOS2_WRITE_STATUS (context & ~NIOS2_STATUS_PIE_MSK);
  813ac8:	e0fffb17 	ldw	r3,-20(fp)
  813acc:	00bfff84 	movi	r2,-2
  813ad0:	1884703a 	and	r2,r3,r2
  813ad4:	1001703a 	wrctl	status,r2
  
  return context;
  813ad8:	e0bffb17 	ldw	r2,-20(fp)
static ALT_INLINE int ALT_ALWAYS_INLINE alt_irq_enable (alt_u32 id)
{
  alt_irq_context  status;
  extern volatile alt_u32 alt_irq_active;

  status = alt_irq_disable_all ();
  813adc:	e0bffc15 	stw	r2,-16(fp)

  alt_irq_active |= (1 << id);
  813ae0:	00c00044 	movi	r3,1
  813ae4:	e0bffa17 	ldw	r2,-24(fp)
  813ae8:	1884983a 	sll	r2,r3,r2
  813aec:	1007883a 	mov	r3,r2
  813af0:	008020b4 	movhi	r2,130
  813af4:	10a1a904 	addi	r2,r2,-31068
  813af8:	10800017 	ldw	r2,0(r2)
  813afc:	1886b03a 	or	r3,r3,r2
  813b00:	008020b4 	movhi	r2,130
  813b04:	10a1a904 	addi	r2,r2,-31068
  813b08:	10c00015 	stw	r3,0(r2)
  NIOS2_WRITE_IENABLE (alt_irq_active);
  813b0c:	008020b4 	movhi	r2,130
  813b10:	10a1a904 	addi	r2,r2,-31068
  813b14:	10800017 	ldw	r2,0(r2)
  813b18:	100170fa 	wrctl	ienable,r2
  813b1c:	e0bffc17 	ldw	r2,-16(fp)
  813b20:	e0bffd15 	stw	r2,-12(fp)
  status &= ~NIOS2_STATUS_PIE_MSK;
  status |= (context & NIOS2_STATUS_PIE_MSK);
  
  NIOS2_WRITE_STATUS (status);
#else
  NIOS2_WRITE_STATUS (context);
  813b24:	e0bffd17 	ldw	r2,-12(fp)
  813b28:	1001703a 	wrctl	status,r2

  alt_irq_enable_all(status);

  return 0;
  813b2c:	0005883a 	mov	r2,zero
    return alt_irq_enable(irq);
  813b30:	0001883a 	nop
}
  813b34:	e037883a 	mov	sp,fp
  813b38:	df000017 	ldw	fp,0(sp)
  813b3c:	dec00104 	addi	sp,sp,4
  813b40:	f800283a 	ret

00813b44 <alt_ic_irq_disable>:
  * @param ic_id            Ignored.
  * @param irq              IRQ number
  * @return                 0 if successful, else error (-1)
  */
int alt_ic_irq_disable(alt_u32 ic_id, alt_u32 irq)
{
  813b44:	defff904 	addi	sp,sp,-28
  813b48:	df000615 	stw	fp,24(sp)
  813b4c:	df000604 	addi	fp,sp,24
  813b50:	e13ffe15 	stw	r4,-8(fp)
  813b54:	e17fff15 	stw	r5,-4(fp)
  813b58:	e0bfff17 	ldw	r2,-4(fp)
  813b5c:	e0bffa15 	stw	r2,-24(fp)
static ALT_INLINE alt_irq_context ALT_ALWAYS_INLINE 
       alt_irq_disable_all (void)
{
  alt_irq_context context;

  NIOS2_READ_STATUS (context);
  813b60:	0005303a 	rdctl	r2,status
  813b64:	e0bffb15 	stw	r2,-20(fp)

  NIOS2_WRITE_STATUS (context & ~NIOS2_STATUS_PIE_MSK);
  813b68:	e0fffb17 	ldw	r3,-20(fp)
  813b6c:	00bfff84 	movi	r2,-2
  813b70:	1884703a 	and	r2,r3,r2
  813b74:	1001703a 	wrctl	status,r2
  
  return context;
  813b78:	e0bffb17 	ldw	r2,-20(fp)
static ALT_INLINE int ALT_ALWAYS_INLINE alt_irq_disable (alt_u32 id)
{
  alt_irq_context  status;
  extern volatile alt_u32 alt_irq_active;

  status = alt_irq_disable_all ();
  813b7c:	e0bffc15 	stw	r2,-16(fp)

  alt_irq_active &= ~(1 << id);
  813b80:	00c00044 	movi	r3,1
  813b84:	e0bffa17 	ldw	r2,-24(fp)
  813b88:	1884983a 	sll	r2,r3,r2
  813b8c:	0084303a 	nor	r2,zero,r2
  813b90:	1007883a 	mov	r3,r2
  813b94:	008020b4 	movhi	r2,130
  813b98:	10a1a904 	addi	r2,r2,-31068
  813b9c:	10800017 	ldw	r2,0(r2)
  813ba0:	1886703a 	and	r3,r3,r2
  813ba4:	008020b4 	movhi	r2,130
  813ba8:	10a1a904 	addi	r2,r2,-31068
  813bac:	10c00015 	stw	r3,0(r2)
  NIOS2_WRITE_IENABLE (alt_irq_active);
  813bb0:	008020b4 	movhi	r2,130
  813bb4:	10a1a904 	addi	r2,r2,-31068
  813bb8:	10800017 	ldw	r2,0(r2)
  813bbc:	100170fa 	wrctl	ienable,r2
  813bc0:	e0bffc17 	ldw	r2,-16(fp)
  813bc4:	e0bffd15 	stw	r2,-12(fp)
  status &= ~NIOS2_STATUS_PIE_MSK;
  status |= (context & NIOS2_STATUS_PIE_MSK);
  
  NIOS2_WRITE_STATUS (status);
#else
  NIOS2_WRITE_STATUS (context);
  813bc8:	e0bffd17 	ldw	r2,-12(fp)
  813bcc:	1001703a 	wrctl	status,r2

  alt_irq_enable_all(status);

  return 0;
  813bd0:	0005883a 	mov	r2,zero
    return alt_irq_disable(irq);
  813bd4:	0001883a 	nop
}
  813bd8:	e037883a 	mov	sp,fp
  813bdc:	df000017 	ldw	fp,0(sp)
  813be0:	dec00104 	addi	sp,sp,4
  813be4:	f800283a 	ret

00813be8 <alt_ic_irq_enabled>:
  * @param irq              IRQ number
  * @return                 Zero if corresponding interrupt is disabled and
  *                         non-zero otherwise.
  */
alt_u32 alt_ic_irq_enabled(alt_u32 ic_id, alt_u32 irq)
{
  813be8:	defffc04 	addi	sp,sp,-16
  813bec:	df000315 	stw	fp,12(sp)
  813bf0:	df000304 	addi	fp,sp,12
  813bf4:	e13ffe15 	stw	r4,-8(fp)
  813bf8:	e17fff15 	stw	r5,-4(fp)
    alt_u32 irq_enabled;

    NIOS2_READ_IENABLE(irq_enabled);
  813bfc:	000530fa 	rdctl	r2,ienable
  813c00:	e0bffd15 	stw	r2,-12(fp)

    return (irq_enabled & (1 << irq)) ? 1: 0;
  813c04:	00c00044 	movi	r3,1
  813c08:	e0bfff17 	ldw	r2,-4(fp)
  813c0c:	1884983a 	sll	r2,r3,r2
  813c10:	1007883a 	mov	r3,r2
  813c14:	e0bffd17 	ldw	r2,-12(fp)
  813c18:	1884703a 	and	r2,r3,r2
  813c1c:	1004c03a 	cmpne	r2,r2,zero
  813c20:	10803fcc 	andi	r2,r2,255
}
  813c24:	e037883a 	mov	sp,fp
  813c28:	df000017 	ldw	fp,0(sp)
  813c2c:	dec00104 	addi	sp,sp,4
  813c30:	f800283a 	ret

00813c34 <alt_iic_isr_register>:
  * @param flags            
  * @return                 0 if successful, else error (-1)
  */
int alt_iic_isr_register(alt_u32 ic_id, alt_u32 irq, alt_isr_func isr, 
  void *isr_context, void *flags)
{
  813c34:	defff504 	addi	sp,sp,-44
  813c38:	dfc00a15 	stw	ra,40(sp)
  813c3c:	df000915 	stw	fp,36(sp)
  813c40:	df000904 	addi	fp,sp,36
  813c44:	e13ffc15 	stw	r4,-16(fp)
  813c48:	e17ffd15 	stw	r5,-12(fp)
  813c4c:	e1bffe15 	stw	r6,-8(fp)
  813c50:	e1ffff15 	stw	r7,-4(fp)
  int rc = -EINVAL;  
  813c54:	00bffa84 	movi	r2,-22
  813c58:	e0bff715 	stw	r2,-36(fp)
  int id = irq;             /* IRQ interpreted as the interrupt ID. */
  813c5c:	e0bffd17 	ldw	r2,-12(fp)
  813c60:	e0bff815 	stw	r2,-32(fp)
  alt_irq_context status;

  if (id < ALT_NIRQ)
  813c64:	e0bff817 	ldw	r2,-32(fp)
  813c68:	10800808 	cmpgei	r2,r2,32
  813c6c:	1000271e 	bne	r2,zero,813d0c <alt_iic_isr_register+0xd8>
static ALT_INLINE alt_irq_context ALT_ALWAYS_INLINE 
       alt_irq_disable_all (void)
{
  alt_irq_context context;

  NIOS2_READ_STATUS (context);
  813c70:	0005303a 	rdctl	r2,status
  813c74:	e0bffb15 	stw	r2,-20(fp)

  NIOS2_WRITE_STATUS (context & ~NIOS2_STATUS_PIE_MSK);
  813c78:	e0fffb17 	ldw	r3,-20(fp)
  813c7c:	00bfff84 	movi	r2,-2
  813c80:	1884703a 	and	r2,r3,r2
  813c84:	1001703a 	wrctl	status,r2
  
  return context;
  813c88:	e0bffb17 	ldw	r2,-20(fp)
     * interrupts are disabled while the handler tables are updated to ensure
     * that an interrupt doesn't occur while the tables are in an inconsistant
     * state.
     */

    status = alt_irq_disable_all();
  813c8c:	e0bffa15 	stw	r2,-24(fp)

    alt_irq[id].handler = isr;
  813c90:	008020b4 	movhi	r2,130
  813c94:	10a1b704 	addi	r2,r2,-31012
  813c98:	e0fff817 	ldw	r3,-32(fp)
  813c9c:	180690fa 	slli	r3,r3,3
  813ca0:	10c5883a 	add	r2,r2,r3
  813ca4:	e0fffe17 	ldw	r3,-8(fp)
  813ca8:	10c00015 	stw	r3,0(r2)
    alt_irq[id].context = isr_context;
  813cac:	008020b4 	movhi	r2,130
  813cb0:	10a1b704 	addi	r2,r2,-31012
  813cb4:	e0fff817 	ldw	r3,-32(fp)
  813cb8:	180690fa 	slli	r3,r3,3
  813cbc:	10c5883a 	add	r2,r2,r3
  813cc0:	10800104 	addi	r2,r2,4
  813cc4:	e0ffff17 	ldw	r3,-4(fp)
  813cc8:	10c00015 	stw	r3,0(r2)

    rc = (isr) ? alt_ic_irq_enable(ic_id, id) : alt_ic_irq_disable(ic_id, id);
  813ccc:	e0bffe17 	ldw	r2,-8(fp)
  813cd0:	10000526 	beq	r2,zero,813ce8 <alt_iic_isr_register+0xb4>
  813cd4:	e0bff817 	ldw	r2,-32(fp)
  813cd8:	100b883a 	mov	r5,r2
  813cdc:	e13ffc17 	ldw	r4,-16(fp)
  813ce0:	0813aa40 	call	813aa4 <alt_ic_irq_enable>
  813ce4:	00000406 	br	813cf8 <alt_iic_isr_register+0xc4>
  813ce8:	e0bff817 	ldw	r2,-32(fp)
  813cec:	100b883a 	mov	r5,r2
  813cf0:	e13ffc17 	ldw	r4,-16(fp)
  813cf4:	0813b440 	call	813b44 <alt_ic_irq_disable>
  813cf8:	e0bff715 	stw	r2,-36(fp)
  813cfc:	e0bffa17 	ldw	r2,-24(fp)
  813d00:	e0bff915 	stw	r2,-28(fp)
  status &= ~NIOS2_STATUS_PIE_MSK;
  status |= (context & NIOS2_STATUS_PIE_MSK);
  
  NIOS2_WRITE_STATUS (status);
#else
  NIOS2_WRITE_STATUS (context);
  813d04:	e0bff917 	ldw	r2,-28(fp)
  813d08:	1001703a 	wrctl	status,r2

    alt_irq_enable_all(status);
  }

  return rc; 
  813d0c:	e0bff717 	ldw	r2,-36(fp)
}
  813d10:	e037883a 	mov	sp,fp
  813d14:	dfc00117 	ldw	ra,4(sp)
  813d18:	df000017 	ldw	fp,0(sp)
  813d1c:	dec00204 	addi	sp,sp,8
  813d20:	f800283a 	ret

00813d24 <alt_open_fd>:
 * If the device can not be succesfully opened, then the input file descriptor
 * remains unchanged.
 */

static void alt_open_fd(alt_fd* fd, const char* name, int flags, int mode)
{
  813d24:	defff804 	addi	sp,sp,-32
  813d28:	dfc00715 	stw	ra,28(sp)
  813d2c:	df000615 	stw	fp,24(sp)
  813d30:	dc000515 	stw	r16,20(sp)
  813d34:	df000604 	addi	fp,sp,24
  813d38:	e13ffb15 	stw	r4,-20(fp)
  813d3c:	e17ffc15 	stw	r5,-16(fp)
  813d40:	e1bffd15 	stw	r6,-12(fp)
  813d44:	e1fffe15 	stw	r7,-8(fp)
  int old;

  old = open (name, flags, mode);
  813d48:	e1bffe17 	ldw	r6,-8(fp)
  813d4c:	e17ffd17 	ldw	r5,-12(fp)
  813d50:	e13ffc17 	ldw	r4,-16(fp)
  813d54:	0813fc80 	call	813fc8 <open>
  813d58:	e0bffa15 	stw	r2,-24(fp)

  if (old >= 0)
  813d5c:	e0bffa17 	ldw	r2,-24(fp)
  813d60:	10002216 	blt	r2,zero,813dec <alt_open_fd+0xc8>
  {
    fd->dev      = alt_fd_list[old].dev;
  813d64:	04002074 	movhi	r16,129
  813d68:	84165a04 	addi	r16,r16,22888
  813d6c:	e0bffa17 	ldw	r2,-24(fp)
  813d70:	01400304 	movi	r5,12
  813d74:	1009883a 	mov	r4,r2
  813d78:	080f5740 	call	80f574 <__mulsi3>
  813d7c:	8085883a 	add	r2,r16,r2
  813d80:	10c00017 	ldw	r3,0(r2)
  813d84:	e0bffb17 	ldw	r2,-20(fp)
  813d88:	10c00015 	stw	r3,0(r2)
    fd->priv     = alt_fd_list[old].priv;
  813d8c:	04002074 	movhi	r16,129
  813d90:	84165a04 	addi	r16,r16,22888
  813d94:	e0bffa17 	ldw	r2,-24(fp)
  813d98:	01400304 	movi	r5,12
  813d9c:	1009883a 	mov	r4,r2
  813da0:	080f5740 	call	80f574 <__mulsi3>
  813da4:	8085883a 	add	r2,r16,r2
  813da8:	10800104 	addi	r2,r2,4
  813dac:	10c00017 	ldw	r3,0(r2)
  813db0:	e0bffb17 	ldw	r2,-20(fp)
  813db4:	10c00115 	stw	r3,4(r2)
    fd->fd_flags = alt_fd_list[old].fd_flags;
  813db8:	04002074 	movhi	r16,129
  813dbc:	84165a04 	addi	r16,r16,22888
  813dc0:	e0bffa17 	ldw	r2,-24(fp)
  813dc4:	01400304 	movi	r5,12
  813dc8:	1009883a 	mov	r4,r2
  813dcc:	080f5740 	call	80f574 <__mulsi3>
  813dd0:	8085883a 	add	r2,r16,r2
  813dd4:	10800204 	addi	r2,r2,8
  813dd8:	10c00017 	ldw	r3,0(r2)
  813ddc:	e0bffb17 	ldw	r2,-20(fp)
  813de0:	10c00215 	stw	r3,8(r2)

    alt_release_fd (old);
  813de4:	e13ffa17 	ldw	r4,-24(fp)
  813de8:	08129680 	call	812968 <alt_release_fd>
  }
} 
  813dec:	0001883a 	nop
  813df0:	e6ffff04 	addi	sp,fp,-4
  813df4:	dfc00217 	ldw	ra,8(sp)
  813df8:	df000117 	ldw	fp,4(sp)
  813dfc:	dc000017 	ldw	r16,0(sp)
  813e00:	dec00304 	addi	sp,sp,12
  813e04:	f800283a 	ret

00813e08 <alt_io_redirect>:
 */
 
void alt_io_redirect(const char* stdout_dev, 
                     const char* stdin_dev, 
                     const char* stderr_dev)
{
  813e08:	defffb04 	addi	sp,sp,-20
  813e0c:	dfc00415 	stw	ra,16(sp)
  813e10:	df000315 	stw	fp,12(sp)
  813e14:	df000304 	addi	fp,sp,12
  813e18:	e13ffd15 	stw	r4,-12(fp)
  813e1c:	e17ffe15 	stw	r5,-8(fp)
  813e20:	e1bfff15 	stw	r6,-4(fp)
  /* Redirect the channels */

  alt_open_fd (&alt_fd_list[STDOUT_FILENO], stdout_dev, O_WRONLY, 0777);
  813e24:	01c07fc4 	movi	r7,511
  813e28:	01800044 	movi	r6,1
  813e2c:	e17ffd17 	ldw	r5,-12(fp)
  813e30:	01002074 	movhi	r4,129
  813e34:	21165d04 	addi	r4,r4,22900
  813e38:	0813d240 	call	813d24 <alt_open_fd>
  alt_open_fd (&alt_fd_list[STDIN_FILENO], stdin_dev, O_RDONLY, 0777);
  813e3c:	01c07fc4 	movi	r7,511
  813e40:	000d883a 	mov	r6,zero
  813e44:	e17ffe17 	ldw	r5,-8(fp)
  813e48:	01002074 	movhi	r4,129
  813e4c:	21165a04 	addi	r4,r4,22888
  813e50:	0813d240 	call	813d24 <alt_open_fd>
  alt_open_fd (&alt_fd_list[STDERR_FILENO], stderr_dev, O_WRONLY, 0777);
  813e54:	01c07fc4 	movi	r7,511
  813e58:	01800044 	movi	r6,1
  813e5c:	e17fff17 	ldw	r5,-4(fp)
  813e60:	01002074 	movhi	r4,129
  813e64:	21166004 	addi	r4,r4,22912
  813e68:	0813d240 	call	813d24 <alt_open_fd>
}  
  813e6c:	0001883a 	nop
  813e70:	e037883a 	mov	sp,fp
  813e74:	dfc00117 	ldw	ra,4(sp)
  813e78:	df000017 	ldw	fp,0(sp)
  813e7c:	dec00204 	addi	sp,sp,8
  813e80:	f800283a 	ret

00813e84 <alt_get_errno>:
#undef errno

extern int errno;

static ALT_INLINE int* alt_get_errno(void)
{
  813e84:	defffe04 	addi	sp,sp,-8
  813e88:	dfc00115 	stw	ra,4(sp)
  813e8c:	df000015 	stw	fp,0(sp)
  813e90:	d839883a 	mov	fp,sp
  return ((alt_errno) ? alt_errno() : &errno);
  813e94:	00802074 	movhi	r2,129
  813e98:	109ade04 	addi	r2,r2,27512
  813e9c:	10800017 	ldw	r2,0(r2)
  813ea0:	10000526 	beq	r2,zero,813eb8 <alt_get_errno+0x34>
  813ea4:	00802074 	movhi	r2,129
  813ea8:	109ade04 	addi	r2,r2,27512
  813eac:	10800017 	ldw	r2,0(r2)
  813eb0:	103ee83a 	callr	r2
  813eb4:	00000206 	br	813ec0 <alt_get_errno+0x3c>
  813eb8:	008020b4 	movhi	r2,130
  813ebc:	10a1a504 	addi	r2,r2,-31084
}
  813ec0:	e037883a 	mov	sp,fp
  813ec4:	dfc00117 	ldw	ra,4(sp)
  813ec8:	df000017 	ldw	fp,0(sp)
  813ecc:	dec00204 	addi	sp,sp,8
  813ed0:	f800283a 	ret

00813ed4 <alt_file_locked>:
 * performed for devices. Filesystems are required to handle the ioctl() call
 * themselves, and report the error from the filesystems open() function. 
 */ 

static int alt_file_locked (alt_fd* fd)
{
  813ed4:	defffb04 	addi	sp,sp,-20
  813ed8:	dfc00415 	stw	ra,16(sp)
  813edc:	df000315 	stw	fp,12(sp)
  813ee0:	dc000215 	stw	r16,8(sp)
  813ee4:	df000304 	addi	fp,sp,12
  813ee8:	e13ffe15 	stw	r4,-8(fp)

  /*
   * Mark the file descriptor as belonging to a device.
   */

  fd->fd_flags |= ALT_FD_DEV;
  813eec:	e0bffe17 	ldw	r2,-8(fp)
  813ef0:	10800217 	ldw	r2,8(r2)
  813ef4:	10d00034 	orhi	r3,r2,16384
  813ef8:	e0bffe17 	ldw	r2,-8(fp)
  813efc:	10c00215 	stw	r3,8(r2)
  /*
   * Loop through all current file descriptors searching for one that's locked
   * for exclusive access. If a match is found, generate an error.
   */

  for (i = 0; i <= alt_max_fd; i++)
  813f00:	e03ffd15 	stw	zero,-12(fp)
  813f04:	00002306 	br	813f94 <alt_file_locked+0xc0>
  {
    if ((alt_fd_list[i].dev == fd->dev) &&
  813f08:	04002074 	movhi	r16,129
  813f0c:	84165a04 	addi	r16,r16,22888
  813f10:	e0bffd17 	ldw	r2,-12(fp)
  813f14:	01400304 	movi	r5,12
  813f18:	1009883a 	mov	r4,r2
  813f1c:	080f5740 	call	80f574 <__mulsi3>
  813f20:	8085883a 	add	r2,r16,r2
  813f24:	10c00017 	ldw	r3,0(r2)
  813f28:	e0bffe17 	ldw	r2,-8(fp)
  813f2c:	10800017 	ldw	r2,0(r2)
  813f30:	1880151e 	bne	r3,r2,813f88 <alt_file_locked+0xb4>
        (alt_fd_list[i].fd_flags & ALT_FD_EXCL) &&
  813f34:	04002074 	movhi	r16,129
  813f38:	84165a04 	addi	r16,r16,22888
  813f3c:	e0bffd17 	ldw	r2,-12(fp)
  813f40:	01400304 	movi	r5,12
  813f44:	1009883a 	mov	r4,r2
  813f48:	080f5740 	call	80f574 <__mulsi3>
  813f4c:	8085883a 	add	r2,r16,r2
  813f50:	10800204 	addi	r2,r2,8
  813f54:	10800017 	ldw	r2,0(r2)
   * for exclusive access. If a match is found, generate an error.
   */

  for (i = 0; i <= alt_max_fd; i++)
  {
    if ((alt_fd_list[i].dev == fd->dev) &&
  813f58:	10000b0e 	bge	r2,zero,813f88 <alt_file_locked+0xb4>
        (alt_fd_list[i].fd_flags & ALT_FD_EXCL) &&
        (&alt_fd_list[i] != fd))
  813f5c:	01400304 	movi	r5,12
  813f60:	e13ffd17 	ldw	r4,-12(fp)
  813f64:	080f5740 	call	80f574 <__mulsi3>
  813f68:	1007883a 	mov	r3,r2
  813f6c:	00802074 	movhi	r2,129
  813f70:	10965a04 	addi	r2,r2,22888
  813f74:	1887883a 	add	r3,r3,r2
   */

  for (i = 0; i <= alt_max_fd; i++)
  {
    if ((alt_fd_list[i].dev == fd->dev) &&
        (alt_fd_list[i].fd_flags & ALT_FD_EXCL) &&
  813f78:	e0bffe17 	ldw	r2,-8(fp)
  813f7c:	18800226 	beq	r3,r2,813f88 <alt_file_locked+0xb4>
        (&alt_fd_list[i] != fd))
    {
      return -EACCES;
  813f80:	00bffcc4 	movi	r2,-13
  813f84:	00000a06 	br	813fb0 <alt_file_locked+0xdc>
  /*
   * Loop through all current file descriptors searching for one that's locked
   * for exclusive access. If a match is found, generate an error.
   */

  for (i = 0; i <= alt_max_fd; i++)
  813f88:	e0bffd17 	ldw	r2,-12(fp)
  813f8c:	10800044 	addi	r2,r2,1
  813f90:	e0bffd15 	stw	r2,-12(fp)
  813f94:	00802074 	movhi	r2,129
  813f98:	109add04 	addi	r2,r2,27508
  813f9c:	10800017 	ldw	r2,0(r2)
  813fa0:	1007883a 	mov	r3,r2
  813fa4:	e0bffd17 	ldw	r2,-12(fp)
  813fa8:	18bfd72e 	bgeu	r3,r2,813f08 <__alt_mem_onchip_ram+0xff80ff08>
    }
  }
  
  /* The device is not locked */
 
  return 0;
  813fac:	0005883a 	mov	r2,zero
}
  813fb0:	e6ffff04 	addi	sp,fp,-4
  813fb4:	dfc00217 	ldw	ra,8(sp)
  813fb8:	df000117 	ldw	fp,4(sp)
  813fbc:	dc000017 	ldw	r16,0(sp)
  813fc0:	dec00304 	addi	sp,sp,12
  813fc4:	f800283a 	ret

00813fc8 <open>:
 *
 * ALT_OPEN is mapped onto the open() system call in alt_syscall.h
 */
 
int ALT_OPEN (const char* file, int flags, int mode)
{ 
  813fc8:	defff604 	addi	sp,sp,-40
  813fcc:	dfc00915 	stw	ra,36(sp)
  813fd0:	df000815 	stw	fp,32(sp)
  813fd4:	df000804 	addi	fp,sp,32
  813fd8:	e13ffd15 	stw	r4,-12(fp)
  813fdc:	e17ffe15 	stw	r5,-8(fp)
  813fe0:	e1bfff15 	stw	r6,-4(fp)
  alt_dev* dev;
  alt_fd*  fd;
  int index  = -1;
  813fe4:	00bfffc4 	movi	r2,-1
  813fe8:	e0bff915 	stw	r2,-28(fp)
  int status = -ENODEV;
  813fec:	00bffb44 	movi	r2,-19
  813ff0:	e0bffa15 	stw	r2,-24(fp)
  int isafs = 0;
  813ff4:	e03ffb15 	stw	zero,-20(fp)
  /* 
   * Check the device list, to see if a device with a matching name is 
   * registered.
   */
  
  if (!(dev = alt_find_dev (file, &alt_dev_list)))
  813ff8:	01402074 	movhi	r5,129
  813ffc:	295adb04 	addi	r5,r5,27500
  814000:	e13ffd17 	ldw	r4,-12(fp)
  814004:	08142f00 	call	8142f0 <alt_find_dev>
  814008:	e0bff815 	stw	r2,-32(fp)
  81400c:	e0bff817 	ldw	r2,-32(fp)
  814010:	1000051e 	bne	r2,zero,814028 <open+0x60>
  {
    /* No matching device, so try the filesystem list */

    dev   = alt_find_file (file);
  814014:	e13ffd17 	ldw	r4,-12(fp)
  814018:	08143800 	call	814380 <alt_find_file>
  81401c:	e0bff815 	stw	r2,-32(fp)
    isafs = 1;
  814020:	00800044 	movi	r2,1
  814024:	e0bffb15 	stw	r2,-20(fp)

  /* 
   * If a matching device or filesystem is found, allocate a file descriptor. 
   */

  if (dev)
  814028:	e0bff817 	ldw	r2,-32(fp)
  81402c:	10002b26 	beq	r2,zero,8140dc <open+0x114>
  {
    if ((index = alt_get_fd (dev)) < 0)
  814030:	e13ff817 	ldw	r4,-32(fp)
  814034:	08144940 	call	814494 <alt_get_fd>
  814038:	e0bff915 	stw	r2,-28(fp)
  81403c:	e0bff917 	ldw	r2,-28(fp)
  814040:	1000030e 	bge	r2,zero,814050 <open+0x88>
    {
      status = index;
  814044:	e0bff917 	ldw	r2,-28(fp)
  814048:	e0bffa15 	stw	r2,-24(fp)
  81404c:	00002506 	br	8140e4 <open+0x11c>
    }
    else
    {
      fd = &alt_fd_list[index];
  814050:	01400304 	movi	r5,12
  814054:	e13ff917 	ldw	r4,-28(fp)
  814058:	080f5740 	call	80f574 <__mulsi3>
  81405c:	1007883a 	mov	r3,r2
  814060:	00802074 	movhi	r2,129
  814064:	10965a04 	addi	r2,r2,22888
  814068:	1885883a 	add	r2,r3,r2
  81406c:	e0bffc15 	stw	r2,-16(fp)
      fd->fd_flags = (flags & ~ALT_FD_FLAGS_MASK);
  814070:	e0fffe17 	ldw	r3,-8(fp)
  814074:	00900034 	movhi	r2,16384
  814078:	10bfffc4 	addi	r2,r2,-1
  81407c:	1886703a 	and	r3,r3,r2
  814080:	e0bffc17 	ldw	r2,-16(fp)
  814084:	10c00215 	stw	r3,8(r2)
      
      /* If this is a device, ensure it isn't already locked */

      if (isafs || ((status = alt_file_locked (fd)) >= 0))
  814088:	e0bffb17 	ldw	r2,-20(fp)
  81408c:	1000051e 	bne	r2,zero,8140a4 <open+0xdc>
  814090:	e13ffc17 	ldw	r4,-16(fp)
  814094:	0813ed40 	call	813ed4 <alt_file_locked>
  814098:	e0bffa15 	stw	r2,-24(fp)
  81409c:	e0bffa17 	ldw	r2,-24(fp)
  8140a0:	10001016 	blt	r2,zero,8140e4 <open+0x11c>
        /* 
         * If the device or filesystem provides an open() callback function,
         * call it now to perform any device/filesystem specific operations.
         */
    
        status = (dev->open) ? dev->open(fd, file, flags, mode): 0;
  8140a4:	e0bff817 	ldw	r2,-32(fp)
  8140a8:	10800317 	ldw	r2,12(r2)
  8140ac:	10000826 	beq	r2,zero,8140d0 <open+0x108>
  8140b0:	e0bff817 	ldw	r2,-32(fp)
  8140b4:	10800317 	ldw	r2,12(r2)
  8140b8:	e1ffff17 	ldw	r7,-4(fp)
  8140bc:	e1bffe17 	ldw	r6,-8(fp)
  8140c0:	e17ffd17 	ldw	r5,-12(fp)
  8140c4:	e13ffc17 	ldw	r4,-16(fp)
  8140c8:	103ee83a 	callr	r2
  8140cc:	00000106 	br	8140d4 <open+0x10c>
  8140d0:	0005883a 	mov	r2,zero
  8140d4:	e0bffa15 	stw	r2,-24(fp)
  8140d8:	00000206 	br	8140e4 <open+0x11c>
      }
    }
  }
  else
  {
    status = -ENODEV;
  8140dc:	00bffb44 	movi	r2,-19
  8140e0:	e0bffa15 	stw	r2,-24(fp)
  }

  /* Allocation failed, so clean up and return an error */ 

  if (status < 0)
  8140e4:	e0bffa17 	ldw	r2,-24(fp)
  8140e8:	1000090e 	bge	r2,zero,814110 <open+0x148>
  {
    alt_release_fd (index);  
  8140ec:	e13ff917 	ldw	r4,-28(fp)
  8140f0:	08129680 	call	812968 <alt_release_fd>
    ALT_ERRNO = -status;
  8140f4:	0813e840 	call	813e84 <alt_get_errno>
  8140f8:	1007883a 	mov	r3,r2
  8140fc:	e0bffa17 	ldw	r2,-24(fp)
  814100:	0085c83a 	sub	r2,zero,r2
  814104:	18800015 	stw	r2,0(r3)
    return -1;
  814108:	00bfffc4 	movi	r2,-1
  81410c:	00000106 	br	814114 <open+0x14c>
  }
  
  /* return the reference upon success */

  return index;
  814110:	e0bff917 	ldw	r2,-28(fp)
}
  814114:	e037883a 	mov	sp,fp
  814118:	dfc00117 	ldw	ra,4(sp)
  81411c:	df000017 	ldw	fp,0(sp)
  814120:	dec00204 	addi	sp,sp,8
  814124:	f800283a 	ret

00814128 <alt_alarm_stop>:
 * alarms. Alternatively an alarm can unregister itself by returning zero when 
 * the alarm executes.
 */

void alt_alarm_stop (alt_alarm* alarm)
{
  814128:	defffa04 	addi	sp,sp,-24
  81412c:	df000515 	stw	fp,20(sp)
  814130:	df000504 	addi	fp,sp,20
  814134:	e13fff15 	stw	r4,-4(fp)
static ALT_INLINE alt_irq_context ALT_ALWAYS_INLINE 
       alt_irq_disable_all (void)
{
  alt_irq_context context;

  NIOS2_READ_STATUS (context);
  814138:	0005303a 	rdctl	r2,status
  81413c:	e0bffc15 	stw	r2,-16(fp)

  NIOS2_WRITE_STATUS (context & ~NIOS2_STATUS_PIE_MSK);
  814140:	e0fffc17 	ldw	r3,-16(fp)
  814144:	00bfff84 	movi	r2,-2
  814148:	1884703a 	and	r2,r3,r2
  81414c:	1001703a 	wrctl	status,r2
  
  return context;
  814150:	e0bffc17 	ldw	r2,-16(fp)
  alt_irq_context irq_context;

  irq_context = alt_irq_disable_all();
  814154:	e0bffb15 	stw	r2,-20(fp)
  alt_llist_remove (&alarm->llist);
  814158:	e0bfff17 	ldw	r2,-4(fp)
  81415c:	e0bffd15 	stw	r2,-12(fp)
 * input argument is the element to remove.
 */
     
static ALT_INLINE void ALT_ALWAYS_INLINE alt_llist_remove(alt_llist* entry)
{
  entry->next->previous = entry->previous;
  814160:	e0bffd17 	ldw	r2,-12(fp)
  814164:	10800017 	ldw	r2,0(r2)
  814168:	e0fffd17 	ldw	r3,-12(fp)
  81416c:	18c00117 	ldw	r3,4(r3)
  814170:	10c00115 	stw	r3,4(r2)
  entry->previous->next = entry->next;
  814174:	e0bffd17 	ldw	r2,-12(fp)
  814178:	10800117 	ldw	r2,4(r2)
  81417c:	e0fffd17 	ldw	r3,-12(fp)
  814180:	18c00017 	ldw	r3,0(r3)
  814184:	10c00015 	stw	r3,0(r2)
  /* 
   * Set the entry to point to itself, so that any further calls to
   * alt_llist_remove() are harmless.
   */

  entry->previous = entry;
  814188:	e0bffd17 	ldw	r2,-12(fp)
  81418c:	e0fffd17 	ldw	r3,-12(fp)
  814190:	10c00115 	stw	r3,4(r2)
  entry->next     = entry;
  814194:	e0bffd17 	ldw	r2,-12(fp)
  814198:	e0fffd17 	ldw	r3,-12(fp)
  81419c:	10c00015 	stw	r3,0(r2)
  8141a0:	e0bffb17 	ldw	r2,-20(fp)
  8141a4:	e0bffe15 	stw	r2,-8(fp)
  status &= ~NIOS2_STATUS_PIE_MSK;
  status |= (context & NIOS2_STATUS_PIE_MSK);
  
  NIOS2_WRITE_STATUS (status);
#else
  NIOS2_WRITE_STATUS (context);
  8141a8:	e0bffe17 	ldw	r2,-8(fp)
  8141ac:	1001703a 	wrctl	status,r2
  alt_irq_enable_all (irq_context);
}
  8141b0:	0001883a 	nop
  8141b4:	e037883a 	mov	sp,fp
  8141b8:	df000017 	ldw	fp,0(sp)
  8141bc:	dec00104 	addi	sp,sp,4
  8141c0:	f800283a 	ret

008141c4 <alt_tick>:
 * 
 * alt_tick() is expected to run at interrupt level.
 */

void alt_tick (void)
{
  8141c4:	defffb04 	addi	sp,sp,-20
  8141c8:	dfc00415 	stw	ra,16(sp)
  8141cc:	df000315 	stw	fp,12(sp)
  8141d0:	df000304 	addi	fp,sp,12
  alt_alarm* next;
  alt_alarm* alarm = (alt_alarm*) alt_alarm_list.next;
  8141d4:	d0a00f17 	ldw	r2,-32708(gp)
  8141d8:	e0bffd15 	stw	r2,-12(fp)

  alt_u32    next_callback;

  /* update the tick counter */

  _alt_nticks++;
  8141dc:	d0a6d917 	ldw	r2,-25756(gp)
  8141e0:	10800044 	addi	r2,r2,1
  8141e4:	d0a6d915 	stw	r2,-25756(gp)

  /* process the registered callbacks */

  while (alarm != (alt_alarm*) &alt_alarm_list)
  8141e8:	00002e06 	br	8142a4 <alt_tick+0xe0>
  {
    next = (alt_alarm*) alarm->llist.next;
  8141ec:	e0bffd17 	ldw	r2,-12(fp)
  8141f0:	10800017 	ldw	r2,0(r2)
  8141f4:	e0bffe15 	stw	r2,-8(fp)
    /* 
     * Upon the tick-counter rolling over it is safe to clear the 
     * roll-over flag; once the flag is cleared this (or subsequnt)
     * tick events are enabled to generate an alarm event. 
     */
    if ((alarm->rollover) && (_alt_nticks == 0))
  8141f8:	e0bffd17 	ldw	r2,-12(fp)
  8141fc:	10800403 	ldbu	r2,16(r2)
  814200:	10803fcc 	andi	r2,r2,255
  814204:	10000426 	beq	r2,zero,814218 <alt_tick+0x54>
  814208:	d0a6d917 	ldw	r2,-25756(gp)
  81420c:	1000021e 	bne	r2,zero,814218 <alt_tick+0x54>
    {
      alarm->rollover = 0;
  814210:	e0bffd17 	ldw	r2,-12(fp)
  814214:	10000405 	stb	zero,16(r2)
    }
    
    /* if the alarm period has expired, make the callback */    
    if ((alarm->time <= _alt_nticks) && (alarm->rollover == 0))
  814218:	e0bffd17 	ldw	r2,-12(fp)
  81421c:	10800217 	ldw	r2,8(r2)
  814220:	d0e6d917 	ldw	r3,-25756(gp)
  814224:	18801d36 	bltu	r3,r2,81429c <alt_tick+0xd8>
  814228:	e0bffd17 	ldw	r2,-12(fp)
  81422c:	10800403 	ldbu	r2,16(r2)
  814230:	10803fcc 	andi	r2,r2,255
  814234:	1000191e 	bne	r2,zero,81429c <alt_tick+0xd8>
    {
      next_callback = alarm->callback (alarm->context);
  814238:	e0bffd17 	ldw	r2,-12(fp)
  81423c:	10800317 	ldw	r2,12(r2)
  814240:	e0fffd17 	ldw	r3,-12(fp)
  814244:	18c00517 	ldw	r3,20(r3)
  814248:	1809883a 	mov	r4,r3
  81424c:	103ee83a 	callr	r2
  814250:	e0bfff15 	stw	r2,-4(fp)

      /* deactivate the alarm if the return value is zero */

      if (next_callback == 0)
  814254:	e0bfff17 	ldw	r2,-4(fp)
  814258:	1000031e 	bne	r2,zero,814268 <alt_tick+0xa4>
      {
        alt_alarm_stop (alarm);
  81425c:	e13ffd17 	ldw	r4,-12(fp)
  814260:	08141280 	call	814128 <alt_alarm_stop>
  814264:	00000d06 	br	81429c <alt_tick+0xd8>
      }
      else
      {
        alarm->time += next_callback;
  814268:	e0bffd17 	ldw	r2,-12(fp)
  81426c:	10c00217 	ldw	r3,8(r2)
  814270:	e0bfff17 	ldw	r2,-4(fp)
  814274:	1887883a 	add	r3,r3,r2
  814278:	e0bffd17 	ldw	r2,-12(fp)
  81427c:	10c00215 	stw	r3,8(r2)
        /* 
         * If the desired alarm time causes a roll-over, set the rollover
         * flag. This will prevent the subsequent tick event from causing
         * an alarm too early.
         */
        if(alarm->time < _alt_nticks)
  814280:	e0bffd17 	ldw	r2,-12(fp)
  814284:	10c00217 	ldw	r3,8(r2)
  814288:	d0a6d917 	ldw	r2,-25756(gp)
  81428c:	1880032e 	bgeu	r3,r2,81429c <alt_tick+0xd8>
        {
          alarm->rollover = 1;
  814290:	e0bffd17 	ldw	r2,-12(fp)
  814294:	00c00044 	movi	r3,1
  814298:	10c00405 	stb	r3,16(r2)
        }
      }
    }
    alarm = next;
  81429c:	e0bffe17 	ldw	r2,-8(fp)
  8142a0:	e0bffd15 	stw	r2,-12(fp)

  _alt_nticks++;

  /* process the registered callbacks */

  while (alarm != (alt_alarm*) &alt_alarm_list)
  8142a4:	e0fffd17 	ldw	r3,-12(fp)
  8142a8:	d0a00f04 	addi	r2,gp,-32708
  8142ac:	18bfcf1e 	bne	r3,r2,8141ec <__alt_mem_onchip_ram+0xff8101ec>

  /* 
   * Update the operating system specific timer facilities.
   */

  ALT_OS_TIME_TICK();
  8142b0:	0001883a 	nop
}
  8142b4:	0001883a 	nop
  8142b8:	e037883a 	mov	sp,fp
  8142bc:	dfc00117 	ldw	ra,4(sp)
  8142c0:	df000017 	ldw	fp,0(sp)
  8142c4:	dec00204 	addi	sp,sp,8
  8142c8:	f800283a 	ret

008142cc <altera_nios2_gen2_irq_init>:
/*
 * To initialize the internal interrupt controller, just clear the IENABLE
 * register so that all possible IRQs are disabled.
 */
void altera_nios2_gen2_irq_init(void) 
{
  8142cc:	deffff04 	addi	sp,sp,-4
  8142d0:	df000015 	stw	fp,0(sp)
  8142d4:	d839883a 	mov	fp,sp
    NIOS2_WRITE_IENABLE(0);
  8142d8:	000170fa 	wrctl	ienable,zero
}
  8142dc:	0001883a 	nop
  8142e0:	e037883a 	mov	sp,fp
  8142e4:	df000017 	ldw	fp,0(sp)
  8142e8:	dec00104 	addi	sp,sp,4
  8142ec:	f800283a 	ret

008142f0 <alt_find_dev>:
 * "name" must be an exact match for the devices registered name for a match to
 * be found.
 */
 
alt_dev* alt_find_dev(const char* name, alt_llist* llist)
{
  8142f0:	defffa04 	addi	sp,sp,-24
  8142f4:	dfc00515 	stw	ra,20(sp)
  8142f8:	df000415 	stw	fp,16(sp)
  8142fc:	df000404 	addi	fp,sp,16
  814300:	e13ffe15 	stw	r4,-8(fp)
  814304:	e17fff15 	stw	r5,-4(fp)
  alt_dev* next = (alt_dev*) llist->next;
  814308:	e0bfff17 	ldw	r2,-4(fp)
  81430c:	10800017 	ldw	r2,0(r2)
  814310:	e0bffc15 	stw	r2,-16(fp)
  alt_32 len;

  len  = strlen(name) + 1;
  814314:	e13ffe17 	ldw	r4,-8(fp)
  814318:	080cd700 	call	80cd70 <strlen>
  81431c:	10800044 	addi	r2,r2,1
  814320:	e0bffd15 	stw	r2,-12(fp)
  /*
   * Check each list entry in turn, until a match is found, or we reach the
   * end of the list (i.e. next winds up pointing back to the list head).
   */ 

  while (next != (alt_dev*) llist)
  814324:	00000d06 	br	81435c <alt_find_dev+0x6c>
    /* 
     * memcmp() is used here rather than strcmp() in order to reduce the size
     * of the executable.
     */

    if (!memcmp (next->name, name, len))
  814328:	e0bffc17 	ldw	r2,-16(fp)
  81432c:	10800217 	ldw	r2,8(r2)
  814330:	e0fffd17 	ldw	r3,-12(fp)
  814334:	180d883a 	mov	r6,r3
  814338:	e17ffe17 	ldw	r5,-8(fp)
  81433c:	1009883a 	mov	r4,r2
  814340:	08146500 	call	814650 <memcmp>
  814344:	1000021e 	bne	r2,zero,814350 <alt_find_dev+0x60>
    {
      /* match found */

      return next;
  814348:	e0bffc17 	ldw	r2,-16(fp)
  81434c:	00000706 	br	81436c <alt_find_dev+0x7c>
    }
    next = (alt_dev*) next->llist.next;
  814350:	e0bffc17 	ldw	r2,-16(fp)
  814354:	10800017 	ldw	r2,0(r2)
  814358:	e0bffc15 	stw	r2,-16(fp)
  /*
   * Check each list entry in turn, until a match is found, or we reach the
   * end of the list (i.e. next winds up pointing back to the list head).
   */ 

  while (next != (alt_dev*) llist)
  81435c:	e0fffc17 	ldw	r3,-16(fp)
  814360:	e0bfff17 	ldw	r2,-4(fp)
  814364:	18bff01e 	bne	r3,r2,814328 <__alt_mem_onchip_ram+0xff810328>
    next = (alt_dev*) next->llist.next;
  }
  
  /* No match found */
  
  return NULL;
  814368:	0005883a 	mov	r2,zero
}
  81436c:	e037883a 	mov	sp,fp
  814370:	dfc00117 	ldw	ra,4(sp)
  814374:	df000017 	ldw	fp,0(sp)
  814378:	dec00204 	addi	sp,sp,8
  81437c:	f800283a 	ret

00814380 <alt_find_file>:
 * either '/' or '\0' is the prefix of the filename. For example the filename:
 * "/myfilesystem/junk.txt" would match: "/myfilesystem", but not: "/myfile". 
 */
 
alt_dev* alt_find_file (const char* name)
{
  814380:	defffb04 	addi	sp,sp,-20
  814384:	dfc00415 	stw	ra,16(sp)
  814388:	df000315 	stw	fp,12(sp)
  81438c:	df000304 	addi	fp,sp,12
  814390:	e13fff15 	stw	r4,-4(fp)
  alt_dev* next = (alt_dev*) alt_fs_list.next;   
  814394:	00802074 	movhi	r2,129
  814398:	109ad904 	addi	r2,r2,27492
  81439c:	10800017 	ldw	r2,0(r2)
  8143a0:	e0bffd15 	stw	r2,-12(fp)
  /*
   * Check each list entry in turn, until a match is found, or we reach the
   * end of the list (i.e. next winds up pointing back to the list head).
   */ 
 
  while (next != (alt_dev*) &alt_fs_list)
  8143a4:	00003106 	br	81446c <alt_find_file+0xec>
  {
    len = strlen(next->name);
  8143a8:	e0bffd17 	ldw	r2,-12(fp)
  8143ac:	10800217 	ldw	r2,8(r2)
  8143b0:	1009883a 	mov	r4,r2
  8143b4:	080cd700 	call	80cd70 <strlen>
  8143b8:	e0bffe15 	stw	r2,-8(fp)
    
    if (next->name[len-1] == '/')
  8143bc:	e0bffd17 	ldw	r2,-12(fp)
  8143c0:	10c00217 	ldw	r3,8(r2)
  8143c4:	e0bffe17 	ldw	r2,-8(fp)
  8143c8:	10bfffc4 	addi	r2,r2,-1
  8143cc:	1885883a 	add	r2,r3,r2
  8143d0:	10800003 	ldbu	r2,0(r2)
  8143d4:	10803fcc 	andi	r2,r2,255
  8143d8:	1080201c 	xori	r2,r2,128
  8143dc:	10bfe004 	addi	r2,r2,-128
  8143e0:	10800bd8 	cmpnei	r2,r2,47
  8143e4:	1000031e 	bne	r2,zero,8143f4 <alt_find_file+0x74>
    {
      len -= 1;
  8143e8:	e0bffe17 	ldw	r2,-8(fp)
  8143ec:	10bfffc4 	addi	r2,r2,-1
  8143f0:	e0bffe15 	stw	r2,-8(fp)
    }

    if (((name[len] == '/') || (name[len] == '\0')) && 
  8143f4:	e0bffe17 	ldw	r2,-8(fp)
  8143f8:	e0ffff17 	ldw	r3,-4(fp)
  8143fc:	1885883a 	add	r2,r3,r2
  814400:	10800003 	ldbu	r2,0(r2)
  814404:	10803fcc 	andi	r2,r2,255
  814408:	1080201c 	xori	r2,r2,128
  81440c:	10bfe004 	addi	r2,r2,-128
  814410:	10800be0 	cmpeqi	r2,r2,47
  814414:	1000081e 	bne	r2,zero,814438 <alt_find_file+0xb8>
  814418:	e0bffe17 	ldw	r2,-8(fp)
  81441c:	e0ffff17 	ldw	r3,-4(fp)
  814420:	1885883a 	add	r2,r3,r2
  814424:	10800003 	ldbu	r2,0(r2)
  814428:	10803fcc 	andi	r2,r2,255
  81442c:	1080201c 	xori	r2,r2,128
  814430:	10bfe004 	addi	r2,r2,-128
  814434:	10000a1e 	bne	r2,zero,814460 <alt_find_file+0xe0>
        !memcmp (next->name, name, len))
  814438:	e0bffd17 	ldw	r2,-12(fp)
  81443c:	10800217 	ldw	r2,8(r2)
  814440:	e0fffe17 	ldw	r3,-8(fp)
  814444:	180d883a 	mov	r6,r3
  814448:	e17fff17 	ldw	r5,-4(fp)
  81444c:	1009883a 	mov	r4,r2
  814450:	08146500 	call	814650 <memcmp>
    if (next->name[len-1] == '/')
    {
      len -= 1;
    }

    if (((name[len] == '/') || (name[len] == '\0')) && 
  814454:	1000021e 	bne	r2,zero,814460 <alt_find_file+0xe0>
        !memcmp (next->name, name, len))
    {
      /* match found */

      return next;
  814458:	e0bffd17 	ldw	r2,-12(fp)
  81445c:	00000806 	br	814480 <alt_find_file+0x100>
    }
    next = (alt_dev*) next->llist.next;
  814460:	e0bffd17 	ldw	r2,-12(fp)
  814464:	10800017 	ldw	r2,0(r2)
  814468:	e0bffd15 	stw	r2,-12(fp)
  /*
   * Check each list entry in turn, until a match is found, or we reach the
   * end of the list (i.e. next winds up pointing back to the list head).
   */ 
 
  while (next != (alt_dev*) &alt_fs_list)
  81446c:	e0fffd17 	ldw	r3,-12(fp)
  814470:	00802074 	movhi	r2,129
  814474:	109ad904 	addi	r2,r2,27492
  814478:	18bfcb1e 	bne	r3,r2,8143a8 <__alt_mem_onchip_ram+0xff8103a8>
    next = (alt_dev*) next->llist.next;
  }
  
  /* No match found */
  
  return NULL;     
  81447c:	0005883a 	mov	r2,zero
}
  814480:	e037883a 	mov	sp,fp
  814484:	dfc00117 	ldw	ra,4(sp)
  814488:	df000017 	ldw	fp,0(sp)
  81448c:	dec00204 	addi	sp,sp,8
  814490:	f800283a 	ret

00814494 <alt_get_fd>:
 * the offset of the file descriptor within the file descriptor array). A
 * negative value indicates failure.
 */

int alt_get_fd (alt_dev* dev)
{
  814494:	defffa04 	addi	sp,sp,-24
  814498:	dfc00515 	stw	ra,20(sp)
  81449c:	df000415 	stw	fp,16(sp)
  8144a0:	dc000315 	stw	r16,12(sp)
  8144a4:	df000404 	addi	fp,sp,16
  8144a8:	e13ffe15 	stw	r4,-8(fp)
  alt_32 i;
  int rc = -EMFILE;
  8144ac:	00bffa04 	movi	r2,-24
  8144b0:	e0bffd15 	stw	r2,-12(fp)
   * indicates the highest file descriptor ever allocated. This is used to
   * improve efficency when searching the file descriptor list, and 
   * therefore reduce contention on the alt_fd_list_lock semaphore. 
   */

  for (i = 0; i < ALT_MAX_FD; i++)
  8144b4:	e03ffc15 	stw	zero,-16(fp)
  8144b8:	00002106 	br	814540 <alt_get_fd+0xac>
  {
    if (!alt_fd_list[i].dev)
  8144bc:	04002074 	movhi	r16,129
  8144c0:	84165a04 	addi	r16,r16,22888
  8144c4:	e0bffc17 	ldw	r2,-16(fp)
  8144c8:	01400304 	movi	r5,12
  8144cc:	1009883a 	mov	r4,r2
  8144d0:	080f5740 	call	80f574 <__mulsi3>
  8144d4:	8085883a 	add	r2,r16,r2
  8144d8:	10800017 	ldw	r2,0(r2)
  8144dc:	1000151e 	bne	r2,zero,814534 <alt_get_fd+0xa0>
    {
      alt_fd_list[i].dev = dev;
  8144e0:	04002074 	movhi	r16,129
  8144e4:	84165a04 	addi	r16,r16,22888
  8144e8:	e0bffc17 	ldw	r2,-16(fp)
  8144ec:	01400304 	movi	r5,12
  8144f0:	1009883a 	mov	r4,r2
  8144f4:	080f5740 	call	80f574 <__mulsi3>
  8144f8:	8085883a 	add	r2,r16,r2
  8144fc:	e0fffe17 	ldw	r3,-8(fp)
  814500:	10c00015 	stw	r3,0(r2)
      if (i > alt_max_fd)
  814504:	00802074 	movhi	r2,129
  814508:	109add04 	addi	r2,r2,27508
  81450c:	10c00017 	ldw	r3,0(r2)
  814510:	e0bffc17 	ldw	r2,-16(fp)
  814514:	1880040e 	bge	r3,r2,814528 <alt_get_fd+0x94>
      {
        alt_max_fd = i;
  814518:	00802074 	movhi	r2,129
  81451c:	109add04 	addi	r2,r2,27508
  814520:	e0fffc17 	ldw	r3,-16(fp)
  814524:	10c00015 	stw	r3,0(r2)
      }
      rc = i;
  814528:	e0bffc17 	ldw	r2,-16(fp)
  81452c:	e0bffd15 	stw	r2,-12(fp)
      goto alt_get_fd_exit;
  814530:	00000606 	br	81454c <alt_get_fd+0xb8>
   * indicates the highest file descriptor ever allocated. This is used to
   * improve efficency when searching the file descriptor list, and 
   * therefore reduce contention on the alt_fd_list_lock semaphore. 
   */

  for (i = 0; i < ALT_MAX_FD; i++)
  814534:	e0bffc17 	ldw	r2,-16(fp)
  814538:	10800044 	addi	r2,r2,1
  81453c:	e0bffc15 	stw	r2,-16(fp)
  814540:	e0bffc17 	ldw	r2,-16(fp)
  814544:	10800810 	cmplti	r2,r2,32
  814548:	103fdc1e 	bne	r2,zero,8144bc <__alt_mem_onchip_ram+0xff8104bc>
   * file descriptor pool.
   */

  ALT_SEM_POST(alt_fd_list_lock);

  return rc;
  81454c:	e0bffd17 	ldw	r2,-12(fp)
}
  814550:	e6ffff04 	addi	sp,fp,-4
  814554:	dfc00217 	ldw	ra,8(sp)
  814558:	df000117 	ldw	fp,4(sp)
  81455c:	dc000017 	ldw	r16,0(sp)
  814560:	dec00304 	addi	sp,sp,12
  814564:	f800283a 	ret

00814568 <alt_exception_cause_generated_bad_addr>:
 * Return: 1: BADADDR (bad_addr argument to handler) is valid
 *         0: BADADDR is not valid
 */
int 
alt_exception_cause_generated_bad_addr(alt_exception_cause cause)
{
  814568:	defffe04 	addi	sp,sp,-8
  81456c:	df000115 	stw	fp,4(sp)
  814570:	df000104 	addi	fp,sp,4
  814574:	e13fff15 	stw	r4,-4(fp)
  switch (cause) {
  814578:	e0bfff17 	ldw	r2,-4(fp)
  81457c:	10bffe84 	addi	r2,r2,-6
  814580:	10c00428 	cmpgeui	r3,r2,16
  814584:	18001a1e 	bne	r3,zero,8145f0 <alt_exception_cause_generated_bad_addr+0x88>
  814588:	100690ba 	slli	r3,r2,2
  81458c:	00802074 	movhi	r2,129
  814590:	10916804 	addi	r2,r2,17824
  814594:	1885883a 	add	r2,r3,r2
  814598:	10800017 	ldw	r2,0(r2)
  81459c:	1000683a 	jmp	r2
  8145a0:	008145e0 	cmpeqi	r2,zero,1303
  8145a4:	008145e0 	cmpeqi	r2,zero,1303
  8145a8:	008145f0 	cmpltui	r2,zero,1303
  8145ac:	008145f0 	cmpltui	r2,zero,1303
  8145b0:	008145f0 	cmpltui	r2,zero,1303
  8145b4:	008145e0 	cmpeqi	r2,zero,1303
  8145b8:	008145e8 	cmpgeui	r2,zero,1303
  8145bc:	008145f0 	cmpltui	r2,zero,1303
  8145c0:	008145e0 	cmpeqi	r2,zero,1303
  8145c4:	008145e0 	cmpeqi	r2,zero,1303
  8145c8:	008145f0 	cmpltui	r2,zero,1303
  8145cc:	008145e0 	cmpeqi	r2,zero,1303
  8145d0:	008145e8 	cmpgeui	r2,zero,1303
  8145d4:	008145f0 	cmpltui	r2,zero,1303
  8145d8:	008145f0 	cmpltui	r2,zero,1303
  8145dc:	008145e0 	cmpeqi	r2,zero,1303
  case NIOS2_EXCEPTION_MISALIGNED_TARGET_PC:
  case NIOS2_EXCEPTION_TLB_READ_PERM_VIOLATION:
  case NIOS2_EXCEPTION_TLB_WRITE_PERM_VIOLATION:
  case NIOS2_EXCEPTION_MPU_DATA_REGION_VIOLATION:
  case NIOS2_EXCEPTION_ECC_DATA_ERR:
    return 1;
  8145e0:	00800044 	movi	r2,1
  8145e4:	00000306 	br	8145f4 <alt_exception_cause_generated_bad_addr+0x8c>

  case NIOS2_EXCEPTION_TLB_MISS:
  case NIOS2_EXCEPTION_ECC_TLB_ERR:
    return 0;
  8145e8:	0005883a 	mov	r2,zero
  8145ec:	00000106 	br	8145f4 <alt_exception_cause_generated_bad_addr+0x8c>

  default:
    return 0;
  8145f0:	0005883a 	mov	r2,zero
  }
}
  8145f4:	e037883a 	mov	sp,fp
  8145f8:	df000017 	ldw	fp,0(sp)
  8145fc:	dec00104 	addi	sp,sp,4
  814600:	f800283a 	ret

00814604 <atexit>:
  814604:	200b883a 	mov	r5,r4
  814608:	000f883a 	mov	r7,zero
  81460c:	000d883a 	mov	r6,zero
  814610:	0009883a 	mov	r4,zero
  814614:	08146cc1 	jmpi	8146cc <__register_exitproc>

00814618 <exit>:
  814618:	defffe04 	addi	sp,sp,-8
  81461c:	000b883a 	mov	r5,zero
  814620:	dc000015 	stw	r16,0(sp)
  814624:	dfc00115 	stw	ra,4(sp)
  814628:	2021883a 	mov	r16,r4
  81462c:	08147e40 	call	8147e4 <__call_exitprocs>
  814630:	00802074 	movhi	r2,129
  814634:	109ad204 	addi	r2,r2,27464
  814638:	11000017 	ldw	r4,0(r2)
  81463c:	20800f17 	ldw	r2,60(r4)
  814640:	10000126 	beq	r2,zero,814648 <exit+0x30>
  814644:	103ee83a 	callr	r2
  814648:	8009883a 	mov	r4,r16
  81464c:	08149640 	call	814964 <_exit>

00814650 <memcmp>:
  814650:	01c000c4 	movi	r7,3
  814654:	3980192e 	bgeu	r7,r6,8146bc <memcmp+0x6c>
  814658:	2144b03a 	or	r2,r4,r5
  81465c:	11c4703a 	and	r2,r2,r7
  814660:	10000f26 	beq	r2,zero,8146a0 <memcmp+0x50>
  814664:	20800003 	ldbu	r2,0(r4)
  814668:	28c00003 	ldbu	r3,0(r5)
  81466c:	10c0151e 	bne	r2,r3,8146c4 <memcmp+0x74>
  814670:	31bfff84 	addi	r6,r6,-2
  814674:	01ffffc4 	movi	r7,-1
  814678:	00000406 	br	81468c <memcmp+0x3c>
  81467c:	20800003 	ldbu	r2,0(r4)
  814680:	28c00003 	ldbu	r3,0(r5)
  814684:	31bfffc4 	addi	r6,r6,-1
  814688:	10c00e1e 	bne	r2,r3,8146c4 <memcmp+0x74>
  81468c:	21000044 	addi	r4,r4,1
  814690:	29400044 	addi	r5,r5,1
  814694:	31fff91e 	bne	r6,r7,81467c <__alt_mem_onchip_ram+0xff81067c>
  814698:	0005883a 	mov	r2,zero
  81469c:	f800283a 	ret
  8146a0:	20c00017 	ldw	r3,0(r4)
  8146a4:	28800017 	ldw	r2,0(r5)
  8146a8:	18bfee1e 	bne	r3,r2,814664 <__alt_mem_onchip_ram+0xff810664>
  8146ac:	31bfff04 	addi	r6,r6,-4
  8146b0:	21000104 	addi	r4,r4,4
  8146b4:	29400104 	addi	r5,r5,4
  8146b8:	39bff936 	bltu	r7,r6,8146a0 <__alt_mem_onchip_ram+0xff8106a0>
  8146bc:	303fe91e 	bne	r6,zero,814664 <__alt_mem_onchip_ram+0xff810664>
  8146c0:	003ff506 	br	814698 <__alt_mem_onchip_ram+0xff810698>
  8146c4:	10c5c83a 	sub	r2,r2,r3
  8146c8:	f800283a 	ret

008146cc <__register_exitproc>:
  8146cc:	defffa04 	addi	sp,sp,-24
  8146d0:	dc000315 	stw	r16,12(sp)
  8146d4:	04002074 	movhi	r16,129
  8146d8:	841ad204 	addi	r16,r16,27464
  8146dc:	80c00017 	ldw	r3,0(r16)
  8146e0:	dc400415 	stw	r17,16(sp)
  8146e4:	dfc00515 	stw	ra,20(sp)
  8146e8:	18805217 	ldw	r2,328(r3)
  8146ec:	2023883a 	mov	r17,r4
  8146f0:	10003726 	beq	r2,zero,8147d0 <__register_exitproc+0x104>
  8146f4:	10c00117 	ldw	r3,4(r2)
  8146f8:	010007c4 	movi	r4,31
  8146fc:	20c00e16 	blt	r4,r3,814738 <__register_exitproc+0x6c>
  814700:	1a000044 	addi	r8,r3,1
  814704:	8800221e 	bne	r17,zero,814790 <__register_exitproc+0xc4>
  814708:	18c00084 	addi	r3,r3,2
  81470c:	18c7883a 	add	r3,r3,r3
  814710:	18c7883a 	add	r3,r3,r3
  814714:	12000115 	stw	r8,4(r2)
  814718:	10c7883a 	add	r3,r2,r3
  81471c:	19400015 	stw	r5,0(r3)
  814720:	0005883a 	mov	r2,zero
  814724:	dfc00517 	ldw	ra,20(sp)
  814728:	dc400417 	ldw	r17,16(sp)
  81472c:	dc000317 	ldw	r16,12(sp)
  814730:	dec00604 	addi	sp,sp,24
  814734:	f800283a 	ret
  814738:	00800034 	movhi	r2,0
  81473c:	10800004 	addi	r2,r2,0
  814740:	10002626 	beq	r2,zero,8147dc <__register_exitproc+0x110>
  814744:	01006404 	movi	r4,400
  814748:	d9400015 	stw	r5,0(sp)
  81474c:	d9800115 	stw	r6,4(sp)
  814750:	d9c00215 	stw	r7,8(sp)
  814754:	00000000 	call	0 <__reset-0x800000>
  814758:	d9400017 	ldw	r5,0(sp)
  81475c:	d9800117 	ldw	r6,4(sp)
  814760:	d9c00217 	ldw	r7,8(sp)
  814764:	10001d26 	beq	r2,zero,8147dc <__register_exitproc+0x110>
  814768:	81000017 	ldw	r4,0(r16)
  81476c:	10000115 	stw	zero,4(r2)
  814770:	02000044 	movi	r8,1
  814774:	22405217 	ldw	r9,328(r4)
  814778:	0007883a 	mov	r3,zero
  81477c:	12400015 	stw	r9,0(r2)
  814780:	20805215 	stw	r2,328(r4)
  814784:	10006215 	stw	zero,392(r2)
  814788:	10006315 	stw	zero,396(r2)
  81478c:	883fde26 	beq	r17,zero,814708 <__alt_mem_onchip_ram+0xff810708>
  814790:	18c9883a 	add	r4,r3,r3
  814794:	2109883a 	add	r4,r4,r4
  814798:	1109883a 	add	r4,r2,r4
  81479c:	21802215 	stw	r6,136(r4)
  8147a0:	01800044 	movi	r6,1
  8147a4:	12406217 	ldw	r9,392(r2)
  8147a8:	30cc983a 	sll	r6,r6,r3
  8147ac:	4992b03a 	or	r9,r9,r6
  8147b0:	12406215 	stw	r9,392(r2)
  8147b4:	21c04215 	stw	r7,264(r4)
  8147b8:	01000084 	movi	r4,2
  8147bc:	893fd21e 	bne	r17,r4,814708 <__alt_mem_onchip_ram+0xff810708>
  8147c0:	11006317 	ldw	r4,396(r2)
  8147c4:	218cb03a 	or	r6,r4,r6
  8147c8:	11806315 	stw	r6,396(r2)
  8147cc:	003fce06 	br	814708 <__alt_mem_onchip_ram+0xff810708>
  8147d0:	18805304 	addi	r2,r3,332
  8147d4:	18805215 	stw	r2,328(r3)
  8147d8:	003fc606 	br	8146f4 <__alt_mem_onchip_ram+0xff8106f4>
  8147dc:	00bfffc4 	movi	r2,-1
  8147e0:	003fd006 	br	814724 <__alt_mem_onchip_ram+0xff810724>

008147e4 <__call_exitprocs>:
  8147e4:	defff504 	addi	sp,sp,-44
  8147e8:	df000915 	stw	fp,36(sp)
  8147ec:	dd400615 	stw	r21,24(sp)
  8147f0:	dc800315 	stw	r18,12(sp)
  8147f4:	dfc00a15 	stw	ra,40(sp)
  8147f8:	ddc00815 	stw	r23,32(sp)
  8147fc:	dd800715 	stw	r22,28(sp)
  814800:	dd000515 	stw	r20,20(sp)
  814804:	dcc00415 	stw	r19,16(sp)
  814808:	dc400215 	stw	r17,8(sp)
  81480c:	dc000115 	stw	r16,4(sp)
  814810:	d9000015 	stw	r4,0(sp)
  814814:	2839883a 	mov	fp,r5
  814818:	04800044 	movi	r18,1
  81481c:	057fffc4 	movi	r21,-1
  814820:	00802074 	movhi	r2,129
  814824:	109ad204 	addi	r2,r2,27464
  814828:	12000017 	ldw	r8,0(r2)
  81482c:	45005217 	ldw	r20,328(r8)
  814830:	44c05204 	addi	r19,r8,328
  814834:	a0001c26 	beq	r20,zero,8148a8 <__call_exitprocs+0xc4>
  814838:	a0800117 	ldw	r2,4(r20)
  81483c:	15ffffc4 	addi	r23,r2,-1
  814840:	b8000d16 	blt	r23,zero,814878 <__call_exitprocs+0x94>
  814844:	14000044 	addi	r16,r2,1
  814848:	8421883a 	add	r16,r16,r16
  81484c:	8421883a 	add	r16,r16,r16
  814850:	84402004 	addi	r17,r16,128
  814854:	a463883a 	add	r17,r20,r17
  814858:	a421883a 	add	r16,r20,r16
  81485c:	e0001e26 	beq	fp,zero,8148d8 <__call_exitprocs+0xf4>
  814860:	80804017 	ldw	r2,256(r16)
  814864:	e0801c26 	beq	fp,r2,8148d8 <__call_exitprocs+0xf4>
  814868:	bdffffc4 	addi	r23,r23,-1
  81486c:	843fff04 	addi	r16,r16,-4
  814870:	8c7fff04 	addi	r17,r17,-4
  814874:	bd7ff91e 	bne	r23,r21,81485c <__alt_mem_onchip_ram+0xff81085c>
  814878:	00800034 	movhi	r2,0
  81487c:	10800004 	addi	r2,r2,0
  814880:	10000926 	beq	r2,zero,8148a8 <__call_exitprocs+0xc4>
  814884:	a0800117 	ldw	r2,4(r20)
  814888:	1000301e 	bne	r2,zero,81494c <__call_exitprocs+0x168>
  81488c:	a0800017 	ldw	r2,0(r20)
  814890:	10003226 	beq	r2,zero,81495c <__call_exitprocs+0x178>
  814894:	a009883a 	mov	r4,r20
  814898:	98800015 	stw	r2,0(r19)
  81489c:	00000000 	call	0 <__reset-0x800000>
  8148a0:	9d000017 	ldw	r20,0(r19)
  8148a4:	a03fe41e 	bne	r20,zero,814838 <__alt_mem_onchip_ram+0xff810838>
  8148a8:	dfc00a17 	ldw	ra,40(sp)
  8148ac:	df000917 	ldw	fp,36(sp)
  8148b0:	ddc00817 	ldw	r23,32(sp)
  8148b4:	dd800717 	ldw	r22,28(sp)
  8148b8:	dd400617 	ldw	r21,24(sp)
  8148bc:	dd000517 	ldw	r20,20(sp)
  8148c0:	dcc00417 	ldw	r19,16(sp)
  8148c4:	dc800317 	ldw	r18,12(sp)
  8148c8:	dc400217 	ldw	r17,8(sp)
  8148cc:	dc000117 	ldw	r16,4(sp)
  8148d0:	dec00b04 	addi	sp,sp,44
  8148d4:	f800283a 	ret
  8148d8:	a0800117 	ldw	r2,4(r20)
  8148dc:	80c00017 	ldw	r3,0(r16)
  8148e0:	10bfffc4 	addi	r2,r2,-1
  8148e4:	15c01426 	beq	r2,r23,814938 <__call_exitprocs+0x154>
  8148e8:	80000015 	stw	zero,0(r16)
  8148ec:	183fde26 	beq	r3,zero,814868 <__alt_mem_onchip_ram+0xff810868>
  8148f0:	95c8983a 	sll	r4,r18,r23
  8148f4:	a0806217 	ldw	r2,392(r20)
  8148f8:	a5800117 	ldw	r22,4(r20)
  8148fc:	2084703a 	and	r2,r4,r2
  814900:	10000b26 	beq	r2,zero,814930 <__call_exitprocs+0x14c>
  814904:	a0806317 	ldw	r2,396(r20)
  814908:	2088703a 	and	r4,r4,r2
  81490c:	20000c1e 	bne	r4,zero,814940 <__call_exitprocs+0x15c>
  814910:	89400017 	ldw	r5,0(r17)
  814914:	d9000017 	ldw	r4,0(sp)
  814918:	183ee83a 	callr	r3
  81491c:	a0800117 	ldw	r2,4(r20)
  814920:	15bfbf1e 	bne	r2,r22,814820 <__alt_mem_onchip_ram+0xff810820>
  814924:	98800017 	ldw	r2,0(r19)
  814928:	153fcf26 	beq	r2,r20,814868 <__alt_mem_onchip_ram+0xff810868>
  81492c:	003fbc06 	br	814820 <__alt_mem_onchip_ram+0xff810820>
  814930:	183ee83a 	callr	r3
  814934:	003ff906 	br	81491c <__alt_mem_onchip_ram+0xff81091c>
  814938:	a5c00115 	stw	r23,4(r20)
  81493c:	003feb06 	br	8148ec <__alt_mem_onchip_ram+0xff8108ec>
  814940:	89000017 	ldw	r4,0(r17)
  814944:	183ee83a 	callr	r3
  814948:	003ff406 	br	81491c <__alt_mem_onchip_ram+0xff81091c>
  81494c:	a0800017 	ldw	r2,0(r20)
  814950:	a027883a 	mov	r19,r20
  814954:	1029883a 	mov	r20,r2
  814958:	003fb606 	br	814834 <__alt_mem_onchip_ram+0xff810834>
  81495c:	0005883a 	mov	r2,zero
  814960:	003ffb06 	br	814950 <__alt_mem_onchip_ram+0xff810950>

00814964 <_exit>:
 *
 * ALT_EXIT is mapped onto the _exit() system call in alt_syscall.h
 */

void ALT_EXIT (int exit_code)
{
  814964:	defffd04 	addi	sp,sp,-12
  814968:	df000215 	stw	fp,8(sp)
  81496c:	df000204 	addi	fp,sp,8
  814970:	e13fff15 	stw	r4,-4(fp)
  ALT_LOG_PRINT_BOOT("[alt_exit.c] Entering _exit() function.\r\n");
  ALT_LOG_PRINT_BOOT("[alt_exit.c] Exit code from main was %d.\r\n",exit_code);
  /* Stop all other threads */

  ALT_LOG_PRINT_BOOT("[alt_exit.c] Calling ALT_OS_STOP().\r\n");
  ALT_OS_STOP();
  814974:	0001883a 	nop
  814978:	e0bfff17 	ldw	r2,-4(fp)
  81497c:	e0bffe15 	stw	r2,-8(fp)
/*
 * Routine called on exit.
 */
static ALT_INLINE ALT_ALWAYS_INLINE void alt_sim_halt(int exit_code)
{
  register int r2 asm ("r2") = exit_code;
  814980:	e0bffe17 	ldw	r2,-8(fp)
  __asm__ volatile ("\n0:\n\taddi %0,%0, -1\n\tbgt %0,zero,0b" : : "r" (ALT_CPU_FREQ/100) ); /* Delay for >30ms */

  __asm__ volatile ("break 2" : : "r"(r2), "r"(r3) ALT_GMON_DATA );

#else /* !DEBUG_STUB */
  if (r2) {
  814984:	10000226 	beq	r2,zero,814990 <_exit+0x2c>
    ALT_SIM_FAIL();
  814988:	002af070 	cmpltui	zero,zero,43969
  81498c:	00000106 	br	814994 <_exit+0x30>
  } else {
    ALT_SIM_PASS();
  814990:	002af0b0 	cmpltui	zero,zero,43970
  ALT_SIM_HALT(exit_code);

  /* spin forever, since there's no where to go back to */

  ALT_LOG_PRINT_BOOT("[alt_exit.c] Spinning forever.\r\n");
  while (1);
  814994:	003fff06 	br	814994 <__alt_mem_onchip_ram+0xff810994>
