
C_eng_job.elf:     file format elf32-littlenios2
C_eng_job.elf
architecture: nios2:r1, flags 0x00000112:
EXEC_P, HAS_SYMS, D_PAGED
start address 0x00800230

Program Header:
    LOAD off    0x00001000 vaddr 0x00800000 paddr 0x00800000 align 2**12
         filesz 0x00000020 memsz 0x00000020 flags r-x
    LOAD off    0x00001020 vaddr 0x00800020 paddr 0x00800020 align 2**12
         filesz 0x00004330 memsz 0x00004330 flags r-x
    LOAD off    0x00005350 vaddr 0x00804350 paddr 0x00804a78 align 2**12
         filesz 0x00000728 memsz 0x00000728 flags rw-
    LOAD off    0x000061a0 vaddr 0x008051a0 paddr 0x008051a0 align 2**12
         filesz 0x00000000 memsz 0x0000012c flags rw-

Sections:
Idx Name          Size      VMA       LMA       File off  Algn
  0 .entry        00000020  00800000  00800000  00001000  2**5
                  CONTENTS, ALLOC, LOAD, READONLY, CODE
  1 .exceptions   00000210  00800020  00800020  00001020  2**2
                  CONTENTS, ALLOC, LOAD, READONLY, CODE
  2 .text         00004048  00800230  00800230  00001230  2**2
                  CONTENTS, ALLOC, LOAD, READONLY, CODE
  3 .rodata       000000d8  00804278  00804278  00005278  2**2
                  CONTENTS, ALLOC, LOAD, READONLY, DATA
  4 .rwdata       00000728  00804350  00804a78  00005350  2**2
                  CONTENTS, ALLOC, LOAD, DATA, SMALL_DATA
  5 .bss          0000012c  008051a0  008051a0  000061a0  2**2
                  ALLOC, SMALL_DATA
  6 .SDRAM_Controller 00000000  008052cc  008052cc  00005a78  2**0
                  CONTENTS
  7 .comment      00000023  00000000  00000000  00005a78  2**0
                  CONTENTS, READONLY
  8 .debug_aranges 00000750  00000000  00000000  00005aa0  2**3
                  CONTENTS, READONLY, DEBUGGING
  9 .debug_info   0000c0c6  00000000  00000000  000061f0  2**0
                  CONTENTS, READONLY, DEBUGGING
 10 .debug_abbrev 00003ca0  00000000  00000000  000122b6  2**0
                  CONTENTS, READONLY, DEBUGGING
 11 .debug_line   00004452  00000000  00000000  00015f56  2**0
                  CONTENTS, READONLY, DEBUGGING
 12 .debug_frame  00001214  00000000  00000000  0001a3a8  2**2
                  CONTENTS, READONLY, DEBUGGING
 13 .debug_str    0000251d  00000000  00000000  0001b5bc  2**0
                  CONTENTS, READONLY, DEBUGGING
 14 .debug_loc    00001b7b  00000000  00000000  0001dad9  2**0
                  CONTENTS, READONLY, DEBUGGING
 15 .debug_alt_sim_info 00000010  00000000  00000000  0001f654  2**2
                  CONTENTS, READONLY, DEBUGGING
 16 .debug_ranges 00000390  00000000  00000000  0001f668  2**3
                  CONTENTS, READONLY, DEBUGGING
 17 .thread_model 00000003  00000000  00000000  00021ae5  2**0
                  CONTENTS, READONLY
 18 .cpu          00000009  00000000  00000000  00021ae8  2**0
                  CONTENTS, READONLY
 19 .qsys         00000001  00000000  00000000  00021af1  2**0
                  CONTENTS, READONLY
 20 .simulation_enabled 00000001  00000000  00000000  00021af2  2**0
                  CONTENTS, READONLY
 21 .stderr_dev   0000000b  00000000  00000000  00021af3  2**0
                  CONTENTS, READONLY
 22 .stdin_dev    0000000b  00000000  00000000  00021afe  2**0
                  CONTENTS, READONLY
 23 .stdout_dev   0000000b  00000000  00000000  00021b09  2**0
                  CONTENTS, READONLY
 24 .sopc_system_name 00000017  00000000  00000000  00021b14  2**0
                  CONTENTS, READONLY
 25 .quartus_project_dir 00000046  00000000  00000000  00021b2b  2**0
                  CONTENTS, READONLY
 26 .sopcinfo     0007c6c2  00000000  00000000  00021b71  2**0
                  CONTENTS, READONLY
SYMBOL TABLE:
00800000 l    d  .entry	00000000 .entry
00800020 l    d  .exceptions	00000000 .exceptions
00800230 l    d  .text	00000000 .text
00804278 l    d  .rodata	00000000 .rodata
00804350 l    d  .rwdata	00000000 .rwdata
008051a0 l    d  .bss	00000000 .bss
008052cc l    d  .SDRAM_Controller	00000000 .SDRAM_Controller
00000000 l    d  .comment	00000000 .comment
00000000 l    d  .debug_aranges	00000000 .debug_aranges
00000000 l    d  .debug_info	00000000 .debug_info
00000000 l    d  .debug_abbrev	00000000 .debug_abbrev
00000000 l    d  .debug_line	00000000 .debug_line
00000000 l    d  .debug_frame	00000000 .debug_frame
00000000 l    d  .debug_str	00000000 .debug_str
00000000 l    d  .debug_loc	00000000 .debug_loc
00000000 l    d  .debug_alt_sim_info	00000000 .debug_alt_sim_info
00000000 l    d  .debug_ranges	00000000 .debug_ranges
00000000 l    df *ABS*	00000000 ../C_eng_job_bsp//obj/HAL/src/crt0.o
00800268 l       .text	00000000 alt_after_alt_main
00000000 l    df *ABS*	00000000 alt_irq_handler.c
00000000 l    df *ABS*	00000000 alt_instruction_exception_entry.c
00000000 l    df *ABS*	00000000 hello_world.c
00000000 l    df *ABS*	00000000 lib2-divmod.c
00000000 l    df *ABS*	00000000 lib2-mul.c
00000000 l    df *ABS*	00000000 calloc.c
00000000 l    df *ABS*	00000000 impure.c
00804750 l     O .rwdata	000000e0 impure_data
00000000 l    df *ABS*	00000000 malloc.c
00000000 l    df *ABS*	00000000 memcpy.c
00000000 l    df *ABS*	00000000 memset.c
00000000 l    df *ABS*	00000000 nano-mallocr.c
00000000 l    df *ABS*	00000000 nano-mallocr.c
00000000 l    df *ABS*	00000000 nano-mallocr.c
00000000 l    df *ABS*	00000000 printf.c
00000000 l    df *ABS*	00000000 putchar.c
00000000 l    df *ABS*	00000000 puts.c
00000000 l    df *ABS*	00000000 sbrkr.c
00000000 l    df *ABS*	00000000 strlen.c
00000000 l    df *ABS*	00000000 vfprintf.c
00801e20 l     F .text	0000006c print_repeat
00000000 l    df *ABS*	00000000 fvwrite_small_dev.c
00000000 l    df *ABS*	00000000 int_errno.c
00000000 l    df *ABS*	00000000 putc.c
00000000 l    df *ABS*	00000000 writer.c
00000000 l    df *ABS*	00000000 alt_load.c
00802590 l     F .text	00000068 alt_load_section
00000000 l    df *ABS*	00000000 alt_main.c
00000000 l    df *ABS*	00000000 alt_sbrk.c
00804a50 l     O .rwdata	00000004 heap_end
00000000 l    df *ABS*	00000000 alt_write.c
00802798 l     F .text	00000050 alt_get_errno
00000000 l    df *ABS*	00000000 alt_sys_init.c
008028e8 l     F .text	00000038 alt_dev_reg
00804830 l     O .rwdata	0000002c jtag_uart_0
0080485c l     O .rwdata	0000003c modular_adc_0
00000000 l    df *ABS*	00000000 altera_avalon_jtag_uart_fd.c
00000000 l    df *ABS*	00000000 altera_avalon_jtag_uart_read.c
00000000 l    df *ABS*	00000000 altera_avalon_jtag_uart_write.c
00000000 l    df *ABS*	00000000 altera_avalon_spi.c
00000000 l    df *ABS*	00000000 altera_modular_adc.c
00802de0 l     F .text	000000a8 alt_adc_irq
00000000 l    df *ABS*	00000000 alt_close.c
0080334c l     F .text	00000050 alt_get_errno
00000000 l    df *ABS*	00000000 alt_dcache_flush_all.c
00000000 l    df *ABS*	00000000 alt_dev.c
00803494 l     F .text	0000002c alt_dev_null_write
00000000 l    df *ABS*	00000000 alt_dev_llist_insert.c
008034c0 l     F .text	00000050 alt_get_errno
00000000 l    df *ABS*	00000000 alt_errno.c
00000000 l    df *ABS*	00000000 alt_find_dev.c
00000000 l    df *ABS*	00000000 alt_icache_flush_all.c
00000000 l    df *ABS*	00000000 alt_iic.c
00000000 l    df *ABS*	00000000 alt_iic_isr_register.c
00000000 l    df *ABS*	00000000 alt_io_redirect.c
00803934 l     F .text	000000e4 alt_open_fd
00000000 l    df *ABS*	00000000 alt_irq_vars.c
00000000 l    df *ABS*	00000000 alt_open.c
00803a94 l     F .text	00000050 alt_get_errno
00803ae4 l     F .text	000000f4 alt_file_locked
00000000 l    df *ABS*	00000000 alt_release_fd.c
00000000 l    df *ABS*	00000000 altera_nios2_gen2_irq.c
00000000 l    df *ABS*	00000000 alt_find_file.c
00000000 l    df *ABS*	00000000 alt_get_fd.c
00000000 l    df *ABS*	00000000 exit.c
00000000 l    df *ABS*	00000000 memcmp.c
00000000 l    df *ABS*	00000000 __call_atexit.c
00000000 l    df *ABS*	00000000 alt_exit.c
008051c8 g     O .bss	00000004 alt_instruction_exception_handler
00801d04 g     F .text	0000001c putchar
00803080 g     F .text	00000050 adc_stop
0080267c g     F .text	0000006c alt_main
00801d20 g     F .text	00000080 _puts_r
008051cc g     O .bss	00000100 alt_irq
00804a78 g       *ABS*	00000000 __flash_rwdata_start
008007e0 g     F .text	00000134 read_accelerometerY
008052cc g       *ABS*	00000000 __alt_heap_start
00801cb0 g     F .text	0000004c printf
008051a4 g     O .bss	00000004 j
00800d00 g     F .text	0000010c print_char
00803dbc g     F .text	00000024 altera_nios2_gen2_irq_init
00800000 g     F .entry	0000000c __reset
00803244 g     F .text	00000048 adc_interrupt_disable
00800020 g       *ABS*	00000000 __flash_exceptions_start
008051b4 g     O .bss	00000004 errno
0080068c g     F .text	00000154 read_accelerometerX
00802f34 g     F .text	00000074 altera_modular_adc_init
008051bc g     O .bss	00000004 alt_argv
0080ca40 g       *ABS*	00000000 _gp
008048c0 g     O .rwdata	00000180 alt_fd_list
00801cfc g     F .text	00000008 _putchar_r
008035b4 g     F .text	00000090 alt_find_dev
00801990 g     F .text	00000028 memcpy
00800e0c g     F .text	000000a8 print_str
00803148 g     F .text	0000003c adc_set_mode_run_continuously
00803a18 g     F .text	0000007c alt_io_redirect
00801da0 g     F .text	00000014 puts
00803fc8 g     F .text	0000009c alt_exception_cause_generated_bad_addr
00802a64 g     F .text	000000ec altera_avalon_jtag_uart_read
00801968 g     F .text	00000014 malloc
00801c74 g     F .text	0000003c _printf_r
0080186c g     F .text	00000064 .hidden __udivsi3
00801db4 g     F .text	00000050 _sbrk_r
00800b60 g     F .text	000000d0 print_hline
008004a8 g     F .text	00000034 config_time_base
00804a54 g     O .rwdata	00000008 altera_modular_adc_list
00804a6c g     O .rwdata	00000004 alt_max_fd
00804350 g     O .rwdata	00000400 font8x8_basic
00804a42 g     O .rwdata	00000004 spi_command_rx
00804a48 g     O .rwdata	00000004 _global_impure_ptr
008052cc g       *ABS*	00000000 __bss_end
00803844 g     F .text	000000f0 alt_iic_isr_register
00803310 g     F .text	0000003c adc_wait_for_interrupt
00800ab4 g     F .text	000000ac print_pix
008037f8 g     F .text	0000004c alt_ic_irq_enabled
008051c4 g     O .bss	00000004 alt_irq_active
008000fc g     F .exceptions	000000d4 alt_irq_handler
00804898 g     O .rwdata	00000028 alt_dev_null
00803108 g     F .text	00000040 adc_set_mode_run_once
00803474 g     F .text	00000020 alt_dcache_flush_all
00801950 g     F .text	00000018 calloc
00804a78 g       *ABS*	00000000 __ram_rwdata_end
00804a64 g     O .rwdata	00000008 alt_dev_list
00800c30 g     F .text	000000d0 print_vline
008027e8 g     F .text	00000100 write
008024e0 g     F .text	00000058 _putc_r
00804350 g       *ABS*	00000000 __ram_rodata_end
008030d0 g     F .text	00000038 adc_start
008018d0 g     F .text	00000058 .hidden __umodsi3
008052cc g       *ABS*	00000000 end
008051a0 g     O .bss	00000004 i
008001d0 g     F .exceptions	00000060 alt_instruction_exception_entry
01000000 g       *ABS*	00000000 __alt_stack_pointer
00802b50 g     F .text	00000094 altera_avalon_jtag_uart_write
00801e8c g     F .text	0000052c ___vfprintf_internal_r
00801a38 g     F .text	000000e4 _free_r
008004dc g     F .text	00000124 init_measurement
008040b4 g     F .text	00000190 __call_exitprocs
00800230 g     F .text	0000003c _start
00800600 g     F .text	0000008c update_graph
00802be4 g     F .text	000001fc alt_avalon_spi_command
00802958 g     F .text	0000004c alt_sys_init
00801928 g     F .text	00000028 .hidden __mulsi3
00804350 g       *ABS*	00000000 __ram_rwdata_start
00804278 g       *ABS*	00000000 __ram_rodata_start
008029a4 g     F .text	00000060 altera_avalon_jtag_uart_read_fd
00803ef4 g     F .text	000000d4 alt_get_fd
00804084 g     F .text	00000030 memcmp
008052cc g       *ABS*	00000000 __alt_stack_base
00801474 g     F .text	00000068 queue_dequeue
00803200 g     F .text	00000044 adc_interrupt_enable
00803de0 g     F .text	00000114 alt_find_file
00803510 g     F .text	000000a4 alt_dev_llist_insert
008026e8 g     F .text	000000b0 sbrk
008019d8 g     F .text	00000060 _calloc_r
008023d4 g     F .text	000000b8 __sfvwrite_small_dev
008051a0 g       *ABS*	00000000 __bss_start
008019b8 g     F .text	00000020 memset
0080026c g     F .text	0000023c main
008051c0 g     O .bss	00000004 alt_envp
00802a04 g     F .text	00000060 altera_avalon_jtag_uart_write_fd
008051a8 g     O .bss	00000003 accel_data
00802e88 g     F .text	000000ac alt_adc_word_read
01000000 g       *ABS*	00000000 __alt_heap_limit
00801b1c g     F .text	00000158 _malloc_r
00804a70 g     O .rwdata	00000004 alt_errno
0080248c g     F .text	00000054 putc
00801774 g     F .text	00000084 .hidden __divsi3
00804278 g       *ABS*	00000000 __flash_rodata_start
00801260 g     F .text	00000064 read_pixel_ram_int
00802920 g     F .text	00000038 alt_irq_init
00803d38 g     F .text	00000084 alt_release_fd
00802538 g     F .text	00000058 _write_r
00804a4c g     O .rwdata	00000004 _impure_ptr
008051b8 g     O .bss	00000004 alt_argc
00800000 g       *ABS*	00000000 __alt_mem_SDRAM_Controller
00800020 g       .exceptions	00000000 alt_irq_entry
00804a5c g     O .rwdata	00000008 alt_fs_list
00800020 g       *ABS*	00000000 __ram_exceptions_start
00803664 g     F .text	00000050 alt_ic_isr_register
00804a78 g       *ABS*	00000000 _edata
008052cc g       *ABS*	00000000 _end
008032d0 g     F .text	00000040 adc_interrupt_asserted
00800eb4 g     F .text	00000158 print_symmetry_dots_circle
00800230 g       *ABS*	00000000 __ram_exceptions_end
00803754 g     F .text	000000a4 alt_ic_irq_disable
0080328c g     F .text	00000044 adc_clear_interrupt_status
00804064 g     F .text	00000020 exit
008017f8 g     F .text	00000074 .hidden __modsi3
01000000 g       *ABS*	00000000 __alt_data_end
00800020 g     F .exceptions	00000000 alt_exception
00800914 g     F .text	000001a0 read_accelerometerZ
00803040 g     F .text	00000040 altera_modular_adc_open
00804244 g     F .text	00000034 _exit
00801564 g     F .text	00000210 queue_print_screen
00801e04 g     F .text	0000001c strlen
00804a40 g     O .rwdata	00000002 spi_command_tx
00803bd8 g     F .text	00000160 open
008051ac g     O .bss	00000004 __malloc_sbrk_start
00803184 g     F .text	0000007c adc_recalibrate
00803644 g     F .text	00000020 alt_icache_flush_all
00804a74 g     O .rwdata	00000004 alt_priority_mask
008051b0 g     O .bss	00000004 __malloc_free_list
008036b4 g     F .text	000000a0 alt_ic_irq_enable
0080100c g     F .text	0000015c print_empty_circle
008023b8 g     F .text	0000001c __vfprintf_internal
008011dc g     F .text	00000084 clear_screen
008014dc g     F .text	00000088 queue_print
0080339c g     F .text	000000d8 close
008012c4 g     F .text	00000054 queue_init
00801318 g     F .text	0000015c queue_enqueue
00801168 g     F .text	00000074 print_circle
008025f8 g     F .text	00000084 alt_load
00802fa8 g     F .text	00000098 alt_adc_register_callback
0080197c g     F .text	00000014 free



Disassembly of section .entry:

00800000 <__reset>:
 * Jump to the _start entry point in the .text section if reset code
 * is allowed or if optimizing for RTL simulation.
 */
#if defined(ALT_ALLOW_CODE_AT_RESET) || defined(ALT_SIM_OPTIMIZE)
    /* Jump to the _start entry point in the .text section. */
    movhi r1, %hi(_start)
  800000:	00402034 	movhi	at,128
    ori r1, r1, %lo(_start)
  800004:	08408c14 	ori	at,at,560
    jmp r1
  800008:	0800683a 	jmp	at
	...

Disassembly of section .exceptions:

00800020 <alt_exception>:

#else /* ALT_EXCEPTION_STACK disabled */
        /* 
         * Reserve space on normal stack for registers about to be pushed.
         */
        addi  sp, sp, -76
  800020:	deffed04 	addi	sp,sp,-76
         * documentation for details).
         *
         * Leave a gap in the stack frame at 4(sp) for the muldiv handler to
         * store zero into.
         */
        stw   ra,  0(sp)
  800024:	dfc00015 	stw	ra,0(sp)
        stw   r1,   8(sp)
  800028:	d8400215 	stw	at,8(sp)
        stw   r2,  12(sp)
  80002c:	d8800315 	stw	r2,12(sp)
        stw   r3,  16(sp)
  800030:	d8c00415 	stw	r3,16(sp)
        stw   r4,  20(sp)
  800034:	d9000515 	stw	r4,20(sp)
        stw   r5,  24(sp)
  800038:	d9400615 	stw	r5,24(sp)
        stw   r6,  28(sp)
  80003c:	d9800715 	stw	r6,28(sp)
        stw   r7,  32(sp)
  800040:	d9c00815 	stw	r7,32(sp)
        rdctl r5, estatus   /* Read early to avoid usage stall */
  800044:	000b307a 	rdctl	r5,estatus
        stw   r8,  36(sp)
  800048:	da000915 	stw	r8,36(sp)
        stw   r9,  40(sp)
  80004c:	da400a15 	stw	r9,40(sp)
        stw   r10, 44(sp)
  800050:	da800b15 	stw	r10,44(sp)
        stw   r11, 48(sp)
  800054:	dac00c15 	stw	r11,48(sp)
        stw   r12, 52(sp)
  800058:	db000d15 	stw	r12,52(sp)
        stw   r13, 56(sp)
  80005c:	db400e15 	stw	r13,56(sp)
        stw   r14, 60(sp)
  800060:	db800f15 	stw	r14,60(sp)
        stw   r15, 64(sp)
  800064:	dbc01015 	stw	r15,64(sp)
        /*
         * ea-4 contains the address of the instruction being executed
         * when the exception occured. For interrupt exceptions, we will
         * will be re-issue the isntruction. Store it in 72(sp)
         */
        stw   r5,  68(sp)  /* estatus */
  800068:	d9401115 	stw	r5,68(sp)
        addi  r15, ea, -4  /* instruction that caused exception */
  80006c:	ebffff04 	addi	r15,ea,-4
        stw   r15,  72(sp)
  800070:	dbc01215 	stw	r15,72(sp)
#else
        /*
         * Test to see if the exception was a software exception or caused 
         * by an external interrupt, and vector accordingly.
         */
        rdctl r4, ipending
  800074:	0009313a 	rdctl	r4,ipending
        andi  r2, r5, 1
  800078:	2880004c 	andi	r2,r5,1
        beq   r2, zero, .Lnot_irq
  80007c:	10000326 	beq	r2,zero,80008c <alt_exception+0x6c>
        beq   r4, zero, .Lnot_irq
  800080:	20000226 	beq	r4,zero,80008c <alt_exception+0x6c>
        /*
         * Now that all necessary registers have been preserved, call 
         * alt_irq_handler() to process the interrupts.
         */

        call alt_irq_handler
  800084:	08000fc0 	call	8000fc <alt_irq_handler>

        .section .exceptions.irqreturn, "xa"

        br    .Lexception_exit
  800088:	00000706 	br	8000a8 <alt_exception+0x88>
         * upon completion, so we write ea (address of instruction *after*
         * the one where the exception occured) into 72(sp). The actual
         * instruction that caused the exception is written in r2, which these
         * handlers will utilize.
         */
        stw ea, 72(sp) /* EA is PC+4 so will skip over instruction causing exception */
  80008c:	df401215 	stw	ea,72(sp)
.Lunknown_16bit:
        addi.n r4, r4, 2 /* Need PC+2 to skip over instruction causing exception */
        stw r4, 72(sp)

#else /* CDX is not Enabled and all instructions are 32bits */
        ldw r2, -4(ea) /* Instruction value that caused exception */
  800090:	e8bfff17 	ldw	r2,-4(ea)
         * debugger is present) or go into an infinite loop since the
         * handling behavior is undefined; in that case we will not return here.
         */

        /* Load exception-causing address as first argument (r4) */
        addi   r4, ea, -4
  800094:	e93fff04 	addi	r4,ea,-4

        /* Call the instruction-exception entry */
        call   alt_instruction_exception_entry
  800098:	08001d00 	call	8001d0 <alt_instruction_exception_entry>
         * instruction
         *
         * Return code was 0: Skip. The instruction after the exception is
         * already stored in 72(sp).
         */
        bne   r2, r0, .Lexception_exit
  80009c:	1000021e 	bne	r2,zero,8000a8 <alt_exception+0x88>

        /*
         * Otherwise, modify 72(sp) to re-issue the instruction that caused the
         * exception.
         */
        addi  r15, ea, -4  /* instruction that caused exception */
  8000a0:	ebffff04 	addi	r15,ea,-4
        stw   r15,  72(sp)
  8000a4:	dbc01215 	stw	r15,72(sp)
        /* 
         * Restore the saved registers, so that all general purpose registers 
         * have been restored to their state at the time the interrupt occured.
         */

        ldw   r5,  68(sp)
  8000a8:	d9401117 	ldw	r5,68(sp)
        ldw   ea,  72(sp)  /* This becomes the PC once eret is executed */
  8000ac:	df401217 	ldw	ea,72(sp)
        ldw   ra,   0(sp)
  8000b0:	dfc00017 	ldw	ra,0(sp)

        wrctl estatus, r5
  8000b4:	2801707a 	wrctl	estatus,r5

        ldw   r1,   8(sp)
  8000b8:	d8400217 	ldw	at,8(sp)
        ldw   r2,  12(sp)
  8000bc:	d8800317 	ldw	r2,12(sp)
        ldw   r3,  16(sp)
  8000c0:	d8c00417 	ldw	r3,16(sp)
        ldw   r4,  20(sp)
  8000c4:	d9000517 	ldw	r4,20(sp)
        ldw   r5,  24(sp)
  8000c8:	d9400617 	ldw	r5,24(sp)
        ldw   r6,  28(sp)
  8000cc:	d9800717 	ldw	r6,28(sp)
        ldw   r7,  32(sp)
  8000d0:	d9c00817 	ldw	r7,32(sp)

#if defined(ALT_EXCEPTION_STACK) && defined(ALT_STACK_CHECK)
        ldw   et, %gprel(alt_exception_old_stack_limit)(gp)
#endif

        ldw   r8,  36(sp)
  8000d4:	da000917 	ldw	r8,36(sp)
        ldw   r9,  40(sp)
  8000d8:	da400a17 	ldw	r9,40(sp)
        ldw   r10, 44(sp)
  8000dc:	da800b17 	ldw	r10,44(sp)
        ldw   r11, 48(sp)
  8000e0:	dac00c17 	ldw	r11,48(sp)
        ldw   r12, 52(sp)
  8000e4:	db000d17 	ldw	r12,52(sp)
        ldw   r13, 56(sp)
  8000e8:	db400e17 	ldw	r13,56(sp)
        ldw   r14, 60(sp)
  8000ec:	db800f17 	ldw	r14,60(sp)
        ldw   r15, 64(sp)
  8000f0:	dbc01017 	ldw	r15,64(sp)
        stw   et, %gprel(alt_stack_limit_value)(gp)
        stw   zero, %gprel(alt_exception_old_stack_limit)(gp)
#endif /* ALT_STACK_CHECK */
        ldw   sp,  76(sp)
#else /* ALT_EXCEPTION_STACK disabled */
        addi  sp, sp, 76
  8000f4:	dec01304 	addi	sp,sp,76

        /*
         * Return to the interrupted instruction.
         */

        eret
  8000f8:	ef80083a 	eret

008000fc <alt_irq_handler>:
 * instruction is present if the macro ALT_CI_INTERRUPT_VECTOR defined.
 */

void alt_irq_handler (void) __attribute__ ((section (".exceptions")));
void alt_irq_handler (void)
{
  8000fc:	defff904 	addi	sp,sp,-28
  800100:	dfc00615 	stw	ra,24(sp)
  800104:	df000515 	stw	fp,20(sp)
  800108:	df000504 	addi	fp,sp,20
  
  /*
   * Notify the operating system that we are at interrupt level.
   */ 
  
  ALT_OS_INT_ENTER();
  80010c:	0001883a 	nop
#ifndef NIOS2_EIC_PRESENT
static ALT_INLINE alt_u32 ALT_ALWAYS_INLINE alt_irq_pending (void)
{
  alt_u32 active;

  NIOS2_READ_IPENDING (active);
  800110:	0005313a 	rdctl	r2,ipending
  800114:	e0bffe15 	stw	r2,-8(fp)

  return active;
  800118:	e0bffe17 	ldw	r2,-8(fp)
   * Consider the case where the high priority interupt is asserted during
   * the interrupt entry sequence for a lower priority interrupt to see why
   * this is the case.
   */

  active = alt_irq_pending ();
  80011c:	e0bffb15 	stw	r2,-20(fp)

  do
  {
    i = 0;
  800120:	e03ffd15 	stw	zero,-12(fp)
    mask = 1;
  800124:	00800044 	movi	r2,1
  800128:	e0bffc15 	stw	r2,-16(fp)
     * called to clear the interrupt condition.
     */

    do
    {
      if (active & mask)
  80012c:	e0fffb17 	ldw	r3,-20(fp)
  800130:	e0bffc17 	ldw	r2,-16(fp)
  800134:	1884703a 	and	r2,r3,r2
  800138:	10001426 	beq	r2,zero,80018c <alt_irq_handler+0x90>
      { 
#ifdef ALT_ENHANCED_INTERRUPT_API_PRESENT
        alt_irq[i].handler(alt_irq[i].context); 
  80013c:	00802034 	movhi	r2,128
  800140:	10947304 	addi	r2,r2,20940
  800144:	e0fffd17 	ldw	r3,-12(fp)
  800148:	180690fa 	slli	r3,r3,3
  80014c:	10c5883a 	add	r2,r2,r3
  800150:	10c00017 	ldw	r3,0(r2)
  800154:	00802034 	movhi	r2,128
  800158:	10947304 	addi	r2,r2,20940
  80015c:	e13ffd17 	ldw	r4,-12(fp)
  800160:	200890fa 	slli	r4,r4,3
  800164:	1105883a 	add	r2,r2,r4
  800168:	10800104 	addi	r2,r2,4
  80016c:	10800017 	ldw	r2,0(r2)
  800170:	1009883a 	mov	r4,r2
  800174:	183ee83a 	callr	r3
#else
        alt_irq[i].handler(alt_irq[i].context, i); 
#endif
        break;
  800178:	0001883a 	nop
#ifndef NIOS2_EIC_PRESENT
static ALT_INLINE alt_u32 ALT_ALWAYS_INLINE alt_irq_pending (void)
{
  alt_u32 active;

  NIOS2_READ_IPENDING (active);
  80017c:	0005313a 	rdctl	r2,ipending
  800180:	e0bfff15 	stw	r2,-4(fp)

  return active;
  800184:	e0bfff17 	ldw	r2,-4(fp)
  800188:	00000706 	br	8001a8 <alt_irq_handler+0xac>
      }
      mask <<= 1;
  80018c:	e0bffc17 	ldw	r2,-16(fp)
  800190:	1085883a 	add	r2,r2,r2
  800194:	e0bffc15 	stw	r2,-16(fp)
      i++;
  800198:	e0bffd17 	ldw	r2,-12(fp)
  80019c:	10800044 	addi	r2,r2,1
  8001a0:	e0bffd15 	stw	r2,-12(fp)

    } while (1);
  8001a4:	003fe106 	br	80012c <__alt_data_end+0xff80012c>

    active = alt_irq_pending ();
  8001a8:	e0bffb15 	stw	r2,-20(fp)
    
  } while (active);
  8001ac:	e0bffb17 	ldw	r2,-20(fp)
  8001b0:	103fdb1e 	bne	r2,zero,800120 <__alt_data_end+0xff800120>

  /*
   * Notify the operating system that interrupt processing is complete.
   */ 

  ALT_OS_INT_EXIT();
  8001b4:	0001883a 	nop
}
  8001b8:	0001883a 	nop
  8001bc:	e037883a 	mov	sp,fp
  8001c0:	dfc00117 	ldw	ra,4(sp)
  8001c4:	df000017 	ldw	fp,0(sp)
  8001c8:	dec00204 	addi	sp,sp,8
  8001cc:	f800283a 	ret

008001d0 <alt_instruction_exception_entry>:
 * that handler if it has been registered. Absent a handler, it will
 * break break or hang as discussed below.
 */
int 
alt_instruction_exception_entry (alt_u32 exception_pc)
{
  8001d0:	defffb04 	addi	sp,sp,-20
  8001d4:	dfc00415 	stw	ra,16(sp)
  8001d8:	df000315 	stw	fp,12(sp)
  8001dc:	df000304 	addi	fp,sp,12
  8001e0:	e13fff15 	stw	r4,-4(fp)
  cause = ( (cause & NIOS2_EXCEPTION_REG_CAUSE_MASK) >>
              NIOS2_EXCEPTION_REG_CAUSE_OFST );

  NIOS2_READ_BADADDR(badaddr);
#else
  cause = NIOS2_EXCEPTION_CAUSE_NOT_PRESENT;
  8001e4:	00bfffc4 	movi	r2,-1
  8001e8:	e0bffd15 	stw	r2,-12(fp)
  badaddr = 0;
  8001ec:	e03ffe15 	stw	zero,-8(fp)
#endif /* NIOS2_HAS_EXTRA_EXCEPTION_INFO */

  if(alt_instruction_exception_handler) {
  8001f0:	d0a1e217 	ldw	r2,-30840(gp)
  8001f4:	10000726 	beq	r2,zero,800214 <alt_instruction_exception_entry+0x44>
     * Call handler. Its return value indicates whether the exception-causing
     * instruction should be re-issued. The code that called us,
     * alt_eceptions_entry.S, will look at this value and adjust the ea
     * register as necessary
     */
    return alt_instruction_exception_handler(cause, exception_pc, badaddr);
  8001f8:	d0a1e217 	ldw	r2,-30840(gp)
  8001fc:	e0fffd17 	ldw	r3,-12(fp)
  800200:	e1bffe17 	ldw	r6,-8(fp)
  800204:	e17fff17 	ldw	r5,-4(fp)
  800208:	1809883a 	mov	r4,r3
  80020c:	103ee83a 	callr	r2
  800210:	00000206 	br	80021c <alt_instruction_exception_entry+0x4c>
   *    (a peripheral which negates its interrupt output before its
   *    interrupt handler has been executed will cause spurious interrupts)
   */
  else {
#ifdef NIOS2_HAS_DEBUG_STUB
    NIOS2_BREAK();
  800214:	003da03a 	break	0
      ;
#endif /* NIOS2_HAS_DEBUG_STUB */
  }

  /* We should not get here. Remove compiler warning. */
  return NIOS2_EXCEPTION_RETURN_REISSUE_INST;
  800218:	0005883a 	mov	r2,zero
}
  80021c:	e037883a 	mov	sp,fp
  800220:	dfc00117 	ldw	ra,4(sp)
  800224:	df000017 	ldw	fp,0(sp)
  800228:	dec00204 	addi	sp,sp,8
  80022c:	f800283a 	ret

Disassembly of section .text:

00800230 <_start>:

    /*
     * Now that the caches are initialized, set up the stack pointer and global pointer.
     * The values provided by the linker are assumed to be correctly aligned.
     */
    movhi sp, %hi(__alt_stack_pointer)
  800230:	06c04034 	movhi	sp,256
    ori sp, sp, %lo(__alt_stack_pointer)
  800234:	dec00014 	ori	sp,sp,0
    movhi gp, %hi(_gp)
  800238:	06802034 	movhi	gp,128
    ori gp, gp, %lo(_gp)
  80023c:	d6b29014 	ori	gp,gp,51776
 */
#ifndef ALT_SIM_OPTIMIZE
    /* Log that the BSS is about to be cleared. */
    ALT_LOG_PUTS(alt_log_msg_bss)

    movhi r2, %hi(__bss_start)
  800240:	00802034 	movhi	r2,128
    ori r2, r2, %lo(__bss_start)
  800244:	10946814 	ori	r2,r2,20896

    movhi r3, %hi(__bss_end)
  800248:	00c02034 	movhi	r3,128
    ori r3, r3, %lo(__bss_end)
  80024c:	18d4b314 	ori	r3,r3,21196

    beq r2, r3, 1f
  800250:	10c00326 	beq	r2,r3,800260 <_start+0x30>

0:
    stw zero, (r2)
  800254:	10000015 	stw	zero,0(r2)
    addi r2, r2, 4
  800258:	10800104 	addi	r2,r2,4
    bltu r2, r3, 0b
  80025c:	10fffd36 	bltu	r2,r3,800254 <__alt_data_end+0xff800254>
     * section aren't defined until alt_load() has been called).
     */
    mov   et, zero
#endif

    call alt_load
  800260:	08025f80 	call	8025f8 <alt_load>

    /* Log that alt_main is about to be called. */
    ALT_LOG_PUTS(alt_log_msg_alt_main)

    /* Call the C entry point. It should never return. */
    call alt_main
  800264:	080267c0 	call	80267c <alt_main>

00800268 <alt_after_alt_main>:

    /* Wait in infinite loop in case alt_main does return. */
alt_after_alt_main:
    br alt_after_alt_main
  800268:	003fff06 	br	800268 <__alt_data_end+0xff800268>

0080026c <main>:


};*/

int main()
{
  80026c:	defe9d04 	addi	sp,sp,-1420
  800270:	dfc16215 	stw	ra,1416(sp)
  800274:	df016115 	stw	fp,1412(sp)
  800278:	df016104 	addi	fp,sp,1412
	enum sampling_state state = fast_sampling;
  80027c:	e03ea015 	stw	zero,-1408(fp)
	QUEUE q1,q2,q3,q4,q5;
	QUEUE* q11 = &q1;
  800280:	e0bea204 	addi	r2,fp,-1400
  800284:	e0bea115 	stw	r2,-1404(fp)
	SENSOR_OBJECT accelorometerX =
  800288:	009958f4 	movhi	r2,25955
  80028c:	1098d044 	addi	r2,r2,25409
  800290:	e0bfab15 	stw	r2,-340(fp)
  800294:	009bdcb4 	movhi	r2,28530
  800298:	10995b04 	addi	r2,r2,25964
  80029c:	e0bfac15 	stw	r2,-336(fp)
  8002a0:	009e0834 	movhi	r2,30752
  8002a4:	108b9b44 	addi	r2,r2,11885
  8002a8:	e0bfad15 	stw	r2,-332(fp)
  8002ac:	e03fae15 	stw	zero,-328(fp)
  8002b0:	e0bfaf04 	addi	r2,fp,-324
  8002b4:	00c01004 	movi	r3,64
  8002b8:	180d883a 	mov	r6,r3
  8002bc:	000b883a 	mov	r5,zero
  8002c0:	1009883a 	mov	r4,r2
  8002c4:	08019b80 	call	8019b8 <memset>
  8002c8:	00800784 	movi	r2,30
  8002cc:	e0bfbf15 	stw	r2,-260(fp)
  8002d0:	00800c84 	movi	r2,50
  8002d4:	e0bfc015 	stw	r2,-256(fp)
  8002d8:	00800044 	movi	r2,1
  8002dc:	e0bfc115 	stw	r2,-252(fp)
  8002e0:	00800044 	movi	r2,1
  8002e4:	e0bfc215 	stw	r2,-248(fp)
  8002e8:	00800a04 	movi	r2,40
  8002ec:	e0bfc315 	stw	r2,-244(fp)
  8002f0:	00800104 	movi	r2,4
  8002f4:	e0bfc415 	stw	r2,-240(fp)
  8002f8:	e0bfc504 	addi	r2,fp,-236
  8002fc:	e0fea204 	addi	r3,fp,-1400
  800300:	01003504 	movi	r4,212
  800304:	200d883a 	mov	r6,r4
  800308:	180b883a 	mov	r5,r3
  80030c:	1009883a 	mov	r4,r2
  800310:	08019900 	call	801990 <memcpy>
  800314:	e0bea117 	ldw	r2,-1404(fp)
  800318:	e0bffa15 	stw	r2,-24(fp)
  80031c:	00802034 	movhi	r2,128
  800320:	10812a04 	addi	r2,r2,1192
  800324:	e0bffb15 	stw	r2,-20(fp)
  800328:	00802034 	movhi	r2,128
  80032c:	10813704 	addi	r2,r2,1244
  800330:	e0bffc15 	stw	r2,-16(fp)
  800334:	00802034 	movhi	r2,128
  800338:	1081a304 	addi	r2,r2,1676
  80033c:	e0bffd15 	stw	r2,-12(fp)
  800340:	00802034 	movhi	r2,128
  800344:	10818004 	addi	r2,r2,1536
  800348:	e0bffe15 	stw	r2,-8(fp)
  80034c:	e0bfab04 	addi	r2,fp,-340
  800350:	e0bfff15 	stw	r2,-4(fp)
			init_measurement,
			read_accelerometerX,
			update_graph,
			&accelorometerX
		};
	printf("Test for all components initiate!\n\n");
  800354:	01002034 	movhi	r4,128
  800358:	21109e04 	addi	r4,r4,17016
  80035c:	0801da00 	call	801da0 <puts>
		for(i = 0; i < 78600; i++)
  800360:	d021d815 	stw	zero,-30880(gp)
  800364:	00000b06 	br	800394 <main+0x128>
			set_address_pixel(i, 0);
  800368:	d0a1d817 	ldw	r2,-30880(gp)
  80036c:	1085883a 	add	r2,r2,r2
  800370:	1085883a 	add	r2,r2,r2
  800374:	1007883a 	mov	r3,r2
  800378:	00804034 	movhi	r2,256
  80037c:	1885883a 	add	r2,r3,r2
  800380:	0007883a 	mov	r3,zero
  800384:	10c00035 	stwio	r3,0(r2)
			read_accelerometerX,
			update_graph,
			&accelorometerX
		};
	printf("Test for all components initiate!\n\n");
		for(i = 0; i < 78600; i++)
  800388:	d0a1d817 	ldw	r2,-30880(gp)
  80038c:	10800044 	addi	r2,r2,1
  800390:	d0a1d815 	stw	r2,-30880(gp)
  800394:	d0e1d817 	ldw	r3,-30880(gp)
  800398:	00800074 	movhi	r2,1
  80039c:	108cc1c4 	addi	r2,r2,13063
  8003a0:	10fff12e 	bgeu	r2,r3,800368 <__alt_data_end+0xff800368>
			set_address_pixel(i, 0);

		print_hline(0,120,320,6);
  8003a4:	01c00184 	movi	r7,6
  8003a8:	01805004 	movi	r6,320
  8003ac:	01401e04 	movi	r5,120
  8003b0:	0009883a 	mov	r4,zero
  8003b4:	0800b600 	call	800b60 <print_hline>
		print_vline(160,0,240,2);
  8003b8:	01c00084 	movi	r7,2
  8003bc:	01803c04 	movi	r6,240
  8003c0:	000b883a 	mov	r5,zero
  8003c4:	01002804 	movi	r4,160
  8003c8:	0800c300 	call	800c30 <print_vline>
		print_char(100,100,5,0,'A');
  8003cc:	00801044 	movi	r2,65
  8003d0:	d8800015 	stw	r2,0(sp)
  8003d4:	000f883a 	mov	r7,zero
  8003d8:	01800144 	movi	r6,5
  8003dc:	01401904 	movi	r5,100
  8003e0:	01001904 	movi	r4,100
  8003e4:	0800d000 	call	800d00 <print_char>
		print_char(200,100,5,0,'a');
  8003e8:	00801844 	movi	r2,97
  8003ec:	d8800015 	stw	r2,0(sp)
  8003f0:	000f883a 	mov	r7,zero
  8003f4:	01800144 	movi	r6,5
  8003f8:	01401904 	movi	r5,100
  8003fc:	01003204 	movi	r4,200
  800400:	0800d000 	call	800d00 <print_char>
		print_str(150,150,5,"Lasse Karagiannis");
  800404:	01c02034 	movhi	r7,128
  800408:	39d0a704 	addi	r7,r7,17052
  80040c:	01800144 	movi	r6,5
  800410:	01402584 	movi	r5,150
  800414:	01002584 	movi	r4,150
  800418:	0800e0c0 	call	800e0c <print_str>
		accelorometerX.reset_samples_vector(&accelorometerX);
  80041c:	e0bffc17 	ldw	r2,-16(fp)
  800420:	e0ffab04 	addi	r3,fp,-340
  800424:	1809883a 	mov	r4,r3
  800428:	103ee83a 	callr	r2
	/*	if(IORD_32DIRECT(KEY_INPUT_BASE,0) & 1<<1)
			state = fast_sampling;
		if(IORD_32DIRECT(KEY_INPUT_BASE,0) & 1<<2)
			state = slow_sampling;*/

		switch(state){
  80042c:	e0bea017 	ldw	r2,-1408(fp)
  800430:	10001c1e 	bne	r2,zero,8004a4 <main+0x238>
		case fast_sampling:
			TIMER_RESET;
  800434:	00d00034 	movhi	r3,16384
  800438:	00804234 	movhi	r2,264
  80043c:	10849904 	addi	r2,r2,4708
  800440:	10c00035 	stwio	r3,0(r2)
			TIMER_START;
  800444:	00e00034 	movhi	r3,32768
  800448:	00804234 	movhi	r2,264
  80044c:	10849904 	addi	r2,r2,4708
  800450:	10c00035 	stwio	r3,0(r2)
			while(TIMER_READ < 50000000);
  800454:	0001883a 	nop
  800458:	00804234 	movhi	r2,264
  80045c:	10849804 	addi	r2,r2,4704
  800460:	10c00037 	ldwio	r3,0(r2)
  800464:	0080bef4 	movhi	r2,763
  800468:	10bc1fc4 	addi	r2,r2,-3969
  80046c:	10fffa0e 	bge	r2,r3,800458 <__alt_data_end+0xff800458>
			accelorometerX.configure_time_base(1,&accelorometerX);
  800470:	e0bffb17 	ldw	r2,-20(fp)
  800474:	e0ffab04 	addi	r3,fp,-340
  800478:	180b883a 	mov	r5,r3
  80047c:	01000044 	movi	r4,1
  800480:	103ee83a 	callr	r2
			accelorometerX.read_sensor(accelorometerX.q);
  800484:	e0bffd17 	ldw	r2,-12(fp)
  800488:	e0fffa17 	ldw	r3,-24(fp)
  80048c:	1809883a 	mov	r4,r3
  800490:	103ee83a 	callr	r2
			accelorometerX.update_graph(&accelorometerX);
  800494:	e0bffe17 	ldw	r2,-8(fp)
  800498:	e0ffab04 	addi	r3,fp,-340
  80049c:	1809883a 	mov	r4,r3
  8004a0:	103ee83a 	callr	r2
		}
	}
  8004a4:	003fe106 	br	80042c <__alt_data_end+0xff80042c>

008004a8 <config_time_base>:
	}

	return 0;
}
/************************************************/
void config_time_base(alt_u32 time_base, SENSOR_OBJECT* sensor_obj){
  8004a8:	defffd04 	addi	sp,sp,-12
  8004ac:	df000215 	stw	fp,8(sp)
  8004b0:	df000204 	addi	fp,sp,8
  8004b4:	e13ffe15 	stw	r4,-8(fp)
  8004b8:	e17fff15 	stw	r5,-4(fp)
	 sensor_obj->time_base = time_base;
  8004bc:	e0bfff17 	ldw	r2,-4(fp)
  8004c0:	e0fffe17 	ldw	r3,-8(fp)
  8004c4:	10c01615 	stw	r3,88(r2)
}
  8004c8:	0001883a 	nop
  8004cc:	e037883a 	mov	sp,fp
  8004d0:	df000017 	ldw	fp,0(sp)
  8004d4:	dec00104 	addi	sp,sp,4
  8004d8:	f800283a 	ret

008004dc <init_measurement>:
void init_measurement(SENSOR_OBJECT* sensor_obj){
  8004dc:	defffc04 	addi	sp,sp,-16
  8004e0:	dfc00315 	stw	ra,12(sp)
  8004e4:	df000215 	stw	fp,8(sp)
  8004e8:	df000204 	addi	fp,sp,8
  8004ec:	e13fff15 	stw	r4,-4(fp)
	queue_init(sensor_obj->q);
  8004f0:	e0bfff17 	ldw	r2,-4(fp)
  8004f4:	10804f17 	ldw	r2,316(r2)
  8004f8:	1009883a 	mov	r4,r2
  8004fc:	08012c40 	call	8012c4 <queue_init>
	print_char(sensor_obj->x_origo +55,sensor_obj->y_origo -3,7,0,'>');
  800500:	e0bfff17 	ldw	r2,-4(fp)
  800504:	10801417 	ldw	r2,80(r2)
  800508:	10c00dc4 	addi	r3,r2,55
  80050c:	e0bfff17 	ldw	r2,-4(fp)
  800510:	10801517 	ldw	r2,84(r2)
  800514:	113fff44 	addi	r4,r2,-3
  800518:	00800f84 	movi	r2,62
  80051c:	d8800015 	stw	r2,0(sp)
  800520:	000f883a 	mov	r7,zero
  800524:	018001c4 	movi	r6,7
  800528:	200b883a 	mov	r5,r4
  80052c:	1809883a 	mov	r4,r3
  800530:	0800d000 	call	800d00 <print_char>
	print_hline(sensor_obj->x_origo,sensor_obj->y_origo,60,7);
  800534:	e0bfff17 	ldw	r2,-4(fp)
  800538:	10c01417 	ldw	r3,80(r2)
  80053c:	e0bfff17 	ldw	r2,-4(fp)
  800540:	10801517 	ldw	r2,84(r2)
  800544:	01c001c4 	movi	r7,7
  800548:	01800f04 	movi	r6,60
  80054c:	100b883a 	mov	r5,r2
  800550:	1809883a 	mov	r4,r3
  800554:	0800b600 	call	800b60 <print_hline>

	print_char(sensor_obj->x_origo -4,sensor_obj->y_origo -45,7,0,'^');
  800558:	e0bfff17 	ldw	r2,-4(fp)
  80055c:	10801417 	ldw	r2,80(r2)
  800560:	10ffff04 	addi	r3,r2,-4
  800564:	e0bfff17 	ldw	r2,-4(fp)
  800568:	10801517 	ldw	r2,84(r2)
  80056c:	113ff4c4 	addi	r4,r2,-45
  800570:	00801784 	movi	r2,94
  800574:	d8800015 	stw	r2,0(sp)
  800578:	000f883a 	mov	r7,zero
  80057c:	018001c4 	movi	r6,7
  800580:	200b883a 	mov	r5,r4
  800584:	1809883a 	mov	r4,r3
  800588:	0800d000 	call	800d00 <print_char>
	print_vline(sensor_obj->x_origo-1,sensor_obj->y_origo -45,45,7);
  80058c:	e0bfff17 	ldw	r2,-4(fp)
  800590:	10801417 	ldw	r2,80(r2)
  800594:	10ffffc4 	addi	r3,r2,-1
  800598:	e0bfff17 	ldw	r2,-4(fp)
  80059c:	10801517 	ldw	r2,84(r2)
  8005a0:	10bff4c4 	addi	r2,r2,-45
  8005a4:	01c001c4 	movi	r7,7
  8005a8:	01800b44 	movi	r6,45
  8005ac:	100b883a 	mov	r5,r2
  8005b0:	1809883a 	mov	r4,r3
  8005b4:	0800c300 	call	800c30 <print_vline>

	print_str(sensor_obj->x_origo -20, sensor_obj->y_origo +10,7,sensor_obj->description);
  8005b8:	e0bfff17 	ldw	r2,-4(fp)
  8005bc:	10801417 	ldw	r2,80(r2)
  8005c0:	10fffb04 	addi	r3,r2,-20
  8005c4:	e0bfff17 	ldw	r2,-4(fp)
  8005c8:	10801517 	ldw	r2,84(r2)
  8005cc:	10800284 	addi	r2,r2,10
  8005d0:	e13fff17 	ldw	r4,-4(fp)
  8005d4:	200f883a 	mov	r7,r4
  8005d8:	018001c4 	movi	r6,7
  8005dc:	100b883a 	mov	r5,r2
  8005e0:	1809883a 	mov	r4,r3
  8005e4:	0800e0c0 	call	800e0c <print_str>
}
  8005e8:	0001883a 	nop
  8005ec:	e037883a 	mov	sp,fp
  8005f0:	dfc00117 	ldw	ra,4(sp)
  8005f4:	df000017 	ldw	fp,0(sp)
  8005f8:	dec00204 	addi	sp,sp,8
  8005fc:	f800283a 	ret

00800600 <update_graph>:
void update_graph(SENSOR_OBJECT* sensor_obj){
  800600:	defffb04 	addi	sp,sp,-20
  800604:	dfc00415 	stw	ra,16(sp)
  800608:	df000315 	stw	fp,12(sp)
  80060c:	df000304 	addi	fp,sp,12
  800610:	e13fff15 	stw	r4,-4(fp)
	queue_print(sensor_obj->q);
  800614:	e0bfff17 	ldw	r2,-4(fp)
  800618:	10804f17 	ldw	r2,316(r2)
  80061c:	1009883a 	mov	r4,r2
  800620:	08014dc0 	call	8014dc <queue_print>
	queue_print_screen(sensor_obj->q,
  800624:	e0bfff17 	ldw	r2,-4(fp)
  800628:	10c04f17 	ldw	r3,316(r2)
			sensor_obj->x_origo,
  80062c:	e0bfff17 	ldw	r2,-4(fp)
  800630:	10801417 	ldw	r2,80(r2)

	print_str(sensor_obj->x_origo -20, sensor_obj->y_origo +10,7,sensor_obj->description);
}
void update_graph(SENSOR_OBJECT* sensor_obj){
	queue_print(sensor_obj->q);
	queue_print_screen(sensor_obj->q,
  800634:	100b883a 	mov	r5,r2
			sensor_obj->x_origo,
			sensor_obj->y_origo,
  800638:	e0bfff17 	ldw	r2,-4(fp)
  80063c:	10801517 	ldw	r2,84(r2)

	print_str(sensor_obj->x_origo -20, sensor_obj->y_origo +10,7,sensor_obj->description);
}
void update_graph(SENSOR_OBJECT* sensor_obj){
	queue_print(sensor_obj->q);
	queue_print_screen(sensor_obj->q,
  800640:	100d883a 	mov	r6,r2
			sensor_obj->x_origo,
			sensor_obj->y_origo,
			sensor_obj->normalization_factor,
  800644:	e0bfff17 	ldw	r2,-4(fp)
  800648:	10801717 	ldw	r2,92(r2)

	print_str(sensor_obj->x_origo -20, sensor_obj->y_origo +10,7,sensor_obj->description);
}
void update_graph(SENSOR_OBJECT* sensor_obj){
	queue_print(sensor_obj->q);
	queue_print_screen(sensor_obj->q,
  80064c:	100f883a 	mov	r7,r2
			sensor_obj->x_origo,
			sensor_obj->y_origo,
			sensor_obj->normalization_factor,
			sensor_obj->offset,
  800650:	e0bfff17 	ldw	r2,-4(fp)
  800654:	10801817 	ldw	r2,96(r2)

	print_str(sensor_obj->x_origo -20, sensor_obj->y_origo +10,7,sensor_obj->description);
}
void update_graph(SENSOR_OBJECT* sensor_obj){
	queue_print(sensor_obj->q);
	queue_print_screen(sensor_obj->q,
  800658:	1009883a 	mov	r4,r2
			sensor_obj->x_origo,
			sensor_obj->y_origo,
			sensor_obj->normalization_factor,
			sensor_obj->offset,
			sensor_obj->rgb);
  80065c:	e0bfff17 	ldw	r2,-4(fp)
  800660:	10801917 	ldw	r2,100(r2)

	print_str(sensor_obj->x_origo -20, sensor_obj->y_origo +10,7,sensor_obj->description);
}
void update_graph(SENSOR_OBJECT* sensor_obj){
	queue_print(sensor_obj->q);
	queue_print_screen(sensor_obj->q,
  800664:	d8800115 	stw	r2,4(sp)
  800668:	d9000015 	stw	r4,0(sp)
  80066c:	1809883a 	mov	r4,r3
  800670:	08015640 	call	801564 <queue_print_screen>
			sensor_obj->x_origo,
			sensor_obj->y_origo,
			sensor_obj->normalization_factor,
			sensor_obj->offset,
			sensor_obj->rgb);
}
  800674:	0001883a 	nop
  800678:	e037883a 	mov	sp,fp
  80067c:	dfc00117 	ldw	ra,4(sp)
  800680:	df000017 	ldw	fp,0(sp)
  800684:	dec00204 	addi	sp,sp,8
  800688:	f800283a 	ret

0080068c <read_accelerometerX>:
void read_accelerometerX(QUEUE *q)
{
  80068c:	defff604 	addi	sp,sp,-40
  800690:	dfc00915 	stw	ra,36(sp)
  800694:	df000815 	stw	fp,32(sp)
  800698:	df000804 	addi	fp,sp,32
  80069c:	e13fff15 	stw	r4,-4(fp)
	ACCELEROMETER accel_data;
	alt_u8 spi_command_tx[2] = {0x0B, 0x00}; //, 0x00, 0x00}; // read one register from address 0x00
  8006a0:	008002c4 	movi	r2,11
  8006a4:	e0bffcc5 	stb	r2,-13(fp)
  8006a8:	e03ffd05 	stb	zero,-12(fp)
	alt_u8 spi_command_rx[4] = {0xB,0,0,0};
  8006ac:	008002c4 	movi	r2,11
  8006b0:	e0bffd45 	stb	r2,-11(fp)
  8006b4:	e03ffd85 	stb	zero,-10(fp)
  8006b8:	e03ffdc5 	stb	zero,-9(fp)
  8006bc:	e03ffe05 	stb	zero,-8(fp)
	// ------------------------------------------ Init SPI
		spi_command_tx[0] = WRITE_COMMAND; // write command
  8006c0:	00800284 	movi	r2,10
  8006c4:	e0bffcc5 	stb	r2,-13(fp)
		spi_command_tx[1] = 0x2D; // Address 0x2D (go bit location)
  8006c8:	00800b44 	movi	r2,45
  8006cc:	e0bffd05 	stb	r2,-12(fp)
		spi_command_tx[2] = 0x02; // go bit value
  8006d0:	00800084 	movi	r2,2
  8006d4:	e0bffd45 	stb	r2,-11(fp)

		alt_avalon_spi_command( ACCELEROMETER_SPI_BASE, 0,
  8006d8:	e0fffcc4 	addi	r3,fp,-13
  8006dc:	d8000215 	stw	zero,8(sp)
  8006e0:	e0bffd44 	addi	r2,fp,-11
  8006e4:	d8800115 	stw	r2,4(sp)
  8006e8:	d8000015 	stw	zero,0(sp)
  8006ec:	180f883a 	mov	r7,r3
  8006f0:	018000c4 	movi	r6,3
  8006f4:	000b883a 	mov	r5,zero
  8006f8:	01004234 	movhi	r4,264
  8006fc:	21048004 	addi	r4,r4,4608
  800700:	0802be40 	call	802be4 <alt_avalon_spi_command>
							  3, spi_command_tx,
							  0, spi_command_rx,
							  0);
	// ------------------------------------------ Read SPI
		spi_command_tx[0] = READ_COMMAND; // read command
  800704:	008002c4 	movi	r2,11
  800708:	e0bffcc5 	stb	r2,-13(fp)
		spi_command_tx[1] = 0x08; // Address of the data registers
  80070c:	00800204 	movi	r2,8
  800710:	e0bffd05 	stb	r2,-12(fp)


			alt_avalon_spi_command( ACCELEROMETER_SPI_BASE, 0,
  800714:	e0fffcc4 	addi	r3,fp,-13
  800718:	d8000215 	stw	zero,8(sp)
  80071c:	e0bffc04 	addi	r2,fp,-16
  800720:	d8800115 	stw	r2,4(sp)
  800724:	008000c4 	movi	r2,3
  800728:	d8800015 	stw	r2,0(sp)
  80072c:	180f883a 	mov	r7,r3
  800730:	01800084 	movi	r6,2
  800734:	000b883a 	mov	r5,zero
  800738:	01004234 	movhi	r4,264
  80073c:	21048004 	addi	r4,r4,4608
  800740:	0802be40 	call	802be4 <alt_avalon_spi_command>
								  2, spi_command_tx,
								  3, &accel_data,
								  0);

			printf("X:%d\t Y:%d\t Z:%d\t\n",accel_data.x, accel_data.y, accel_data.z);
  800744:	e0bffc03 	ldbu	r2,-16(fp)
  800748:	10803fcc 	andi	r2,r2,255
  80074c:	1080201c 	xori	r2,r2,128
  800750:	10bfe004 	addi	r2,r2,-128
  800754:	e0fffc43 	ldbu	r3,-15(fp)
  800758:	18c03fcc 	andi	r3,r3,255
  80075c:	18c0201c 	xori	r3,r3,128
  800760:	18ffe004 	addi	r3,r3,-128
  800764:	e13ffc83 	ldbu	r4,-14(fp)
  800768:	21003fcc 	andi	r4,r4,255
  80076c:	2100201c 	xori	r4,r4,128
  800770:	213fe004 	addi	r4,r4,-128
  800774:	200f883a 	mov	r7,r4
  800778:	180d883a 	mov	r6,r3
  80077c:	100b883a 	mov	r5,r2
  800780:	01002034 	movhi	r4,128
  800784:	2110ac04 	addi	r4,r4,17072
  800788:	0801cb00 	call	801cb0 <printf>


		alt_32 accel_x = 0;
  80078c:	e03ffb15 	stw	zero,-20(fp)
		accel_x = (alt_32)accel_data.x;
  800790:	e0bffc03 	ldbu	r2,-16(fp)
  800794:	10803fcc 	andi	r2,r2,255
  800798:	1080201c 	xori	r2,r2,128
  80079c:	10bfe004 	addi	r2,r2,-128
  8007a0:	e0bffb15 	stw	r2,-20(fp)

		if(queue_enqueue(q,accel_x))
  8007a4:	e17ffb17 	ldw	r5,-20(fp)
  8007a8:	e13fff17 	ldw	r4,-4(fp)
  8007ac:	08013180 	call	801318 <queue_enqueue>
  8007b0:	1000051e 	bne	r2,zero,8007c8 <read_accelerometerX+0x13c>
						;
				else{
					queue_dequeue(q);
  8007b4:	e13fff17 	ldw	r4,-4(fp)
  8007b8:	08014740 	call	801474 <queue_dequeue>
					queue_enqueue(q,accel_x);
  8007bc:	e17ffb17 	ldw	r5,-20(fp)
  8007c0:	e13fff17 	ldw	r4,-4(fp)
  8007c4:	08013180 	call	801318 <queue_enqueue>
				}
}
  8007c8:	0001883a 	nop
  8007cc:	e037883a 	mov	sp,fp
  8007d0:	dfc00117 	ldw	ra,4(sp)
  8007d4:	df000017 	ldw	fp,0(sp)
  8007d8:	dec00204 	addi	sp,sp,8
  8007dc:	f800283a 	ret

008007e0 <read_accelerometerY>:

void read_accelerometerY(QUEUE *q)
{
  8007e0:	defff704 	addi	sp,sp,-36
  8007e4:	dfc00815 	stw	ra,32(sp)
  8007e8:	df000715 	stw	fp,28(sp)
  8007ec:	df000704 	addi	fp,sp,28
  8007f0:	e13fff15 	stw	r4,-4(fp)
	ACCELEROMETER accel_data;
	alt_u8 spi_command_tx[2] = {0x0B, 0x00}; //, 0x00, 0x00}; // read one register from address 0x00
  8007f4:	008002c4 	movi	r2,11
  8007f8:	e0bffcc5 	stb	r2,-13(fp)
  8007fc:	e03ffd05 	stb	zero,-12(fp)
	alt_u8 spi_command_rx[4] = {0xB,0,0,0};
  800800:	008002c4 	movi	r2,11
  800804:	e0bffd45 	stb	r2,-11(fp)
  800808:	e03ffd85 	stb	zero,-10(fp)
  80080c:	e03ffdc5 	stb	zero,-9(fp)
  800810:	e03ffe05 	stb	zero,-8(fp)
	// ------------------------------------------ Init SPI
		spi_command_tx[0] = WRITE_COMMAND; // write command
  800814:	00800284 	movi	r2,10
  800818:	e0bffcc5 	stb	r2,-13(fp)
		spi_command_tx[1] = 0x2D; // Address 0x2D (go bit location)
  80081c:	00800b44 	movi	r2,45
  800820:	e0bffd05 	stb	r2,-12(fp)
		spi_command_tx[2] = 0x02; // go bit value
  800824:	00800084 	movi	r2,2
  800828:	e0bffd45 	stb	r2,-11(fp)

		alt_avalon_spi_command( ACCELEROMETER_SPI_BASE, 0,
  80082c:	e0fffcc4 	addi	r3,fp,-13
  800830:	d8000215 	stw	zero,8(sp)
  800834:	e0bffd44 	addi	r2,fp,-11
  800838:	d8800115 	stw	r2,4(sp)
  80083c:	d8000015 	stw	zero,0(sp)
  800840:	180f883a 	mov	r7,r3
  800844:	018000c4 	movi	r6,3
  800848:	000b883a 	mov	r5,zero
  80084c:	01004234 	movhi	r4,264
  800850:	21048004 	addi	r4,r4,4608
  800854:	0802be40 	call	802be4 <alt_avalon_spi_command>
							  3, spi_command_tx,
							  0, spi_command_rx,
							  0);
	// ------------------------------------------ Read SPI
		spi_command_tx[0] = READ_COMMAND; // read command
  800858:	008002c4 	movi	r2,11
  80085c:	e0bffcc5 	stb	r2,-13(fp)
		spi_command_tx[1] = 0x08; // Address of the data registers
  800860:	00800204 	movi	r2,8
  800864:	e0bffd05 	stb	r2,-12(fp)


			alt_avalon_spi_command( ACCELEROMETER_SPI_BASE, 0,
  800868:	e0fffcc4 	addi	r3,fp,-13
  80086c:	d8000215 	stw	zero,8(sp)
  800870:	e0bffc04 	addi	r2,fp,-16
  800874:	d8800115 	stw	r2,4(sp)
  800878:	008000c4 	movi	r2,3
  80087c:	d8800015 	stw	r2,0(sp)
  800880:	180f883a 	mov	r7,r3
  800884:	01800084 	movi	r6,2
  800888:	000b883a 	mov	r5,zero
  80088c:	01004234 	movhi	r4,264
  800890:	21048004 	addi	r4,r4,4608
  800894:	0802be40 	call	802be4 <alt_avalon_spi_command>
								  2, spi_command_tx,
								  3, &accel_data,
								  0);

			printf("X:%d\t Y:%d\t Z:%d\t\n",accel_data.x, accel_data.y, accel_data.z);
  800898:	e0bffc03 	ldbu	r2,-16(fp)
  80089c:	10803fcc 	andi	r2,r2,255
  8008a0:	1080201c 	xori	r2,r2,128
  8008a4:	10bfe004 	addi	r2,r2,-128
  8008a8:	e0fffc43 	ldbu	r3,-15(fp)
  8008ac:	18c03fcc 	andi	r3,r3,255
  8008b0:	18c0201c 	xori	r3,r3,128
  8008b4:	18ffe004 	addi	r3,r3,-128
  8008b8:	e13ffc83 	ldbu	r4,-14(fp)
  8008bc:	21003fcc 	andi	r4,r4,255
  8008c0:	2100201c 	xori	r4,r4,128
  8008c4:	213fe004 	addi	r4,r4,-128
  8008c8:	200f883a 	mov	r7,r4
  8008cc:	180d883a 	mov	r6,r3
  8008d0:	100b883a 	mov	r5,r2
  8008d4:	01002034 	movhi	r4,128
  8008d8:	2110ac04 	addi	r4,r4,17072
  8008dc:	0801cb00 	call	801cb0 <printf>


		queue_enqueue(q,accel_data.x);
  8008e0:	e0bffc03 	ldbu	r2,-16(fp)
  8008e4:	10803fcc 	andi	r2,r2,255
  8008e8:	1080201c 	xori	r2,r2,128
  8008ec:	10bfe004 	addi	r2,r2,-128
  8008f0:	100b883a 	mov	r5,r2
  8008f4:	e13fff17 	ldw	r4,-4(fp)
  8008f8:	08013180 	call	801318 <queue_enqueue>
}
  8008fc:	0001883a 	nop
  800900:	e037883a 	mov	sp,fp
  800904:	dfc00117 	ldw	ra,4(sp)
  800908:	df000017 	ldw	fp,0(sp)
  80090c:	dec00204 	addi	sp,sp,8
  800910:	f800283a 	ret

00800914 <read_accelerometerZ>:

void read_accelerometerZ(QUEUE *q)
{
  800914:	defff704 	addi	sp,sp,-36
  800918:	dfc00815 	stw	ra,32(sp)
  80091c:	df000715 	stw	fp,28(sp)
  800920:	df000704 	addi	fp,sp,28
  800924:	e13fff15 	stw	r4,-4(fp)
	ACCELEROMETER accel_data;
	alt_u8 spi_command_tx[2] = {0x0B, 0x00}; //, 0x00, 0x00}; // read one register from address 0x00
  800928:	008002c4 	movi	r2,11
  80092c:	e0bffcc5 	stb	r2,-13(fp)
  800930:	e03ffd05 	stb	zero,-12(fp)
	alt_u8 spi_command_rx[4] = {0xB,0,0,0};
  800934:	008002c4 	movi	r2,11
  800938:	e0bffd45 	stb	r2,-11(fp)
  80093c:	e03ffd85 	stb	zero,-10(fp)
  800940:	e03ffdc5 	stb	zero,-9(fp)
  800944:	e03ffe05 	stb	zero,-8(fp)
	// ------------------------------------------ Init SPI
		spi_command_tx[0] = WRITE_COMMAND; // write command
  800948:	00800284 	movi	r2,10
  80094c:	e0bffcc5 	stb	r2,-13(fp)
		spi_command_tx[1] = 0x2D; // Address 0x2D (go bit location)
  800950:	00800b44 	movi	r2,45
  800954:	e0bffd05 	stb	r2,-12(fp)
		spi_command_tx[2] = 0x02; // go bit value
  800958:	00800084 	movi	r2,2
  80095c:	e0bffd45 	stb	r2,-11(fp)

		alt_avalon_spi_command( ACCELEROMETER_SPI_BASE, 0,
  800960:	e0fffcc4 	addi	r3,fp,-13
  800964:	d8000215 	stw	zero,8(sp)
  800968:	e0bffd44 	addi	r2,fp,-11
  80096c:	d8800115 	stw	r2,4(sp)
  800970:	d8000015 	stw	zero,0(sp)
  800974:	180f883a 	mov	r7,r3
  800978:	018000c4 	movi	r6,3
  80097c:	000b883a 	mov	r5,zero
  800980:	01004234 	movhi	r4,264
  800984:	21048004 	addi	r4,r4,4608
  800988:	0802be40 	call	802be4 <alt_avalon_spi_command>
							  3, spi_command_tx,
							  0, spi_command_rx,
							  0);
	// ------------------------------------------ Read SPI
		spi_command_tx[0] = READ_COMMAND; // read command
  80098c:	008002c4 	movi	r2,11
  800990:	e0bffcc5 	stb	r2,-13(fp)
		spi_command_tx[1] = 0x08; // Address of the data registers
  800994:	00800204 	movi	r2,8
  800998:	e0bffd05 	stb	r2,-12(fp)

		for(i = 0; i < 5; i++)
  80099c:	d021d815 	stw	zero,-30880(gp)
  8009a0:	00002a06 	br	800a4c <read_accelerometerZ+0x138>
		{
			alt_avalon_spi_command( ACCELEROMETER_SPI_BASE, 0,
  8009a4:	e0fffcc4 	addi	r3,fp,-13
  8009a8:	d8000215 	stw	zero,8(sp)
  8009ac:	e0bffc04 	addi	r2,fp,-16
  8009b0:	d8800115 	stw	r2,4(sp)
  8009b4:	008000c4 	movi	r2,3
  8009b8:	d8800015 	stw	r2,0(sp)
  8009bc:	180f883a 	mov	r7,r3
  8009c0:	01800084 	movi	r6,2
  8009c4:	000b883a 	mov	r5,zero
  8009c8:	01004234 	movhi	r4,264
  8009cc:	21048004 	addi	r4,r4,4608
  8009d0:	0802be40 	call	802be4 <alt_avalon_spi_command>
								  2, spi_command_tx,
								  3, &accel_data,
								  0);

			printf("X:%d\t Y:%d\t Z:%d\t\n",accel_data.x, accel_data.y, accel_data.z);
  8009d4:	e0bffc03 	ldbu	r2,-16(fp)
  8009d8:	10803fcc 	andi	r2,r2,255
  8009dc:	1080201c 	xori	r2,r2,128
  8009e0:	10bfe004 	addi	r2,r2,-128
  8009e4:	e0fffc43 	ldbu	r3,-15(fp)
  8009e8:	18c03fcc 	andi	r3,r3,255
  8009ec:	18c0201c 	xori	r3,r3,128
  8009f0:	18ffe004 	addi	r3,r3,-128
  8009f4:	e13ffc83 	ldbu	r4,-14(fp)
  8009f8:	21003fcc 	andi	r4,r4,255
  8009fc:	2100201c 	xori	r4,r4,128
  800a00:	213fe004 	addi	r4,r4,-128
  800a04:	200f883a 	mov	r7,r4
  800a08:	180d883a 	mov	r6,r3
  800a0c:	100b883a 	mov	r5,r2
  800a10:	01002034 	movhi	r4,128
  800a14:	2110ac04 	addi	r4,r4,17072
  800a18:	0801cb00 	call	801cb0 <printf>
			for(j = 0; j < 200000; j++);
  800a1c:	d021d915 	stw	zero,-30876(gp)
  800a20:	00000306 	br	800a30 <read_accelerometerZ+0x11c>
  800a24:	d0a1d917 	ldw	r2,-30876(gp)
  800a28:	10800044 	addi	r2,r2,1
  800a2c:	d0a1d915 	stw	r2,-30876(gp)
  800a30:	d0e1d917 	ldw	r3,-30876(gp)
  800a34:	008000f4 	movhi	r2,3
  800a38:	10834fc4 	addi	r2,r2,3391
  800a3c:	10fff92e 	bgeu	r2,r3,800a24 <__alt_data_end+0xff800a24>
							  0);
	// ------------------------------------------ Read SPI
		spi_command_tx[0] = READ_COMMAND; // read command
		spi_command_tx[1] = 0x08; // Address of the data registers

		for(i = 0; i < 5; i++)
  800a40:	d0a1d817 	ldw	r2,-30880(gp)
  800a44:	10800044 	addi	r2,r2,1
  800a48:	d0a1d815 	stw	r2,-30880(gp)
  800a4c:	d0a1d817 	ldw	r2,-30880(gp)
  800a50:	10800170 	cmpltui	r2,r2,5
  800a54:	103fd31e 	bne	r2,zero,8009a4 <__alt_data_end+0xff8009a4>

			printf("X:%d\t Y:%d\t Z:%d\t\n",accel_data.x, accel_data.y, accel_data.z);
			for(j = 0; j < 200000; j++);
		}

		if(queue_enqueue(q,accel_data.z))
  800a58:	e0bffc83 	ldbu	r2,-14(fp)
  800a5c:	10803fcc 	andi	r2,r2,255
  800a60:	1080201c 	xori	r2,r2,128
  800a64:	10bfe004 	addi	r2,r2,-128
  800a68:	100b883a 	mov	r5,r2
  800a6c:	e13fff17 	ldw	r4,-4(fp)
  800a70:	08013180 	call	801318 <queue_enqueue>
  800a74:	1000091e 	bne	r2,zero,800a9c <read_accelerometerZ+0x188>
				;
		else{
			queue_dequeue(q);
  800a78:	e13fff17 	ldw	r4,-4(fp)
  800a7c:	08014740 	call	801474 <queue_dequeue>
			queue_enqueue(q,accel_data.z);
  800a80:	e0bffc83 	ldbu	r2,-14(fp)
  800a84:	10803fcc 	andi	r2,r2,255
  800a88:	1080201c 	xori	r2,r2,128
  800a8c:	10bfe004 	addi	r2,r2,-128
  800a90:	100b883a 	mov	r5,r2
  800a94:	e13fff17 	ldw	r4,-4(fp)
  800a98:	08013180 	call	801318 <queue_enqueue>
		}
}
  800a9c:	0001883a 	nop
  800aa0:	e037883a 	mov	sp,fp
  800aa4:	dfc00117 	ldw	ra,4(sp)
  800aa8:	df000017 	ldw	fp,0(sp)
  800aac:	dec00204 	addi	sp,sp,8
  800ab0:	f800283a 	ret

00800ab4 <print_pix>:


/*************************************************/

void print_pix(alt_u32 x,alt_u32 y,alt_u32 rgb)
{
  800ab4:	defffb04 	addi	sp,sp,-20
  800ab8:	dfc00415 	stw	ra,16(sp)
  800abc:	df000315 	stw	fp,12(sp)
  800ac0:	df000304 	addi	fp,sp,12
  800ac4:	e13ffd15 	stw	r4,-12(fp)
  800ac8:	e17ffe15 	stw	r5,-8(fp)
  800acc:	e1bfff15 	stw	r6,-4(fp)
	if(rgb <= 7 && rgb >= 0)
  800ad0:	e0bfff17 	ldw	r2,-4(fp)
  800ad4:	10800228 	cmpgeui	r2,r2,8
  800ad8:	10000e1e 	bne	r2,zero,800b14 <print_pix+0x60>
		set_pixel(x,y,rgb);
  800adc:	01405004 	movi	r5,320
  800ae0:	e13ffe17 	ldw	r4,-8(fp)
  800ae4:	08019280 	call	801928 <__mulsi3>
  800ae8:	1007883a 	mov	r3,r2
  800aec:	e0bffd17 	ldw	r2,-12(fp)
  800af0:	1885883a 	add	r2,r3,r2
  800af4:	1085883a 	add	r2,r2,r2
  800af8:	1085883a 	add	r2,r2,r2
  800afc:	1007883a 	mov	r3,r2
  800b00:	00804034 	movhi	r2,256
  800b04:	1885883a 	add	r2,r3,r2
  800b08:	e0ffff17 	ldw	r3,-4(fp)
  800b0c:	10c00035 	stwio	r3,0(r2)
	else
		set_pixel(x,y,0);
}
  800b10:	00000d06 	br	800b48 <print_pix+0x94>
void print_pix(alt_u32 x,alt_u32 y,alt_u32 rgb)
{
	if(rgb <= 7 && rgb >= 0)
		set_pixel(x,y,rgb);
	else
		set_pixel(x,y,0);
  800b14:	01405004 	movi	r5,320
  800b18:	e13ffe17 	ldw	r4,-8(fp)
  800b1c:	08019280 	call	801928 <__mulsi3>
  800b20:	1007883a 	mov	r3,r2
  800b24:	e0bffd17 	ldw	r2,-12(fp)
  800b28:	1885883a 	add	r2,r3,r2
  800b2c:	1085883a 	add	r2,r2,r2
  800b30:	1085883a 	add	r2,r2,r2
  800b34:	1007883a 	mov	r3,r2
  800b38:	00804034 	movhi	r2,256
  800b3c:	1885883a 	add	r2,r3,r2
  800b40:	0007883a 	mov	r3,zero
  800b44:	10c00035 	stwio	r3,0(r2)
}
  800b48:	0001883a 	nop
  800b4c:	e037883a 	mov	sp,fp
  800b50:	dfc00117 	ldw	ra,4(sp)
  800b54:	df000017 	ldw	fp,0(sp)
  800b58:	dec00204 	addi	sp,sp,8
  800b5c:	f800283a 	ret

00800b60 <print_hline>:
void print_hline(alt_u32 x_start,alt_u32 y_start, alt_u32 len,alt_u32 RGB){
  800b60:	defff804 	addi	sp,sp,-32
  800b64:	dfc00715 	stw	ra,28(sp)
  800b68:	df000615 	stw	fp,24(sp)
  800b6c:	df000604 	addi	fp,sp,24
  800b70:	e13ffc15 	stw	r4,-16(fp)
  800b74:	e17ffd15 	stw	r5,-12(fp)
  800b78:	e1bffe15 	stw	r6,-8(fp)
  800b7c:	e1ffff15 	stw	r7,-4(fp)



	if(x_start + len <= 320){
  800b80:	e0fffc17 	ldw	r3,-16(fp)
  800b84:	e0bffe17 	ldw	r2,-8(fp)
  800b88:	1885883a 	add	r2,r3,r2
  800b8c:	10805068 	cmpgeui	r2,r2,321
  800b90:	1000101e 	bne	r2,zero,800bd4 <print_hline+0x74>
		for(int i = 0; i < len; i++){
  800b94:	e03ffa15 	stw	zero,-24(fp)
  800b98:	00000a06 	br	800bc4 <print_hline+0x64>
			print_pix(x_start + i,y_start, RGB);
  800b9c:	e0fffa17 	ldw	r3,-24(fp)
  800ba0:	e0bffc17 	ldw	r2,-16(fp)
  800ba4:	1885883a 	add	r2,r3,r2
  800ba8:	e1bfff17 	ldw	r6,-4(fp)
  800bac:	e17ffd17 	ldw	r5,-12(fp)
  800bb0:	1009883a 	mov	r4,r2
  800bb4:	0800ab40 	call	800ab4 <print_pix>
void print_hline(alt_u32 x_start,alt_u32 y_start, alt_u32 len,alt_u32 RGB){



	if(x_start + len <= 320){
		for(int i = 0; i < len; i++){
  800bb8:	e0bffa17 	ldw	r2,-24(fp)
  800bbc:	10800044 	addi	r2,r2,1
  800bc0:	e0bffa15 	stw	r2,-24(fp)
  800bc4:	e0fffa17 	ldw	r3,-24(fp)
  800bc8:	e0bffe17 	ldw	r2,-8(fp)
  800bcc:	18bff336 	bltu	r3,r2,800b9c <__alt_data_end+0xff800b9c>
		for(int i = 0; i < (320-x_start); i++){
					print_pix(x_start + i,y_start, RGB);
		}
	}

}
  800bd0:	00001106 	br	800c18 <print_hline+0xb8>
			print_pix(x_start + i,y_start, RGB);
		}
	}
	else{

		for(int i = 0; i < (320-x_start); i++){
  800bd4:	e03ffb15 	stw	zero,-20(fp)
  800bd8:	00000a06 	br	800c04 <print_hline+0xa4>
					print_pix(x_start + i,y_start, RGB);
  800bdc:	e0fffb17 	ldw	r3,-20(fp)
  800be0:	e0bffc17 	ldw	r2,-16(fp)
  800be4:	1885883a 	add	r2,r3,r2
  800be8:	e1bfff17 	ldw	r6,-4(fp)
  800bec:	e17ffd17 	ldw	r5,-12(fp)
  800bf0:	1009883a 	mov	r4,r2
  800bf4:	0800ab40 	call	800ab4 <print_pix>
			print_pix(x_start + i,y_start, RGB);
		}
	}
	else{

		for(int i = 0; i < (320-x_start); i++){
  800bf8:	e0bffb17 	ldw	r2,-20(fp)
  800bfc:	10800044 	addi	r2,r2,1
  800c00:	e0bffb15 	stw	r2,-20(fp)
  800c04:	00c05004 	movi	r3,320
  800c08:	e0bffc17 	ldw	r2,-16(fp)
  800c0c:	1885c83a 	sub	r2,r3,r2
  800c10:	e0fffb17 	ldw	r3,-20(fp)
  800c14:	18bff136 	bltu	r3,r2,800bdc <__alt_data_end+0xff800bdc>
					print_pix(x_start + i,y_start, RGB);
		}
	}

}
  800c18:	0001883a 	nop
  800c1c:	e037883a 	mov	sp,fp
  800c20:	dfc00117 	ldw	ra,4(sp)
  800c24:	df000017 	ldw	fp,0(sp)
  800c28:	dec00204 	addi	sp,sp,8
  800c2c:	f800283a 	ret

00800c30 <print_vline>:
void print_vline(alt_u32 x_start,alt_u32 y_start, alt_u32 len, alt_u32 RGB)
{
  800c30:	defff804 	addi	sp,sp,-32
  800c34:	dfc00715 	stw	ra,28(sp)
  800c38:	df000615 	stw	fp,24(sp)
  800c3c:	df000604 	addi	fp,sp,24
  800c40:	e13ffc15 	stw	r4,-16(fp)
  800c44:	e17ffd15 	stw	r5,-12(fp)
  800c48:	e1bffe15 	stw	r6,-8(fp)
  800c4c:	e1ffff15 	stw	r7,-4(fp)
	if(y_start + len <= 240){
  800c50:	e0fffd17 	ldw	r3,-12(fp)
  800c54:	e0bffe17 	ldw	r2,-8(fp)
  800c58:	1885883a 	add	r2,r3,r2
  800c5c:	10803c68 	cmpgeui	r2,r2,241
  800c60:	1000101e 	bne	r2,zero,800ca4 <print_vline+0x74>
			for(int i = 0; i < len; i++){
  800c64:	e03ffa15 	stw	zero,-24(fp)
  800c68:	00000a06 	br	800c94 <print_vline+0x64>
				print_pix(x_start,y_start + i, RGB);
  800c6c:	e0fffa17 	ldw	r3,-24(fp)
  800c70:	e0bffd17 	ldw	r2,-12(fp)
  800c74:	1885883a 	add	r2,r3,r2
  800c78:	e1bfff17 	ldw	r6,-4(fp)
  800c7c:	100b883a 	mov	r5,r2
  800c80:	e13ffc17 	ldw	r4,-16(fp)
  800c84:	0800ab40 	call	800ab4 <print_pix>

}
void print_vline(alt_u32 x_start,alt_u32 y_start, alt_u32 len, alt_u32 RGB)
{
	if(y_start + len <= 240){
			for(int i = 0; i < len; i++){
  800c88:	e0bffa17 	ldw	r2,-24(fp)
  800c8c:	10800044 	addi	r2,r2,1
  800c90:	e0bffa15 	stw	r2,-24(fp)
  800c94:	e0fffa17 	ldw	r3,-24(fp)
  800c98:	e0bffe17 	ldw	r2,-8(fp)
  800c9c:	18bff336 	bltu	r3,r2,800c6c <__alt_data_end+0xff800c6c>

			for(int i = 0; i < (240-y_start); i++){
						print_pix(x_start,y_start +i , RGB);
			}
		}
}
  800ca0:	00001106 	br	800ce8 <print_vline+0xb8>
				print_pix(x_start,y_start + i, RGB);
			}
		}
		else{

			for(int i = 0; i < (240-y_start); i++){
  800ca4:	e03ffb15 	stw	zero,-20(fp)
  800ca8:	00000a06 	br	800cd4 <print_vline+0xa4>
						print_pix(x_start,y_start +i , RGB);
  800cac:	e0fffb17 	ldw	r3,-20(fp)
  800cb0:	e0bffd17 	ldw	r2,-12(fp)
  800cb4:	1885883a 	add	r2,r3,r2
  800cb8:	e1bfff17 	ldw	r6,-4(fp)
  800cbc:	100b883a 	mov	r5,r2
  800cc0:	e13ffc17 	ldw	r4,-16(fp)
  800cc4:	0800ab40 	call	800ab4 <print_pix>
				print_pix(x_start,y_start + i, RGB);
			}
		}
		else{

			for(int i = 0; i < (240-y_start); i++){
  800cc8:	e0bffb17 	ldw	r2,-20(fp)
  800ccc:	10800044 	addi	r2,r2,1
  800cd0:	e0bffb15 	stw	r2,-20(fp)
  800cd4:	00c03c04 	movi	r3,240
  800cd8:	e0bffd17 	ldw	r2,-12(fp)
  800cdc:	1885c83a 	sub	r2,r3,r2
  800ce0:	e0fffb17 	ldw	r3,-20(fp)
  800ce4:	18bff136 	bltu	r3,r2,800cac <__alt_data_end+0xff800cac>
						print_pix(x_start,y_start +i , RGB);
			}
		}
}
  800ce8:	0001883a 	nop
  800cec:	e037883a 	mov	sp,fp
  800cf0:	dfc00117 	ldw	ra,4(sp)
  800cf4:	df000017 	ldw	fp,0(sp)
  800cf8:	dec00204 	addi	sp,sp,8
  800cfc:	f800283a 	ret

00800d00 <print_char>:

void  print_char(alt_u32 x,alt_u32 y,alt_u32 rgb,alt_u32 BG_RGB,char Character)
{
  800d00:	defff604 	addi	sp,sp,-40
  800d04:	dfc00915 	stw	ra,36(sp)
  800d08:	df000815 	stw	fp,32(sp)
  800d0c:	df000804 	addi	fp,sp,32
  800d10:	e13ffb15 	stw	r4,-20(fp)
  800d14:	e17ffc15 	stw	r5,-16(fp)
  800d18:	e1bffd15 	stw	r6,-12(fp)
  800d1c:	e1fffe15 	stw	r7,-8(fp)
  800d20:	e0800217 	ldw	r2,8(fp)
  800d24:	e0bfff05 	stb	r2,-4(fp)
	alt_u8 temp;
	int row;

	alt_u8  token = (alt_8)Character;
  800d28:	e0bfff03 	ldbu	r2,-4(fp)
  800d2c:	e0bffa05 	stb	r2,-24(fp)
	for (row = 0; row <8; row++)
  800d30:	e03ff815 	stw	zero,-32(fp)
  800d34:	00002c06 	br	800de8 <print_char+0xe8>
	{
			temp =  (alt_8)font8x8_basic[token][row];
  800d38:	e0fffa03 	ldbu	r3,-24(fp)
  800d3c:	00802034 	movhi	r2,128
  800d40:	1090d404 	addi	r2,r2,17232
  800d44:	180690fa 	slli	r3,r3,3
  800d48:	10c7883a 	add	r3,r2,r3
  800d4c:	e0bff817 	ldw	r2,-32(fp)
  800d50:	1885883a 	add	r2,r3,r2
  800d54:	10800003 	ldbu	r2,0(r2)
  800d58:	e0bffa45 	stb	r2,-23(fp)

			for (int pos = 0 ; pos != 8 ; pos++) {
  800d5c:	e03ff915 	stw	zero,-28(fp)
  800d60:	00001b06 	br	800dd0 <print_char+0xd0>
			    if (temp & (1 << pos)) {
  800d64:	e0fffa43 	ldbu	r3,-23(fp)
  800d68:	e0bff917 	ldw	r2,-28(fp)
  800d6c:	1885d83a 	sra	r2,r3,r2
  800d70:	1080004c 	andi	r2,r2,1
  800d74:	10000a26 	beq	r2,zero,800da0 <print_char+0xa0>
			        // Current bit is set to 1
			    	print_pix(x+pos,y+row,rgb);
  800d78:	e0fff917 	ldw	r3,-28(fp)
  800d7c:	e0bffb17 	ldw	r2,-20(fp)
  800d80:	1889883a 	add	r4,r3,r2
  800d84:	e0fff817 	ldw	r3,-32(fp)
  800d88:	e0bffc17 	ldw	r2,-16(fp)
  800d8c:	1885883a 	add	r2,r3,r2
  800d90:	e1bffd17 	ldw	r6,-12(fp)
  800d94:	100b883a 	mov	r5,r2
  800d98:	0800ab40 	call	800ab4 <print_pix>
  800d9c:	00000906 	br	800dc4 <print_char+0xc4>
			    } else {
			        // Current bit is set to 0
			    	print_pix(x+pos,y+row,BG_RGB);
  800da0:	e0fff917 	ldw	r3,-28(fp)
  800da4:	e0bffb17 	ldw	r2,-20(fp)
  800da8:	1889883a 	add	r4,r3,r2
  800dac:	e0fff817 	ldw	r3,-32(fp)
  800db0:	e0bffc17 	ldw	r2,-16(fp)
  800db4:	1885883a 	add	r2,r3,r2
  800db8:	e1bffe17 	ldw	r6,-8(fp)
  800dbc:	100b883a 	mov	r5,r2
  800dc0:	0800ab40 	call	800ab4 <print_pix>
	alt_u8  token = (alt_8)Character;
	for (row = 0; row <8; row++)
	{
			temp =  (alt_8)font8x8_basic[token][row];

			for (int pos = 0 ; pos != 8 ; pos++) {
  800dc4:	e0bff917 	ldw	r2,-28(fp)
  800dc8:	10800044 	addi	r2,r2,1
  800dcc:	e0bff915 	stw	r2,-28(fp)
  800dd0:	e0bff917 	ldw	r2,-28(fp)
  800dd4:	10800218 	cmpnei	r2,r2,8
  800dd8:	103fe21e 	bne	r2,zero,800d64 <__alt_data_end+0xff800d64>
{
	alt_u8 temp;
	int row;

	alt_u8  token = (alt_8)Character;
	for (row = 0; row <8; row++)
  800ddc:	e0bff817 	ldw	r2,-32(fp)
  800de0:	10800044 	addi	r2,r2,1
  800de4:	e0bff815 	stw	r2,-32(fp)
  800de8:	e0bff817 	ldw	r2,-32(fp)
  800dec:	10800210 	cmplti	r2,r2,8
  800df0:	103fd11e 	bne	r2,zero,800d38 <__alt_data_end+0xff800d38>
			        // Current bit is set to 0
			    	print_pix(x+pos,y+row,BG_RGB);
			    }
			}
	}
}
  800df4:	0001883a 	nop
  800df8:	e037883a 	mov	sp,fp
  800dfc:	dfc00117 	ldw	ra,4(sp)
  800e00:	df000017 	ldw	fp,0(sp)
  800e04:	dec00204 	addi	sp,sp,8
  800e08:	f800283a 	ret

00800e0c <print_str>:
void print_str(alt_u32 x_start, alt_u32 y_start,alt_u32 rgb,char *str)
{
  800e0c:	defff804 	addi	sp,sp,-32
  800e10:	dfc00715 	stw	ra,28(sp)
  800e14:	df000615 	stw	fp,24(sp)
  800e18:	df000604 	addi	fp,sp,24
  800e1c:	e13ffc15 	stw	r4,-16(fp)
  800e20:	e17ffd15 	stw	r5,-12(fp)
  800e24:	e1bffe15 	stw	r6,-8(fp)
  800e28:	e1ffff15 	stw	r7,-4(fp)
	alt_u16 len = (alt_u16) strlen(str);
  800e2c:	e13fff17 	ldw	r4,-4(fp)
  800e30:	0801e040 	call	801e04 <strlen>
  800e34:	e0bffb8d 	sth	r2,-18(fp)
	alt_u16 i;
	for(i=0; i< len; i++){
  800e38:	e03ffb0d 	sth	zero,-20(fp)
  800e3c:	00001406 	br	800e90 <print_str+0x84>
		print_char(x_start + i*8,y_start,rgb,0,str[i]);
  800e40:	e0bffb0b 	ldhu	r2,-20(fp)
  800e44:	100490fa 	slli	r2,r2,3
  800e48:	1007883a 	mov	r3,r2
  800e4c:	e0bffc17 	ldw	r2,-16(fp)
  800e50:	1889883a 	add	r4,r3,r2
  800e54:	e0bffb0b 	ldhu	r2,-20(fp)
  800e58:	e0ffff17 	ldw	r3,-4(fp)
  800e5c:	1885883a 	add	r2,r3,r2
  800e60:	10800003 	ldbu	r2,0(r2)
  800e64:	10803fcc 	andi	r2,r2,255
  800e68:	1080201c 	xori	r2,r2,128
  800e6c:	10bfe004 	addi	r2,r2,-128
  800e70:	d8800015 	stw	r2,0(sp)
  800e74:	000f883a 	mov	r7,zero
  800e78:	e1bffe17 	ldw	r6,-8(fp)
  800e7c:	e17ffd17 	ldw	r5,-12(fp)
  800e80:	0800d000 	call	800d00 <print_char>
}
void print_str(alt_u32 x_start, alt_u32 y_start,alt_u32 rgb,char *str)
{
	alt_u16 len = (alt_u16) strlen(str);
	alt_u16 i;
	for(i=0; i< len; i++){
  800e84:	e0bffb0b 	ldhu	r2,-20(fp)
  800e88:	10800044 	addi	r2,r2,1
  800e8c:	e0bffb0d 	sth	r2,-20(fp)
  800e90:	e0fffb0b 	ldhu	r3,-20(fp)
  800e94:	e0bffb8b 	ldhu	r2,-18(fp)
  800e98:	18bfe936 	bltu	r3,r2,800e40 <__alt_data_end+0xff800e40>
		print_char(x_start + i*8,y_start,rgb,0,str[i]);
	}
}
  800e9c:	0001883a 	nop
  800ea0:	e037883a 	mov	sp,fp
  800ea4:	dfc00117 	ldw	ra,4(sp)
  800ea8:	df000017 	ldw	fp,0(sp)
  800eac:	dec00204 	addi	sp,sp,8
  800eb0:	f800283a 	ret

00800eb4 <print_symmetry_dots_circle>:

void print_symmetry_dots_circle(alt_u32 x, alt_u32 y, alt_u32 x_centrum, alt_u32 y_centrum, alt_u32 rgb)
{
  800eb4:	defffa04 	addi	sp,sp,-24
  800eb8:	dfc00515 	stw	ra,20(sp)
  800ebc:	df000415 	stw	fp,16(sp)
  800ec0:	df000404 	addi	fp,sp,16
  800ec4:	e13ffc15 	stw	r4,-16(fp)
  800ec8:	e17ffd15 	stw	r5,-12(fp)
  800ecc:	e1bffe15 	stw	r6,-8(fp)
  800ed0:	e1ffff15 	stw	r7,-4(fp)
		print_pix(x+x_centrum,y + y_centrum,rgb);
  800ed4:	e0fffc17 	ldw	r3,-16(fp)
  800ed8:	e0bffe17 	ldw	r2,-8(fp)
  800edc:	1889883a 	add	r4,r3,r2
  800ee0:	e0fffd17 	ldw	r3,-12(fp)
  800ee4:	e0bfff17 	ldw	r2,-4(fp)
  800ee8:	1885883a 	add	r2,r3,r2
  800eec:	e1800217 	ldw	r6,8(fp)
  800ef0:	100b883a 	mov	r5,r2
  800ef4:	0800ab40 	call	800ab4 <print_pix>
		print_pix(x+x_centrum,-y + y_centrum,rgb);
  800ef8:	e0fffc17 	ldw	r3,-16(fp)
  800efc:	e0bffe17 	ldw	r2,-8(fp)
  800f00:	1889883a 	add	r4,r3,r2
  800f04:	e0ffff17 	ldw	r3,-4(fp)
  800f08:	e0bffd17 	ldw	r2,-12(fp)
  800f0c:	1885c83a 	sub	r2,r3,r2
  800f10:	e1800217 	ldw	r6,8(fp)
  800f14:	100b883a 	mov	r5,r2
  800f18:	0800ab40 	call	800ab4 <print_pix>
		print_pix(-x+x_centrum,y + y_centrum,rgb);
  800f1c:	e0fffe17 	ldw	r3,-8(fp)
  800f20:	e0bffc17 	ldw	r2,-16(fp)
  800f24:	1889c83a 	sub	r4,r3,r2
  800f28:	e0fffd17 	ldw	r3,-12(fp)
  800f2c:	e0bfff17 	ldw	r2,-4(fp)
  800f30:	1885883a 	add	r2,r3,r2
  800f34:	e1800217 	ldw	r6,8(fp)
  800f38:	100b883a 	mov	r5,r2
  800f3c:	0800ab40 	call	800ab4 <print_pix>
		print_pix(-x+x_centrum,-y + y_centrum,rgb);
  800f40:	e0fffe17 	ldw	r3,-8(fp)
  800f44:	e0bffc17 	ldw	r2,-16(fp)
  800f48:	1889c83a 	sub	r4,r3,r2
  800f4c:	e0ffff17 	ldw	r3,-4(fp)
  800f50:	e0bffd17 	ldw	r2,-12(fp)
  800f54:	1885c83a 	sub	r2,r3,r2
  800f58:	e1800217 	ldw	r6,8(fp)
  800f5c:	100b883a 	mov	r5,r2
  800f60:	0800ab40 	call	800ab4 <print_pix>

		print_pix(y + y_centrum,x+x_centrum,rgb);
  800f64:	e0fffd17 	ldw	r3,-12(fp)
  800f68:	e0bfff17 	ldw	r2,-4(fp)
  800f6c:	1889883a 	add	r4,r3,r2
  800f70:	e0fffc17 	ldw	r3,-16(fp)
  800f74:	e0bffe17 	ldw	r2,-8(fp)
  800f78:	1885883a 	add	r2,r3,r2
  800f7c:	e1800217 	ldw	r6,8(fp)
  800f80:	100b883a 	mov	r5,r2
  800f84:	0800ab40 	call	800ab4 <print_pix>
		print_pix(-y + y_centrum,x+x_centrum,rgb);
  800f88:	e0ffff17 	ldw	r3,-4(fp)
  800f8c:	e0bffd17 	ldw	r2,-12(fp)
  800f90:	1889c83a 	sub	r4,r3,r2
  800f94:	e0fffc17 	ldw	r3,-16(fp)
  800f98:	e0bffe17 	ldw	r2,-8(fp)
  800f9c:	1885883a 	add	r2,r3,r2
  800fa0:	e1800217 	ldw	r6,8(fp)
  800fa4:	100b883a 	mov	r5,r2
  800fa8:	0800ab40 	call	800ab4 <print_pix>
		print_pix(y + y_centrum,-x+x_centrum,rgb);
  800fac:	e0fffd17 	ldw	r3,-12(fp)
  800fb0:	e0bfff17 	ldw	r2,-4(fp)
  800fb4:	1889883a 	add	r4,r3,r2
  800fb8:	e0fffe17 	ldw	r3,-8(fp)
  800fbc:	e0bffc17 	ldw	r2,-16(fp)
  800fc0:	1885c83a 	sub	r2,r3,r2
  800fc4:	e1800217 	ldw	r6,8(fp)
  800fc8:	100b883a 	mov	r5,r2
  800fcc:	0800ab40 	call	800ab4 <print_pix>
		print_pix(-y + y_centrum,-x+x_centrum,rgb);
  800fd0:	e0ffff17 	ldw	r3,-4(fp)
  800fd4:	e0bffd17 	ldw	r2,-12(fp)
  800fd8:	1889c83a 	sub	r4,r3,r2
  800fdc:	e0fffe17 	ldw	r3,-8(fp)
  800fe0:	e0bffc17 	ldw	r2,-16(fp)
  800fe4:	1885c83a 	sub	r2,r3,r2
  800fe8:	e1800217 	ldw	r6,8(fp)
  800fec:	100b883a 	mov	r5,r2
  800ff0:	0800ab40 	call	800ab4 <print_pix>

}
  800ff4:	0001883a 	nop
  800ff8:	e037883a 	mov	sp,fp
  800ffc:	dfc00117 	ldw	ra,4(sp)
  801000:	df000017 	ldw	fp,0(sp)
  801004:	dec00204 	addi	sp,sp,8
  801008:	f800283a 	ret

0080100c <print_empty_circle>:
void print_empty_circle(alt_u32 radie, alt_u32 x_centrum, alt_u32 y_centrum, alt_u32 rgb)
{
  80100c:	defff504 	addi	sp,sp,-44
  801010:	dfc00a15 	stw	ra,40(sp)
  801014:	df000915 	stw	fp,36(sp)
  801018:	df000904 	addi	fp,sp,36
  80101c:	e13ffc15 	stw	r4,-16(fp)
  801020:	e17ffd15 	stw	r5,-12(fp)
  801024:	e1bffe15 	stw	r6,-8(fp)
  801028:	e1ffff15 	stw	r7,-4(fp)
		unsigned int value;
		unsigned int radius = radie;
  80102c:	e0bffc17 	ldw	r2,-16(fp)
  801030:	e0bffb15 	stw	r2,-20(fp)
		int x = 0;
  801034:	e03ff815 	stw	zero,-32(fp)
		int y = radie;
  801038:	e0bffc17 	ldw	r2,-16(fp)
  80103c:	e0bff915 	stw	r2,-28(fp)

		print_symmetry_dots_circle(x,y,x_centrum,y_centrum,rgb);
  801040:	e0fff817 	ldw	r3,-32(fp)
  801044:	e13ff917 	ldw	r4,-28(fp)
  801048:	e0bfff17 	ldw	r2,-4(fp)
  80104c:	d8800015 	stw	r2,0(sp)
  801050:	e1fffe17 	ldw	r7,-8(fp)
  801054:	e1bffd17 	ldw	r6,-12(fp)
  801058:	200b883a 	mov	r5,r4
  80105c:	1809883a 	mov	r4,r3
  801060:	0800eb40 	call	800eb4 <print_symmetry_dots_circle>
		int h = 1- radie;
  801064:	00c00044 	movi	r3,1
  801068:	e0bffc17 	ldw	r2,-16(fp)
  80106c:	1885c83a 	sub	r2,r3,r2
  801070:	e0bffa15 	stw	r2,-24(fp)
		while(y > x){
  801074:	00003306 	br	801144 <print_empty_circle+0x138>
			if (h < 0){//east point
  801078:	e0bffa17 	ldw	r2,-24(fp)
  80107c:	1000150e 	bge	r2,zero,8010d4 <print_empty_circle+0xc8>

				print_symmetry_dots_circle(x+1,y,x_centrum,y_centrum,rgb);
  801080:	e0bff817 	ldw	r2,-32(fp)
  801084:	10800044 	addi	r2,r2,1
  801088:	1009883a 	mov	r4,r2
  80108c:	e0fff917 	ldw	r3,-28(fp)
  801090:	e0bfff17 	ldw	r2,-4(fp)
  801094:	d8800015 	stw	r2,0(sp)
  801098:	e1fffe17 	ldw	r7,-8(fp)
  80109c:	e1bffd17 	ldw	r6,-12(fp)
  8010a0:	180b883a 	mov	r5,r3
  8010a4:	0800eb40 	call	800eb4 <print_symmetry_dots_circle>
				h = h +2*x +3;
  8010a8:	e0bff817 	ldw	r2,-32(fp)
  8010ac:	1085883a 	add	r2,r2,r2
  8010b0:	1007883a 	mov	r3,r2
  8010b4:	e0bffa17 	ldw	r2,-24(fp)
  8010b8:	1885883a 	add	r2,r3,r2
  8010bc:	108000c4 	addi	r2,r2,3
  8010c0:	e0bffa15 	stw	r2,-24(fp)
				x= x+1;
  8010c4:	e0bff817 	ldw	r2,-32(fp)
  8010c8:	10800044 	addi	r2,r2,1
  8010cc:	e0bff815 	stw	r2,-32(fp)
  8010d0:	00001c06 	br	801144 <print_empty_circle+0x138>

			}
			else{
				print_symmetry_dots_circle(x+1,y-1,x_centrum,y_centrum,rgb);
  8010d4:	e0bff817 	ldw	r2,-32(fp)
  8010d8:	10800044 	addi	r2,r2,1
  8010dc:	1007883a 	mov	r3,r2
  8010e0:	e0bff917 	ldw	r2,-28(fp)
  8010e4:	10bfffc4 	addi	r2,r2,-1
  8010e8:	1009883a 	mov	r4,r2
  8010ec:	e0bfff17 	ldw	r2,-4(fp)
  8010f0:	d8800015 	stw	r2,0(sp)
  8010f4:	e1fffe17 	ldw	r7,-8(fp)
  8010f8:	e1bffd17 	ldw	r6,-12(fp)
  8010fc:	200b883a 	mov	r5,r4
  801100:	1809883a 	mov	r4,r3
  801104:	0800eb40 	call	800eb4 <print_symmetry_dots_circle>
				h= h+2*(x-y)+5;
  801108:	e0fff817 	ldw	r3,-32(fp)
  80110c:	e0bff917 	ldw	r2,-28(fp)
  801110:	1885c83a 	sub	r2,r3,r2
  801114:	1085883a 	add	r2,r2,r2
  801118:	1007883a 	mov	r3,r2
  80111c:	e0bffa17 	ldw	r2,-24(fp)
  801120:	1885883a 	add	r2,r3,r2
  801124:	10800144 	addi	r2,r2,5
  801128:	e0bffa15 	stw	r2,-24(fp)
				y=y-1;
  80112c:	e0bff917 	ldw	r2,-28(fp)
  801130:	10bfffc4 	addi	r2,r2,-1
  801134:	e0bff915 	stw	r2,-28(fp)
				x=x+1;
  801138:	e0bff817 	ldw	r2,-32(fp)
  80113c:	10800044 	addi	r2,r2,1
  801140:	e0bff815 	stw	r2,-32(fp)
		int x = 0;
		int y = radie;

		print_symmetry_dots_circle(x,y,x_centrum,y_centrum,rgb);
		int h = 1- radie;
		while(y > x){
  801144:	e0bff917 	ldw	r2,-28(fp)
  801148:	e0fff817 	ldw	r3,-32(fp)
  80114c:	18bfca16 	blt	r3,r2,801078 <__alt_data_end+0xff801078>
				y=y-1;
				x=x+1;
			}

		}
}
  801150:	0001883a 	nop
  801154:	e037883a 	mov	sp,fp
  801158:	dfc00117 	ldw	ra,4(sp)
  80115c:	df000017 	ldw	fp,0(sp)
  801160:	dec00204 	addi	sp,sp,8
  801164:	f800283a 	ret

00801168 <print_circle>:
void print_circle(alt_u32 radie, alt_u32 x_centrum, alt_u32 y_centrum, alt_u32 rgb)
{
  801168:	defff904 	addi	sp,sp,-28
  80116c:	dfc00615 	stw	ra,24(sp)
  801170:	df000515 	stw	fp,20(sp)
  801174:	df000504 	addi	fp,sp,20
  801178:	e13ffc15 	stw	r4,-16(fp)
  80117c:	e17ffd15 	stw	r5,-12(fp)
  801180:	e1bffe15 	stw	r6,-8(fp)
  801184:	e1ffff15 	stw	r7,-4(fp)
	unsigned int radius = radie;
  801188:	e0bffc17 	ldw	r2,-16(fp)
  80118c:	e0bffb15 	stw	r2,-20(fp)

	for(radius = radie; radius > 0; radius--)
  801190:	e0bffc17 	ldw	r2,-16(fp)
  801194:	e0bffb15 	stw	r2,-20(fp)
  801198:	00000806 	br	8011bc <print_circle+0x54>
		print_empty_circle(radius,x_centrum, y_centrum, rgb);
  80119c:	e1ffff17 	ldw	r7,-4(fp)
  8011a0:	e1bffe17 	ldw	r6,-8(fp)
  8011a4:	e17ffd17 	ldw	r5,-12(fp)
  8011a8:	e13ffb17 	ldw	r4,-20(fp)
  8011ac:	080100c0 	call	80100c <print_empty_circle>
}
void print_circle(alt_u32 radie, alt_u32 x_centrum, alt_u32 y_centrum, alt_u32 rgb)
{
	unsigned int radius = radie;

	for(radius = radie; radius > 0; radius--)
  8011b0:	e0bffb17 	ldw	r2,-20(fp)
  8011b4:	10bfffc4 	addi	r2,r2,-1
  8011b8:	e0bffb15 	stw	r2,-20(fp)
  8011bc:	e0bffb17 	ldw	r2,-20(fp)
  8011c0:	103ff61e 	bne	r2,zero,80119c <__alt_data_end+0xff80119c>
		print_empty_circle(radius,x_centrum, y_centrum, rgb);
}
  8011c4:	0001883a 	nop
  8011c8:	e037883a 	mov	sp,fp
  8011cc:	dfc00117 	ldw	ra,4(sp)
  8011d0:	df000017 	ldw	fp,0(sp)
  8011d4:	dec00204 	addi	sp,sp,8
  8011d8:	f800283a 	ret

008011dc <clear_screen>:
void clear_screen(alt_u32 rgb){
  8011dc:	defffb04 	addi	sp,sp,-20
  8011e0:	dfc00415 	stw	ra,16(sp)
  8011e4:	df000315 	stw	fp,12(sp)
  8011e8:	df000304 	addi	fp,sp,12
  8011ec:	e13fff15 	stw	r4,-4(fp)
	for(int y = 0 ;y <240;y++)
  8011f0:	e03ffd15 	stw	zero,-12(fp)
  8011f4:	00001106 	br	80123c <clear_screen+0x60>
		for(int x = 0; x < 320; x++)
  8011f8:	e03ffe15 	stw	zero,-8(fp)
  8011fc:	00000906 	br	801224 <clear_screen+0x48>
			print_pix(x,y,rgb);
  801200:	e0bffe17 	ldw	r2,-8(fp)
  801204:	e0fffd17 	ldw	r3,-12(fp)
  801208:	e1bfff17 	ldw	r6,-4(fp)
  80120c:	180b883a 	mov	r5,r3
  801210:	1009883a 	mov	r4,r2
  801214:	0800ab40 	call	800ab4 <print_pix>
	for(radius = radie; radius > 0; radius--)
		print_empty_circle(radius,x_centrum, y_centrum, rgb);
}
void clear_screen(alt_u32 rgb){
	for(int y = 0 ;y <240;y++)
		for(int x = 0; x < 320; x++)
  801218:	e0bffe17 	ldw	r2,-8(fp)
  80121c:	10800044 	addi	r2,r2,1
  801220:	e0bffe15 	stw	r2,-8(fp)
  801224:	e0bffe17 	ldw	r2,-8(fp)
  801228:	10805010 	cmplti	r2,r2,320
  80122c:	103ff41e 	bne	r2,zero,801200 <__alt_data_end+0xff801200>

	for(radius = radie; radius > 0; radius--)
		print_empty_circle(radius,x_centrum, y_centrum, rgb);
}
void clear_screen(alt_u32 rgb){
	for(int y = 0 ;y <240;y++)
  801230:	e0bffd17 	ldw	r2,-12(fp)
  801234:	10800044 	addi	r2,r2,1
  801238:	e0bffd15 	stw	r2,-12(fp)
  80123c:	e0bffd17 	ldw	r2,-12(fp)
  801240:	10803c10 	cmplti	r2,r2,240
  801244:	103fec1e 	bne	r2,zero,8011f8 <__alt_data_end+0xff8011f8>
		for(int x = 0; x < 320; x++)
			print_pix(x,y,rgb);
}
  801248:	0001883a 	nop
  80124c:	e037883a 	mov	sp,fp
  801250:	dfc00117 	ldw	ra,4(sp)
  801254:	df000017 	ldw	fp,0(sp)
  801258:	dec00204 	addi	sp,sp,8
  80125c:	f800283a 	ret

00801260 <read_pixel_ram_int>:

pixel_data read_pixel_ram_int(alt_u32 x_start, alt_u32 y_start)
{
  801260:	defffb04 	addi	sp,sp,-20
  801264:	dfc00415 	stw	ra,16(sp)
  801268:	df000315 	stw	fp,12(sp)
  80126c:	df000304 	addi	fp,sp,12
  801270:	e13ffe15 	stw	r4,-8(fp)
  801274:	e17fff15 	stw	r5,-4(fp)
	alt_u32 i = read_pixel(x_start, y_start);
  801278:	01405004 	movi	r5,320
  80127c:	e13fff17 	ldw	r4,-4(fp)
  801280:	08019280 	call	801928 <__mulsi3>
  801284:	1007883a 	mov	r3,r2
  801288:	e0bffe17 	ldw	r2,-8(fp)
  80128c:	1885883a 	add	r2,r3,r2
  801290:	1085883a 	add	r2,r2,r2
  801294:	1085883a 	add	r2,r2,r2
  801298:	1007883a 	mov	r3,r2
  80129c:	00804034 	movhi	r2,256
  8012a0:	1885883a 	add	r2,r3,r2
  8012a4:	10800037 	ldwio	r2,0(r2)
  8012a8:	e0bffd15 	stw	r2,-12(fp)
	return (alt_u8) i;
  8012ac:	e0bffd17 	ldw	r2,-12(fp)
}
  8012b0:	e037883a 	mov	sp,fp
  8012b4:	dfc00117 	ldw	ra,4(sp)
  8012b8:	df000017 	ldw	fp,0(sp)
  8012bc:	dec00204 	addi	sp,sp,8
  8012c0:	f800283a 	ret

008012c4 <queue_init>:

/***************************************************/

void queue_init(QUEUE *q)
{
  8012c4:	defffd04 	addi	sp,sp,-12
  8012c8:	dfc00215 	stw	ra,8(sp)
  8012cc:	df000115 	stw	fp,4(sp)
  8012d0:	df000104 	addi	fp,sp,4
  8012d4:	e13fff15 	stw	r4,-4(fp)
    memset(q,0,sizeof(QUEUE));
  8012d8:	01803504 	movi	r6,212
  8012dc:	000b883a 	mov	r5,zero
  8012e0:	e13fff17 	ldw	r4,-4(fp)
  8012e4:	08019b80 	call	8019b8 <memset>
    q->rindex = 0;//Probably un-necessay to do this, because of the above line
  8012e8:	e0bfff17 	ldw	r2,-4(fp)
  8012ec:	10003215 	stw	zero,200(r2)
    q->windex = 0;
  8012f0:	e0bfff17 	ldw	r2,-4(fp)
  8012f4:	10003315 	stw	zero,204(r2)
    q->numitems = 0;
  8012f8:	e0bfff17 	ldw	r2,-4(fp)
  8012fc:	10003415 	stw	zero,208(r2)
}
  801300:	0001883a 	nop
  801304:	e037883a 	mov	sp,fp
  801308:	dfc00117 	ldw	ra,4(sp)
  80130c:	df000017 	ldw	fp,0(sp)
  801310:	dec00204 	addi	sp,sp,8
  801314:	f800283a 	ret

00801318 <queue_enqueue>:

int queue_enqueue(QUEUE *q,int item)
{
  801318:	defff904 	addi	sp,sp,-28
  80131c:	dfc00615 	stw	ra,24(sp)
  801320:	df000515 	stw	fp,20(sp)
  801324:	df000504 	addi	fp,sp,20
  801328:	e13ffe15 	stw	r4,-8(fp)
  80132c:	e17fff15 	stw	r5,-4(fp)
    int num_items = q->numitems;
  801330:	e0bffe17 	ldw	r2,-8(fp)
  801334:	10803417 	ldw	r2,208(r2)
  801338:	e0bffc15 	stw	r2,-16(fp)
    int* temp_array;
    int i;

    if(num_items < QUEUESIZE)           //Check to see if the queue is not filled
  80133c:	e0bffc17 	ldw	r2,-16(fp)
  801340:	10800c88 	cmpgei	r2,r2,50
  801344:	1000451e 	bne	r2,zero,80145c <queue_enqueue+0x144>
    {
        temp_array = (int *)calloc(num_items,sizeof(int));//Allocate temp array with size equal to the content size of the queue
  801348:	e0bffc17 	ldw	r2,-16(fp)
  80134c:	01400104 	movi	r5,4
  801350:	1009883a 	mov	r4,r2
  801354:	08019500 	call	801950 <calloc>
  801358:	e0bffd15 	stw	r2,-12(fp)
        for(i = 0; i < num_items; i++)
  80135c:	e03ffb15 	stw	zero,-20(fp)
  801360:	00001006 	br	8013a4 <queue_enqueue+0x8c>
            temp_array[i]= q->items[i];       //Copy the queue to temp array
  801364:	e0bffb17 	ldw	r2,-20(fp)
  801368:	1085883a 	add	r2,r2,r2
  80136c:	1085883a 	add	r2,r2,r2
  801370:	1007883a 	mov	r3,r2
  801374:	e0bffd17 	ldw	r2,-12(fp)
  801378:	10c7883a 	add	r3,r2,r3
  80137c:	e13ffe17 	ldw	r4,-8(fp)
  801380:	e0bffb17 	ldw	r2,-20(fp)
  801384:	1085883a 	add	r2,r2,r2
  801388:	1085883a 	add	r2,r2,r2
  80138c:	2085883a 	add	r2,r4,r2
  801390:	10800017 	ldw	r2,0(r2)
  801394:	18800015 	stw	r2,0(r3)
    int i;

    if(num_items < QUEUESIZE)           //Check to see if the queue is not filled
    {
        temp_array = (int *)calloc(num_items,sizeof(int));//Allocate temp array with size equal to the content size of the queue
        for(i = 0; i < num_items; i++)
  801398:	e0bffb17 	ldw	r2,-20(fp)
  80139c:	10800044 	addi	r2,r2,1
  8013a0:	e0bffb15 	stw	r2,-20(fp)
  8013a4:	e0fffb17 	ldw	r3,-20(fp)
  8013a8:	e0bffc17 	ldw	r2,-16(fp)
  8013ac:	18bfed16 	blt	r3,r2,801364 <__alt_data_end+0xff801364>
            temp_array[i]= q->items[i];       //Copy the queue to temp array

        q->items[0] = item;                    //Insert the new item in the queue, always at index 0
  8013b0:	e0bffe17 	ldw	r2,-8(fp)
  8013b4:	e0ffff17 	ldw	r3,-4(fp)
  8013b8:	10c00015 	stw	r3,0(r2)

        for ( i = 1; i < num_items +1; i++)     //Copy back the items from temp array
  8013bc:	00800044 	movi	r2,1
  8013c0:	e0bffb15 	stw	r2,-20(fp)
  8013c4:	00001306 	br	801414 <queue_enqueue+0xfc>
            q->items[i] = temp_array[i-1];
  8013c8:	e0fffb17 	ldw	r3,-20(fp)
  8013cc:	00900034 	movhi	r2,16384
  8013d0:	10bfffc4 	addi	r2,r2,-1
  8013d4:	1885883a 	add	r2,r3,r2
  8013d8:	1085883a 	add	r2,r2,r2
  8013dc:	1085883a 	add	r2,r2,r2
  8013e0:	1007883a 	mov	r3,r2
  8013e4:	e0bffd17 	ldw	r2,-12(fp)
  8013e8:	10c5883a 	add	r2,r2,r3
  8013ec:	10c00017 	ldw	r3,0(r2)
  8013f0:	e13ffe17 	ldw	r4,-8(fp)
  8013f4:	e0bffb17 	ldw	r2,-20(fp)
  8013f8:	1085883a 	add	r2,r2,r2
  8013fc:	1085883a 	add	r2,r2,r2
  801400:	2085883a 	add	r2,r4,r2
  801404:	10c00015 	stw	r3,0(r2)
        for(i = 0; i < num_items; i++)
            temp_array[i]= q->items[i];       //Copy the queue to temp array

        q->items[0] = item;                    //Insert the new item in the queue, always at index 0

        for ( i = 1; i < num_items +1; i++)     //Copy back the items from temp array
  801408:	e0bffb17 	ldw	r2,-20(fp)
  80140c:	10800044 	addi	r2,r2,1
  801410:	e0bffb15 	stw	r2,-20(fp)
  801414:	e0bffc17 	ldw	r2,-16(fp)
  801418:	10800044 	addi	r2,r2,1
  80141c:	e0fffb17 	ldw	r3,-20(fp)
  801420:	18bfe916 	blt	r3,r2,8013c8 <__alt_data_end+0xff8013c8>
            q->items[i] = temp_array[i-1];
        free(temp_array);                             //Dispose the temp array
  801424:	e13ffd17 	ldw	r4,-12(fp)
  801428:	080197c0 	call	80197c <free>
        q->numitems++;                          //increment the number of items
  80142c:	e0bffe17 	ldw	r2,-8(fp)
  801430:	10803417 	ldw	r2,208(r2)
  801434:	10c00044 	addi	r3,r2,1
  801438:	e0bffe17 	ldw	r2,-8(fp)
  80143c:	10c03415 	stw	r3,208(r2)
        q->rindex++;                            //Increment the queue pointer so it points to the next free position in the queue
  801440:	e0bffe17 	ldw	r2,-8(fp)
  801444:	10803217 	ldw	r2,200(r2)
  801448:	10c00044 	addi	r3,r2,1
  80144c:	e0bffe17 	ldw	r2,-8(fp)
  801450:	10c03215 	stw	r3,200(r2)
        return 1;                               //The enqueue succeeded
  801454:	00800044 	movi	r2,1
  801458:	00000106 	br	801460 <queue_enqueue+0x148>
    }
    else return 0;          //The queue is filled, cannot insert more
  80145c:	0005883a 	mov	r2,zero

}
  801460:	e037883a 	mov	sp,fp
  801464:	dfc00117 	ldw	ra,4(sp)
  801468:	df000017 	ldw	fp,0(sp)
  80146c:	dec00204 	addi	sp,sp,8
  801470:	f800283a 	ret

00801474 <queue_dequeue>:


}
*/
int queue_dequeue(QUEUE *q)
{
  801474:	defffd04 	addi	sp,sp,-12
  801478:	df000215 	stw	fp,8(sp)
  80147c:	df000204 	addi	fp,sp,8
  801480:	e13fff15 	stw	r4,-4(fp)
    int num_items = q->numitems;
  801484:	e0bfff17 	ldw	r2,-4(fp)
  801488:	10803417 	ldw	r2,208(r2)
  80148c:	e0bffe15 	stw	r2,-8(fp)

    if (! num_items == 0)// The queue contains items
  801490:	e0bffe17 	ldw	r2,-8(fp)
  801494:	10000c26 	beq	r2,zero,8014c8 <queue_dequeue+0x54>
    {
        q->rindex--; //Decrement the end pointer because it points to a at the first empty position in the FIFO
  801498:	e0bfff17 	ldw	r2,-4(fp)
  80149c:	10803217 	ldw	r2,200(r2)
  8014a0:	10ffffc4 	addi	r3,r2,-1
  8014a4:	e0bfff17 	ldw	r2,-4(fp)
  8014a8:	10c03215 	stw	r3,200(r2)
         q->numitems--;                 //Decrement the number of items in the queue
  8014ac:	e0bfff17 	ldw	r2,-4(fp)
  8014b0:	10803417 	ldw	r2,208(r2)
  8014b4:	10ffffc4 	addi	r3,r2,-1
  8014b8:	e0bfff17 	ldw	r2,-4(fp)
  8014bc:	10c03415 	stw	r3,208(r2)
         return 1;                      //Return success because the dequeing succeeded/ the queue was not empty
  8014c0:	00800044 	movi	r2,1
  8014c4:	00000106 	br	8014cc <queue_dequeue+0x58>
    }
    else return 0;          //The queue is empty, nothing can be dequeued
  8014c8:	0005883a 	mov	r2,zero


}
  8014cc:	e037883a 	mov	sp,fp
  8014d0:	df000017 	ldw	fp,0(sp)
  8014d4:	dec00104 	addi	sp,sp,4
  8014d8:	f800283a 	ret

008014dc <queue_print>:


void queue_print(QUEUE *q)
{
  8014dc:	defffc04 	addi	sp,sp,-16
  8014e0:	dfc00315 	stw	ra,12(sp)
  8014e4:	df000215 	stw	fp,8(sp)
  8014e8:	df000204 	addi	fp,sp,8
  8014ec:	e13fff15 	stw	r4,-4(fp)
    int i = 0;
  8014f0:	e03ffe15 	stw	zero,-8(fp)
    for (i = q->numitems-1; i>= 0; i--){  //print in FIFO order, oldest first
  8014f4:	e0bfff17 	ldw	r2,-4(fp)
  8014f8:	10803417 	ldw	r2,208(r2)
  8014fc:	10bfffc4 	addi	r2,r2,-1
  801500:	e0bffe15 	stw	r2,-8(fp)
  801504:	00000d06 	br	80153c <queue_print+0x60>
        printf("%d", q->items[i] );
  801508:	e0ffff17 	ldw	r3,-4(fp)
  80150c:	e0bffe17 	ldw	r2,-8(fp)
  801510:	1085883a 	add	r2,r2,r2
  801514:	1085883a 	add	r2,r2,r2
  801518:	1885883a 	add	r2,r3,r2
  80151c:	10800017 	ldw	r2,0(r2)
  801520:	100b883a 	mov	r5,r2
  801524:	01002034 	movhi	r4,128
  801528:	2110b104 	addi	r4,r4,17092
  80152c:	0801cb00 	call	801cb0 <printf>


void queue_print(QUEUE *q)
{
    int i = 0;
    for (i = q->numitems-1; i>= 0; i--){  //print in FIFO order, oldest first
  801530:	e0bffe17 	ldw	r2,-8(fp)
  801534:	10bfffc4 	addi	r2,r2,-1
  801538:	e0bffe15 	stw	r2,-8(fp)
  80153c:	e0bffe17 	ldw	r2,-8(fp)
  801540:	103ff10e 	bge	r2,zero,801508 <__alt_data_end+0xff801508>
        printf("%d", q->items[i] );
    }
    printf("\n");
  801544:	01000284 	movi	r4,10
  801548:	0801d040 	call	801d04 <putchar>
}
  80154c:	0001883a 	nop
  801550:	e037883a 	mov	sp,fp
  801554:	dfc00117 	ldw	ra,4(sp)
  801558:	df000017 	ldw	fp,0(sp)
  80155c:	dec00204 	addi	sp,sp,8
  801560:	f800283a 	ret

00801564 <queue_print_screen>:
void queue_print_screen(QUEUE *q, int x_origo, int y_origo, int normalization, int offset, int rgb){
  801564:	defff404 	addi	sp,sp,-48
  801568:	dfc00b15 	stw	ra,44(sp)
  80156c:	df000a15 	stw	fp,40(sp)
  801570:	dc400915 	stw	r17,36(sp)
  801574:	dc000815 	stw	r16,32(sp)
  801578:	df000a04 	addi	fp,sp,40
  80157c:	e13ffa15 	stw	r4,-24(fp)
  801580:	e17ffb15 	stw	r5,-20(fp)
  801584:	e1bffc15 	stw	r6,-16(fp)
  801588:	e1fffd15 	stw	r7,-12(fp)
	 int i = 0;
  80158c:	e03ff615 	stw	zero,-40(fp)
	 int j;
	 int value;
	    for (i = q->numitems-1; i>= 0; i--){  //print in FIFO order, oldest first
  801590:	e0bffa17 	ldw	r2,-24(fp)
  801594:	10803417 	ldw	r2,208(r2)
  801598:	10bfffc4 	addi	r2,r2,-1
  80159c:	e0bff615 	stw	r2,-40(fp)
  8015a0:	00006a06 	br	80174c <queue_print_screen+0x1e8>
	        printf("Un-normalized %d\n normalized %d\n", q->items[i],q->items[i]/normalization );
  8015a4:	e0fffa17 	ldw	r3,-24(fp)
  8015a8:	e0bff617 	ldw	r2,-40(fp)
  8015ac:	1085883a 	add	r2,r2,r2
  8015b0:	1085883a 	add	r2,r2,r2
  8015b4:	1885883a 	add	r2,r3,r2
  8015b8:	14000017 	ldw	r16,0(r2)
  8015bc:	e0fffa17 	ldw	r3,-24(fp)
  8015c0:	e0bff617 	ldw	r2,-40(fp)
  8015c4:	1085883a 	add	r2,r2,r2
  8015c8:	1085883a 	add	r2,r2,r2
  8015cc:	1885883a 	add	r2,r3,r2
  8015d0:	10800017 	ldw	r2,0(r2)
  8015d4:	e17ffd17 	ldw	r5,-12(fp)
  8015d8:	1009883a 	mov	r4,r2
  8015dc:	08017740 	call	801774 <__divsi3>
  8015e0:	100d883a 	mov	r6,r2
  8015e4:	800b883a 	mov	r5,r16
  8015e8:	01002034 	movhi	r4,128
  8015ec:	2110b204 	addi	r4,r4,17096
  8015f0:	0801cb00 	call	801cb0 <printf>
	        j = q->numitems-1 -i;
  8015f4:	e0bffa17 	ldw	r2,-24(fp)
  8015f8:	10803417 	ldw	r2,208(r2)
  8015fc:	10ffffc4 	addi	r3,r2,-1
  801600:	e0bff617 	ldw	r2,-40(fp)
  801604:	1885c83a 	sub	r2,r3,r2
  801608:	e0bff815 	stw	r2,-32(fp)
	        printf("j%d\n",j);
  80160c:	e17ff817 	ldw	r5,-32(fp)
  801610:	01002034 	movhi	r4,128
  801614:	2110bb04 	addi	r4,r4,17132
  801618:	0801cb00 	call	801cb0 <printf>
	        for(int k = 1; k < 40;k++)
  80161c:	00800044 	movi	r2,1
  801620:	e0bff715 	stw	r2,-36(fp)
  801624:	00000d06 	br	80165c <queue_print_screen+0xf8>
	        	print_pix(x_origo + j, y_origo-k,0);//Blank out previous measurement
  801628:	e0fffb17 	ldw	r3,-20(fp)
  80162c:	e0bff817 	ldw	r2,-32(fp)
  801630:	1885883a 	add	r2,r3,r2
  801634:	1009883a 	mov	r4,r2
  801638:	e0fffc17 	ldw	r3,-16(fp)
  80163c:	e0bff717 	ldw	r2,-36(fp)
  801640:	1885c83a 	sub	r2,r3,r2
  801644:	000d883a 	mov	r6,zero
  801648:	100b883a 	mov	r5,r2
  80164c:	0800ab40 	call	800ab4 <print_pix>
	 int value;
	    for (i = q->numitems-1; i>= 0; i--){  //print in FIFO order, oldest first
	        printf("Un-normalized %d\n normalized %d\n", q->items[i],q->items[i]/normalization );
	        j = q->numitems-1 -i;
	        printf("j%d\n",j);
	        for(int k = 1; k < 40;k++)
  801650:	e0bff717 	ldw	r2,-36(fp)
  801654:	10800044 	addi	r2,r2,1
  801658:	e0bff715 	stw	r2,-36(fp)
  80165c:	e0bff717 	ldw	r2,-36(fp)
  801660:	10800a10 	cmplti	r2,r2,40
  801664:	103ff01e 	bne	r2,zero,801628 <__alt_data_end+0xff801628>
	        	print_pix(x_origo + j, y_origo-k,0);//Blank out previous measurement
	        print_pix(x_origo + j, y_origo,7);//Fix ccordinate system line
  801668:	e0fffb17 	ldw	r3,-20(fp)
  80166c:	e0bff817 	ldw	r2,-32(fp)
  801670:	1885883a 	add	r2,r3,r2
  801674:	1007883a 	mov	r3,r2
  801678:	e0bffc17 	ldw	r2,-16(fp)
  80167c:	018001c4 	movi	r6,7
  801680:	100b883a 	mov	r5,r2
  801684:	1809883a 	mov	r4,r3
  801688:	0800ab40 	call	800ab4 <print_pix>
	        value = (y_origo-offset - q->items[i]/normalization < y_origo )? y_origo-offset - q->items[i]/normalization : y_origo;//Trunk
  80168c:	e0fffc17 	ldw	r3,-16(fp)
  801690:	e0800217 	ldw	r2,8(fp)
  801694:	18a1c83a 	sub	r16,r3,r2
  801698:	e0fffa17 	ldw	r3,-24(fp)
  80169c:	e0bff617 	ldw	r2,-40(fp)
  8016a0:	1085883a 	add	r2,r2,r2
  8016a4:	1085883a 	add	r2,r2,r2
  8016a8:	1885883a 	add	r2,r3,r2
  8016ac:	10800017 	ldw	r2,0(r2)
  8016b0:	e17ffd17 	ldw	r5,-12(fp)
  8016b4:	1009883a 	mov	r4,r2
  8016b8:	08017740 	call	801774 <__divsi3>
  8016bc:	8085c83a 	sub	r2,r16,r2
  8016c0:	e0fffc17 	ldw	r3,-16(fp)
  8016c4:	1880010e 	bge	r3,r2,8016cc <queue_print_screen+0x168>
  8016c8:	1805883a 	mov	r2,r3
  8016cc:	e0bff915 	stw	r2,-28(fp)
	        value = (y_origo-offset - q->items[i]/normalization > y_origo -40)?y_origo-offset - q->items[i]/normalization : y_origo -40;
  8016d0:	e0bffc17 	ldw	r2,-16(fp)
  8016d4:	147ff604 	addi	r17,r2,-40
  8016d8:	e0fffc17 	ldw	r3,-16(fp)
  8016dc:	e0800217 	ldw	r2,8(fp)
  8016e0:	18a1c83a 	sub	r16,r3,r2
  8016e4:	e0fffa17 	ldw	r3,-24(fp)
  8016e8:	e0bff617 	ldw	r2,-40(fp)
  8016ec:	1085883a 	add	r2,r2,r2
  8016f0:	1085883a 	add	r2,r2,r2
  8016f4:	1885883a 	add	r2,r3,r2
  8016f8:	10800017 	ldw	r2,0(r2)
  8016fc:	e17ffd17 	ldw	r5,-12(fp)
  801700:	1009883a 	mov	r4,r2
  801704:	08017740 	call	801774 <__divsi3>
  801708:	8087c83a 	sub	r3,r16,r2
  80170c:	8805883a 	mov	r2,r17
  801710:	10c0010e 	bge	r2,r3,801718 <queue_print_screen+0x1b4>
  801714:	1805883a 	mov	r2,r3
  801718:	e0bff915 	stw	r2,-28(fp)
	        print_pix(x_origo + j, value,rgb);
  80171c:	e0fffb17 	ldw	r3,-20(fp)
  801720:	e0bff817 	ldw	r2,-32(fp)
  801724:	1885883a 	add	r2,r3,r2
  801728:	1009883a 	mov	r4,r2
  80172c:	e0bff917 	ldw	r2,-28(fp)
  801730:	e0c00317 	ldw	r3,12(fp)
  801734:	180d883a 	mov	r6,r3
  801738:	100b883a 	mov	r5,r2
  80173c:	0800ab40 	call	800ab4 <print_pix>
}
void queue_print_screen(QUEUE *q, int x_origo, int y_origo, int normalization, int offset, int rgb){
	 int i = 0;
	 int j;
	 int value;
	    for (i = q->numitems-1; i>= 0; i--){  //print in FIFO order, oldest first
  801740:	e0bff617 	ldw	r2,-40(fp)
  801744:	10bfffc4 	addi	r2,r2,-1
  801748:	e0bff615 	stw	r2,-40(fp)
  80174c:	e0bff617 	ldw	r2,-40(fp)
  801750:	103f940e 	bge	r2,zero,8015a4 <__alt_data_end+0xff8015a4>
	        print_pix(x_origo + j, y_origo,7);//Fix ccordinate system line
	        value = (y_origo-offset - q->items[i]/normalization < y_origo )? y_origo-offset - q->items[i]/normalization : y_origo;//Trunk
	        value = (y_origo-offset - q->items[i]/normalization > y_origo -40)?y_origo-offset - q->items[i]/normalization : y_origo -40;
	        print_pix(x_origo + j, value,rgb);
	    }
}
  801754:	0001883a 	nop
  801758:	e6fffe04 	addi	sp,fp,-8
  80175c:	dfc00317 	ldw	ra,12(sp)
  801760:	df000217 	ldw	fp,8(sp)
  801764:	dc400117 	ldw	r17,4(sp)
  801768:	dc000017 	ldw	r16,0(sp)
  80176c:	dec00404 	addi	sp,sp,16
  801770:	f800283a 	ret

00801774 <__divsi3>:
  801774:	20001b16 	blt	r4,zero,8017e4 <__divsi3+0x70>
  801778:	000f883a 	mov	r7,zero
  80177c:	28001616 	blt	r5,zero,8017d8 <__divsi3+0x64>
  801780:	200d883a 	mov	r6,r4
  801784:	29001a2e 	bgeu	r5,r4,8017f0 <__divsi3+0x7c>
  801788:	00800804 	movi	r2,32
  80178c:	00c00044 	movi	r3,1
  801790:	00000106 	br	801798 <__divsi3+0x24>
  801794:	10000d26 	beq	r2,zero,8017cc <__divsi3+0x58>
  801798:	294b883a 	add	r5,r5,r5
  80179c:	10bfffc4 	addi	r2,r2,-1
  8017a0:	18c7883a 	add	r3,r3,r3
  8017a4:	293ffb36 	bltu	r5,r4,801794 <__alt_data_end+0xff801794>
  8017a8:	0005883a 	mov	r2,zero
  8017ac:	18000726 	beq	r3,zero,8017cc <__divsi3+0x58>
  8017b0:	0005883a 	mov	r2,zero
  8017b4:	31400236 	bltu	r6,r5,8017c0 <__divsi3+0x4c>
  8017b8:	314dc83a 	sub	r6,r6,r5
  8017bc:	10c4b03a 	or	r2,r2,r3
  8017c0:	1806d07a 	srli	r3,r3,1
  8017c4:	280ad07a 	srli	r5,r5,1
  8017c8:	183ffa1e 	bne	r3,zero,8017b4 <__alt_data_end+0xff8017b4>
  8017cc:	38000126 	beq	r7,zero,8017d4 <__divsi3+0x60>
  8017d0:	0085c83a 	sub	r2,zero,r2
  8017d4:	f800283a 	ret
  8017d8:	014bc83a 	sub	r5,zero,r5
  8017dc:	39c0005c 	xori	r7,r7,1
  8017e0:	003fe706 	br	801780 <__alt_data_end+0xff801780>
  8017e4:	0109c83a 	sub	r4,zero,r4
  8017e8:	01c00044 	movi	r7,1
  8017ec:	003fe306 	br	80177c <__alt_data_end+0xff80177c>
  8017f0:	00c00044 	movi	r3,1
  8017f4:	003fee06 	br	8017b0 <__alt_data_end+0xff8017b0>

008017f8 <__modsi3>:
  8017f8:	20001716 	blt	r4,zero,801858 <__modsi3+0x60>
  8017fc:	000f883a 	mov	r7,zero
  801800:	2005883a 	mov	r2,r4
  801804:	28001216 	blt	r5,zero,801850 <__modsi3+0x58>
  801808:	2900162e 	bgeu	r5,r4,801864 <__modsi3+0x6c>
  80180c:	01800804 	movi	r6,32
  801810:	00c00044 	movi	r3,1
  801814:	00000106 	br	80181c <__modsi3+0x24>
  801818:	30000a26 	beq	r6,zero,801844 <__modsi3+0x4c>
  80181c:	294b883a 	add	r5,r5,r5
  801820:	31bfffc4 	addi	r6,r6,-1
  801824:	18c7883a 	add	r3,r3,r3
  801828:	293ffb36 	bltu	r5,r4,801818 <__alt_data_end+0xff801818>
  80182c:	18000526 	beq	r3,zero,801844 <__modsi3+0x4c>
  801830:	1806d07a 	srli	r3,r3,1
  801834:	11400136 	bltu	r2,r5,80183c <__modsi3+0x44>
  801838:	1145c83a 	sub	r2,r2,r5
  80183c:	280ad07a 	srli	r5,r5,1
  801840:	183ffb1e 	bne	r3,zero,801830 <__alt_data_end+0xff801830>
  801844:	38000126 	beq	r7,zero,80184c <__modsi3+0x54>
  801848:	0085c83a 	sub	r2,zero,r2
  80184c:	f800283a 	ret
  801850:	014bc83a 	sub	r5,zero,r5
  801854:	003fec06 	br	801808 <__alt_data_end+0xff801808>
  801858:	0109c83a 	sub	r4,zero,r4
  80185c:	01c00044 	movi	r7,1
  801860:	003fe706 	br	801800 <__alt_data_end+0xff801800>
  801864:	00c00044 	movi	r3,1
  801868:	003ff106 	br	801830 <__alt_data_end+0xff801830>

0080186c <__udivsi3>:
  80186c:	200d883a 	mov	r6,r4
  801870:	2900152e 	bgeu	r5,r4,8018c8 <__udivsi3+0x5c>
  801874:	28001416 	blt	r5,zero,8018c8 <__udivsi3+0x5c>
  801878:	00800804 	movi	r2,32
  80187c:	00c00044 	movi	r3,1
  801880:	00000206 	br	80188c <__udivsi3+0x20>
  801884:	10000e26 	beq	r2,zero,8018c0 <__udivsi3+0x54>
  801888:	28000516 	blt	r5,zero,8018a0 <__udivsi3+0x34>
  80188c:	294b883a 	add	r5,r5,r5
  801890:	10bfffc4 	addi	r2,r2,-1
  801894:	18c7883a 	add	r3,r3,r3
  801898:	293ffa36 	bltu	r5,r4,801884 <__alt_data_end+0xff801884>
  80189c:	18000826 	beq	r3,zero,8018c0 <__udivsi3+0x54>
  8018a0:	0005883a 	mov	r2,zero
  8018a4:	31400236 	bltu	r6,r5,8018b0 <__udivsi3+0x44>
  8018a8:	314dc83a 	sub	r6,r6,r5
  8018ac:	10c4b03a 	or	r2,r2,r3
  8018b0:	1806d07a 	srli	r3,r3,1
  8018b4:	280ad07a 	srli	r5,r5,1
  8018b8:	183ffa1e 	bne	r3,zero,8018a4 <__alt_data_end+0xff8018a4>
  8018bc:	f800283a 	ret
  8018c0:	0005883a 	mov	r2,zero
  8018c4:	f800283a 	ret
  8018c8:	00c00044 	movi	r3,1
  8018cc:	003ff406 	br	8018a0 <__alt_data_end+0xff8018a0>

008018d0 <__umodsi3>:
  8018d0:	2005883a 	mov	r2,r4
  8018d4:	2900122e 	bgeu	r5,r4,801920 <__umodsi3+0x50>
  8018d8:	28001116 	blt	r5,zero,801920 <__umodsi3+0x50>
  8018dc:	01800804 	movi	r6,32
  8018e0:	00c00044 	movi	r3,1
  8018e4:	00000206 	br	8018f0 <__umodsi3+0x20>
  8018e8:	30000c26 	beq	r6,zero,80191c <__umodsi3+0x4c>
  8018ec:	28000516 	blt	r5,zero,801904 <__umodsi3+0x34>
  8018f0:	294b883a 	add	r5,r5,r5
  8018f4:	31bfffc4 	addi	r6,r6,-1
  8018f8:	18c7883a 	add	r3,r3,r3
  8018fc:	293ffa36 	bltu	r5,r4,8018e8 <__alt_data_end+0xff8018e8>
  801900:	18000626 	beq	r3,zero,80191c <__umodsi3+0x4c>
  801904:	1806d07a 	srli	r3,r3,1
  801908:	11400136 	bltu	r2,r5,801910 <__umodsi3+0x40>
  80190c:	1145c83a 	sub	r2,r2,r5
  801910:	280ad07a 	srli	r5,r5,1
  801914:	183ffb1e 	bne	r3,zero,801904 <__alt_data_end+0xff801904>
  801918:	f800283a 	ret
  80191c:	f800283a 	ret
  801920:	00c00044 	movi	r3,1
  801924:	003ff706 	br	801904 <__alt_data_end+0xff801904>

00801928 <__mulsi3>:
  801928:	0005883a 	mov	r2,zero
  80192c:	20000726 	beq	r4,zero,80194c <__mulsi3+0x24>
  801930:	20c0004c 	andi	r3,r4,1
  801934:	2008d07a 	srli	r4,r4,1
  801938:	18000126 	beq	r3,zero,801940 <__mulsi3+0x18>
  80193c:	1145883a 	add	r2,r2,r5
  801940:	294b883a 	add	r5,r5,r5
  801944:	203ffa1e 	bne	r4,zero,801930 <__alt_data_end+0xff801930>
  801948:	f800283a 	ret
  80194c:	f800283a 	ret

00801950 <calloc>:
  801950:	00802034 	movhi	r2,128
  801954:	10929304 	addi	r2,r2,19020
  801958:	280d883a 	mov	r6,r5
  80195c:	200b883a 	mov	r5,r4
  801960:	11000017 	ldw	r4,0(r2)
  801964:	08019d81 	jmpi	8019d8 <_calloc_r>

00801968 <malloc>:
  801968:	00802034 	movhi	r2,128
  80196c:	10929304 	addi	r2,r2,19020
  801970:	200b883a 	mov	r5,r4
  801974:	11000017 	ldw	r4,0(r2)
  801978:	0801b1c1 	jmpi	801b1c <_malloc_r>

0080197c <free>:
  80197c:	00802034 	movhi	r2,128
  801980:	10929304 	addi	r2,r2,19020
  801984:	200b883a 	mov	r5,r4
  801988:	11000017 	ldw	r4,0(r2)
  80198c:	0801a381 	jmpi	801a38 <_free_r>

00801990 <memcpy>:
  801990:	2005883a 	mov	r2,r4
  801994:	2007883a 	mov	r3,r4
  801998:	218d883a 	add	r6,r4,r6
  80199c:	19800526 	beq	r3,r6,8019b4 <memcpy+0x24>
  8019a0:	29000003 	ldbu	r4,0(r5)
  8019a4:	18c00044 	addi	r3,r3,1
  8019a8:	29400044 	addi	r5,r5,1
  8019ac:	193fffc5 	stb	r4,-1(r3)
  8019b0:	003ffa06 	br	80199c <__alt_data_end+0xff80199c>
  8019b4:	f800283a 	ret

008019b8 <memset>:
  8019b8:	2005883a 	mov	r2,r4
  8019bc:	2007883a 	mov	r3,r4
  8019c0:	218d883a 	add	r6,r4,r6
  8019c4:	19800326 	beq	r3,r6,8019d4 <memset+0x1c>
  8019c8:	19400005 	stb	r5,0(r3)
  8019cc:	18c00044 	addi	r3,r3,1
  8019d0:	003ffc06 	br	8019c4 <__alt_data_end+0xff8019c4>
  8019d4:	f800283a 	ret

008019d8 <_calloc_r>:
  8019d8:	defffd04 	addi	sp,sp,-12
  8019dc:	dc000015 	stw	r16,0(sp)
  8019e0:	2021883a 	mov	r16,r4
  8019e4:	2809883a 	mov	r4,r5
  8019e8:	300b883a 	mov	r5,r6
  8019ec:	dfc00215 	stw	ra,8(sp)
  8019f0:	dc400115 	stw	r17,4(sp)
  8019f4:	08019280 	call	801928 <__mulsi3>
  8019f8:	8009883a 	mov	r4,r16
  8019fc:	100b883a 	mov	r5,r2
  801a00:	1023883a 	mov	r17,r2
  801a04:	0801b1c0 	call	801b1c <_malloc_r>
  801a08:	1021883a 	mov	r16,r2
  801a0c:	10000426 	beq	r2,zero,801a20 <_calloc_r+0x48>
  801a10:	880d883a 	mov	r6,r17
  801a14:	000b883a 	mov	r5,zero
  801a18:	1009883a 	mov	r4,r2
  801a1c:	08019b80 	call	8019b8 <memset>
  801a20:	8005883a 	mov	r2,r16
  801a24:	dfc00217 	ldw	ra,8(sp)
  801a28:	dc400117 	ldw	r17,4(sp)
  801a2c:	dc000017 	ldw	r16,0(sp)
  801a30:	dec00304 	addi	sp,sp,12
  801a34:	f800283a 	ret

00801a38 <_free_r>:
  801a38:	28003726 	beq	r5,zero,801b18 <_free_r+0xe0>
  801a3c:	28ffff17 	ldw	r3,-4(r5)
  801a40:	28bfff04 	addi	r2,r5,-4
  801a44:	1800010e 	bge	r3,zero,801a4c <_free_r+0x14>
  801a48:	10c5883a 	add	r2,r2,r3
  801a4c:	01402034 	movhi	r5,128
  801a50:	29546c04 	addi	r5,r5,20912
  801a54:	28c00017 	ldw	r3,0(r5)
  801a58:	280d883a 	mov	r6,r5
  801a5c:	1800031e 	bne	r3,zero,801a6c <_free_r+0x34>
  801a60:	10000115 	stw	zero,4(r2)
  801a64:	28800015 	stw	r2,0(r5)
  801a68:	f800283a 	ret
  801a6c:	10c00c2e 	bgeu	r2,r3,801aa0 <_free_r+0x68>
  801a70:	11000017 	ldw	r4,0(r2)
  801a74:	110b883a 	add	r5,r2,r4
  801a78:	1940041e 	bne	r3,r5,801a8c <_free_r+0x54>
  801a7c:	19400017 	ldw	r5,0(r3)
  801a80:	18c00117 	ldw	r3,4(r3)
  801a84:	2909883a 	add	r4,r5,r4
  801a88:	11000015 	stw	r4,0(r2)
  801a8c:	10c00115 	stw	r3,4(r2)
  801a90:	30800015 	stw	r2,0(r6)
  801a94:	f800283a 	ret
  801a98:	11400336 	bltu	r2,r5,801aa8 <_free_r+0x70>
  801a9c:	2807883a 	mov	r3,r5
  801aa0:	19400117 	ldw	r5,4(r3)
  801aa4:	283ffc1e 	bne	r5,zero,801a98 <__alt_data_end+0xff801a98>
  801aa8:	19c00017 	ldw	r7,0(r3)
  801aac:	19cd883a 	add	r6,r3,r7
  801ab0:	30800a1e 	bne	r6,r2,801adc <_free_r+0xa4>
  801ab4:	10800017 	ldw	r2,0(r2)
  801ab8:	3885883a 	add	r2,r7,r2
  801abc:	18800015 	stw	r2,0(r3)
  801ac0:	1889883a 	add	r4,r3,r2
  801ac4:	2900141e 	bne	r5,r4,801b18 <_free_r+0xe0>
  801ac8:	29000017 	ldw	r4,0(r5)
  801acc:	2085883a 	add	r2,r4,r2
  801ad0:	18800015 	stw	r2,0(r3)
  801ad4:	28800117 	ldw	r2,4(r5)
  801ad8:	00000e06 	br	801b14 <_free_r+0xdc>
  801adc:	1180032e 	bgeu	r2,r6,801aec <_free_r+0xb4>
  801ae0:	00800304 	movi	r2,12
  801ae4:	20800015 	stw	r2,0(r4)
  801ae8:	f800283a 	ret
  801aec:	11000017 	ldw	r4,0(r2)
  801af0:	110d883a 	add	r6,r2,r4
  801af4:	2980061e 	bne	r5,r6,801b10 <_free_r+0xd8>
  801af8:	29800017 	ldw	r6,0(r5)
  801afc:	3109883a 	add	r4,r6,r4
  801b00:	11000015 	stw	r4,0(r2)
  801b04:	29000117 	ldw	r4,4(r5)
  801b08:	11000115 	stw	r4,4(r2)
  801b0c:	00000106 	br	801b14 <_free_r+0xdc>
  801b10:	11400115 	stw	r5,4(r2)
  801b14:	18800115 	stw	r2,4(r3)
  801b18:	f800283a 	ret

00801b1c <_malloc_r>:
  801b1c:	defffb04 	addi	sp,sp,-20
  801b20:	00bfff04 	movi	r2,-4
  801b24:	dc400115 	stw	r17,4(sp)
  801b28:	2c4000c4 	addi	r17,r5,3
  801b2c:	88a2703a 	and	r17,r17,r2
  801b30:	dc800215 	stw	r18,8(sp)
  801b34:	dfc00415 	stw	ra,16(sp)
  801b38:	dcc00315 	stw	r19,12(sp)
  801b3c:	dc000015 	stw	r16,0(sp)
  801b40:	8c400204 	addi	r17,r17,8
  801b44:	00800304 	movi	r2,12
  801b48:	2025883a 	mov	r18,r4
  801b4c:	8880022e 	bgeu	r17,r2,801b58 <_malloc_r+0x3c>
  801b50:	1023883a 	mov	r17,r2
  801b54:	00000506 	br	801b6c <_malloc_r+0x50>
  801b58:	8800040e 	bge	r17,zero,801b6c <_malloc_r+0x50>
  801b5c:	00800304 	movi	r2,12
  801b60:	90800015 	stw	r2,0(r18)
  801b64:	0005883a 	mov	r2,zero
  801b68:	00003b06 	br	801c58 <_malloc_r+0x13c>
  801b6c:	897ffb36 	bltu	r17,r5,801b5c <__alt_data_end+0xff801b5c>
  801b70:	00802034 	movhi	r2,128
  801b74:	10946c04 	addi	r2,r2,20912
  801b78:	10c00017 	ldw	r3,0(r2)
  801b7c:	1009883a 	mov	r4,r2
  801b80:	1821883a 	mov	r16,r3
  801b84:	80000926 	beq	r16,zero,801bac <_malloc_r+0x90>
  801b88:	80800017 	ldw	r2,0(r16)
  801b8c:	1445c83a 	sub	r2,r2,r17
  801b90:	10001516 	blt	r2,zero,801be8 <_malloc_r+0xcc>
  801b94:	014002c4 	movi	r5,11
  801b98:	28800d2e 	bgeu	r5,r2,801bd0 <_malloc_r+0xb4>
  801b9c:	80800015 	stw	r2,0(r16)
  801ba0:	80a1883a 	add	r16,r16,r2
  801ba4:	84400015 	stw	r17,0(r16)
  801ba8:	8000221e 	bne	r16,zero,801c34 <_malloc_r+0x118>
  801bac:	04002034 	movhi	r16,128
  801bb0:	84146b04 	addi	r16,r16,20908
  801bb4:	80800017 	ldw	r2,0(r16)
  801bb8:	10000e1e 	bne	r2,zero,801bf4 <_malloc_r+0xd8>
  801bbc:	000b883a 	mov	r5,zero
  801bc0:	9009883a 	mov	r4,r18
  801bc4:	0801db40 	call	801db4 <_sbrk_r>
  801bc8:	80800015 	stw	r2,0(r16)
  801bcc:	00000906 	br	801bf4 <_malloc_r+0xd8>
  801bd0:	80800117 	ldw	r2,4(r16)
  801bd4:	1c00021e 	bne	r3,r16,801be0 <_malloc_r+0xc4>
  801bd8:	20800015 	stw	r2,0(r4)
  801bdc:	00001506 	br	801c34 <_malloc_r+0x118>
  801be0:	18800115 	stw	r2,4(r3)
  801be4:	00001306 	br	801c34 <_malloc_r+0x118>
  801be8:	8007883a 	mov	r3,r16
  801bec:	84000117 	ldw	r16,4(r16)
  801bf0:	003fe406 	br	801b84 <__alt_data_end+0xff801b84>
  801bf4:	880b883a 	mov	r5,r17
  801bf8:	9009883a 	mov	r4,r18
  801bfc:	0801db40 	call	801db4 <_sbrk_r>
  801c00:	04ffffc4 	movi	r19,-1
  801c04:	14ffd526 	beq	r2,r19,801b5c <__alt_data_end+0xff801b5c>
  801c08:	140000c4 	addi	r16,r2,3
  801c0c:	00ffff04 	movi	r3,-4
  801c10:	80e0703a 	and	r16,r16,r3
  801c14:	1400021e 	bne	r2,r16,801c20 <_malloc_r+0x104>
  801c18:	84400015 	stw	r17,0(r16)
  801c1c:	00000506 	br	801c34 <_malloc_r+0x118>
  801c20:	808bc83a 	sub	r5,r16,r2
  801c24:	9009883a 	mov	r4,r18
  801c28:	0801db40 	call	801db4 <_sbrk_r>
  801c2c:	14fffa1e 	bne	r2,r19,801c18 <__alt_data_end+0xff801c18>
  801c30:	003fca06 	br	801b5c <__alt_data_end+0xff801b5c>
  801c34:	810002c4 	addi	r4,r16,11
  801c38:	00bffe04 	movi	r2,-8
  801c3c:	80c00104 	addi	r3,r16,4
  801c40:	2084703a 	and	r2,r4,r2
  801c44:	10c7c83a 	sub	r3,r2,r3
  801c48:	18000326 	beq	r3,zero,801c58 <_malloc_r+0x13c>
  801c4c:	80e1883a 	add	r16,r16,r3
  801c50:	00c7c83a 	sub	r3,zero,r3
  801c54:	80c00015 	stw	r3,0(r16)
  801c58:	dfc00417 	ldw	ra,16(sp)
  801c5c:	dcc00317 	ldw	r19,12(sp)
  801c60:	dc800217 	ldw	r18,8(sp)
  801c64:	dc400117 	ldw	r17,4(sp)
  801c68:	dc000017 	ldw	r16,0(sp)
  801c6c:	dec00504 	addi	sp,sp,20
  801c70:	f800283a 	ret

00801c74 <_printf_r>:
  801c74:	defffd04 	addi	sp,sp,-12
  801c78:	dfc00015 	stw	ra,0(sp)
  801c7c:	d9800115 	stw	r6,4(sp)
  801c80:	d9c00215 	stw	r7,8(sp)
  801c84:	20c00217 	ldw	r3,8(r4)
  801c88:	01802034 	movhi	r6,128
  801c8c:	3188f504 	addi	r6,r6,9172
  801c90:	19800115 	stw	r6,4(r3)
  801c94:	280d883a 	mov	r6,r5
  801c98:	21400217 	ldw	r5,8(r4)
  801c9c:	d9c00104 	addi	r7,sp,4
  801ca0:	0801e8c0 	call	801e8c <___vfprintf_internal_r>
  801ca4:	dfc00017 	ldw	ra,0(sp)
  801ca8:	dec00304 	addi	sp,sp,12
  801cac:	f800283a 	ret

00801cb0 <printf>:
  801cb0:	defffc04 	addi	sp,sp,-16
  801cb4:	dfc00015 	stw	ra,0(sp)
  801cb8:	d9400115 	stw	r5,4(sp)
  801cbc:	d9800215 	stw	r6,8(sp)
  801cc0:	d9c00315 	stw	r7,12(sp)
  801cc4:	00802034 	movhi	r2,128
  801cc8:	10929304 	addi	r2,r2,19020
  801ccc:	10800017 	ldw	r2,0(r2)
  801cd0:	01402034 	movhi	r5,128
  801cd4:	2948f504 	addi	r5,r5,9172
  801cd8:	10c00217 	ldw	r3,8(r2)
  801cdc:	d9800104 	addi	r6,sp,4
  801ce0:	19400115 	stw	r5,4(r3)
  801ce4:	200b883a 	mov	r5,r4
  801ce8:	11000217 	ldw	r4,8(r2)
  801cec:	08023b80 	call	8023b8 <__vfprintf_internal>
  801cf0:	dfc00017 	ldw	ra,0(sp)
  801cf4:	dec00404 	addi	sp,sp,16
  801cf8:	f800283a 	ret

00801cfc <_putchar_r>:
  801cfc:	21800217 	ldw	r6,8(r4)
  801d00:	08024e01 	jmpi	8024e0 <_putc_r>

00801d04 <putchar>:
  801d04:	00802034 	movhi	r2,128
  801d08:	10929304 	addi	r2,r2,19020
  801d0c:	10800017 	ldw	r2,0(r2)
  801d10:	200b883a 	mov	r5,r4
  801d14:	11800217 	ldw	r6,8(r2)
  801d18:	1009883a 	mov	r4,r2
  801d1c:	08024e01 	jmpi	8024e0 <_putc_r>

00801d20 <_puts_r>:
  801d20:	defffd04 	addi	sp,sp,-12
  801d24:	dc000015 	stw	r16,0(sp)
  801d28:	2021883a 	mov	r16,r4
  801d2c:	2809883a 	mov	r4,r5
  801d30:	dfc00215 	stw	ra,8(sp)
  801d34:	dc400115 	stw	r17,4(sp)
  801d38:	2823883a 	mov	r17,r5
  801d3c:	0801e040 	call	801e04 <strlen>
  801d40:	81400217 	ldw	r5,8(r16)
  801d44:	01002034 	movhi	r4,128
  801d48:	2108f504 	addi	r4,r4,9172
  801d4c:	29000115 	stw	r4,4(r5)
  801d50:	100f883a 	mov	r7,r2
  801d54:	880d883a 	mov	r6,r17
  801d58:	8009883a 	mov	r4,r16
  801d5c:	08023d40 	call	8023d4 <__sfvwrite_small_dev>
  801d60:	00ffffc4 	movi	r3,-1
  801d64:	10c00926 	beq	r2,r3,801d8c <_puts_r+0x6c>
  801d68:	81400217 	ldw	r5,8(r16)
  801d6c:	01802034 	movhi	r6,128
  801d70:	01c00044 	movi	r7,1
  801d74:	28800117 	ldw	r2,4(r5)
  801d78:	3190bd04 	addi	r6,r6,17140
  801d7c:	8009883a 	mov	r4,r16
  801d80:	103ee83a 	callr	r2
  801d84:	10bfffe0 	cmpeqi	r2,r2,-1
  801d88:	0085c83a 	sub	r2,zero,r2
  801d8c:	dfc00217 	ldw	ra,8(sp)
  801d90:	dc400117 	ldw	r17,4(sp)
  801d94:	dc000017 	ldw	r16,0(sp)
  801d98:	dec00304 	addi	sp,sp,12
  801d9c:	f800283a 	ret

00801da0 <puts>:
  801da0:	00802034 	movhi	r2,128
  801da4:	10929304 	addi	r2,r2,19020
  801da8:	200b883a 	mov	r5,r4
  801dac:	11000017 	ldw	r4,0(r2)
  801db0:	0801d201 	jmpi	801d20 <_puts_r>

00801db4 <_sbrk_r>:
  801db4:	defffd04 	addi	sp,sp,-12
  801db8:	dc000015 	stw	r16,0(sp)
  801dbc:	04002034 	movhi	r16,128
  801dc0:	dc400115 	stw	r17,4(sp)
  801dc4:	84146d04 	addi	r16,r16,20916
  801dc8:	2023883a 	mov	r17,r4
  801dcc:	2809883a 	mov	r4,r5
  801dd0:	dfc00215 	stw	ra,8(sp)
  801dd4:	80000015 	stw	zero,0(r16)
  801dd8:	08026e80 	call	8026e8 <sbrk>
  801ddc:	00ffffc4 	movi	r3,-1
  801de0:	10c0031e 	bne	r2,r3,801df0 <_sbrk_r+0x3c>
  801de4:	80c00017 	ldw	r3,0(r16)
  801de8:	18000126 	beq	r3,zero,801df0 <_sbrk_r+0x3c>
  801dec:	88c00015 	stw	r3,0(r17)
  801df0:	dfc00217 	ldw	ra,8(sp)
  801df4:	dc400117 	ldw	r17,4(sp)
  801df8:	dc000017 	ldw	r16,0(sp)
  801dfc:	dec00304 	addi	sp,sp,12
  801e00:	f800283a 	ret

00801e04 <strlen>:
  801e04:	2005883a 	mov	r2,r4
  801e08:	10c00007 	ldb	r3,0(r2)
  801e0c:	18000226 	beq	r3,zero,801e18 <strlen+0x14>
  801e10:	10800044 	addi	r2,r2,1
  801e14:	003ffc06 	br	801e08 <__alt_data_end+0xff801e08>
  801e18:	1105c83a 	sub	r2,r2,r4
  801e1c:	f800283a 	ret

00801e20 <print_repeat>:
  801e20:	defffb04 	addi	sp,sp,-20
  801e24:	dc800315 	stw	r18,12(sp)
  801e28:	dc400215 	stw	r17,8(sp)
  801e2c:	dc000115 	stw	r16,4(sp)
  801e30:	dfc00415 	stw	ra,16(sp)
  801e34:	2025883a 	mov	r18,r4
  801e38:	2823883a 	mov	r17,r5
  801e3c:	d9800005 	stb	r6,0(sp)
  801e40:	3821883a 	mov	r16,r7
  801e44:	04000a0e 	bge	zero,r16,801e70 <print_repeat+0x50>
  801e48:	88800117 	ldw	r2,4(r17)
  801e4c:	01c00044 	movi	r7,1
  801e50:	d80d883a 	mov	r6,sp
  801e54:	880b883a 	mov	r5,r17
  801e58:	9009883a 	mov	r4,r18
  801e5c:	103ee83a 	callr	r2
  801e60:	843fffc4 	addi	r16,r16,-1
  801e64:	103ff726 	beq	r2,zero,801e44 <__alt_data_end+0xff801e44>
  801e68:	00bfffc4 	movi	r2,-1
  801e6c:	00000106 	br	801e74 <print_repeat+0x54>
  801e70:	0005883a 	mov	r2,zero
  801e74:	dfc00417 	ldw	ra,16(sp)
  801e78:	dc800317 	ldw	r18,12(sp)
  801e7c:	dc400217 	ldw	r17,8(sp)
  801e80:	dc000117 	ldw	r16,4(sp)
  801e84:	dec00504 	addi	sp,sp,20
  801e88:	f800283a 	ret

00801e8c <___vfprintf_internal_r>:
  801e8c:	deffe504 	addi	sp,sp,-108
  801e90:	d8c00804 	addi	r3,sp,32
  801e94:	ddc01815 	stw	r23,96(sp)
  801e98:	dd801715 	stw	r22,92(sp)
  801e9c:	dd401615 	stw	r21,88(sp)
  801ea0:	dd001515 	stw	r20,84(sp)
  801ea4:	dcc01415 	stw	r19,80(sp)
  801ea8:	dc801315 	stw	r18,76(sp)
  801eac:	dc401215 	stw	r17,72(sp)
  801eb0:	dc001115 	stw	r16,68(sp)
  801eb4:	dfc01a15 	stw	ra,104(sp)
  801eb8:	df001915 	stw	fp,100(sp)
  801ebc:	2029883a 	mov	r20,r4
  801ec0:	2823883a 	mov	r17,r5
  801ec4:	382d883a 	mov	r22,r7
  801ec8:	d9800f15 	stw	r6,60(sp)
  801ecc:	0021883a 	mov	r16,zero
  801ed0:	d8000e15 	stw	zero,56(sp)
  801ed4:	d8000a15 	stw	zero,40(sp)
  801ed8:	002b883a 	mov	r21,zero
  801edc:	0027883a 	mov	r19,zero
  801ee0:	0025883a 	mov	r18,zero
  801ee4:	d8000c15 	stw	zero,48(sp)
  801ee8:	d8000b15 	stw	zero,44(sp)
  801eec:	002f883a 	mov	r23,zero
  801ef0:	d8c00915 	stw	r3,36(sp)
  801ef4:	d8c00f17 	ldw	r3,60(sp)
  801ef8:	19000003 	ldbu	r4,0(r3)
  801efc:	20803fcc 	andi	r2,r4,255
  801f00:	1080201c 	xori	r2,r2,128
  801f04:	10bfe004 	addi	r2,r2,-128
  801f08:	10011e26 	beq	r2,zero,802384 <___vfprintf_internal_r+0x4f8>
  801f0c:	00c00044 	movi	r3,1
  801f10:	b8c01426 	beq	r23,r3,801f64 <___vfprintf_internal_r+0xd8>
  801f14:	1dc00216 	blt	r3,r23,801f20 <___vfprintf_internal_r+0x94>
  801f18:	b8000626 	beq	r23,zero,801f34 <___vfprintf_internal_r+0xa8>
  801f1c:	00011506 	br	802374 <___vfprintf_internal_r+0x4e8>
  801f20:	01400084 	movi	r5,2
  801f24:	b9401d26 	beq	r23,r5,801f9c <___vfprintf_internal_r+0x110>
  801f28:	014000c4 	movi	r5,3
  801f2c:	b9402b26 	beq	r23,r5,801fdc <___vfprintf_internal_r+0x150>
  801f30:	00011006 	br	802374 <___vfprintf_internal_r+0x4e8>
  801f34:	01400944 	movi	r5,37
  801f38:	1140fc26 	beq	r2,r5,80232c <___vfprintf_internal_r+0x4a0>
  801f3c:	88800117 	ldw	r2,4(r17)
  801f40:	d9000005 	stb	r4,0(sp)
  801f44:	01c00044 	movi	r7,1
  801f48:	d80d883a 	mov	r6,sp
  801f4c:	880b883a 	mov	r5,r17
  801f50:	a009883a 	mov	r4,r20
  801f54:	103ee83a 	callr	r2
  801f58:	1000d81e 	bne	r2,zero,8022bc <___vfprintf_internal_r+0x430>
  801f5c:	84000044 	addi	r16,r16,1
  801f60:	00010406 	br	802374 <___vfprintf_internal_r+0x4e8>
  801f64:	01400c04 	movi	r5,48
  801f68:	1140fa26 	beq	r2,r5,802354 <___vfprintf_internal_r+0x4c8>
  801f6c:	01400944 	movi	r5,37
  801f70:	11400a1e 	bne	r2,r5,801f9c <___vfprintf_internal_r+0x110>
  801f74:	d8800005 	stb	r2,0(sp)
  801f78:	88800117 	ldw	r2,4(r17)
  801f7c:	b80f883a 	mov	r7,r23
  801f80:	d80d883a 	mov	r6,sp
  801f84:	880b883a 	mov	r5,r17
  801f88:	a009883a 	mov	r4,r20
  801f8c:	103ee83a 	callr	r2
  801f90:	1000ca1e 	bne	r2,zero,8022bc <___vfprintf_internal_r+0x430>
  801f94:	84000044 	addi	r16,r16,1
  801f98:	0000f506 	br	802370 <___vfprintf_internal_r+0x4e4>
  801f9c:	25fff404 	addi	r23,r4,-48
  801fa0:	bdc03fcc 	andi	r23,r23,255
  801fa4:	00c00244 	movi	r3,9
  801fa8:	1dc00936 	bltu	r3,r23,801fd0 <___vfprintf_internal_r+0x144>
  801fac:	00bfffc4 	movi	r2,-1
  801fb0:	90800426 	beq	r18,r2,801fc4 <___vfprintf_internal_r+0x138>
  801fb4:	01400284 	movi	r5,10
  801fb8:	9009883a 	mov	r4,r18
  801fbc:	08019280 	call	801928 <__mulsi3>
  801fc0:	00000106 	br	801fc8 <___vfprintf_internal_r+0x13c>
  801fc4:	0005883a 	mov	r2,zero
  801fc8:	b8a5883a 	add	r18,r23,r2
  801fcc:	0000e206 	br	802358 <___vfprintf_internal_r+0x4cc>
  801fd0:	01400b84 	movi	r5,46
  801fd4:	1140e426 	beq	r2,r5,802368 <___vfprintf_internal_r+0x4dc>
  801fd8:	05c00084 	movi	r23,2
  801fdc:	213ff404 	addi	r4,r4,-48
  801fe0:	27003fcc 	andi	fp,r4,255
  801fe4:	00c00244 	movi	r3,9
  801fe8:	1f000936 	bltu	r3,fp,802010 <___vfprintf_internal_r+0x184>
  801fec:	00bfffc4 	movi	r2,-1
  801ff0:	98800426 	beq	r19,r2,802004 <___vfprintf_internal_r+0x178>
  801ff4:	01400284 	movi	r5,10
  801ff8:	9809883a 	mov	r4,r19
  801ffc:	08019280 	call	801928 <__mulsi3>
  802000:	00000106 	br	802008 <___vfprintf_internal_r+0x17c>
  802004:	0005883a 	mov	r2,zero
  802008:	e0a7883a 	add	r19,fp,r2
  80200c:	0000d906 	br	802374 <___vfprintf_internal_r+0x4e8>
  802010:	00c01b04 	movi	r3,108
  802014:	10c0d226 	beq	r2,r3,802360 <___vfprintf_internal_r+0x4d4>
  802018:	013fffc4 	movi	r4,-1
  80201c:	99000226 	beq	r19,r4,802028 <___vfprintf_internal_r+0x19c>
  802020:	d8000b15 	stw	zero,44(sp)
  802024:	00000106 	br	80202c <___vfprintf_internal_r+0x1a0>
  802028:	04c00044 	movi	r19,1
  80202c:	01001a44 	movi	r4,105
  802030:	11001626 	beq	r2,r4,80208c <___vfprintf_internal_r+0x200>
  802034:	20800916 	blt	r4,r2,80205c <___vfprintf_internal_r+0x1d0>
  802038:	010018c4 	movi	r4,99
  80203c:	11008826 	beq	r2,r4,802260 <___vfprintf_internal_r+0x3d4>
  802040:	01001904 	movi	r4,100
  802044:	11001126 	beq	r2,r4,80208c <___vfprintf_internal_r+0x200>
  802048:	01001604 	movi	r4,88
  80204c:	1100c81e 	bne	r2,r4,802370 <___vfprintf_internal_r+0x4e4>
  802050:	00c00044 	movi	r3,1
  802054:	d8c00e15 	stw	r3,56(sp)
  802058:	00001506 	br	8020b0 <___vfprintf_internal_r+0x224>
  80205c:	01001cc4 	movi	r4,115
  802060:	11009826 	beq	r2,r4,8022c4 <___vfprintf_internal_r+0x438>
  802064:	20800416 	blt	r4,r2,802078 <___vfprintf_internal_r+0x1ec>
  802068:	01001bc4 	movi	r4,111
  80206c:	1100c01e 	bne	r2,r4,802370 <___vfprintf_internal_r+0x4e4>
  802070:	05400204 	movi	r21,8
  802074:	00000f06 	br	8020b4 <___vfprintf_internal_r+0x228>
  802078:	01001d44 	movi	r4,117
  80207c:	11000d26 	beq	r2,r4,8020b4 <___vfprintf_internal_r+0x228>
  802080:	01001e04 	movi	r4,120
  802084:	11000a26 	beq	r2,r4,8020b0 <___vfprintf_internal_r+0x224>
  802088:	0000b906 	br	802370 <___vfprintf_internal_r+0x4e4>
  80208c:	d8c00a17 	ldw	r3,40(sp)
  802090:	b7000104 	addi	fp,r22,4
  802094:	18000726 	beq	r3,zero,8020b4 <___vfprintf_internal_r+0x228>
  802098:	df000d15 	stw	fp,52(sp)
  80209c:	b5c00017 	ldw	r23,0(r22)
  8020a0:	b800080e 	bge	r23,zero,8020c4 <___vfprintf_internal_r+0x238>
  8020a4:	05efc83a 	sub	r23,zero,r23
  8020a8:	02400044 	movi	r9,1
  8020ac:	00000606 	br	8020c8 <___vfprintf_internal_r+0x23c>
  8020b0:	05400404 	movi	r21,16
  8020b4:	b0c00104 	addi	r3,r22,4
  8020b8:	d8c00d15 	stw	r3,52(sp)
  8020bc:	b5c00017 	ldw	r23,0(r22)
  8020c0:	d8000a15 	stw	zero,40(sp)
  8020c4:	0013883a 	mov	r9,zero
  8020c8:	d839883a 	mov	fp,sp
  8020cc:	b8001726 	beq	r23,zero,80212c <___vfprintf_internal_r+0x2a0>
  8020d0:	a80b883a 	mov	r5,r21
  8020d4:	b809883a 	mov	r4,r23
  8020d8:	da401015 	stw	r9,64(sp)
  8020dc:	080186c0 	call	80186c <__udivsi3>
  8020e0:	a80b883a 	mov	r5,r21
  8020e4:	1009883a 	mov	r4,r2
  8020e8:	102d883a 	mov	r22,r2
  8020ec:	08019280 	call	801928 <__mulsi3>
  8020f0:	b885c83a 	sub	r2,r23,r2
  8020f4:	00c00244 	movi	r3,9
  8020f8:	da401017 	ldw	r9,64(sp)
  8020fc:	18800216 	blt	r3,r2,802108 <___vfprintf_internal_r+0x27c>
  802100:	10800c04 	addi	r2,r2,48
  802104:	00000506 	br	80211c <___vfprintf_internal_r+0x290>
  802108:	d8c00e17 	ldw	r3,56(sp)
  80210c:	18000226 	beq	r3,zero,802118 <___vfprintf_internal_r+0x28c>
  802110:	10800dc4 	addi	r2,r2,55
  802114:	00000106 	br	80211c <___vfprintf_internal_r+0x290>
  802118:	108015c4 	addi	r2,r2,87
  80211c:	e0800005 	stb	r2,0(fp)
  802120:	b02f883a 	mov	r23,r22
  802124:	e7000044 	addi	fp,fp,1
  802128:	003fe806 	br	8020cc <__alt_data_end+0xff8020cc>
  80212c:	e6efc83a 	sub	r23,fp,sp
  802130:	9dc5c83a 	sub	r2,r19,r23
  802134:	0080090e 	bge	zero,r2,80215c <___vfprintf_internal_r+0x2d0>
  802138:	e085883a 	add	r2,fp,r2
  80213c:	01400c04 	movi	r5,48
  802140:	d8c00917 	ldw	r3,36(sp)
  802144:	e009883a 	mov	r4,fp
  802148:	e0c0032e 	bgeu	fp,r3,802158 <___vfprintf_internal_r+0x2cc>
  80214c:	e7000044 	addi	fp,fp,1
  802150:	21400005 	stb	r5,0(r4)
  802154:	e0bffa1e 	bne	fp,r2,802140 <__alt_data_end+0xff802140>
  802158:	e6efc83a 	sub	r23,fp,sp
  80215c:	d8c00b17 	ldw	r3,44(sp)
  802160:	4dd1883a 	add	r8,r9,r23
  802164:	922dc83a 	sub	r22,r18,r8
  802168:	18001626 	beq	r3,zero,8021c4 <___vfprintf_internal_r+0x338>
  80216c:	48000a26 	beq	r9,zero,802198 <___vfprintf_internal_r+0x30c>
  802170:	00800b44 	movi	r2,45
  802174:	d8800805 	stb	r2,32(sp)
  802178:	88800117 	ldw	r2,4(r17)
  80217c:	01c00044 	movi	r7,1
  802180:	d9800804 	addi	r6,sp,32
  802184:	880b883a 	mov	r5,r17
  802188:	a009883a 	mov	r4,r20
  80218c:	103ee83a 	callr	r2
  802190:	10004a1e 	bne	r2,zero,8022bc <___vfprintf_internal_r+0x430>
  802194:	84000044 	addi	r16,r16,1
  802198:	0580070e 	bge	zero,r22,8021b8 <___vfprintf_internal_r+0x32c>
  80219c:	b00f883a 	mov	r7,r22
  8021a0:	01800c04 	movi	r6,48
  8021a4:	880b883a 	mov	r5,r17
  8021a8:	a009883a 	mov	r4,r20
  8021ac:	0801e200 	call	801e20 <print_repeat>
  8021b0:	1000421e 	bne	r2,zero,8022bc <___vfprintf_internal_r+0x430>
  8021b4:	85a1883a 	add	r16,r16,r22
  8021b8:	e02d883a 	mov	r22,fp
  8021bc:	bf2fc83a 	sub	r23,r23,fp
  8021c0:	00002006 	br	802244 <___vfprintf_internal_r+0x3b8>
  8021c4:	0580090e 	bge	zero,r22,8021ec <___vfprintf_internal_r+0x360>
  8021c8:	b00f883a 	mov	r7,r22
  8021cc:	01800804 	movi	r6,32
  8021d0:	880b883a 	mov	r5,r17
  8021d4:	a009883a 	mov	r4,r20
  8021d8:	da401015 	stw	r9,64(sp)
  8021dc:	0801e200 	call	801e20 <print_repeat>
  8021e0:	da401017 	ldw	r9,64(sp)
  8021e4:	1000351e 	bne	r2,zero,8022bc <___vfprintf_internal_r+0x430>
  8021e8:	85a1883a 	add	r16,r16,r22
  8021ec:	483ff226 	beq	r9,zero,8021b8 <__alt_data_end+0xff8021b8>
  8021f0:	00800b44 	movi	r2,45
  8021f4:	d8800805 	stb	r2,32(sp)
  8021f8:	88800117 	ldw	r2,4(r17)
  8021fc:	01c00044 	movi	r7,1
  802200:	d9800804 	addi	r6,sp,32
  802204:	880b883a 	mov	r5,r17
  802208:	a009883a 	mov	r4,r20
  80220c:	103ee83a 	callr	r2
  802210:	10002a1e 	bne	r2,zero,8022bc <___vfprintf_internal_r+0x430>
  802214:	84000044 	addi	r16,r16,1
  802218:	003fe706 	br	8021b8 <__alt_data_end+0xff8021b8>
  80221c:	b5bfffc4 	addi	r22,r22,-1
  802220:	b0800003 	ldbu	r2,0(r22)
  802224:	01c00044 	movi	r7,1
  802228:	d9800804 	addi	r6,sp,32
  80222c:	d8800805 	stb	r2,32(sp)
  802230:	88800117 	ldw	r2,4(r17)
  802234:	880b883a 	mov	r5,r17
  802238:	a009883a 	mov	r4,r20
  80223c:	103ee83a 	callr	r2
  802240:	10001e1e 	bne	r2,zero,8022bc <___vfprintf_internal_r+0x430>
  802244:	8585c83a 	sub	r2,r16,r22
  802248:	b5c9883a 	add	r4,r22,r23
  80224c:	e085883a 	add	r2,fp,r2
  802250:	013ff216 	blt	zero,r4,80221c <__alt_data_end+0xff80221c>
  802254:	1021883a 	mov	r16,r2
  802258:	dd800d17 	ldw	r22,52(sp)
  80225c:	00004406 	br	802370 <___vfprintf_internal_r+0x4e4>
  802260:	00800044 	movi	r2,1
  802264:	1480080e 	bge	r2,r18,802288 <___vfprintf_internal_r+0x3fc>
  802268:	95ffffc4 	addi	r23,r18,-1
  80226c:	b80f883a 	mov	r7,r23
  802270:	01800804 	movi	r6,32
  802274:	880b883a 	mov	r5,r17
  802278:	a009883a 	mov	r4,r20
  80227c:	0801e200 	call	801e20 <print_repeat>
  802280:	10000e1e 	bne	r2,zero,8022bc <___vfprintf_internal_r+0x430>
  802284:	85e1883a 	add	r16,r16,r23
  802288:	b0800017 	ldw	r2,0(r22)
  80228c:	01c00044 	movi	r7,1
  802290:	d80d883a 	mov	r6,sp
  802294:	d8800005 	stb	r2,0(sp)
  802298:	88800117 	ldw	r2,4(r17)
  80229c:	880b883a 	mov	r5,r17
  8022a0:	a009883a 	mov	r4,r20
  8022a4:	b5c00104 	addi	r23,r22,4
  8022a8:	103ee83a 	callr	r2
  8022ac:	1000031e 	bne	r2,zero,8022bc <___vfprintf_internal_r+0x430>
  8022b0:	84000044 	addi	r16,r16,1
  8022b4:	b82d883a 	mov	r22,r23
  8022b8:	00002d06 	br	802370 <___vfprintf_internal_r+0x4e4>
  8022bc:	00bfffc4 	movi	r2,-1
  8022c0:	00003106 	br	802388 <___vfprintf_internal_r+0x4fc>
  8022c4:	b5c00017 	ldw	r23,0(r22)
  8022c8:	b7000104 	addi	fp,r22,4
  8022cc:	b809883a 	mov	r4,r23
  8022d0:	0801e040 	call	801e04 <strlen>
  8022d4:	9091c83a 	sub	r8,r18,r2
  8022d8:	102d883a 	mov	r22,r2
  8022dc:	0200090e 	bge	zero,r8,802304 <___vfprintf_internal_r+0x478>
  8022e0:	400f883a 	mov	r7,r8
  8022e4:	01800804 	movi	r6,32
  8022e8:	880b883a 	mov	r5,r17
  8022ec:	a009883a 	mov	r4,r20
  8022f0:	da001015 	stw	r8,64(sp)
  8022f4:	0801e200 	call	801e20 <print_repeat>
  8022f8:	da001017 	ldw	r8,64(sp)
  8022fc:	103fef1e 	bne	r2,zero,8022bc <__alt_data_end+0xff8022bc>
  802300:	8221883a 	add	r16,r16,r8
  802304:	88800117 	ldw	r2,4(r17)
  802308:	b00f883a 	mov	r7,r22
  80230c:	b80d883a 	mov	r6,r23
  802310:	880b883a 	mov	r5,r17
  802314:	a009883a 	mov	r4,r20
  802318:	103ee83a 	callr	r2
  80231c:	103fe71e 	bne	r2,zero,8022bc <__alt_data_end+0xff8022bc>
  802320:	85a1883a 	add	r16,r16,r22
  802324:	e02d883a 	mov	r22,fp
  802328:	00001106 	br	802370 <___vfprintf_internal_r+0x4e4>
  80232c:	00c00044 	movi	r3,1
  802330:	04ffffc4 	movi	r19,-1
  802334:	d8000e15 	stw	zero,56(sp)
  802338:	d8c00a15 	stw	r3,40(sp)
  80233c:	05400284 	movi	r21,10
  802340:	9825883a 	mov	r18,r19
  802344:	d8000c15 	stw	zero,48(sp)
  802348:	d8000b15 	stw	zero,44(sp)
  80234c:	182f883a 	mov	r23,r3
  802350:	00000806 	br	802374 <___vfprintf_internal_r+0x4e8>
  802354:	ddc00b15 	stw	r23,44(sp)
  802358:	05c00084 	movi	r23,2
  80235c:	00000506 	br	802374 <___vfprintf_internal_r+0x4e8>
  802360:	00c00044 	movi	r3,1
  802364:	d8c00c15 	stw	r3,48(sp)
  802368:	05c000c4 	movi	r23,3
  80236c:	00000106 	br	802374 <___vfprintf_internal_r+0x4e8>
  802370:	002f883a 	mov	r23,zero
  802374:	d8c00f17 	ldw	r3,60(sp)
  802378:	18c00044 	addi	r3,r3,1
  80237c:	d8c00f15 	stw	r3,60(sp)
  802380:	003edc06 	br	801ef4 <__alt_data_end+0xff801ef4>
  802384:	8005883a 	mov	r2,r16
  802388:	dfc01a17 	ldw	ra,104(sp)
  80238c:	df001917 	ldw	fp,100(sp)
  802390:	ddc01817 	ldw	r23,96(sp)
  802394:	dd801717 	ldw	r22,92(sp)
  802398:	dd401617 	ldw	r21,88(sp)
  80239c:	dd001517 	ldw	r20,84(sp)
  8023a0:	dcc01417 	ldw	r19,80(sp)
  8023a4:	dc801317 	ldw	r18,76(sp)
  8023a8:	dc401217 	ldw	r17,72(sp)
  8023ac:	dc001117 	ldw	r16,68(sp)
  8023b0:	dec01b04 	addi	sp,sp,108
  8023b4:	f800283a 	ret

008023b8 <__vfprintf_internal>:
  8023b8:	00802034 	movhi	r2,128
  8023bc:	10929304 	addi	r2,r2,19020
  8023c0:	300f883a 	mov	r7,r6
  8023c4:	280d883a 	mov	r6,r5
  8023c8:	200b883a 	mov	r5,r4
  8023cc:	11000017 	ldw	r4,0(r2)
  8023d0:	0801e8c1 	jmpi	801e8c <___vfprintf_internal_r>

008023d4 <__sfvwrite_small_dev>:
  8023d4:	2880000b 	ldhu	r2,0(r5)
  8023d8:	1080020c 	andi	r2,r2,8
  8023dc:	10002126 	beq	r2,zero,802464 <__sfvwrite_small_dev+0x90>
  8023e0:	2880008f 	ldh	r2,2(r5)
  8023e4:	defffa04 	addi	sp,sp,-24
  8023e8:	dc000015 	stw	r16,0(sp)
  8023ec:	dfc00515 	stw	ra,20(sp)
  8023f0:	dd000415 	stw	r20,16(sp)
  8023f4:	dcc00315 	stw	r19,12(sp)
  8023f8:	dc800215 	stw	r18,8(sp)
  8023fc:	dc400115 	stw	r17,4(sp)
  802400:	2821883a 	mov	r16,r5
  802404:	10001216 	blt	r2,zero,802450 <__sfvwrite_small_dev+0x7c>
  802408:	2027883a 	mov	r19,r4
  80240c:	3025883a 	mov	r18,r6
  802410:	3823883a 	mov	r17,r7
  802414:	05010004 	movi	r20,1024
  802418:	04400b0e 	bge	zero,r17,802448 <__sfvwrite_small_dev+0x74>
  80241c:	880f883a 	mov	r7,r17
  802420:	a440010e 	bge	r20,r17,802428 <__sfvwrite_small_dev+0x54>
  802424:	01c10004 	movi	r7,1024
  802428:	8140008f 	ldh	r5,2(r16)
  80242c:	900d883a 	mov	r6,r18
  802430:	9809883a 	mov	r4,r19
  802434:	08025380 	call	802538 <_write_r>
  802438:	0080050e 	bge	zero,r2,802450 <__sfvwrite_small_dev+0x7c>
  80243c:	88a3c83a 	sub	r17,r17,r2
  802440:	90a5883a 	add	r18,r18,r2
  802444:	003ff406 	br	802418 <__alt_data_end+0xff802418>
  802448:	0005883a 	mov	r2,zero
  80244c:	00000706 	br	80246c <__sfvwrite_small_dev+0x98>
  802450:	8080000b 	ldhu	r2,0(r16)
  802454:	10801014 	ori	r2,r2,64
  802458:	8080000d 	sth	r2,0(r16)
  80245c:	00bfffc4 	movi	r2,-1
  802460:	00000206 	br	80246c <__sfvwrite_small_dev+0x98>
  802464:	00bfffc4 	movi	r2,-1
  802468:	f800283a 	ret
  80246c:	dfc00517 	ldw	ra,20(sp)
  802470:	dd000417 	ldw	r20,16(sp)
  802474:	dcc00317 	ldw	r19,12(sp)
  802478:	dc800217 	ldw	r18,8(sp)
  80247c:	dc400117 	ldw	r17,4(sp)
  802480:	dc000017 	ldw	r16,0(sp)
  802484:	dec00604 	addi	sp,sp,24
  802488:	f800283a 	ret

0080248c <putc>:
  80248c:	defffd04 	addi	sp,sp,-12
  802490:	00802034 	movhi	r2,128
  802494:	dc000115 	stw	r16,4(sp)
  802498:	dfc00215 	stw	ra,8(sp)
  80249c:	1088f504 	addi	r2,r2,9172
  8024a0:	28800115 	stw	r2,4(r5)
  8024a4:	00802034 	movhi	r2,128
  8024a8:	10929304 	addi	r2,r2,19020
  8024ac:	d9000005 	stb	r4,0(sp)
  8024b0:	2021883a 	mov	r16,r4
  8024b4:	11000017 	ldw	r4,0(r2)
  8024b8:	01c00044 	movi	r7,1
  8024bc:	d80d883a 	mov	r6,sp
  8024c0:	08023d40 	call	8023d4 <__sfvwrite_small_dev>
  8024c4:	00ffffc4 	movi	r3,-1
  8024c8:	10c00126 	beq	r2,r3,8024d0 <putc+0x44>
  8024cc:	8005883a 	mov	r2,r16
  8024d0:	dfc00217 	ldw	ra,8(sp)
  8024d4:	dc000117 	ldw	r16,4(sp)
  8024d8:	dec00304 	addi	sp,sp,12
  8024dc:	f800283a 	ret

008024e0 <_putc_r>:
  8024e0:	defffd04 	addi	sp,sp,-12
  8024e4:	00802034 	movhi	r2,128
  8024e8:	dc000115 	stw	r16,4(sp)
  8024ec:	dfc00215 	stw	ra,8(sp)
  8024f0:	1088f504 	addi	r2,r2,9172
  8024f4:	30800115 	stw	r2,4(r6)
  8024f8:	00802034 	movhi	r2,128
  8024fc:	10929304 	addi	r2,r2,19020
  802500:	11000017 	ldw	r4,0(r2)
  802504:	2821883a 	mov	r16,r5
  802508:	01c00044 	movi	r7,1
  80250c:	300b883a 	mov	r5,r6
  802510:	d80d883a 	mov	r6,sp
  802514:	dc000005 	stb	r16,0(sp)
  802518:	08023d40 	call	8023d4 <__sfvwrite_small_dev>
  80251c:	00ffffc4 	movi	r3,-1
  802520:	10c00126 	beq	r2,r3,802528 <_putc_r+0x48>
  802524:	8005883a 	mov	r2,r16
  802528:	dfc00217 	ldw	ra,8(sp)
  80252c:	dc000117 	ldw	r16,4(sp)
  802530:	dec00304 	addi	sp,sp,12
  802534:	f800283a 	ret

00802538 <_write_r>:
  802538:	defffd04 	addi	sp,sp,-12
  80253c:	dc000015 	stw	r16,0(sp)
  802540:	04002034 	movhi	r16,128
  802544:	dc400115 	stw	r17,4(sp)
  802548:	84146d04 	addi	r16,r16,20916
  80254c:	2023883a 	mov	r17,r4
  802550:	2809883a 	mov	r4,r5
  802554:	300b883a 	mov	r5,r6
  802558:	380d883a 	mov	r6,r7
  80255c:	dfc00215 	stw	ra,8(sp)
  802560:	80000015 	stw	zero,0(r16)
  802564:	08027e80 	call	8027e8 <write>
  802568:	00ffffc4 	movi	r3,-1
  80256c:	10c0031e 	bne	r2,r3,80257c <_write_r+0x44>
  802570:	80c00017 	ldw	r3,0(r16)
  802574:	18000126 	beq	r3,zero,80257c <_write_r+0x44>
  802578:	88c00015 	stw	r3,0(r17)
  80257c:	dfc00217 	ldw	ra,8(sp)
  802580:	dc400117 	ldw	r17,4(sp)
  802584:	dc000017 	ldw	r16,0(sp)
  802588:	dec00304 	addi	sp,sp,12
  80258c:	f800283a 	ret

00802590 <alt_load_section>:
 */

static void ALT_INLINE alt_load_section (alt_u32* from, 
                                         alt_u32* to, 
                                         alt_u32* end)
{
  802590:	defffc04 	addi	sp,sp,-16
  802594:	df000315 	stw	fp,12(sp)
  802598:	df000304 	addi	fp,sp,12
  80259c:	e13ffd15 	stw	r4,-12(fp)
  8025a0:	e17ffe15 	stw	r5,-8(fp)
  8025a4:	e1bfff15 	stw	r6,-4(fp)
  if (to != from)
  8025a8:	e0fffe17 	ldw	r3,-8(fp)
  8025ac:	e0bffd17 	ldw	r2,-12(fp)
  8025b0:	18800c26 	beq	r3,r2,8025e4 <alt_load_section+0x54>
  {
    while( to != end )
  8025b4:	00000806 	br	8025d8 <alt_load_section+0x48>
    {
      *to++ = *from++;
  8025b8:	e0bffe17 	ldw	r2,-8(fp)
  8025bc:	10c00104 	addi	r3,r2,4
  8025c0:	e0fffe15 	stw	r3,-8(fp)
  8025c4:	e0fffd17 	ldw	r3,-12(fp)
  8025c8:	19000104 	addi	r4,r3,4
  8025cc:	e13ffd15 	stw	r4,-12(fp)
  8025d0:	18c00017 	ldw	r3,0(r3)
  8025d4:	10c00015 	stw	r3,0(r2)
                                         alt_u32* to, 
                                         alt_u32* end)
{
  if (to != from)
  {
    while( to != end )
  8025d8:	e0fffe17 	ldw	r3,-8(fp)
  8025dc:	e0bfff17 	ldw	r2,-4(fp)
  8025e0:	18bff51e 	bne	r3,r2,8025b8 <__alt_data_end+0xff8025b8>
    {
      *to++ = *from++;
    }
  }
}
  8025e4:	0001883a 	nop
  8025e8:	e037883a 	mov	sp,fp
  8025ec:	df000017 	ldw	fp,0(sp)
  8025f0:	dec00104 	addi	sp,sp,4
  8025f4:	f800283a 	ret

008025f8 <alt_load>:
 * there is no bootloader, so this application is responsible for loading to
 * RAM any sections that are required.
 */  

void alt_load (void)
{
  8025f8:	defffe04 	addi	sp,sp,-8
  8025fc:	dfc00115 	stw	ra,4(sp)
  802600:	df000015 	stw	fp,0(sp)
  802604:	d839883a 	mov	fp,sp
  /* 
   * Copy the .rwdata section. 
   */

  alt_load_section (&__flash_rwdata_start, 
  802608:	01802034 	movhi	r6,128
  80260c:	31929e04 	addi	r6,r6,19064
  802610:	01402034 	movhi	r5,128
  802614:	2950d404 	addi	r5,r5,17232
  802618:	01002034 	movhi	r4,128
  80261c:	21129e04 	addi	r4,r4,19064
  802620:	08025900 	call	802590 <alt_load_section>

  /*
   * Copy the exception handler.
   */

  alt_load_section (&__flash_exceptions_start, 
  802624:	01802034 	movhi	r6,128
  802628:	31808c04 	addi	r6,r6,560
  80262c:	01402034 	movhi	r5,128
  802630:	29400804 	addi	r5,r5,32
  802634:	01002034 	movhi	r4,128
  802638:	21000804 	addi	r4,r4,32
  80263c:	08025900 	call	802590 <alt_load_section>

  /*
   * Copy the .rodata section.
   */

  alt_load_section (&__flash_rodata_start, 
  802640:	01802034 	movhi	r6,128
  802644:	3190d404 	addi	r6,r6,17232
  802648:	01402034 	movhi	r5,128
  80264c:	29509e04 	addi	r5,r5,17016
  802650:	01002034 	movhi	r4,128
  802654:	21109e04 	addi	r4,r4,17016
  802658:	08025900 	call	802590 <alt_load_section>
  
  /*
   * Now ensure that the caches are in synch.
   */
  
  alt_dcache_flush_all();
  80265c:	08034740 	call	803474 <alt_dcache_flush_all>
  alt_icache_flush_all();
  802660:	08036440 	call	803644 <alt_icache_flush_all>
}
  802664:	0001883a 	nop
  802668:	e037883a 	mov	sp,fp
  80266c:	dfc00117 	ldw	ra,4(sp)
  802670:	df000017 	ldw	fp,0(sp)
  802674:	dec00204 	addi	sp,sp,8
  802678:	f800283a 	ret

0080267c <alt_main>:
 * devices/filesystems/components in the system; and call the entry point for
 * the users application, i.e. main().
 */

void alt_main (void)
{
  80267c:	defffd04 	addi	sp,sp,-12
  802680:	dfc00215 	stw	ra,8(sp)
  802684:	df000115 	stw	fp,4(sp)
  802688:	df000104 	addi	fp,sp,4
#endif

  /* ALT LOG - please see HAL/sys/alt_log_printf.h for details */
  ALT_LOG_PRINT_BOOT("[alt_main.c] Entering alt_main, calling alt_irq_init.\r\n");
  /* Initialize the interrupt controller. */
  alt_irq_init (NULL);
  80268c:	0009883a 	mov	r4,zero
  802690:	08029200 	call	802920 <alt_irq_init>

  /* Initialize the operating system */
  ALT_LOG_PRINT_BOOT("[alt_main.c] Done alt_irq_init, calling alt_os_init.\r\n");
  ALT_OS_INIT();
  802694:	0001883a 	nop
  ALT_LOG_PRINT_BOOT("[alt_main.c] Done OS Init, calling alt_sem_create.\r\n");
  ALT_SEM_CREATE (&alt_fd_list_lock, 1);

  /* Initialize the device drivers/software components. */
  ALT_LOG_PRINT_BOOT("[alt_main.c] Calling alt_sys_init.\r\n");
  alt_sys_init();
  802698:	08029580 	call	802958 <alt_sys_init>
   * devices be present (not equal to /dev/null) and if direct drivers
   * aren't being used.
   */

    ALT_LOG_PRINT_BOOT("[alt_main.c] Redirecting IO.\r\n");
    alt_io_redirect(ALT_STDOUT, ALT_STDIN, ALT_STDERR);
  80269c:	01802034 	movhi	r6,128
  8026a0:	3190be04 	addi	r6,r6,17144
  8026a4:	01402034 	movhi	r5,128
  8026a8:	2950be04 	addi	r5,r5,17144
  8026ac:	01002034 	movhi	r4,128
  8026b0:	2110be04 	addi	r4,r4,17144
  8026b4:	0803a180 	call	803a18 <alt_io_redirect>
  ALT_LOG_PRINT_BOOT("[alt_main.c] Calling main.\r\n");

#ifdef ALT_NO_EXIT
  main (alt_argc, alt_argv, alt_envp);
#else
  result = main (alt_argc, alt_argv, alt_envp);
  8026b8:	d0a1de17 	ldw	r2,-30856(gp)
  8026bc:	d0e1df17 	ldw	r3,-30852(gp)
  8026c0:	d121e017 	ldw	r4,-30848(gp)
  8026c4:	200d883a 	mov	r6,r4
  8026c8:	180b883a 	mov	r5,r3
  8026cc:	1009883a 	mov	r4,r2
  8026d0:	080026c0 	call	80026c <main>
  8026d4:	e0bfff15 	stw	r2,-4(fp)
  close(STDOUT_FILENO);
  8026d8:	01000044 	movi	r4,1
  8026dc:	080339c0 	call	80339c <close>
  exit (result);
  8026e0:	e13fff17 	ldw	r4,-4(fp)
  8026e4:	08040640 	call	804064 <exit>

008026e8 <sbrk>:
#endif
 
caddr_t ALT_SBRK (int incr) __attribute__ ((no_instrument_function ));

caddr_t ALT_SBRK (int incr)
{ 
  8026e8:	defff904 	addi	sp,sp,-28
  8026ec:	df000615 	stw	fp,24(sp)
  8026f0:	df000604 	addi	fp,sp,24
  8026f4:	e13fff15 	stw	r4,-4(fp)
static ALT_INLINE alt_irq_context ALT_ALWAYS_INLINE 
       alt_irq_disable_all (void)
{
  alt_irq_context context;

  NIOS2_READ_STATUS (context);
  8026f8:	0005303a 	rdctl	r2,status
  8026fc:	e0bffe15 	stw	r2,-8(fp)

  NIOS2_WRITE_STATUS (context & ~NIOS2_STATUS_PIE_MSK);
  802700:	e0fffe17 	ldw	r3,-8(fp)
  802704:	00bfff84 	movi	r2,-2
  802708:	1884703a 	and	r2,r3,r2
  80270c:	1001703a 	wrctl	status,r2
  
  return context;
  802710:	e0bffe17 	ldw	r2,-8(fp)
  alt_irq_context context;
  char *prev_heap_end; 

  context = alt_irq_disable_all();
  802714:	e0bffb15 	stw	r2,-20(fp)

  /* Always return data aligned on a word boundary */
  heap_end = (char *)(((unsigned int)heap_end + 3) & ~3);
  802718:	d0a00417 	ldw	r2,-32752(gp)
  80271c:	10c000c4 	addi	r3,r2,3
  802720:	00bfff04 	movi	r2,-4
  802724:	1884703a 	and	r2,r3,r2
  802728:	d0a00415 	stw	r2,-32752(gp)
  if (((heap_end + incr) - __alt_heap_start) > ALT_MAX_HEAP_BYTES) {
    alt_irq_enable_all(context);
    return (caddr_t)-1;
  }
#else
  if ((heap_end + incr) > __alt_heap_limit) {
  80272c:	d0e00417 	ldw	r3,-32752(gp)
  802730:	e0bfff17 	ldw	r2,-4(fp)
  802734:	1887883a 	add	r3,r3,r2
  802738:	00804034 	movhi	r2,256
  80273c:	10800004 	addi	r2,r2,0
  802740:	10c0062e 	bgeu	r2,r3,80275c <sbrk+0x74>
  802744:	e0bffb17 	ldw	r2,-20(fp)
  802748:	e0bffa15 	stw	r2,-24(fp)
  status &= ~NIOS2_STATUS_PIE_MSK;
  status |= (context & NIOS2_STATUS_PIE_MSK);
  
  NIOS2_WRITE_STATUS (status);
#else
  NIOS2_WRITE_STATUS (context);
  80274c:	e0bffa17 	ldw	r2,-24(fp)
  802750:	1001703a 	wrctl	status,r2
    alt_irq_enable_all(context);
    return (caddr_t)-1;
  802754:	00bfffc4 	movi	r2,-1
  802758:	00000b06 	br	802788 <sbrk+0xa0>
  }
#endif

  prev_heap_end = heap_end; 
  80275c:	d0a00417 	ldw	r2,-32752(gp)
  802760:	e0bffd15 	stw	r2,-12(fp)
  heap_end += incr; 
  802764:	d0e00417 	ldw	r3,-32752(gp)
  802768:	e0bfff17 	ldw	r2,-4(fp)
  80276c:	1885883a 	add	r2,r3,r2
  802770:	d0a00415 	stw	r2,-32752(gp)
  802774:	e0bffb17 	ldw	r2,-20(fp)
  802778:	e0bffc15 	stw	r2,-16(fp)
  80277c:	e0bffc17 	ldw	r2,-16(fp)
  802780:	1001703a 	wrctl	status,r2

#endif

  alt_irq_enable_all(context);

  return (caddr_t) prev_heap_end; 
  802784:	e0bffd17 	ldw	r2,-12(fp)
} 
  802788:	e037883a 	mov	sp,fp
  80278c:	df000017 	ldw	fp,0(sp)
  802790:	dec00104 	addi	sp,sp,4
  802794:	f800283a 	ret

00802798 <alt_get_errno>:
#undef errno

extern int errno;

static ALT_INLINE int* alt_get_errno(void)
{
  802798:	defffe04 	addi	sp,sp,-8
  80279c:	dfc00115 	stw	ra,4(sp)
  8027a0:	df000015 	stw	fp,0(sp)
  8027a4:	d839883a 	mov	fp,sp
  return ((alt_errno) ? alt_errno() : &errno);
  8027a8:	00802034 	movhi	r2,128
  8027ac:	10929c04 	addi	r2,r2,19056
  8027b0:	10800017 	ldw	r2,0(r2)
  8027b4:	10000526 	beq	r2,zero,8027cc <alt_get_errno+0x34>
  8027b8:	00802034 	movhi	r2,128
  8027bc:	10929c04 	addi	r2,r2,19056
  8027c0:	10800017 	ldw	r2,0(r2)
  8027c4:	103ee83a 	callr	r2
  8027c8:	00000206 	br	8027d4 <alt_get_errno+0x3c>
  8027cc:	00802034 	movhi	r2,128
  8027d0:	10946d04 	addi	r2,r2,20916
}
  8027d4:	e037883a 	mov	sp,fp
  8027d8:	dfc00117 	ldw	ra,4(sp)
  8027dc:	df000017 	ldw	fp,0(sp)
  8027e0:	dec00204 	addi	sp,sp,8
  8027e4:	f800283a 	ret

008027e8 <write>:
}

#else /* !ALT_USE_DIRECT_DRIVERS */

int ALT_WRITE (int file, const void *ptr, size_t len)
{
  8027e8:	defff904 	addi	sp,sp,-28
  8027ec:	dfc00615 	stw	ra,24(sp)
  8027f0:	df000515 	stw	fp,20(sp)
  8027f4:	df000504 	addi	fp,sp,20
  8027f8:	e13ffd15 	stw	r4,-12(fp)
  8027fc:	e17ffe15 	stw	r5,-8(fp)
  802800:	e1bfff15 	stw	r6,-4(fp)
   * A common error case is that when the file descriptor was created, the call
   * to open() failed resulting in a negative file descriptor. This is trapped
   * below so that we don't try and process an invalid file descriptor.
   */

  fd = (file < 0) ? NULL : &alt_fd_list[file];
  802804:	e0bffd17 	ldw	r2,-12(fp)
  802808:	10000816 	blt	r2,zero,80282c <write+0x44>
  80280c:	01400304 	movi	r5,12
  802810:	e13ffd17 	ldw	r4,-12(fp)
  802814:	08019280 	call	801928 <__mulsi3>
  802818:	1007883a 	mov	r3,r2
  80281c:	00802034 	movhi	r2,128
  802820:	10923004 	addi	r2,r2,18624
  802824:	1885883a 	add	r2,r3,r2
  802828:	00000106 	br	802830 <write+0x48>
  80282c:	0005883a 	mov	r2,zero
  802830:	e0bffb15 	stw	r2,-20(fp)
  
  if (fd)
  802834:	e0bffb17 	ldw	r2,-20(fp)
  802838:	10002126 	beq	r2,zero,8028c0 <write+0xd8>
     * If the file has not been opened with write access, or if the driver does
     * not provide an implementation of write(), generate an error. Otherwise
     * call the drivers write() function to process the request.
     */

    if (((fd->fd_flags & O_ACCMODE) != O_RDONLY) && fd->dev->write)
  80283c:	e0bffb17 	ldw	r2,-20(fp)
  802840:	10800217 	ldw	r2,8(r2)
  802844:	108000cc 	andi	r2,r2,3
  802848:	10001826 	beq	r2,zero,8028ac <write+0xc4>
  80284c:	e0bffb17 	ldw	r2,-20(fp)
  802850:	10800017 	ldw	r2,0(r2)
  802854:	10800617 	ldw	r2,24(r2)
  802858:	10001426 	beq	r2,zero,8028ac <write+0xc4>
    {
      
      /* ALT_LOG - see altera_hal/HAL/inc/sys/alt_log_printf.h */
      ALT_LOG_WRITE_FUNCTION(ptr,len);

      if ((rval = fd->dev->write(fd, ptr, len)) < 0)
  80285c:	e0bffb17 	ldw	r2,-20(fp)
  802860:	10800017 	ldw	r2,0(r2)
  802864:	10800617 	ldw	r2,24(r2)
  802868:	e0ffff17 	ldw	r3,-4(fp)
  80286c:	180d883a 	mov	r6,r3
  802870:	e17ffe17 	ldw	r5,-8(fp)
  802874:	e13ffb17 	ldw	r4,-20(fp)
  802878:	103ee83a 	callr	r2
  80287c:	e0bffc15 	stw	r2,-16(fp)
  802880:	e0bffc17 	ldw	r2,-16(fp)
  802884:	1000070e 	bge	r2,zero,8028a4 <write+0xbc>
      {
        ALT_ERRNO = -rval;
  802888:	08027980 	call	802798 <alt_get_errno>
  80288c:	1007883a 	mov	r3,r2
  802890:	e0bffc17 	ldw	r2,-16(fp)
  802894:	0085c83a 	sub	r2,zero,r2
  802898:	18800015 	stw	r2,0(r3)
        return -1;
  80289c:	00bfffc4 	movi	r2,-1
  8028a0:	00000c06 	br	8028d4 <write+0xec>
      }
      return rval;
  8028a4:	e0bffc17 	ldw	r2,-16(fp)
  8028a8:	00000a06 	br	8028d4 <write+0xec>
    }
    else
    {
      ALT_ERRNO = EACCES;
  8028ac:	08027980 	call	802798 <alt_get_errno>
  8028b0:	1007883a 	mov	r3,r2
  8028b4:	00800344 	movi	r2,13
  8028b8:	18800015 	stw	r2,0(r3)
  8028bc:	00000406 	br	8028d0 <write+0xe8>
    }
  }
  else  
  {
    ALT_ERRNO = EBADFD;
  8028c0:	08027980 	call	802798 <alt_get_errno>
  8028c4:	1007883a 	mov	r3,r2
  8028c8:	00801444 	movi	r2,81
  8028cc:	18800015 	stw	r2,0(r3)
  }
  return -1;
  8028d0:	00bfffc4 	movi	r2,-1
}
  8028d4:	e037883a 	mov	sp,fp
  8028d8:	dfc00117 	ldw	ra,4(sp)
  8028dc:	df000017 	ldw	fp,0(sp)
  8028e0:	dec00204 	addi	sp,sp,8
  8028e4:	f800283a 	ret

008028e8 <alt_dev_reg>:
 */

extern int alt_fs_reg  (alt_dev* dev); 

static ALT_INLINE int alt_dev_reg (alt_dev* dev)
{
  8028e8:	defffd04 	addi	sp,sp,-12
  8028ec:	dfc00215 	stw	ra,8(sp)
  8028f0:	df000115 	stw	fp,4(sp)
  8028f4:	df000104 	addi	fp,sp,4
  8028f8:	e13fff15 	stw	r4,-4(fp)
  extern alt_llist alt_dev_list;

  return alt_dev_llist_insert ((alt_dev_llist*) dev, &alt_dev_list);
  8028fc:	01402034 	movhi	r5,128
  802900:	29529904 	addi	r5,r5,19044
  802904:	e13fff17 	ldw	r4,-4(fp)
  802908:	08035100 	call	803510 <alt_dev_llist_insert>
}
  80290c:	e037883a 	mov	sp,fp
  802910:	dfc00117 	ldw	ra,4(sp)
  802914:	df000017 	ldw	fp,0(sp)
  802918:	dec00204 	addi	sp,sp,8
  80291c:	f800283a 	ret

00802920 <alt_irq_init>:
 * The "base" parameter is ignored and only
 * present for backwards-compatibility.
 */

void alt_irq_init ( const void* base )
{
  802920:	defffd04 	addi	sp,sp,-12
  802924:	dfc00215 	stw	ra,8(sp)
  802928:	df000115 	stw	fp,4(sp)
  80292c:	df000104 	addi	fp,sp,4
  802930:	e13fff15 	stw	r4,-4(fp)
    ALTERA_NIOS2_GEN2_IRQ_INIT ( NIOS2_CPU, Nios2_CPU);
  802934:	0803dbc0 	call	803dbc <altera_nios2_gen2_irq_init>
 * alt_irq_cpu_enable_interrupts() enables the CPU to start taking interrupts.
 */
static ALT_INLINE void ALT_ALWAYS_INLINE 
       alt_irq_cpu_enable_interrupts (void)
{
    NIOS2_WRITE_STATUS(NIOS2_STATUS_PIE_MSK
  802938:	00800044 	movi	r2,1
  80293c:	1001703a 	wrctl	status,r2
    alt_irq_cpu_enable_interrupts();
}
  802940:	0001883a 	nop
  802944:	e037883a 	mov	sp,fp
  802948:	dfc00117 	ldw	ra,4(sp)
  80294c:	df000017 	ldw	fp,0(sp)
  802950:	dec00204 	addi	sp,sp,8
  802954:	f800283a 	ret

00802958 <alt_sys_init>:
 * Initialize the non-interrupt controller devices.
 * Called after alt_irq_init().
 */

void alt_sys_init( void )
{
  802958:	defffe04 	addi	sp,sp,-8
  80295c:	dfc00115 	stw	ra,4(sp)
  802960:	df000015 	stw	fp,0(sp)
  802964:	d839883a 	mov	fp,sp
    ALTERA_AVALON_JTAG_UART_INIT ( JTAG_UART_0, jtag_uart_0);
  802968:	01002034 	movhi	r4,128
  80296c:	21120c04 	addi	r4,r4,18480
  802970:	08028e80 	call	8028e8 <alt_dev_reg>
    ALTERA_AVALON_SPI_INIT ( ACCELEROMETER_SPI, accelerometer_spi);
  802974:	0001883a 	nop
    ALTERA_MODULAR_ADC_INIT ( MODULAR_ADC_0, modular_adc_0);
  802978:	01bfffc4 	movi	r6,-1
  80297c:	017fffc4 	movi	r5,-1
  802980:	01002034 	movhi	r4,128
  802984:	21121704 	addi	r4,r4,18524
  802988:	0802f340 	call	802f34 <altera_modular_adc_init>
}
  80298c:	0001883a 	nop
  802990:	e037883a 	mov	sp,fp
  802994:	dfc00117 	ldw	ra,4(sp)
  802998:	df000017 	ldw	fp,0(sp)
  80299c:	dec00204 	addi	sp,sp,8
  8029a0:	f800283a 	ret

008029a4 <altera_avalon_jtag_uart_read_fd>:
 *
 */

int 
altera_avalon_jtag_uart_read_fd(alt_fd* fd, char* buffer, int space)
{
  8029a4:	defffa04 	addi	sp,sp,-24
  8029a8:	dfc00515 	stw	ra,20(sp)
  8029ac:	df000415 	stw	fp,16(sp)
  8029b0:	df000404 	addi	fp,sp,16
  8029b4:	e13ffd15 	stw	r4,-12(fp)
  8029b8:	e17ffe15 	stw	r5,-8(fp)
  8029bc:	e1bfff15 	stw	r6,-4(fp)
    altera_avalon_jtag_uart_dev* dev = (altera_avalon_jtag_uart_dev*) fd->dev; 
  8029c0:	e0bffd17 	ldw	r2,-12(fp)
  8029c4:	10800017 	ldw	r2,0(r2)
  8029c8:	e0bffc15 	stw	r2,-16(fp)

    return altera_avalon_jtag_uart_read(&dev->state, buffer, space,
  8029cc:	e0bffc17 	ldw	r2,-16(fp)
  8029d0:	10c00a04 	addi	r3,r2,40
  8029d4:	e0bffd17 	ldw	r2,-12(fp)
  8029d8:	10800217 	ldw	r2,8(r2)
  8029dc:	100f883a 	mov	r7,r2
  8029e0:	e1bfff17 	ldw	r6,-4(fp)
  8029e4:	e17ffe17 	ldw	r5,-8(fp)
  8029e8:	1809883a 	mov	r4,r3
  8029ec:	0802a640 	call	802a64 <altera_avalon_jtag_uart_read>
      fd->fd_flags);
}
  8029f0:	e037883a 	mov	sp,fp
  8029f4:	dfc00117 	ldw	ra,4(sp)
  8029f8:	df000017 	ldw	fp,0(sp)
  8029fc:	dec00204 	addi	sp,sp,8
  802a00:	f800283a 	ret

00802a04 <altera_avalon_jtag_uart_write_fd>:

int 
altera_avalon_jtag_uart_write_fd(alt_fd* fd, const char* buffer, int space)
{
  802a04:	defffa04 	addi	sp,sp,-24
  802a08:	dfc00515 	stw	ra,20(sp)
  802a0c:	df000415 	stw	fp,16(sp)
  802a10:	df000404 	addi	fp,sp,16
  802a14:	e13ffd15 	stw	r4,-12(fp)
  802a18:	e17ffe15 	stw	r5,-8(fp)
  802a1c:	e1bfff15 	stw	r6,-4(fp)
    altera_avalon_jtag_uart_dev* dev = (altera_avalon_jtag_uart_dev*) fd->dev; 
  802a20:	e0bffd17 	ldw	r2,-12(fp)
  802a24:	10800017 	ldw	r2,0(r2)
  802a28:	e0bffc15 	stw	r2,-16(fp)

    return altera_avalon_jtag_uart_write(&dev->state, buffer, space,
  802a2c:	e0bffc17 	ldw	r2,-16(fp)
  802a30:	10c00a04 	addi	r3,r2,40
  802a34:	e0bffd17 	ldw	r2,-12(fp)
  802a38:	10800217 	ldw	r2,8(r2)
  802a3c:	100f883a 	mov	r7,r2
  802a40:	e1bfff17 	ldw	r6,-4(fp)
  802a44:	e17ffe17 	ldw	r5,-8(fp)
  802a48:	1809883a 	mov	r4,r3
  802a4c:	0802b500 	call	802b50 <altera_avalon_jtag_uart_write>
      fd->fd_flags);
}
  802a50:	e037883a 	mov	sp,fp
  802a54:	dfc00117 	ldw	ra,4(sp)
  802a58:	df000017 	ldw	fp,0(sp)
  802a5c:	dec00204 	addi	sp,sp,8
  802a60:	f800283a 	ret

00802a64 <altera_avalon_jtag_uart_read>:
 */

int 
altera_avalon_jtag_uart_read(altera_avalon_jtag_uart_state* sp, 
  char* buffer, int space, int flags)
{
  802a64:	defff704 	addi	sp,sp,-36
  802a68:	df000815 	stw	fp,32(sp)
  802a6c:	df000804 	addi	fp,sp,32
  802a70:	e13ffc15 	stw	r4,-16(fp)
  802a74:	e17ffd15 	stw	r5,-12(fp)
  802a78:	e1bffe15 	stw	r6,-8(fp)
  802a7c:	e1ffff15 	stw	r7,-4(fp)
  unsigned int base = sp->base;
  802a80:	e0bffc17 	ldw	r2,-16(fp)
  802a84:	10800017 	ldw	r2,0(r2)
  802a88:	e0bff915 	stw	r2,-28(fp)

  char * ptr = buffer;
  802a8c:	e0bffd17 	ldw	r2,-12(fp)
  802a90:	e0bff815 	stw	r2,-32(fp)
  char * end = buffer + space;
  802a94:	e0bffe17 	ldw	r2,-8(fp)
  802a98:	e0fffd17 	ldw	r3,-12(fp)
  802a9c:	1885883a 	add	r2,r3,r2
  802aa0:	e0bffa15 	stw	r2,-24(fp)

  while (ptr < end)
  802aa4:	00001206 	br	802af0 <altera_avalon_jtag_uart_read+0x8c>
  {
    unsigned int data = IORD_ALTERA_AVALON_JTAG_UART_DATA(base);
  802aa8:	e0bff917 	ldw	r2,-28(fp)
  802aac:	10800037 	ldwio	r2,0(r2)
  802ab0:	e0bffb15 	stw	r2,-20(fp)

    if (data & ALTERA_AVALON_JTAG_UART_DATA_RVALID_MSK)
  802ab4:	e0bffb17 	ldw	r2,-20(fp)
  802ab8:	10a0000c 	andi	r2,r2,32768
  802abc:	10000626 	beq	r2,zero,802ad8 <altera_avalon_jtag_uart_read+0x74>
      *ptr++ = (data & ALTERA_AVALON_JTAG_UART_DATA_DATA_MSK) >> ALTERA_AVALON_JTAG_UART_DATA_DATA_OFST;
  802ac0:	e0bff817 	ldw	r2,-32(fp)
  802ac4:	10c00044 	addi	r3,r2,1
  802ac8:	e0fff815 	stw	r3,-32(fp)
  802acc:	e0fffb17 	ldw	r3,-20(fp)
  802ad0:	10c00005 	stb	r3,0(r2)
  802ad4:	00000606 	br	802af0 <altera_avalon_jtag_uart_read+0x8c>
    else if (ptr != buffer)
  802ad8:	e0fff817 	ldw	r3,-32(fp)
  802adc:	e0bffd17 	ldw	r2,-12(fp)
  802ae0:	1880071e 	bne	r3,r2,802b00 <altera_avalon_jtag_uart_read+0x9c>
      break;
    else if(flags & O_NONBLOCK)
  802ae4:	e0bfff17 	ldw	r2,-4(fp)
  802ae8:	1090000c 	andi	r2,r2,16384
  802aec:	1000061e 	bne	r2,zero,802b08 <altera_avalon_jtag_uart_read+0xa4>
  unsigned int base = sp->base;

  char * ptr = buffer;
  char * end = buffer + space;

  while (ptr < end)
  802af0:	e0fff817 	ldw	r3,-32(fp)
  802af4:	e0bffa17 	ldw	r2,-24(fp)
  802af8:	18bfeb36 	bltu	r3,r2,802aa8 <__alt_data_end+0xff802aa8>
  802afc:	00000306 	br	802b0c <altera_avalon_jtag_uart_read+0xa8>
    unsigned int data = IORD_ALTERA_AVALON_JTAG_UART_DATA(base);

    if (data & ALTERA_AVALON_JTAG_UART_DATA_RVALID_MSK)
      *ptr++ = (data & ALTERA_AVALON_JTAG_UART_DATA_DATA_MSK) >> ALTERA_AVALON_JTAG_UART_DATA_DATA_OFST;
    else if (ptr != buffer)
      break;
  802b00:	0001883a 	nop
  802b04:	00000106 	br	802b0c <altera_avalon_jtag_uart_read+0xa8>
    else if(flags & O_NONBLOCK)
      break;   
  802b08:	0001883a 	nop
    
  }

  if (ptr != buffer)
  802b0c:	e0fff817 	ldw	r3,-32(fp)
  802b10:	e0bffd17 	ldw	r2,-12(fp)
  802b14:	18800426 	beq	r3,r2,802b28 <altera_avalon_jtag_uart_read+0xc4>
    return ptr - buffer;
  802b18:	e0fff817 	ldw	r3,-32(fp)
  802b1c:	e0bffd17 	ldw	r2,-12(fp)
  802b20:	1885c83a 	sub	r2,r3,r2
  802b24:	00000606 	br	802b40 <altera_avalon_jtag_uart_read+0xdc>
  else if (flags & O_NONBLOCK)
  802b28:	e0bfff17 	ldw	r2,-4(fp)
  802b2c:	1090000c 	andi	r2,r2,16384
  802b30:	10000226 	beq	r2,zero,802b3c <altera_avalon_jtag_uart_read+0xd8>
    return -EWOULDBLOCK;
  802b34:	00bffd44 	movi	r2,-11
  802b38:	00000106 	br	802b40 <altera_avalon_jtag_uart_read+0xdc>
  else
    return -EIO;
  802b3c:	00bffec4 	movi	r2,-5
}
  802b40:	e037883a 	mov	sp,fp
  802b44:	df000017 	ldw	fp,0(sp)
  802b48:	dec00104 	addi	sp,sp,4
  802b4c:	f800283a 	ret

00802b50 <altera_avalon_jtag_uart_write>:
 * one FIFOs worth of data.  But you said you didn't want to use interrupts :-)
 */

int altera_avalon_jtag_uart_write(altera_avalon_jtag_uart_state* sp, 
  const char * ptr, int count, int flags)
{
  802b50:	defff904 	addi	sp,sp,-28
  802b54:	df000615 	stw	fp,24(sp)
  802b58:	df000604 	addi	fp,sp,24
  802b5c:	e13ffc15 	stw	r4,-16(fp)
  802b60:	e17ffd15 	stw	r5,-12(fp)
  802b64:	e1bffe15 	stw	r6,-8(fp)
  802b68:	e1ffff15 	stw	r7,-4(fp)
  unsigned int base = sp->base;
  802b6c:	e0bffc17 	ldw	r2,-16(fp)
  802b70:	10800017 	ldw	r2,0(r2)
  802b74:	e0bffa15 	stw	r2,-24(fp)

  const char * end = ptr + count;
  802b78:	e0bffe17 	ldw	r2,-8(fp)
  802b7c:	e0fffd17 	ldw	r3,-12(fp)
  802b80:	1885883a 	add	r2,r3,r2
  802b84:	e0bffb15 	stw	r2,-20(fp)

  while (ptr < end)
  802b88:	00000e06 	br	802bc4 <altera_avalon_jtag_uart_write+0x74>
    if ((IORD_ALTERA_AVALON_JTAG_UART_CONTROL(base) & ALTERA_AVALON_JTAG_UART_CONTROL_WSPACE_MSK) != 0)
  802b8c:	e0bffa17 	ldw	r2,-24(fp)
  802b90:	10800104 	addi	r2,r2,4
  802b94:	10800037 	ldwio	r2,0(r2)
  802b98:	10bfffec 	andhi	r2,r2,65535
  802b9c:	10000926 	beq	r2,zero,802bc4 <altera_avalon_jtag_uart_write+0x74>
      IOWR_ALTERA_AVALON_JTAG_UART_DATA(base, *ptr++);
  802ba0:	e0fffa17 	ldw	r3,-24(fp)
  802ba4:	e0bffd17 	ldw	r2,-12(fp)
  802ba8:	11000044 	addi	r4,r2,1
  802bac:	e13ffd15 	stw	r4,-12(fp)
  802bb0:	10800003 	ldbu	r2,0(r2)
  802bb4:	10803fcc 	andi	r2,r2,255
  802bb8:	1080201c 	xori	r2,r2,128
  802bbc:	10bfe004 	addi	r2,r2,-128
  802bc0:	18800035 	stwio	r2,0(r3)
{
  unsigned int base = sp->base;

  const char * end = ptr + count;

  while (ptr < end)
  802bc4:	e0fffd17 	ldw	r3,-12(fp)
  802bc8:	e0bffb17 	ldw	r2,-20(fp)
  802bcc:	18bfef36 	bltu	r3,r2,802b8c <__alt_data_end+0xff802b8c>
    if ((IORD_ALTERA_AVALON_JTAG_UART_CONTROL(base) & ALTERA_AVALON_JTAG_UART_CONTROL_WSPACE_MSK) != 0)
      IOWR_ALTERA_AVALON_JTAG_UART_DATA(base, *ptr++);

  return count;
  802bd0:	e0bffe17 	ldw	r2,-8(fp)
}
  802bd4:	e037883a 	mov	sp,fp
  802bd8:	df000017 	ldw	fp,0(sp)
  802bdc:	dec00104 	addi	sp,sp,4
  802be0:	f800283a 	ret

00802be4 <alt_avalon_spi_command>:

int alt_avalon_spi_command(alt_u32 base, alt_u32 slave,
                           alt_u32 write_length, const alt_u8 * write_data,
                           alt_u32 read_length, alt_u8 * read_data,
                           alt_u32 flags)
{
  802be4:	defff404 	addi	sp,sp,-48
  802be8:	df000b15 	stw	fp,44(sp)
  802bec:	df000b04 	addi	fp,sp,44
  802bf0:	e13ffc15 	stw	r4,-16(fp)
  802bf4:	e17ffd15 	stw	r5,-12(fp)
  802bf8:	e1bffe15 	stw	r6,-8(fp)
  802bfc:	e1ffff15 	stw	r7,-4(fp)
  const alt_u8 * write_end = write_data + write_length;
  802c00:	e0ffff17 	ldw	r3,-4(fp)
  802c04:	e0bffe17 	ldw	r2,-8(fp)
  802c08:	1885883a 	add	r2,r3,r2
  802c0c:	e0bff815 	stw	r2,-32(fp)
  alt_u8 * read_end = read_data + read_length;
  802c10:	e0c00217 	ldw	r3,8(fp)
  802c14:	e0800117 	ldw	r2,4(fp)
  802c18:	1885883a 	add	r2,r3,r2
  802c1c:	e0bff915 	stw	r2,-28(fp)

  alt_u32 write_zeros = read_length;
  802c20:	e0800117 	ldw	r2,4(fp)
  802c24:	e0bff515 	stw	r2,-44(fp)
  alt_u32 read_ignore = write_length;
  802c28:	e0bffe17 	ldw	r2,-8(fp)
  802c2c:	e0bff615 	stw	r2,-40(fp)

  /* We must not send more than two bytes to the target before it has
   * returned any as otherwise it will overflow. */
  /* Unfortunately the hardware does not seem to work with credits > 1,
   * leave it at 1 for now. */
  alt_32 credits = 1;
  802c30:	00800044 	movi	r2,1
  802c34:	e0bff715 	stw	r2,-36(fp)
  /* Warning: this function is not currently safe if called in a multi-threaded
   * environment, something above must perform locking to make it safe if more
   * than one thread intends to use it.
   */

  IOWR_ALTERA_AVALON_SPI_SLAVE_SEL(base, 1 << slave);
  802c38:	e0bffc17 	ldw	r2,-16(fp)
  802c3c:	10800504 	addi	r2,r2,20
  802c40:	1009883a 	mov	r4,r2
  802c44:	00c00044 	movi	r3,1
  802c48:	e0bffd17 	ldw	r2,-12(fp)
  802c4c:	1884983a 	sll	r2,r3,r2
  802c50:	20800035 	stwio	r2,0(r4)
  
  /* Set the SSO bit (force chipselect) only if the toggle flag is not set */
  if ((flags & ALT_AVALON_SPI_COMMAND_TOGGLE_SS_N) == 0) {
  802c54:	e0800317 	ldw	r2,12(fp)
  802c58:	1080008c 	andi	r2,r2,2
  802c5c:	1000051e 	bne	r2,zero,802c74 <alt_avalon_spi_command+0x90>
    IOWR_ALTERA_AVALON_SPI_CONTROL(base, ALTERA_AVALON_SPI_CONTROL_SSO_MSK);
  802c60:	e0bffc17 	ldw	r2,-16(fp)
  802c64:	10800304 	addi	r2,r2,12
  802c68:	1007883a 	mov	r3,r2
  802c6c:	00810004 	movi	r2,1024
  802c70:	18800035 	stwio	r2,0(r3)
  /*
   * Discard any stale data present in the RXDATA register, in case
   * previous communication was interrupted and stale data was left
   * behind.
   */
  IORD_ALTERA_AVALON_SPI_RXDATA(base);
  802c74:	e0bffc17 	ldw	r2,-16(fp)
  802c78:	10800037 	ldwio	r2,0(r2)
  for ( ; ; )
  {
    
    do
    {
      status = IORD_ALTERA_AVALON_SPI_STATUS(base);
  802c7c:	e0bffc17 	ldw	r2,-16(fp)
  802c80:	10800204 	addi	r2,r2,8
  802c84:	10800037 	ldwio	r2,0(r2)
  802c88:	e0bffa15 	stw	r2,-24(fp)
    }
    while (((status & ALTERA_AVALON_SPI_STATUS_TRDY_MSK) == 0 || credits == 0) &&
  802c8c:	e0bffa17 	ldw	r2,-24(fp)
  802c90:	1080100c 	andi	r2,r2,64
            (status & ALTERA_AVALON_SPI_STATUS_RRDY_MSK) == 0);
  802c94:	10000226 	beq	r2,zero,802ca0 <alt_avalon_spi_command+0xbc>
    
    do
    {
      status = IORD_ALTERA_AVALON_SPI_STATUS(base);
    }
    while (((status & ALTERA_AVALON_SPI_STATUS_TRDY_MSK) == 0 || credits == 0) &&
  802c98:	e0bff717 	ldw	r2,-36(fp)
  802c9c:	1000031e 	bne	r2,zero,802cac <alt_avalon_spi_command+0xc8>
            (status & ALTERA_AVALON_SPI_STATUS_RRDY_MSK) == 0);
  802ca0:	e0bffa17 	ldw	r2,-24(fp)
  802ca4:	1080200c 	andi	r2,r2,128
    
    do
    {
      status = IORD_ALTERA_AVALON_SPI_STATUS(base);
    }
    while (((status & ALTERA_AVALON_SPI_STATUS_TRDY_MSK) == 0 || credits == 0) &&
  802ca8:	103ff426 	beq	r2,zero,802c7c <__alt_data_end+0xff802c7c>
            (status & ALTERA_AVALON_SPI_STATUS_RRDY_MSK) == 0);

    if ((status & ALTERA_AVALON_SPI_STATUS_TRDY_MSK) != 0 && credits > 0)
  802cac:	e0bffa17 	ldw	r2,-24(fp)
  802cb0:	1080100c 	andi	r2,r2,64
  802cb4:	10001e26 	beq	r2,zero,802d30 <alt_avalon_spi_command+0x14c>
  802cb8:	e0bff717 	ldw	r2,-36(fp)
  802cbc:	00801c0e 	bge	zero,r2,802d30 <alt_avalon_spi_command+0x14c>
    {
      credits--;
  802cc0:	e0bff717 	ldw	r2,-36(fp)
  802cc4:	10bfffc4 	addi	r2,r2,-1
  802cc8:	e0bff715 	stw	r2,-36(fp)

      if (write_data < write_end)
  802ccc:	e0ffff17 	ldw	r3,-4(fp)
  802cd0:	e0bff817 	ldw	r2,-32(fp)
  802cd4:	18800a2e 	bgeu	r3,r2,802d00 <alt_avalon_spi_command+0x11c>
        IOWR_ALTERA_AVALON_SPI_TXDATA(base, *write_data++);
  802cd8:	e0bffc17 	ldw	r2,-16(fp)
  802cdc:	10800104 	addi	r2,r2,4
  802ce0:	1009883a 	mov	r4,r2
  802ce4:	e0bfff17 	ldw	r2,-4(fp)
  802ce8:	10c00044 	addi	r3,r2,1
  802cec:	e0ffff15 	stw	r3,-4(fp)
  802cf0:	10800003 	ldbu	r2,0(r2)
  802cf4:	10803fcc 	andi	r2,r2,255
  802cf8:	20800035 	stwio	r2,0(r4)
  802cfc:	00000c06 	br	802d30 <alt_avalon_spi_command+0x14c>
      else if (write_zeros > 0)
  802d00:	e0bff517 	ldw	r2,-44(fp)
  802d04:	10000826 	beq	r2,zero,802d28 <alt_avalon_spi_command+0x144>
      {
        write_zeros--;
  802d08:	e0bff517 	ldw	r2,-44(fp)
  802d0c:	10bfffc4 	addi	r2,r2,-1
  802d10:	e0bff515 	stw	r2,-44(fp)
        IOWR_ALTERA_AVALON_SPI_TXDATA(base, 0);
  802d14:	e0bffc17 	ldw	r2,-16(fp)
  802d18:	10800104 	addi	r2,r2,4
  802d1c:	0007883a 	mov	r3,zero
  802d20:	10c00035 	stwio	r3,0(r2)
  802d24:	00000206 	br	802d30 <alt_avalon_spi_command+0x14c>
      }
      else
        credits = -1024;
  802d28:	00bf0004 	movi	r2,-1024
  802d2c:	e0bff715 	stw	r2,-36(fp)
    };

    if ((status & ALTERA_AVALON_SPI_STATUS_RRDY_MSK) != 0)
  802d30:	e0bffa17 	ldw	r2,-24(fp)
  802d34:	1080200c 	andi	r2,r2,128
  802d38:	103fd026 	beq	r2,zero,802c7c <__alt_data_end+0xff802c7c>
    {
      alt_u32 rxdata = IORD_ALTERA_AVALON_SPI_RXDATA(base);
  802d3c:	e0bffc17 	ldw	r2,-16(fp)
  802d40:	10800037 	ldwio	r2,0(r2)
  802d44:	e0bffb15 	stw	r2,-20(fp)

      if (read_ignore > 0)
  802d48:	e0bff617 	ldw	r2,-40(fp)
  802d4c:	10000426 	beq	r2,zero,802d60 <alt_avalon_spi_command+0x17c>
        read_ignore--;
  802d50:	e0bff617 	ldw	r2,-40(fp)
  802d54:	10bfffc4 	addi	r2,r2,-1
  802d58:	e0bff615 	stw	r2,-40(fp)
  802d5c:	00000506 	br	802d74 <alt_avalon_spi_command+0x190>
      else
        *read_data++ = (alt_u8)rxdata;
  802d60:	e0800217 	ldw	r2,8(fp)
  802d64:	10c00044 	addi	r3,r2,1
  802d68:	e0c00215 	stw	r3,8(fp)
  802d6c:	e0fffb17 	ldw	r3,-20(fp)
  802d70:	10c00005 	stb	r3,0(r2)
      credits++;
  802d74:	e0bff717 	ldw	r2,-36(fp)
  802d78:	10800044 	addi	r2,r2,1
  802d7c:	e0bff715 	stw	r2,-36(fp)

      if (read_ignore == 0 && read_data == read_end)
  802d80:	e0bff617 	ldw	r2,-40(fp)
  802d84:	103fbd1e 	bne	r2,zero,802c7c <__alt_data_end+0xff802c7c>
  802d88:	e0c00217 	ldw	r3,8(fp)
  802d8c:	e0bff917 	ldw	r2,-28(fp)
  802d90:	18bfba1e 	bne	r3,r2,802c7c <__alt_data_end+0xff802c7c>
  }

  /* Wait until the interface has finished transmitting */
  do
  {
    status = IORD_ALTERA_AVALON_SPI_STATUS(base);
  802d94:	e0bffc17 	ldw	r2,-16(fp)
  802d98:	10800204 	addi	r2,r2,8
  802d9c:	10800037 	ldwio	r2,0(r2)
  802da0:	e0bffa15 	stw	r2,-24(fp)
  }
  while ((status & ALTERA_AVALON_SPI_STATUS_TMT_MSK) == 0);
  802da4:	e0bffa17 	ldw	r2,-24(fp)
  802da8:	1080080c 	andi	r2,r2,32
  802dac:	103ff926 	beq	r2,zero,802d94 <__alt_data_end+0xff802d94>

  /* Clear SSO (release chipselect) unless the caller is going to
   * keep using this chip
   */
  if ((flags & ALT_AVALON_SPI_COMMAND_MERGE) == 0)
  802db0:	e0800317 	ldw	r2,12(fp)
  802db4:	1080004c 	andi	r2,r2,1
  802db8:	1000041e 	bne	r2,zero,802dcc <alt_avalon_spi_command+0x1e8>
    IOWR_ALTERA_AVALON_SPI_CONTROL(base, 0);
  802dbc:	e0bffc17 	ldw	r2,-16(fp)
  802dc0:	10800304 	addi	r2,r2,12
  802dc4:	0007883a 	mov	r3,zero
  802dc8:	10c00035 	stwio	r3,0(r2)

  return read_length;
  802dcc:	e0800117 	ldw	r2,4(fp)
}
  802dd0:	e037883a 	mov	sp,fp
  802dd4:	df000017 	ldw	fp,0(sp)
  802dd8:	dec00104 	addi	sp,sp,4
  802ddc:	f800283a 	ret

00802de0 <alt_adc_irq>:
 * alt_adc_irq()
 *
 * Interrupt handler for the altera modular adc.
 */
static void alt_adc_irq(void *context)
{
  802de0:	defff904 	addi	sp,sp,-28
  802de4:	dfc00615 	stw	ra,24(sp)
  802de8:	df000515 	stw	fp,20(sp)
  802dec:	df000504 	addi	fp,sp,20
  802df0:	e13fff15 	stw	r4,-4(fp)
    alt_modular_adc_dev *dev = (alt_modular_adc_dev *) context;
  802df4:	e0bfff17 	ldw	r2,-4(fp)
  802df8:	e0bffb15 	stw	r2,-20(fp)
    alt_irq_context cpu_sr = 0;
  802dfc:	e03ffc15 	stw	zero,-16(fp)

	if(NULL != dev)
  802e00:	e0bffb17 	ldw	r2,-20(fp)
  802e04:	10001a26 	beq	r2,zero,802e70 <alt_adc_irq+0x90>
static ALT_INLINE alt_irq_context ALT_ALWAYS_INLINE 
       alt_irq_disable_all (void)
{
  alt_irq_context context;

  NIOS2_READ_STATUS (context);
  802e08:	0005303a 	rdctl	r2,status
  802e0c:	e0bffe15 	stw	r2,-8(fp)

  NIOS2_WRITE_STATUS (context & ~NIOS2_STATUS_PIE_MSK);
  802e10:	e0fffe17 	ldw	r3,-8(fp)
  802e14:	00bfff84 	movi	r2,-2
  802e18:	1884703a 	and	r2,r3,r2
  802e1c:	1001703a 	wrctl	status,r2
  
  return context;
  802e20:	e0bffe17 	ldw	r2,-8(fp)
	{
	    cpu_sr = alt_irq_disable_all();
  802e24:	e0bffc15 	stw	r2,-16(fp)
		* Other interrupts are explicitly disabled if callbacks
		* are registered because there is no guarantee that they are 
		* pre-emption-safe. This allows the driver to support 
		* interrupt pre-emption.
		*/
		if(dev->callback) 
  802e28:	e0bffb17 	ldw	r2,-20(fp)
  802e2c:	10800a17 	ldw	r2,40(r2)
  802e30:	10000626 	beq	r2,zero,802e4c <alt_adc_irq+0x6c>
		{
			dev->callback (dev->callback_context);
  802e34:	e0bffb17 	ldw	r2,-20(fp)
  802e38:	10800a17 	ldw	r2,40(r2)
  802e3c:	e0fffb17 	ldw	r3,-20(fp)
  802e40:	18c00b17 	ldw	r3,44(r3)
  802e44:	1809883a 	mov	r4,r3
  802e48:	103ee83a 	callr	r2
		}
    
		/* clear the IRQ status */
		adc_clear_interrupt_status(dev->sample_store_base);
  802e4c:	e0bffb17 	ldw	r2,-20(fp)
  802e50:	10800c17 	ldw	r2,48(r2)
  802e54:	1009883a 	mov	r4,r2
  802e58:	080328c0 	call	80328c <adc_clear_interrupt_status>
  802e5c:	e0bffc17 	ldw	r2,-16(fp)
  802e60:	e0bffd15 	stw	r2,-12(fp)
  status &= ~NIOS2_STATUS_PIE_MSK;
  status |= (context & NIOS2_STATUS_PIE_MSK);
  
  NIOS2_WRITE_STATUS (status);
#else
  NIOS2_WRITE_STATUS (context);
  802e64:	e0bffd17 	ldw	r2,-12(fp)
  802e68:	1001703a 	wrctl	status,r2
	    
		alt_irq_enable_all(cpu_sr);
	}
	
    return;
  802e6c:	0001883a 	nop
  802e70:	0001883a 	nop
}
  802e74:	e037883a 	mov	sp,fp
  802e78:	dfc00117 	ldw	ra,4(sp)
  802e7c:	df000017 	ldw	fp,0(sp)
  802e80:	dec00204 	addi	sp,sp,8
  802e84:	f800283a 	ret

00802e88 <alt_adc_word_read>:
 * Returns:
 * 0 -> success
 * -EINVAL -> Invalid arguments
**/
int alt_adc_word_read (alt_u32 sample_store_base, alt_u32* dest_ptr, alt_u32 len)
{
  802e88:	defff804 	addi	sp,sp,-32
  802e8c:	df000715 	stw	fp,28(sp)
  802e90:	df000704 	addi	fp,sp,28
  802e94:	e13ffd15 	stw	r4,-12(fp)
  802e98:	e17ffe15 	stw	r5,-8(fp)
  802e9c:	e1bfff15 	stw	r6,-4(fp)
    alt_u32 word = 0;
  802ea0:	e03ff915 	stw	zero,-28(fp)
    alt_u32 word_length = len;
  802ea4:	e0bfff17 	ldw	r2,-4(fp)
  802ea8:	e0bffb15 	stw	r2,-20(fp)
    alt_u32* dest_buf = dest_ptr;
  802eac:	e0bffe17 	ldw	r2,-8(fp)
  802eb0:	e0bffa15 	stw	r2,-24(fp)
    alt_u32 base = sample_store_base;
  802eb4:	e0bffd17 	ldw	r2,-12(fp)
  802eb8:	e0bffc15 	stw	r2,-16(fp)
     
    /* return -EINVAL if invalid arguments passed into function */
    if(NULL == dest_buf)
  802ebc:	e0bffa17 	ldw	r2,-24(fp)
  802ec0:	1000021e 	bne	r2,zero,802ecc <alt_adc_word_read+0x44>
    {
    	return -EINVAL;
  802ec4:	00bffa84 	movi	r2,-22
  802ec8:	00001606 	br	802f24 <alt_adc_word_read+0x9c>
    }

    for(word = 0; word < word_length; word++)
  802ecc:	e03ff915 	stw	zero,-28(fp)
  802ed0:	00001006 	br	802f14 <alt_adc_word_read+0x8c>
    {
       *dest_buf = IORD_32DIRECT((base + (word * 4)),0);
  802ed4:	e0bff917 	ldw	r2,-28(fp)
  802ed8:	1085883a 	add	r2,r2,r2
  802edc:	1085883a 	add	r2,r2,r2
  802ee0:	1007883a 	mov	r3,r2
  802ee4:	e0bffc17 	ldw	r2,-16(fp)
  802ee8:	1885883a 	add	r2,r3,r2
  802eec:	10800037 	ldwio	r2,0(r2)
  802ef0:	1007883a 	mov	r3,r2
  802ef4:	e0bffa17 	ldw	r2,-24(fp)
  802ef8:	10c00015 	stw	r3,0(r2)

       dest_buf++;
  802efc:	e0bffa17 	ldw	r2,-24(fp)
  802f00:	10800104 	addi	r2,r2,4
  802f04:	e0bffa15 	stw	r2,-24(fp)
    if(NULL == dest_buf)
    {
    	return -EINVAL;
    }

    for(word = 0; word < word_length; word++)
  802f08:	e0bff917 	ldw	r2,-28(fp)
  802f0c:	10800044 	addi	r2,r2,1
  802f10:	e0bff915 	stw	r2,-28(fp)
  802f14:	e0fff917 	ldw	r3,-28(fp)
  802f18:	e0bffb17 	ldw	r2,-20(fp)
  802f1c:	18bfed36 	bltu	r3,r2,802ed4 <__alt_data_end+0xff802ed4>
       *dest_buf = IORD_32DIRECT((base + (word * 4)),0);

       dest_buf++;
    }

    return 0;
  802f20:	0005883a 	mov	r2,zero

}
  802f24:	e037883a 	mov	sp,fp
  802f28:	df000017 	ldw	fp,0(sp)
  802f2c:	dec00104 	addi	sp,sp,4
  802f30:	f800283a 	ret

00802f34 <altera_modular_adc_init>:


void altera_modular_adc_init(alt_modular_adc_dev* dev, alt_32 ic_id, alt_32 irq)
{
  802f34:	defffa04 	addi	sp,sp,-24
  802f38:	dfc00515 	stw	ra,20(sp)
  802f3c:	df000415 	stw	fp,16(sp)
  802f40:	df000404 	addi	fp,sp,16
  802f44:	e13ffd15 	stw	r4,-12(fp)
  802f48:	e17ffe15 	stw	r5,-8(fp)
  802f4c:	e1bfff15 	stw	r6,-4(fp)
    extern alt_llist altera_modular_adc_list;
    alt_dev_llist_insert((alt_dev_llist*) dev, &altera_modular_adc_list);
  802f50:	d1600504 	addi	r5,gp,-32748
  802f54:	e13ffd17 	ldw	r4,-12(fp)
  802f58:	08035100 	call	803510 <alt_dev_llist_insert>
	
	if ((0 <= ic_id) && (0 <= irq))
  802f5c:	e0bffe17 	ldw	r2,-8(fp)
  802f60:	10000b16 	blt	r2,zero,802f90 <altera_modular_adc_init+0x5c>
  802f64:	e0bfff17 	ldw	r2,-4(fp)
  802f68:	10000916 	blt	r2,zero,802f90 <altera_modular_adc_init+0x5c>
	{
          /* Install IRQ handler */
	  #ifdef ALT_ENHANCED_INTERRUPT_API_PRESENT
              alt_ic_isr_register(ic_id, irq, alt_adc_irq, 
  802f6c:	e0bffe17 	ldw	r2,-8(fp)
  802f70:	e0ffff17 	ldw	r3,-4(fp)
  802f74:	d8000015 	stw	zero,0(sp)
  802f78:	e1fffd17 	ldw	r7,-12(fp)
  802f7c:	01802034 	movhi	r6,128
  802f80:	318b7804 	addi	r6,r6,11744
  802f84:	180b883a 	mov	r5,r3
  802f88:	1009883a 	mov	r4,r2
  802f8c:	08036640 	call	803664 <alt_ic_isr_register>
                      dev, NULL);
          #else
             alt_irq_register(irq, dev, alt_adc_irq);
          #endif 
	}
}
  802f90:	0001883a 	nop
  802f94:	e037883a 	mov	sp,fp
  802f98:	dfc00117 	ldw	ra,4(sp)
  802f9c:	df000017 	ldw	fp,0(sp)
  802fa0:	dec00204 	addi	sp,sp,8
  802fa4:	f800283a 	ret

00802fa8 <alt_adc_register_callback>:
void alt_adc_register_callback(
	alt_modular_adc_dev *dev,
	alt_adc_callback callback,
	void *context,
	alt_u32 sample_store_base)
{
  802fa8:	defffa04 	addi	sp,sp,-24
  802fac:	dfc00515 	stw	ra,20(sp)
  802fb0:	df000415 	stw	fp,16(sp)
  802fb4:	df000404 	addi	fp,sp,16
  802fb8:	e13ffc15 	stw	r4,-16(fp)
  802fbc:	e17ffd15 	stw	r5,-12(fp)
  802fc0:	e1bffe15 	stw	r6,-8(fp)
  802fc4:	e1ffff15 	stw	r7,-4(fp)
    dev->callback         = callback;
  802fc8:	e0bffc17 	ldw	r2,-16(fp)
  802fcc:	e0fffd17 	ldw	r3,-12(fp)
  802fd0:	10c00a15 	stw	r3,40(r2)
    dev->callback_context = context;
  802fd4:	e0bffc17 	ldw	r2,-16(fp)
  802fd8:	e0fffe17 	ldw	r3,-8(fp)
  802fdc:	10c00b15 	stw	r3,44(r2)
    dev->sample_store_base = sample_store_base;
  802fe0:	e0bffc17 	ldw	r2,-16(fp)
  802fe4:	e0ffff17 	ldw	r3,-4(fp)
  802fe8:	10c00c15 	stw	r3,48(r2)
	
	if(NULL != callback)
  802fec:	e0bffd17 	ldw	r2,-12(fp)
  802ff0:	10000726 	beq	r2,zero,803010 <alt_adc_register_callback+0x68>
	{
                adc_clear_interrupt_status(sample_store_base);
  802ff4:	e0bfff17 	ldw	r2,-4(fp)
  802ff8:	1009883a 	mov	r4,r2
  802ffc:	080328c0 	call	80328c <adc_clear_interrupt_status>
		adc_interrupt_enable(sample_store_base);
  803000:	e0bfff17 	ldw	r2,-4(fp)
  803004:	1009883a 	mov	r4,r2
  803008:	08032000 	call	803200 <adc_interrupt_enable>
                adc_clear_interrupt_status(sample_store_base);
	}
	
    
	
    return ;
  80300c:	00000706 	br	80302c <alt_adc_register_callback+0x84>
                adc_clear_interrupt_status(sample_store_base);
		adc_interrupt_enable(sample_store_base);
	}
	else
	{
		adc_interrupt_disable(sample_store_base);
  803010:	e0bfff17 	ldw	r2,-4(fp)
  803014:	1009883a 	mov	r4,r2
  803018:	08032440 	call	803244 <adc_interrupt_disable>
                adc_clear_interrupt_status(sample_store_base);
  80301c:	e0bfff17 	ldw	r2,-4(fp)
  803020:	1009883a 	mov	r4,r2
  803024:	080328c0 	call	80328c <adc_clear_interrupt_status>
	}
	
    
	
    return ;
  803028:	0001883a 	nop
}
  80302c:	e037883a 	mov	sp,fp
  803030:	dfc00117 	ldw	ra,4(sp)
  803034:	df000017 	ldw	fp,0(sp)
  803038:	dec00204 	addi	sp,sp,8
  80303c:	f800283a 	ret

00803040 <altera_modular_adc_open>:

alt_modular_adc_dev* altera_modular_adc_open (const char *name)
{
  803040:	defffc04 	addi	sp,sp,-16
  803044:	dfc00315 	stw	ra,12(sp)
  803048:	df000215 	stw	fp,8(sp)
  80304c:	df000204 	addi	fp,sp,8
  803050:	e13fff15 	stw	r4,-4(fp)
    alt_modular_adc_dev *dev = NULL;
  803054:	e03ffe15 	stw	zero,-8(fp)

    /* Find requested device */
    dev = (alt_modular_adc_dev*) alt_find_dev (name, &altera_modular_adc_list);
  803058:	d1600504 	addi	r5,gp,-32748
  80305c:	e13fff17 	ldw	r4,-4(fp)
  803060:	08035b40 	call	8035b4 <alt_find_dev>
  803064:	e0bffe15 	stw	r2,-8(fp)

    return dev;
  803068:	e0bffe17 	ldw	r2,-8(fp)
}
  80306c:	e037883a 	mov	sp,fp
  803070:	dfc00117 	ldw	ra,4(sp)
  803074:	df000017 	ldw	fp,0(sp)
  803078:	dec00204 	addi	sp,sp,8
  80307c:	f800283a 	ret

00803080 <adc_stop>:

void adc_stop(int sequencer_base)
{
  803080:	defffe04 	addi	sp,sp,-8
  803084:	df000115 	stw	fp,4(sp)
  803088:	df000104 	addi	fp,sp,4
  80308c:	e13fff15 	stw	r4,-4(fp)
    ALTERA_MODULAR_ADC_SEQUENCER_STOP(sequencer_base);
  803090:	e0bfff17 	ldw	r2,-4(fp)
  803094:	e0ffff17 	ldw	r3,-4(fp)
  803098:	19000037 	ldwio	r4,0(r3)
  80309c:	00ffff84 	movi	r3,-2
  8030a0:	20c6703a 	and	r3,r4,r3
  8030a4:	10c00035 	stwio	r3,0(r2)
  8030a8:	0001883a 	nop
  8030ac:	e0bfff17 	ldw	r2,-4(fp)
  8030b0:	10800037 	ldwio	r2,0(r2)
  8030b4:	1080004c 	andi	r2,r2,1
  8030b8:	103ffc1e 	bne	r2,zero,8030ac <__alt_data_end+0xff8030ac>
}
  8030bc:	0001883a 	nop
  8030c0:	e037883a 	mov	sp,fp
  8030c4:	df000017 	ldw	fp,0(sp)
  8030c8:	dec00104 	addi	sp,sp,4
  8030cc:	f800283a 	ret

008030d0 <adc_start>:

void adc_start(int sequencer_base)
{
  8030d0:	defffe04 	addi	sp,sp,-8
  8030d4:	df000115 	stw	fp,4(sp)
  8030d8:	df000104 	addi	fp,sp,4
  8030dc:	e13fff15 	stw	r4,-4(fp)
    ALTERA_MODULAR_ADC_SEQUENCER_START(sequencer_base);
  8030e0:	e0bfff17 	ldw	r2,-4(fp)
  8030e4:	e0ffff17 	ldw	r3,-4(fp)
  8030e8:	18c00037 	ldwio	r3,0(r3)
  8030ec:	18c00054 	ori	r3,r3,1
  8030f0:	10c00035 	stwio	r3,0(r2)
}
  8030f4:	0001883a 	nop
  8030f8:	e037883a 	mov	sp,fp
  8030fc:	df000017 	ldw	fp,0(sp)
  803100:	dec00104 	addi	sp,sp,4
  803104:	f800283a 	ret

00803108 <adc_set_mode_run_once>:

void adc_set_mode_run_once(int sequencer_base)
{
  803108:	defffe04 	addi	sp,sp,-8
  80310c:	df000115 	stw	fp,4(sp)
  803110:	df000104 	addi	fp,sp,4
  803114:	e13fff15 	stw	r4,-4(fp)
    /* Note: Stop the ADC before calling this function,
       changing ADC mode while RUN bit is set has no effect. */
    ALTERA_MODULAR_ADC_SEQUENCER_MODE_RUN_ONCE(sequencer_base);
  803118:	e0bfff17 	ldw	r2,-4(fp)
  80311c:	e0ffff17 	ldw	r3,-4(fp)
  803120:	19000037 	ldwio	r4,0(r3)
  803124:	00fffc44 	movi	r3,-15
  803128:	20c6703a 	and	r3,r4,r3
  80312c:	18c00094 	ori	r3,r3,2
  803130:	10c00035 	stwio	r3,0(r2)
}
  803134:	0001883a 	nop
  803138:	e037883a 	mov	sp,fp
  80313c:	df000017 	ldw	fp,0(sp)
  803140:	dec00104 	addi	sp,sp,4
  803144:	f800283a 	ret

00803148 <adc_set_mode_run_continuously>:

void adc_set_mode_run_continuously(int sequencer_base)
{
  803148:	defffe04 	addi	sp,sp,-8
  80314c:	df000115 	stw	fp,4(sp)
  803150:	df000104 	addi	fp,sp,4
  803154:	e13fff15 	stw	r4,-4(fp)
    /* Note: Stop the ADC before calling this function,
       changing ADC mode while RUN bit is set has no effect. */
    ALTERA_MODULAR_ADC_SEQUENCER_MODE_RUN_CONTINUOUSLY(sequencer_base);
  803158:	e0bfff17 	ldw	r2,-4(fp)
  80315c:	e0ffff17 	ldw	r3,-4(fp)
  803160:	19000037 	ldwio	r4,0(r3)
  803164:	00fffc44 	movi	r3,-15
  803168:	20c6703a 	and	r3,r4,r3
  80316c:	10c00035 	stwio	r3,0(r2)
}
  803170:	0001883a 	nop
  803174:	e037883a 	mov	sp,fp
  803178:	df000017 	ldw	fp,0(sp)
  80317c:	dec00104 	addi	sp,sp,4
  803180:	f800283a 	ret

00803184 <adc_recalibrate>:

void adc_recalibrate(int sequencer_base)
{
  803184:	defffc04 	addi	sp,sp,-16
  803188:	dfc00315 	stw	ra,12(sp)
  80318c:	df000215 	stw	fp,8(sp)
  803190:	df000204 	addi	fp,sp,8
  803194:	e13fff15 	stw	r4,-4(fp)
         2. Start the ADC Sequencer Core.
         5. Poll for RUN bit to be clear
         6. Restore CMD register
     */
    alt_u32 backup_cmd_reg;
    backup_cmd_reg = IORD_ALTERA_MODULAR_ADC_SEQUENCER_CMD_REG(sequencer_base);
  803198:	e0bfff17 	ldw	r2,-4(fp)
  80319c:	10800037 	ldwio	r2,0(r2)
  8031a0:	e0bffe15 	stw	r2,-8(fp)
    adc_stop(sequencer_base);
  8031a4:	e13fff17 	ldw	r4,-4(fp)
  8031a8:	08030800 	call	803080 <adc_stop>
    ALTERA_MODULAR_ADC_SEQUENCER_MODE_RUN_RECALIBRATION(sequencer_base);
  8031ac:	e0bfff17 	ldw	r2,-4(fp)
  8031b0:	e0ffff17 	ldw	r3,-4(fp)
  8031b4:	18c00037 	ldwio	r3,0(r3)
  8031b8:	18c00394 	ori	r3,r3,14
  8031bc:	10c00035 	stwio	r3,0(r2)
    adc_start(sequencer_base);
  8031c0:	e13fff17 	ldw	r4,-4(fp)
  8031c4:	08030d00 	call	8030d0 <adc_start>
    while(IORD_ALTERA_MODULAR_ADC_SEQUENCER_CMD_REG(sequencer_base)
  8031c8:	0001883a 	nop
  8031cc:	e0bfff17 	ldw	r2,-4(fp)
  8031d0:	10800037 	ldwio	r2,0(r2)
             & ALTERA_MODULAR_ADC_SEQUENCER_CMD_RUN_MSK);
  8031d4:	1080004c 	andi	r2,r2,1
    alt_u32 backup_cmd_reg;
    backup_cmd_reg = IORD_ALTERA_MODULAR_ADC_SEQUENCER_CMD_REG(sequencer_base);
    adc_stop(sequencer_base);
    ALTERA_MODULAR_ADC_SEQUENCER_MODE_RUN_RECALIBRATION(sequencer_base);
    adc_start(sequencer_base);
    while(IORD_ALTERA_MODULAR_ADC_SEQUENCER_CMD_REG(sequencer_base)
  8031d8:	103ffc1e 	bne	r2,zero,8031cc <__alt_data_end+0xff8031cc>
             & ALTERA_MODULAR_ADC_SEQUENCER_CMD_RUN_MSK);
    IOWR_ALTERA_MODULAR_ADC_SEQUENCER_CMD_REG(sequencer_base, backup_cmd_reg);
  8031dc:	e0bfff17 	ldw	r2,-4(fp)
  8031e0:	e0fffe17 	ldw	r3,-8(fp)
  8031e4:	10c00035 	stwio	r3,0(r2)
}
  8031e8:	0001883a 	nop
  8031ec:	e037883a 	mov	sp,fp
  8031f0:	dfc00117 	ldw	ra,4(sp)
  8031f4:	df000017 	ldw	fp,0(sp)
  8031f8:	dec00204 	addi	sp,sp,8
  8031fc:	f800283a 	ret

00803200 <adc_interrupt_enable>:

void adc_interrupt_enable(int sample_store_base)
{
  803200:	defffe04 	addi	sp,sp,-8
  803204:	df000115 	stw	fp,4(sp)
  803208:	df000104 	addi	fp,sp,4
  80320c:	e13fff15 	stw	r4,-4(fp)
    ALTERA_MODULAR_ADC_SAMPLE_STORAGE_IRQ_ENABLE(sample_store_base);
  803210:	e0bfff17 	ldw	r2,-4(fp)
  803214:	10804004 	addi	r2,r2,256
  803218:	1007883a 	mov	r3,r2
  80321c:	e0bfff17 	ldw	r2,-4(fp)
  803220:	10804004 	addi	r2,r2,256
  803224:	10800037 	ldwio	r2,0(r2)
  803228:	10800054 	ori	r2,r2,1
  80322c:	18800035 	stwio	r2,0(r3)
}
  803230:	0001883a 	nop
  803234:	e037883a 	mov	sp,fp
  803238:	df000017 	ldw	fp,0(sp)
  80323c:	dec00104 	addi	sp,sp,4
  803240:	f800283a 	ret

00803244 <adc_interrupt_disable>:

void adc_interrupt_disable(int sample_store_base)
{
  803244:	defffe04 	addi	sp,sp,-8
  803248:	df000115 	stw	fp,4(sp)
  80324c:	df000104 	addi	fp,sp,4
  803250:	e13fff15 	stw	r4,-4(fp)
    ALTERA_MODULAR_ADC_SAMPLE_STORAGE_IRQ_DISABLE(sample_store_base);
  803254:	e0bfff17 	ldw	r2,-4(fp)
  803258:	10804004 	addi	r2,r2,256
  80325c:	1009883a 	mov	r4,r2
  803260:	e0bfff17 	ldw	r2,-4(fp)
  803264:	10804004 	addi	r2,r2,256
  803268:	10c00037 	ldwio	r3,0(r2)
  80326c:	00bfff84 	movi	r2,-2
  803270:	1884703a 	and	r2,r3,r2
  803274:	20800035 	stwio	r2,0(r4)
}
  803278:	0001883a 	nop
  80327c:	e037883a 	mov	sp,fp
  803280:	df000017 	ldw	fp,0(sp)
  803284:	dec00104 	addi	sp,sp,4
  803288:	f800283a 	ret

0080328c <adc_clear_interrupt_status>:

void adc_clear_interrupt_status(int sample_store_base)
{
  80328c:	defffe04 	addi	sp,sp,-8
  803290:	df000115 	stw	fp,4(sp)
  803294:	df000104 	addi	fp,sp,4
  803298:	e13fff15 	stw	r4,-4(fp)
    CLEAR_ALTERA_MODULAR_ADC_SAMPLE_STORAGE_IRQ_STATUS(sample_store_base);
  80329c:	e0bfff17 	ldw	r2,-4(fp)
  8032a0:	10804104 	addi	r2,r2,260
  8032a4:	1007883a 	mov	r3,r2
  8032a8:	e0bfff17 	ldw	r2,-4(fp)
  8032ac:	10804104 	addi	r2,r2,260
  8032b0:	10800037 	ldwio	r2,0(r2)
  8032b4:	10800054 	ori	r2,r2,1
  8032b8:	18800035 	stwio	r2,0(r3)
}
  8032bc:	0001883a 	nop
  8032c0:	e037883a 	mov	sp,fp
  8032c4:	df000017 	ldw	fp,0(sp)
  8032c8:	dec00104 	addi	sp,sp,4
  8032cc:	f800283a 	ret

008032d0 <adc_interrupt_asserted>:

int adc_interrupt_asserted(int sample_store_base)
{
  8032d0:	defffe04 	addi	sp,sp,-8
  8032d4:	df000115 	stw	fp,4(sp)
  8032d8:	df000104 	addi	fp,sp,4
  8032dc:	e13fff15 	stw	r4,-4(fp)
    return((READ_ALTERA_MODULAR_ADC_SAMPLE_STORAGE_IRQ_STATUS(sample_store_base)==1) ? -1 : 0);
  8032e0:	e0bfff17 	ldw	r2,-4(fp)
  8032e4:	10804104 	addi	r2,r2,260
  8032e8:	10800037 	ldwio	r2,0(r2)
  8032ec:	1080004c 	andi	r2,r2,1
  8032f0:	10000226 	beq	r2,zero,8032fc <adc_interrupt_asserted+0x2c>
  8032f4:	00bfffc4 	movi	r2,-1
  8032f8:	00000106 	br	803300 <adc_interrupt_asserted+0x30>
  8032fc:	0005883a 	mov	r2,zero
}
  803300:	e037883a 	mov	sp,fp
  803304:	df000017 	ldw	fp,0(sp)
  803308:	dec00104 	addi	sp,sp,4
  80330c:	f800283a 	ret

00803310 <adc_wait_for_interrupt>:

void adc_wait_for_interrupt(int sample_store_base)
{
  803310:	defffe04 	addi	sp,sp,-8
  803314:	df000115 	stw	fp,4(sp)
  803318:	df000104 	addi	fp,sp,4
  80331c:	e13fff15 	stw	r4,-4(fp)
    WAIT_FOR_ALTERA_MODULAR_ADC_SAMPLE_STORAGE_IRQ(sample_store_base);
  803320:	0001883a 	nop
  803324:	e0bfff17 	ldw	r2,-4(fp)
  803328:	10804104 	addi	r2,r2,260
  80332c:	10800037 	ldwio	r2,0(r2)
  803330:	1080004c 	andi	r2,r2,1
  803334:	103ffb26 	beq	r2,zero,803324 <__alt_data_end+0xff803324>
}
  803338:	0001883a 	nop
  80333c:	e037883a 	mov	sp,fp
  803340:	df000017 	ldw	fp,0(sp)
  803344:	dec00104 	addi	sp,sp,4
  803348:	f800283a 	ret

0080334c <alt_get_errno>:
#undef errno

extern int errno;

static ALT_INLINE int* alt_get_errno(void)
{
  80334c:	defffe04 	addi	sp,sp,-8
  803350:	dfc00115 	stw	ra,4(sp)
  803354:	df000015 	stw	fp,0(sp)
  803358:	d839883a 	mov	fp,sp
  return ((alt_errno) ? alt_errno() : &errno);
  80335c:	00802034 	movhi	r2,128
  803360:	10929c04 	addi	r2,r2,19056
  803364:	10800017 	ldw	r2,0(r2)
  803368:	10000526 	beq	r2,zero,803380 <alt_get_errno+0x34>
  80336c:	00802034 	movhi	r2,128
  803370:	10929c04 	addi	r2,r2,19056
  803374:	10800017 	ldw	r2,0(r2)
  803378:	103ee83a 	callr	r2
  80337c:	00000206 	br	803388 <alt_get_errno+0x3c>
  803380:	00802034 	movhi	r2,128
  803384:	10946d04 	addi	r2,r2,20916
}
  803388:	e037883a 	mov	sp,fp
  80338c:	dfc00117 	ldw	ra,4(sp)
  803390:	df000017 	ldw	fp,0(sp)
  803394:	dec00204 	addi	sp,sp,8
  803398:	f800283a 	ret

0080339c <close>:
 *
 * ALT_CLOSE is mapped onto the close() system call in alt_syscall.h
 */
 
int ALT_CLOSE (int fildes)
{
  80339c:	defffb04 	addi	sp,sp,-20
  8033a0:	dfc00415 	stw	ra,16(sp)
  8033a4:	df000315 	stw	fp,12(sp)
  8033a8:	df000304 	addi	fp,sp,12
  8033ac:	e13fff15 	stw	r4,-4(fp)
   * A common error case is that when the file descriptor was created, the call
   * to open() failed resulting in a negative file descriptor. This is trapped
   * below so that we don't try and process an invalid file descriptor.
   */

  fd = (fildes < 0) ? NULL : &alt_fd_list[fildes];
  8033b0:	e0bfff17 	ldw	r2,-4(fp)
  8033b4:	10000816 	blt	r2,zero,8033d8 <close+0x3c>
  8033b8:	01400304 	movi	r5,12
  8033bc:	e13fff17 	ldw	r4,-4(fp)
  8033c0:	08019280 	call	801928 <__mulsi3>
  8033c4:	1007883a 	mov	r3,r2
  8033c8:	00802034 	movhi	r2,128
  8033cc:	10923004 	addi	r2,r2,18624
  8033d0:	1885883a 	add	r2,r3,r2
  8033d4:	00000106 	br	8033dc <close+0x40>
  8033d8:	0005883a 	mov	r2,zero
  8033dc:	e0bffd15 	stw	r2,-12(fp)

  if (fd)
  8033e0:	e0bffd17 	ldw	r2,-12(fp)
  8033e4:	10001926 	beq	r2,zero,80344c <close+0xb0>
    /*
     * If the associated file system/device has a close function, call it so 
     * that any necessary cleanup code can run.
     */

    rval = (fd->dev->close) ? fd->dev->close(fd) : 0;
  8033e8:	e0bffd17 	ldw	r2,-12(fp)
  8033ec:	10800017 	ldw	r2,0(r2)
  8033f0:	10800417 	ldw	r2,16(r2)
  8033f4:	10000626 	beq	r2,zero,803410 <close+0x74>
  8033f8:	e0bffd17 	ldw	r2,-12(fp)
  8033fc:	10800017 	ldw	r2,0(r2)
  803400:	10800417 	ldw	r2,16(r2)
  803404:	e13ffd17 	ldw	r4,-12(fp)
  803408:	103ee83a 	callr	r2
  80340c:	00000106 	br	803414 <close+0x78>
  803410:	0005883a 	mov	r2,zero
  803414:	e0bffe15 	stw	r2,-8(fp)

    /* Free the file descriptor structure and return. */

    alt_release_fd (fildes);
  803418:	e13fff17 	ldw	r4,-4(fp)
  80341c:	0803d380 	call	803d38 <alt_release_fd>
    if (rval < 0)
  803420:	e0bffe17 	ldw	r2,-8(fp)
  803424:	1000070e 	bge	r2,zero,803444 <close+0xa8>
    {
      ALT_ERRNO = -rval;
  803428:	080334c0 	call	80334c <alt_get_errno>
  80342c:	1007883a 	mov	r3,r2
  803430:	e0bffe17 	ldw	r2,-8(fp)
  803434:	0085c83a 	sub	r2,zero,r2
  803438:	18800015 	stw	r2,0(r3)
      return -1;
  80343c:	00bfffc4 	movi	r2,-1
  803440:	00000706 	br	803460 <close+0xc4>
    }
    return 0;
  803444:	0005883a 	mov	r2,zero
  803448:	00000506 	br	803460 <close+0xc4>
  }
  else
  {
    ALT_ERRNO = EBADFD;
  80344c:	080334c0 	call	80334c <alt_get_errno>
  803450:	1007883a 	mov	r3,r2
  803454:	00801444 	movi	r2,81
  803458:	18800015 	stw	r2,0(r3)
    return -1;
  80345c:	00bfffc4 	movi	r2,-1
  }
}
  803460:	e037883a 	mov	sp,fp
  803464:	dfc00117 	ldw	ra,4(sp)
  803468:	df000017 	ldw	fp,0(sp)
  80346c:	dec00204 	addi	sp,sp,8
  803470:	f800283a 	ret

00803474 <alt_dcache_flush_all>:
/*
 * alt_dcache_flush_all() is called to flush the entire data cache.
 */

void alt_dcache_flush_all (void)
{
  803474:	deffff04 	addi	sp,sp,-4
  803478:	df000015 	stw	fp,0(sp)
  80347c:	d839883a 	mov	fp,sp
  for (i = (char*) 0; i < (char*) NIOS2_DCACHE_SIZE; i+= NIOS2_DCACHE_LINE_SIZE)
  { 
    __asm__ volatile ("flushd (%0)" :: "r" (i));
  }
#endif /* NIOS2_DCACHE_SIZE > 0 */
}
  803480:	0001883a 	nop
  803484:	e037883a 	mov	sp,fp
  803488:	df000017 	ldw	fp,0(sp)
  80348c:	dec00104 	addi	sp,sp,4
  803490:	f800283a 	ret

00803494 <alt_dev_null_write>:
 * by the alt_dev_null device. It simple discards all data passed to it, and
 * indicates that the data has been successfully transmitted.
 */

static int alt_dev_null_write (alt_fd* fd, const char* ptr, int len)
{
  803494:	defffc04 	addi	sp,sp,-16
  803498:	df000315 	stw	fp,12(sp)
  80349c:	df000304 	addi	fp,sp,12
  8034a0:	e13ffd15 	stw	r4,-12(fp)
  8034a4:	e17ffe15 	stw	r5,-8(fp)
  8034a8:	e1bfff15 	stw	r6,-4(fp)
  return len;
  8034ac:	e0bfff17 	ldw	r2,-4(fp)
}
  8034b0:	e037883a 	mov	sp,fp
  8034b4:	df000017 	ldw	fp,0(sp)
  8034b8:	dec00104 	addi	sp,sp,4
  8034bc:	f800283a 	ret

008034c0 <alt_get_errno>:
#undef errno

extern int errno;

static ALT_INLINE int* alt_get_errno(void)
{
  8034c0:	defffe04 	addi	sp,sp,-8
  8034c4:	dfc00115 	stw	ra,4(sp)
  8034c8:	df000015 	stw	fp,0(sp)
  8034cc:	d839883a 	mov	fp,sp
  return ((alt_errno) ? alt_errno() : &errno);
  8034d0:	00802034 	movhi	r2,128
  8034d4:	10929c04 	addi	r2,r2,19056
  8034d8:	10800017 	ldw	r2,0(r2)
  8034dc:	10000526 	beq	r2,zero,8034f4 <alt_get_errno+0x34>
  8034e0:	00802034 	movhi	r2,128
  8034e4:	10929c04 	addi	r2,r2,19056
  8034e8:	10800017 	ldw	r2,0(r2)
  8034ec:	103ee83a 	callr	r2
  8034f0:	00000206 	br	8034fc <alt_get_errno+0x3c>
  8034f4:	00802034 	movhi	r2,128
  8034f8:	10946d04 	addi	r2,r2,20916
}
  8034fc:	e037883a 	mov	sp,fp
  803500:	dfc00117 	ldw	ra,4(sp)
  803504:	df000017 	ldw	fp,0(sp)
  803508:	dec00204 	addi	sp,sp,8
  80350c:	f800283a 	ret

00803510 <alt_dev_llist_insert>:
/*
 *
 */

int alt_dev_llist_insert (alt_dev_llist* dev, alt_llist* list)
{
  803510:	defffa04 	addi	sp,sp,-24
  803514:	dfc00515 	stw	ra,20(sp)
  803518:	df000415 	stw	fp,16(sp)
  80351c:	df000404 	addi	fp,sp,16
  803520:	e13ffe15 	stw	r4,-8(fp)
  803524:	e17fff15 	stw	r5,-4(fp)
  /*
   * check that the device exists, and that it has a valid name.
   */

  if (!dev || !dev->name)
  803528:	e0bffe17 	ldw	r2,-8(fp)
  80352c:	10000326 	beq	r2,zero,80353c <alt_dev_llist_insert+0x2c>
  803530:	e0bffe17 	ldw	r2,-8(fp)
  803534:	10800217 	ldw	r2,8(r2)
  803538:	1000061e 	bne	r2,zero,803554 <alt_dev_llist_insert+0x44>
  {
    ALT_ERRNO = EINVAL;
  80353c:	08034c00 	call	8034c0 <alt_get_errno>
  803540:	1007883a 	mov	r3,r2
  803544:	00800584 	movi	r2,22
  803548:	18800015 	stw	r2,0(r3)
    return -EINVAL;
  80354c:	00bffa84 	movi	r2,-22
  803550:	00001306 	br	8035a0 <alt_dev_llist_insert+0x90>
  
  /*
   * register the device.
   */
  
  alt_llist_insert(list, &dev->llist);
  803554:	e0bffe17 	ldw	r2,-8(fp)
  803558:	e0ffff17 	ldw	r3,-4(fp)
  80355c:	e0fffc15 	stw	r3,-16(fp)
  803560:	e0bffd15 	stw	r2,-12(fp)
 */

static ALT_INLINE void ALT_ALWAYS_INLINE alt_llist_insert(alt_llist* list, 
                alt_llist* entry)
{
  entry->previous = list;
  803564:	e0bffd17 	ldw	r2,-12(fp)
  803568:	e0fffc17 	ldw	r3,-16(fp)
  80356c:	10c00115 	stw	r3,4(r2)
  entry->next     = list->next;
  803570:	e0bffc17 	ldw	r2,-16(fp)
  803574:	10c00017 	ldw	r3,0(r2)
  803578:	e0bffd17 	ldw	r2,-12(fp)
  80357c:	10c00015 	stw	r3,0(r2)

  list->next->previous = entry;
  803580:	e0bffc17 	ldw	r2,-16(fp)
  803584:	10800017 	ldw	r2,0(r2)
  803588:	e0fffd17 	ldw	r3,-12(fp)
  80358c:	10c00115 	stw	r3,4(r2)
  list->next           = entry;
  803590:	e0bffc17 	ldw	r2,-16(fp)
  803594:	e0fffd17 	ldw	r3,-12(fp)
  803598:	10c00015 	stw	r3,0(r2)

  return 0;  
  80359c:	0005883a 	mov	r2,zero
}
  8035a0:	e037883a 	mov	sp,fp
  8035a4:	dfc00117 	ldw	ra,4(sp)
  8035a8:	df000017 	ldw	fp,0(sp)
  8035ac:	dec00204 	addi	sp,sp,8
  8035b0:	f800283a 	ret

008035b4 <alt_find_dev>:
 * "name" must be an exact match for the devices registered name for a match to
 * be found.
 */
 
alt_dev* alt_find_dev(const char* name, alt_llist* llist)
{
  8035b4:	defffa04 	addi	sp,sp,-24
  8035b8:	dfc00515 	stw	ra,20(sp)
  8035bc:	df000415 	stw	fp,16(sp)
  8035c0:	df000404 	addi	fp,sp,16
  8035c4:	e13ffe15 	stw	r4,-8(fp)
  8035c8:	e17fff15 	stw	r5,-4(fp)
  alt_dev* next = (alt_dev*) llist->next;
  8035cc:	e0bfff17 	ldw	r2,-4(fp)
  8035d0:	10800017 	ldw	r2,0(r2)
  8035d4:	e0bffc15 	stw	r2,-16(fp)
  alt_32 len;

  len  = strlen(name) + 1;
  8035d8:	e13ffe17 	ldw	r4,-8(fp)
  8035dc:	0801e040 	call	801e04 <strlen>
  8035e0:	10800044 	addi	r2,r2,1
  8035e4:	e0bffd15 	stw	r2,-12(fp)
  /*
   * Check each list entry in turn, until a match is found, or we reach the
   * end of the list (i.e. next winds up pointing back to the list head).
   */ 

  while (next != (alt_dev*) llist)
  8035e8:	00000d06 	br	803620 <alt_find_dev+0x6c>
    /* 
     * memcmp() is used here rather than strcmp() in order to reduce the size
     * of the executable.
     */

    if (!memcmp (next->name, name, len))
  8035ec:	e0bffc17 	ldw	r2,-16(fp)
  8035f0:	10800217 	ldw	r2,8(r2)
  8035f4:	e0fffd17 	ldw	r3,-12(fp)
  8035f8:	180d883a 	mov	r6,r3
  8035fc:	e17ffe17 	ldw	r5,-8(fp)
  803600:	1009883a 	mov	r4,r2
  803604:	08040840 	call	804084 <memcmp>
  803608:	1000021e 	bne	r2,zero,803614 <alt_find_dev+0x60>
    {
      /* match found */

      return next;
  80360c:	e0bffc17 	ldw	r2,-16(fp)
  803610:	00000706 	br	803630 <alt_find_dev+0x7c>
    }
    next = (alt_dev*) next->llist.next;
  803614:	e0bffc17 	ldw	r2,-16(fp)
  803618:	10800017 	ldw	r2,0(r2)
  80361c:	e0bffc15 	stw	r2,-16(fp)
  /*
   * Check each list entry in turn, until a match is found, or we reach the
   * end of the list (i.e. next winds up pointing back to the list head).
   */ 

  while (next != (alt_dev*) llist)
  803620:	e0fffc17 	ldw	r3,-16(fp)
  803624:	e0bfff17 	ldw	r2,-4(fp)
  803628:	18bff01e 	bne	r3,r2,8035ec <__alt_data_end+0xff8035ec>
    next = (alt_dev*) next->llist.next;
  }
  
  /* No match found */
  
  return NULL;
  80362c:	0005883a 	mov	r2,zero
}
  803630:	e037883a 	mov	sp,fp
  803634:	dfc00117 	ldw	ra,4(sp)
  803638:	df000017 	ldw	fp,0(sp)
  80363c:	dec00204 	addi	sp,sp,8
  803640:	f800283a 	ret

00803644 <alt_icache_flush_all>:
/*
 * alt_icache_flush_all() is called to flush the entire instruction cache.
 */

void alt_icache_flush_all (void)
{
  803644:	deffff04 	addi	sp,sp,-4
  803648:	df000015 	stw	fp,0(sp)
  80364c:	d839883a 	mov	fp,sp
#if NIOS2_ICACHE_SIZE > 0
  alt_icache_flush (0, NIOS2_ICACHE_SIZE);
#endif
}
  803650:	0001883a 	nop
  803654:	e037883a 	mov	sp,fp
  803658:	df000017 	ldw	fp,0(sp)
  80365c:	dec00104 	addi	sp,sp,4
  803660:	f800283a 	ret

00803664 <alt_ic_isr_register>:
  * @param irq              IRQ number
  * @return                 0 if successful, else error (-1)
  */
int alt_ic_isr_register(alt_u32 ic_id, alt_u32 irq, alt_isr_func isr, 
  void *isr_context, void *flags)
{
  803664:	defff904 	addi	sp,sp,-28
  803668:	dfc00615 	stw	ra,24(sp)
  80366c:	df000515 	stw	fp,20(sp)
  803670:	df000504 	addi	fp,sp,20
  803674:	e13ffc15 	stw	r4,-16(fp)
  803678:	e17ffd15 	stw	r5,-12(fp)
  80367c:	e1bffe15 	stw	r6,-8(fp)
  803680:	e1ffff15 	stw	r7,-4(fp)
    return alt_iic_isr_register(ic_id, irq, isr, isr_context, flags);
  803684:	e0800217 	ldw	r2,8(fp)
  803688:	d8800015 	stw	r2,0(sp)
  80368c:	e1ffff17 	ldw	r7,-4(fp)
  803690:	e1bffe17 	ldw	r6,-8(fp)
  803694:	e17ffd17 	ldw	r5,-12(fp)
  803698:	e13ffc17 	ldw	r4,-16(fp)
  80369c:	08038440 	call	803844 <alt_iic_isr_register>
}  
  8036a0:	e037883a 	mov	sp,fp
  8036a4:	dfc00117 	ldw	ra,4(sp)
  8036a8:	df000017 	ldw	fp,0(sp)
  8036ac:	dec00204 	addi	sp,sp,8
  8036b0:	f800283a 	ret

008036b4 <alt_ic_irq_enable>:
  * @param ic_id            Ignored.
  * @param irq              IRQ number
  * @return                 0 if successful, else error (-1)
  */
int alt_ic_irq_enable (alt_u32 ic_id, alt_u32 irq)
{
  8036b4:	defff904 	addi	sp,sp,-28
  8036b8:	df000615 	stw	fp,24(sp)
  8036bc:	df000604 	addi	fp,sp,24
  8036c0:	e13ffe15 	stw	r4,-8(fp)
  8036c4:	e17fff15 	stw	r5,-4(fp)
  8036c8:	e0bfff17 	ldw	r2,-4(fp)
  8036cc:	e0bffa15 	stw	r2,-24(fp)
static ALT_INLINE alt_irq_context ALT_ALWAYS_INLINE 
       alt_irq_disable_all (void)
{
  alt_irq_context context;

  NIOS2_READ_STATUS (context);
  8036d0:	0005303a 	rdctl	r2,status
  8036d4:	e0bffb15 	stw	r2,-20(fp)

  NIOS2_WRITE_STATUS (context & ~NIOS2_STATUS_PIE_MSK);
  8036d8:	e0fffb17 	ldw	r3,-20(fp)
  8036dc:	00bfff84 	movi	r2,-2
  8036e0:	1884703a 	and	r2,r3,r2
  8036e4:	1001703a 	wrctl	status,r2
  
  return context;
  8036e8:	e0bffb17 	ldw	r2,-20(fp)
static ALT_INLINE int ALT_ALWAYS_INLINE alt_irq_enable (alt_u32 id)
{
  alt_irq_context  status;
  extern volatile alt_u32 alt_irq_active;

  status = alt_irq_disable_all ();
  8036ec:	e0bffc15 	stw	r2,-16(fp)

  alt_irq_active |= (1 << id);
  8036f0:	00c00044 	movi	r3,1
  8036f4:	e0bffa17 	ldw	r2,-24(fp)
  8036f8:	1884983a 	sll	r2,r3,r2
  8036fc:	1007883a 	mov	r3,r2
  803700:	00802034 	movhi	r2,128
  803704:	10947104 	addi	r2,r2,20932
  803708:	10800017 	ldw	r2,0(r2)
  80370c:	1886b03a 	or	r3,r3,r2
  803710:	00802034 	movhi	r2,128
  803714:	10947104 	addi	r2,r2,20932
  803718:	10c00015 	stw	r3,0(r2)
  NIOS2_WRITE_IENABLE (alt_irq_active);
  80371c:	00802034 	movhi	r2,128
  803720:	10947104 	addi	r2,r2,20932
  803724:	10800017 	ldw	r2,0(r2)
  803728:	100170fa 	wrctl	ienable,r2
  80372c:	e0bffc17 	ldw	r2,-16(fp)
  803730:	e0bffd15 	stw	r2,-12(fp)
  status &= ~NIOS2_STATUS_PIE_MSK;
  status |= (context & NIOS2_STATUS_PIE_MSK);
  
  NIOS2_WRITE_STATUS (status);
#else
  NIOS2_WRITE_STATUS (context);
  803734:	e0bffd17 	ldw	r2,-12(fp)
  803738:	1001703a 	wrctl	status,r2

  alt_irq_enable_all(status);

  return 0;
  80373c:	0005883a 	mov	r2,zero
    return alt_irq_enable(irq);
  803740:	0001883a 	nop
}
  803744:	e037883a 	mov	sp,fp
  803748:	df000017 	ldw	fp,0(sp)
  80374c:	dec00104 	addi	sp,sp,4
  803750:	f800283a 	ret

00803754 <alt_ic_irq_disable>:
  * @param ic_id            Ignored.
  * @param irq              IRQ number
  * @return                 0 if successful, else error (-1)
  */
int alt_ic_irq_disable(alt_u32 ic_id, alt_u32 irq)
{
  803754:	defff904 	addi	sp,sp,-28
  803758:	df000615 	stw	fp,24(sp)
  80375c:	df000604 	addi	fp,sp,24
  803760:	e13ffe15 	stw	r4,-8(fp)
  803764:	e17fff15 	stw	r5,-4(fp)
  803768:	e0bfff17 	ldw	r2,-4(fp)
  80376c:	e0bffa15 	stw	r2,-24(fp)
static ALT_INLINE alt_irq_context ALT_ALWAYS_INLINE 
       alt_irq_disable_all (void)
{
  alt_irq_context context;

  NIOS2_READ_STATUS (context);
  803770:	0005303a 	rdctl	r2,status
  803774:	e0bffb15 	stw	r2,-20(fp)

  NIOS2_WRITE_STATUS (context & ~NIOS2_STATUS_PIE_MSK);
  803778:	e0fffb17 	ldw	r3,-20(fp)
  80377c:	00bfff84 	movi	r2,-2
  803780:	1884703a 	and	r2,r3,r2
  803784:	1001703a 	wrctl	status,r2
  
  return context;
  803788:	e0bffb17 	ldw	r2,-20(fp)
static ALT_INLINE int ALT_ALWAYS_INLINE alt_irq_disable (alt_u32 id)
{
  alt_irq_context  status;
  extern volatile alt_u32 alt_irq_active;

  status = alt_irq_disable_all ();
  80378c:	e0bffc15 	stw	r2,-16(fp)

  alt_irq_active &= ~(1 << id);
  803790:	00c00044 	movi	r3,1
  803794:	e0bffa17 	ldw	r2,-24(fp)
  803798:	1884983a 	sll	r2,r3,r2
  80379c:	0084303a 	nor	r2,zero,r2
  8037a0:	1007883a 	mov	r3,r2
  8037a4:	00802034 	movhi	r2,128
  8037a8:	10947104 	addi	r2,r2,20932
  8037ac:	10800017 	ldw	r2,0(r2)
  8037b0:	1886703a 	and	r3,r3,r2
  8037b4:	00802034 	movhi	r2,128
  8037b8:	10947104 	addi	r2,r2,20932
  8037bc:	10c00015 	stw	r3,0(r2)
  NIOS2_WRITE_IENABLE (alt_irq_active);
  8037c0:	00802034 	movhi	r2,128
  8037c4:	10947104 	addi	r2,r2,20932
  8037c8:	10800017 	ldw	r2,0(r2)
  8037cc:	100170fa 	wrctl	ienable,r2
  8037d0:	e0bffc17 	ldw	r2,-16(fp)
  8037d4:	e0bffd15 	stw	r2,-12(fp)
  status &= ~NIOS2_STATUS_PIE_MSK;
  status |= (context & NIOS2_STATUS_PIE_MSK);
  
  NIOS2_WRITE_STATUS (status);
#else
  NIOS2_WRITE_STATUS (context);
  8037d8:	e0bffd17 	ldw	r2,-12(fp)
  8037dc:	1001703a 	wrctl	status,r2

  alt_irq_enable_all(status);

  return 0;
  8037e0:	0005883a 	mov	r2,zero
    return alt_irq_disable(irq);
  8037e4:	0001883a 	nop
}
  8037e8:	e037883a 	mov	sp,fp
  8037ec:	df000017 	ldw	fp,0(sp)
  8037f0:	dec00104 	addi	sp,sp,4
  8037f4:	f800283a 	ret

008037f8 <alt_ic_irq_enabled>:
  * @param irq              IRQ number
  * @return                 Zero if corresponding interrupt is disabled and
  *                         non-zero otherwise.
  */
alt_u32 alt_ic_irq_enabled(alt_u32 ic_id, alt_u32 irq)
{
  8037f8:	defffc04 	addi	sp,sp,-16
  8037fc:	df000315 	stw	fp,12(sp)
  803800:	df000304 	addi	fp,sp,12
  803804:	e13ffe15 	stw	r4,-8(fp)
  803808:	e17fff15 	stw	r5,-4(fp)
    alt_u32 irq_enabled;

    NIOS2_READ_IENABLE(irq_enabled);
  80380c:	000530fa 	rdctl	r2,ienable
  803810:	e0bffd15 	stw	r2,-12(fp)

    return (irq_enabled & (1 << irq)) ? 1: 0;
  803814:	00c00044 	movi	r3,1
  803818:	e0bfff17 	ldw	r2,-4(fp)
  80381c:	1884983a 	sll	r2,r3,r2
  803820:	1007883a 	mov	r3,r2
  803824:	e0bffd17 	ldw	r2,-12(fp)
  803828:	1884703a 	and	r2,r3,r2
  80382c:	1004c03a 	cmpne	r2,r2,zero
  803830:	10803fcc 	andi	r2,r2,255
}
  803834:	e037883a 	mov	sp,fp
  803838:	df000017 	ldw	fp,0(sp)
  80383c:	dec00104 	addi	sp,sp,4
  803840:	f800283a 	ret

00803844 <alt_iic_isr_register>:
  * @param flags            
  * @return                 0 if successful, else error (-1)
  */
int alt_iic_isr_register(alt_u32 ic_id, alt_u32 irq, alt_isr_func isr, 
  void *isr_context, void *flags)
{
  803844:	defff504 	addi	sp,sp,-44
  803848:	dfc00a15 	stw	ra,40(sp)
  80384c:	df000915 	stw	fp,36(sp)
  803850:	df000904 	addi	fp,sp,36
  803854:	e13ffc15 	stw	r4,-16(fp)
  803858:	e17ffd15 	stw	r5,-12(fp)
  80385c:	e1bffe15 	stw	r6,-8(fp)
  803860:	e1ffff15 	stw	r7,-4(fp)
  int rc = -EINVAL;  
  803864:	00bffa84 	movi	r2,-22
  803868:	e0bff715 	stw	r2,-36(fp)
  int id = irq;             /* IRQ interpreted as the interrupt ID. */
  80386c:	e0bffd17 	ldw	r2,-12(fp)
  803870:	e0bff815 	stw	r2,-32(fp)
  alt_irq_context status;

  if (id < ALT_NIRQ)
  803874:	e0bff817 	ldw	r2,-32(fp)
  803878:	10800808 	cmpgei	r2,r2,32
  80387c:	1000271e 	bne	r2,zero,80391c <alt_iic_isr_register+0xd8>
static ALT_INLINE alt_irq_context ALT_ALWAYS_INLINE 
       alt_irq_disable_all (void)
{
  alt_irq_context context;

  NIOS2_READ_STATUS (context);
  803880:	0005303a 	rdctl	r2,status
  803884:	e0bffb15 	stw	r2,-20(fp)

  NIOS2_WRITE_STATUS (context & ~NIOS2_STATUS_PIE_MSK);
  803888:	e0fffb17 	ldw	r3,-20(fp)
  80388c:	00bfff84 	movi	r2,-2
  803890:	1884703a 	and	r2,r3,r2
  803894:	1001703a 	wrctl	status,r2
  
  return context;
  803898:	e0bffb17 	ldw	r2,-20(fp)
     * interrupts are disabled while the handler tables are updated to ensure
     * that an interrupt doesn't occur while the tables are in an inconsistant
     * state.
     */

    status = alt_irq_disable_all();
  80389c:	e0bffa15 	stw	r2,-24(fp)

    alt_irq[id].handler = isr;
  8038a0:	00802034 	movhi	r2,128
  8038a4:	10947304 	addi	r2,r2,20940
  8038a8:	e0fff817 	ldw	r3,-32(fp)
  8038ac:	180690fa 	slli	r3,r3,3
  8038b0:	10c5883a 	add	r2,r2,r3
  8038b4:	e0fffe17 	ldw	r3,-8(fp)
  8038b8:	10c00015 	stw	r3,0(r2)
    alt_irq[id].context = isr_context;
  8038bc:	00802034 	movhi	r2,128
  8038c0:	10947304 	addi	r2,r2,20940
  8038c4:	e0fff817 	ldw	r3,-32(fp)
  8038c8:	180690fa 	slli	r3,r3,3
  8038cc:	10c5883a 	add	r2,r2,r3
  8038d0:	10800104 	addi	r2,r2,4
  8038d4:	e0ffff17 	ldw	r3,-4(fp)
  8038d8:	10c00015 	stw	r3,0(r2)

    rc = (isr) ? alt_ic_irq_enable(ic_id, id) : alt_ic_irq_disable(ic_id, id);
  8038dc:	e0bffe17 	ldw	r2,-8(fp)
  8038e0:	10000526 	beq	r2,zero,8038f8 <alt_iic_isr_register+0xb4>
  8038e4:	e0bff817 	ldw	r2,-32(fp)
  8038e8:	100b883a 	mov	r5,r2
  8038ec:	e13ffc17 	ldw	r4,-16(fp)
  8038f0:	08036b40 	call	8036b4 <alt_ic_irq_enable>
  8038f4:	00000406 	br	803908 <alt_iic_isr_register+0xc4>
  8038f8:	e0bff817 	ldw	r2,-32(fp)
  8038fc:	100b883a 	mov	r5,r2
  803900:	e13ffc17 	ldw	r4,-16(fp)
  803904:	08037540 	call	803754 <alt_ic_irq_disable>
  803908:	e0bff715 	stw	r2,-36(fp)
  80390c:	e0bffa17 	ldw	r2,-24(fp)
  803910:	e0bff915 	stw	r2,-28(fp)
  status &= ~NIOS2_STATUS_PIE_MSK;
  status |= (context & NIOS2_STATUS_PIE_MSK);
  
  NIOS2_WRITE_STATUS (status);
#else
  NIOS2_WRITE_STATUS (context);
  803914:	e0bff917 	ldw	r2,-28(fp)
  803918:	1001703a 	wrctl	status,r2

    alt_irq_enable_all(status);
  }

  return rc; 
  80391c:	e0bff717 	ldw	r2,-36(fp)
}
  803920:	e037883a 	mov	sp,fp
  803924:	dfc00117 	ldw	ra,4(sp)
  803928:	df000017 	ldw	fp,0(sp)
  80392c:	dec00204 	addi	sp,sp,8
  803930:	f800283a 	ret

00803934 <alt_open_fd>:
 * If the device can not be succesfully opened, then the input file descriptor
 * remains unchanged.
 */

static void alt_open_fd(alt_fd* fd, const char* name, int flags, int mode)
{
  803934:	defff804 	addi	sp,sp,-32
  803938:	dfc00715 	stw	ra,28(sp)
  80393c:	df000615 	stw	fp,24(sp)
  803940:	dc000515 	stw	r16,20(sp)
  803944:	df000604 	addi	fp,sp,24
  803948:	e13ffb15 	stw	r4,-20(fp)
  80394c:	e17ffc15 	stw	r5,-16(fp)
  803950:	e1bffd15 	stw	r6,-12(fp)
  803954:	e1fffe15 	stw	r7,-8(fp)
  int old;

  old = open (name, flags, mode);
  803958:	e1bffe17 	ldw	r6,-8(fp)
  80395c:	e17ffd17 	ldw	r5,-12(fp)
  803960:	e13ffc17 	ldw	r4,-16(fp)
  803964:	0803bd80 	call	803bd8 <open>
  803968:	e0bffa15 	stw	r2,-24(fp)

  if (old >= 0)
  80396c:	e0bffa17 	ldw	r2,-24(fp)
  803970:	10002216 	blt	r2,zero,8039fc <alt_open_fd+0xc8>
  {
    fd->dev      = alt_fd_list[old].dev;
  803974:	04002034 	movhi	r16,128
  803978:	84123004 	addi	r16,r16,18624
  80397c:	e0bffa17 	ldw	r2,-24(fp)
  803980:	01400304 	movi	r5,12
  803984:	1009883a 	mov	r4,r2
  803988:	08019280 	call	801928 <__mulsi3>
  80398c:	8085883a 	add	r2,r16,r2
  803990:	10c00017 	ldw	r3,0(r2)
  803994:	e0bffb17 	ldw	r2,-20(fp)
  803998:	10c00015 	stw	r3,0(r2)
    fd->priv     = alt_fd_list[old].priv;
  80399c:	04002034 	movhi	r16,128
  8039a0:	84123004 	addi	r16,r16,18624
  8039a4:	e0bffa17 	ldw	r2,-24(fp)
  8039a8:	01400304 	movi	r5,12
  8039ac:	1009883a 	mov	r4,r2
  8039b0:	08019280 	call	801928 <__mulsi3>
  8039b4:	8085883a 	add	r2,r16,r2
  8039b8:	10800104 	addi	r2,r2,4
  8039bc:	10c00017 	ldw	r3,0(r2)
  8039c0:	e0bffb17 	ldw	r2,-20(fp)
  8039c4:	10c00115 	stw	r3,4(r2)
    fd->fd_flags = alt_fd_list[old].fd_flags;
  8039c8:	04002034 	movhi	r16,128
  8039cc:	84123004 	addi	r16,r16,18624
  8039d0:	e0bffa17 	ldw	r2,-24(fp)
  8039d4:	01400304 	movi	r5,12
  8039d8:	1009883a 	mov	r4,r2
  8039dc:	08019280 	call	801928 <__mulsi3>
  8039e0:	8085883a 	add	r2,r16,r2
  8039e4:	10800204 	addi	r2,r2,8
  8039e8:	10c00017 	ldw	r3,0(r2)
  8039ec:	e0bffb17 	ldw	r2,-20(fp)
  8039f0:	10c00215 	stw	r3,8(r2)

    alt_release_fd (old);
  8039f4:	e13ffa17 	ldw	r4,-24(fp)
  8039f8:	0803d380 	call	803d38 <alt_release_fd>
  }
} 
  8039fc:	0001883a 	nop
  803a00:	e6ffff04 	addi	sp,fp,-4
  803a04:	dfc00217 	ldw	ra,8(sp)
  803a08:	df000117 	ldw	fp,4(sp)
  803a0c:	dc000017 	ldw	r16,0(sp)
  803a10:	dec00304 	addi	sp,sp,12
  803a14:	f800283a 	ret

00803a18 <alt_io_redirect>:
 */
 
void alt_io_redirect(const char* stdout_dev, 
                     const char* stdin_dev, 
                     const char* stderr_dev)
{
  803a18:	defffb04 	addi	sp,sp,-20
  803a1c:	dfc00415 	stw	ra,16(sp)
  803a20:	df000315 	stw	fp,12(sp)
  803a24:	df000304 	addi	fp,sp,12
  803a28:	e13ffd15 	stw	r4,-12(fp)
  803a2c:	e17ffe15 	stw	r5,-8(fp)
  803a30:	e1bfff15 	stw	r6,-4(fp)
  /* Redirect the channels */

  alt_open_fd (&alt_fd_list[STDOUT_FILENO], stdout_dev, O_WRONLY, 0777);
  803a34:	01c07fc4 	movi	r7,511
  803a38:	01800044 	movi	r6,1
  803a3c:	e17ffd17 	ldw	r5,-12(fp)
  803a40:	01002034 	movhi	r4,128
  803a44:	21123304 	addi	r4,r4,18636
  803a48:	08039340 	call	803934 <alt_open_fd>
  alt_open_fd (&alt_fd_list[STDIN_FILENO], stdin_dev, O_RDONLY, 0777);
  803a4c:	01c07fc4 	movi	r7,511
  803a50:	000d883a 	mov	r6,zero
  803a54:	e17ffe17 	ldw	r5,-8(fp)
  803a58:	01002034 	movhi	r4,128
  803a5c:	21123004 	addi	r4,r4,18624
  803a60:	08039340 	call	803934 <alt_open_fd>
  alt_open_fd (&alt_fd_list[STDERR_FILENO], stderr_dev, O_WRONLY, 0777);
  803a64:	01c07fc4 	movi	r7,511
  803a68:	01800044 	movi	r6,1
  803a6c:	e17fff17 	ldw	r5,-4(fp)
  803a70:	01002034 	movhi	r4,128
  803a74:	21123604 	addi	r4,r4,18648
  803a78:	08039340 	call	803934 <alt_open_fd>
}  
  803a7c:	0001883a 	nop
  803a80:	e037883a 	mov	sp,fp
  803a84:	dfc00117 	ldw	ra,4(sp)
  803a88:	df000017 	ldw	fp,0(sp)
  803a8c:	dec00204 	addi	sp,sp,8
  803a90:	f800283a 	ret

00803a94 <alt_get_errno>:
#undef errno

extern int errno;

static ALT_INLINE int* alt_get_errno(void)
{
  803a94:	defffe04 	addi	sp,sp,-8
  803a98:	dfc00115 	stw	ra,4(sp)
  803a9c:	df000015 	stw	fp,0(sp)
  803aa0:	d839883a 	mov	fp,sp
  return ((alt_errno) ? alt_errno() : &errno);
  803aa4:	00802034 	movhi	r2,128
  803aa8:	10929c04 	addi	r2,r2,19056
  803aac:	10800017 	ldw	r2,0(r2)
  803ab0:	10000526 	beq	r2,zero,803ac8 <alt_get_errno+0x34>
  803ab4:	00802034 	movhi	r2,128
  803ab8:	10929c04 	addi	r2,r2,19056
  803abc:	10800017 	ldw	r2,0(r2)
  803ac0:	103ee83a 	callr	r2
  803ac4:	00000206 	br	803ad0 <alt_get_errno+0x3c>
  803ac8:	00802034 	movhi	r2,128
  803acc:	10946d04 	addi	r2,r2,20916
}
  803ad0:	e037883a 	mov	sp,fp
  803ad4:	dfc00117 	ldw	ra,4(sp)
  803ad8:	df000017 	ldw	fp,0(sp)
  803adc:	dec00204 	addi	sp,sp,8
  803ae0:	f800283a 	ret

00803ae4 <alt_file_locked>:
 * performed for devices. Filesystems are required to handle the ioctl() call
 * themselves, and report the error from the filesystems open() function. 
 */ 

static int alt_file_locked (alt_fd* fd)
{
  803ae4:	defffb04 	addi	sp,sp,-20
  803ae8:	dfc00415 	stw	ra,16(sp)
  803aec:	df000315 	stw	fp,12(sp)
  803af0:	dc000215 	stw	r16,8(sp)
  803af4:	df000304 	addi	fp,sp,12
  803af8:	e13ffe15 	stw	r4,-8(fp)

  /*
   * Mark the file descriptor as belonging to a device.
   */

  fd->fd_flags |= ALT_FD_DEV;
  803afc:	e0bffe17 	ldw	r2,-8(fp)
  803b00:	10800217 	ldw	r2,8(r2)
  803b04:	10d00034 	orhi	r3,r2,16384
  803b08:	e0bffe17 	ldw	r2,-8(fp)
  803b0c:	10c00215 	stw	r3,8(r2)
  /*
   * Loop through all current file descriptors searching for one that's locked
   * for exclusive access. If a match is found, generate an error.
   */

  for (i = 0; i <= alt_max_fd; i++)
  803b10:	e03ffd15 	stw	zero,-12(fp)
  803b14:	00002306 	br	803ba4 <alt_file_locked+0xc0>
  {
    if ((alt_fd_list[i].dev == fd->dev) &&
  803b18:	04002034 	movhi	r16,128
  803b1c:	84123004 	addi	r16,r16,18624
  803b20:	e0bffd17 	ldw	r2,-12(fp)
  803b24:	01400304 	movi	r5,12
  803b28:	1009883a 	mov	r4,r2
  803b2c:	08019280 	call	801928 <__mulsi3>
  803b30:	8085883a 	add	r2,r16,r2
  803b34:	10c00017 	ldw	r3,0(r2)
  803b38:	e0bffe17 	ldw	r2,-8(fp)
  803b3c:	10800017 	ldw	r2,0(r2)
  803b40:	1880151e 	bne	r3,r2,803b98 <alt_file_locked+0xb4>
        (alt_fd_list[i].fd_flags & ALT_FD_EXCL) &&
  803b44:	04002034 	movhi	r16,128
  803b48:	84123004 	addi	r16,r16,18624
  803b4c:	e0bffd17 	ldw	r2,-12(fp)
  803b50:	01400304 	movi	r5,12
  803b54:	1009883a 	mov	r4,r2
  803b58:	08019280 	call	801928 <__mulsi3>
  803b5c:	8085883a 	add	r2,r16,r2
  803b60:	10800204 	addi	r2,r2,8
  803b64:	10800017 	ldw	r2,0(r2)
   * for exclusive access. If a match is found, generate an error.
   */

  for (i = 0; i <= alt_max_fd; i++)
  {
    if ((alt_fd_list[i].dev == fd->dev) &&
  803b68:	10000b0e 	bge	r2,zero,803b98 <alt_file_locked+0xb4>
        (alt_fd_list[i].fd_flags & ALT_FD_EXCL) &&
        (&alt_fd_list[i] != fd))
  803b6c:	01400304 	movi	r5,12
  803b70:	e13ffd17 	ldw	r4,-12(fp)
  803b74:	08019280 	call	801928 <__mulsi3>
  803b78:	1007883a 	mov	r3,r2
  803b7c:	00802034 	movhi	r2,128
  803b80:	10923004 	addi	r2,r2,18624
  803b84:	1887883a 	add	r3,r3,r2
   */

  for (i = 0; i <= alt_max_fd; i++)
  {
    if ((alt_fd_list[i].dev == fd->dev) &&
        (alt_fd_list[i].fd_flags & ALT_FD_EXCL) &&
  803b88:	e0bffe17 	ldw	r2,-8(fp)
  803b8c:	18800226 	beq	r3,r2,803b98 <alt_file_locked+0xb4>
        (&alt_fd_list[i] != fd))
    {
      return -EACCES;
  803b90:	00bffcc4 	movi	r2,-13
  803b94:	00000a06 	br	803bc0 <alt_file_locked+0xdc>
  /*
   * Loop through all current file descriptors searching for one that's locked
   * for exclusive access. If a match is found, generate an error.
   */

  for (i = 0; i <= alt_max_fd; i++)
  803b98:	e0bffd17 	ldw	r2,-12(fp)
  803b9c:	10800044 	addi	r2,r2,1
  803ba0:	e0bffd15 	stw	r2,-12(fp)
  803ba4:	00802034 	movhi	r2,128
  803ba8:	10929b04 	addi	r2,r2,19052
  803bac:	10800017 	ldw	r2,0(r2)
  803bb0:	1007883a 	mov	r3,r2
  803bb4:	e0bffd17 	ldw	r2,-12(fp)
  803bb8:	18bfd72e 	bgeu	r3,r2,803b18 <__alt_data_end+0xff803b18>
    }
  }
  
  /* The device is not locked */
 
  return 0;
  803bbc:	0005883a 	mov	r2,zero
}
  803bc0:	e6ffff04 	addi	sp,fp,-4
  803bc4:	dfc00217 	ldw	ra,8(sp)
  803bc8:	df000117 	ldw	fp,4(sp)
  803bcc:	dc000017 	ldw	r16,0(sp)
  803bd0:	dec00304 	addi	sp,sp,12
  803bd4:	f800283a 	ret

00803bd8 <open>:
 *
 * ALT_OPEN is mapped onto the open() system call in alt_syscall.h
 */
 
int ALT_OPEN (const char* file, int flags, int mode)
{ 
  803bd8:	defff604 	addi	sp,sp,-40
  803bdc:	dfc00915 	stw	ra,36(sp)
  803be0:	df000815 	stw	fp,32(sp)
  803be4:	df000804 	addi	fp,sp,32
  803be8:	e13ffd15 	stw	r4,-12(fp)
  803bec:	e17ffe15 	stw	r5,-8(fp)
  803bf0:	e1bfff15 	stw	r6,-4(fp)
  alt_dev* dev;
  alt_fd*  fd;
  int index  = -1;
  803bf4:	00bfffc4 	movi	r2,-1
  803bf8:	e0bff915 	stw	r2,-28(fp)
  int status = -ENODEV;
  803bfc:	00bffb44 	movi	r2,-19
  803c00:	e0bffa15 	stw	r2,-24(fp)
  int isafs = 0;
  803c04:	e03ffb15 	stw	zero,-20(fp)
  /* 
   * Check the device list, to see if a device with a matching name is 
   * registered.
   */
  
  if (!(dev = alt_find_dev (file, &alt_dev_list)))
  803c08:	01402034 	movhi	r5,128
  803c0c:	29529904 	addi	r5,r5,19044
  803c10:	e13ffd17 	ldw	r4,-12(fp)
  803c14:	08035b40 	call	8035b4 <alt_find_dev>
  803c18:	e0bff815 	stw	r2,-32(fp)
  803c1c:	e0bff817 	ldw	r2,-32(fp)
  803c20:	1000051e 	bne	r2,zero,803c38 <open+0x60>
  {
    /* No matching device, so try the filesystem list */

    dev   = alt_find_file (file);
  803c24:	e13ffd17 	ldw	r4,-12(fp)
  803c28:	0803de00 	call	803de0 <alt_find_file>
  803c2c:	e0bff815 	stw	r2,-32(fp)
    isafs = 1;
  803c30:	00800044 	movi	r2,1
  803c34:	e0bffb15 	stw	r2,-20(fp)

  /* 
   * If a matching device or filesystem is found, allocate a file descriptor. 
   */

  if (dev)
  803c38:	e0bff817 	ldw	r2,-32(fp)
  803c3c:	10002b26 	beq	r2,zero,803cec <open+0x114>
  {
    if ((index = alt_get_fd (dev)) < 0)
  803c40:	e13ff817 	ldw	r4,-32(fp)
  803c44:	0803ef40 	call	803ef4 <alt_get_fd>
  803c48:	e0bff915 	stw	r2,-28(fp)
  803c4c:	e0bff917 	ldw	r2,-28(fp)
  803c50:	1000030e 	bge	r2,zero,803c60 <open+0x88>
    {
      status = index;
  803c54:	e0bff917 	ldw	r2,-28(fp)
  803c58:	e0bffa15 	stw	r2,-24(fp)
  803c5c:	00002506 	br	803cf4 <open+0x11c>
    }
    else
    {
      fd = &alt_fd_list[index];
  803c60:	01400304 	movi	r5,12
  803c64:	e13ff917 	ldw	r4,-28(fp)
  803c68:	08019280 	call	801928 <__mulsi3>
  803c6c:	1007883a 	mov	r3,r2
  803c70:	00802034 	movhi	r2,128
  803c74:	10923004 	addi	r2,r2,18624
  803c78:	1885883a 	add	r2,r3,r2
  803c7c:	e0bffc15 	stw	r2,-16(fp)
      fd->fd_flags = (flags & ~ALT_FD_FLAGS_MASK);
  803c80:	e0fffe17 	ldw	r3,-8(fp)
  803c84:	00900034 	movhi	r2,16384
  803c88:	10bfffc4 	addi	r2,r2,-1
  803c8c:	1886703a 	and	r3,r3,r2
  803c90:	e0bffc17 	ldw	r2,-16(fp)
  803c94:	10c00215 	stw	r3,8(r2)
      
      /* If this is a device, ensure it isn't already locked */

      if (isafs || ((status = alt_file_locked (fd)) >= 0))
  803c98:	e0bffb17 	ldw	r2,-20(fp)
  803c9c:	1000051e 	bne	r2,zero,803cb4 <open+0xdc>
  803ca0:	e13ffc17 	ldw	r4,-16(fp)
  803ca4:	0803ae40 	call	803ae4 <alt_file_locked>
  803ca8:	e0bffa15 	stw	r2,-24(fp)
  803cac:	e0bffa17 	ldw	r2,-24(fp)
  803cb0:	10001016 	blt	r2,zero,803cf4 <open+0x11c>
        /* 
         * If the device or filesystem provides an open() callback function,
         * call it now to perform any device/filesystem specific operations.
         */
    
        status = (dev->open) ? dev->open(fd, file, flags, mode): 0;
  803cb4:	e0bff817 	ldw	r2,-32(fp)
  803cb8:	10800317 	ldw	r2,12(r2)
  803cbc:	10000826 	beq	r2,zero,803ce0 <open+0x108>
  803cc0:	e0bff817 	ldw	r2,-32(fp)
  803cc4:	10800317 	ldw	r2,12(r2)
  803cc8:	e1ffff17 	ldw	r7,-4(fp)
  803ccc:	e1bffe17 	ldw	r6,-8(fp)
  803cd0:	e17ffd17 	ldw	r5,-12(fp)
  803cd4:	e13ffc17 	ldw	r4,-16(fp)
  803cd8:	103ee83a 	callr	r2
  803cdc:	00000106 	br	803ce4 <open+0x10c>
  803ce0:	0005883a 	mov	r2,zero
  803ce4:	e0bffa15 	stw	r2,-24(fp)
  803ce8:	00000206 	br	803cf4 <open+0x11c>
      }
    }
  }
  else
  {
    status = -ENODEV;
  803cec:	00bffb44 	movi	r2,-19
  803cf0:	e0bffa15 	stw	r2,-24(fp)
  }

  /* Allocation failed, so clean up and return an error */ 

  if (status < 0)
  803cf4:	e0bffa17 	ldw	r2,-24(fp)
  803cf8:	1000090e 	bge	r2,zero,803d20 <open+0x148>
  {
    alt_release_fd (index);  
  803cfc:	e13ff917 	ldw	r4,-28(fp)
  803d00:	0803d380 	call	803d38 <alt_release_fd>
    ALT_ERRNO = -status;
  803d04:	0803a940 	call	803a94 <alt_get_errno>
  803d08:	1007883a 	mov	r3,r2
  803d0c:	e0bffa17 	ldw	r2,-24(fp)
  803d10:	0085c83a 	sub	r2,zero,r2
  803d14:	18800015 	stw	r2,0(r3)
    return -1;
  803d18:	00bfffc4 	movi	r2,-1
  803d1c:	00000106 	br	803d24 <open+0x14c>
  }
  
  /* return the reference upon success */

  return index;
  803d20:	e0bff917 	ldw	r2,-28(fp)
}
  803d24:	e037883a 	mov	sp,fp
  803d28:	dfc00117 	ldw	ra,4(sp)
  803d2c:	df000017 	ldw	fp,0(sp)
  803d30:	dec00204 	addi	sp,sp,8
  803d34:	f800283a 	ret

00803d38 <alt_release_fd>:
 * File descriptors correcponding to standard in, standard out and standard 
 * error cannont be released backed to the pool. They are always reserved.
 */

void alt_release_fd (int fd)
{
  803d38:	defffc04 	addi	sp,sp,-16
  803d3c:	dfc00315 	stw	ra,12(sp)
  803d40:	df000215 	stw	fp,8(sp)
  803d44:	dc000115 	stw	r16,4(sp)
  803d48:	df000204 	addi	fp,sp,8
  803d4c:	e13ffe15 	stw	r4,-8(fp)
  if (fd > 2)
  803d50:	e0bffe17 	ldw	r2,-8(fp)
  803d54:	108000d0 	cmplti	r2,r2,3
  803d58:	1000111e 	bne	r2,zero,803da0 <alt_release_fd+0x68>
  {
    alt_fd_list[fd].fd_flags = 0;
  803d5c:	04002034 	movhi	r16,128
  803d60:	84123004 	addi	r16,r16,18624
  803d64:	e0bffe17 	ldw	r2,-8(fp)
  803d68:	01400304 	movi	r5,12
  803d6c:	1009883a 	mov	r4,r2
  803d70:	08019280 	call	801928 <__mulsi3>
  803d74:	8085883a 	add	r2,r16,r2
  803d78:	10800204 	addi	r2,r2,8
  803d7c:	10000015 	stw	zero,0(r2)
    alt_fd_list[fd].dev      = 0;
  803d80:	04002034 	movhi	r16,128
  803d84:	84123004 	addi	r16,r16,18624
  803d88:	e0bffe17 	ldw	r2,-8(fp)
  803d8c:	01400304 	movi	r5,12
  803d90:	1009883a 	mov	r4,r2
  803d94:	08019280 	call	801928 <__mulsi3>
  803d98:	8085883a 	add	r2,r16,r2
  803d9c:	10000015 	stw	zero,0(r2)
  }
}
  803da0:	0001883a 	nop
  803da4:	e6ffff04 	addi	sp,fp,-4
  803da8:	dfc00217 	ldw	ra,8(sp)
  803dac:	df000117 	ldw	fp,4(sp)
  803db0:	dc000017 	ldw	r16,0(sp)
  803db4:	dec00304 	addi	sp,sp,12
  803db8:	f800283a 	ret

00803dbc <altera_nios2_gen2_irq_init>:
/*
 * To initialize the internal interrupt controller, just clear the IENABLE
 * register so that all possible IRQs are disabled.
 */
void altera_nios2_gen2_irq_init(void) 
{
  803dbc:	deffff04 	addi	sp,sp,-4
  803dc0:	df000015 	stw	fp,0(sp)
  803dc4:	d839883a 	mov	fp,sp
    NIOS2_WRITE_IENABLE(0);
  803dc8:	000170fa 	wrctl	ienable,zero
}
  803dcc:	0001883a 	nop
  803dd0:	e037883a 	mov	sp,fp
  803dd4:	df000017 	ldw	fp,0(sp)
  803dd8:	dec00104 	addi	sp,sp,4
  803ddc:	f800283a 	ret

00803de0 <alt_find_file>:
 * either '/' or '\0' is the prefix of the filename. For example the filename:
 * "/myfilesystem/junk.txt" would match: "/myfilesystem", but not: "/myfile". 
 */
 
alt_dev* alt_find_file (const char* name)
{
  803de0:	defffb04 	addi	sp,sp,-20
  803de4:	dfc00415 	stw	ra,16(sp)
  803de8:	df000315 	stw	fp,12(sp)
  803dec:	df000304 	addi	fp,sp,12
  803df0:	e13fff15 	stw	r4,-4(fp)
  alt_dev* next = (alt_dev*) alt_fs_list.next;   
  803df4:	00802034 	movhi	r2,128
  803df8:	10929704 	addi	r2,r2,19036
  803dfc:	10800017 	ldw	r2,0(r2)
  803e00:	e0bffd15 	stw	r2,-12(fp)
  /*
   * Check each list entry in turn, until a match is found, or we reach the
   * end of the list (i.e. next winds up pointing back to the list head).
   */ 
 
  while (next != (alt_dev*) &alt_fs_list)
  803e04:	00003106 	br	803ecc <alt_find_file+0xec>
  {
    len = strlen(next->name);
  803e08:	e0bffd17 	ldw	r2,-12(fp)
  803e0c:	10800217 	ldw	r2,8(r2)
  803e10:	1009883a 	mov	r4,r2
  803e14:	0801e040 	call	801e04 <strlen>
  803e18:	e0bffe15 	stw	r2,-8(fp)
    
    if (next->name[len-1] == '/')
  803e1c:	e0bffd17 	ldw	r2,-12(fp)
  803e20:	10c00217 	ldw	r3,8(r2)
  803e24:	e0bffe17 	ldw	r2,-8(fp)
  803e28:	10bfffc4 	addi	r2,r2,-1
  803e2c:	1885883a 	add	r2,r3,r2
  803e30:	10800003 	ldbu	r2,0(r2)
  803e34:	10803fcc 	andi	r2,r2,255
  803e38:	1080201c 	xori	r2,r2,128
  803e3c:	10bfe004 	addi	r2,r2,-128
  803e40:	10800bd8 	cmpnei	r2,r2,47
  803e44:	1000031e 	bne	r2,zero,803e54 <alt_find_file+0x74>
    {
      len -= 1;
  803e48:	e0bffe17 	ldw	r2,-8(fp)
  803e4c:	10bfffc4 	addi	r2,r2,-1
  803e50:	e0bffe15 	stw	r2,-8(fp)
    }

    if (((name[len] == '/') || (name[len] == '\0')) && 
  803e54:	e0bffe17 	ldw	r2,-8(fp)
  803e58:	e0ffff17 	ldw	r3,-4(fp)
  803e5c:	1885883a 	add	r2,r3,r2
  803e60:	10800003 	ldbu	r2,0(r2)
  803e64:	10803fcc 	andi	r2,r2,255
  803e68:	1080201c 	xori	r2,r2,128
  803e6c:	10bfe004 	addi	r2,r2,-128
  803e70:	10800be0 	cmpeqi	r2,r2,47
  803e74:	1000081e 	bne	r2,zero,803e98 <alt_find_file+0xb8>
  803e78:	e0bffe17 	ldw	r2,-8(fp)
  803e7c:	e0ffff17 	ldw	r3,-4(fp)
  803e80:	1885883a 	add	r2,r3,r2
  803e84:	10800003 	ldbu	r2,0(r2)
  803e88:	10803fcc 	andi	r2,r2,255
  803e8c:	1080201c 	xori	r2,r2,128
  803e90:	10bfe004 	addi	r2,r2,-128
  803e94:	10000a1e 	bne	r2,zero,803ec0 <alt_find_file+0xe0>
        !memcmp (next->name, name, len))
  803e98:	e0bffd17 	ldw	r2,-12(fp)
  803e9c:	10800217 	ldw	r2,8(r2)
  803ea0:	e0fffe17 	ldw	r3,-8(fp)
  803ea4:	180d883a 	mov	r6,r3
  803ea8:	e17fff17 	ldw	r5,-4(fp)
  803eac:	1009883a 	mov	r4,r2
  803eb0:	08040840 	call	804084 <memcmp>
    if (next->name[len-1] == '/')
    {
      len -= 1;
    }

    if (((name[len] == '/') || (name[len] == '\0')) && 
  803eb4:	1000021e 	bne	r2,zero,803ec0 <alt_find_file+0xe0>
        !memcmp (next->name, name, len))
    {
      /* match found */

      return next;
  803eb8:	e0bffd17 	ldw	r2,-12(fp)
  803ebc:	00000806 	br	803ee0 <alt_find_file+0x100>
    }
    next = (alt_dev*) next->llist.next;
  803ec0:	e0bffd17 	ldw	r2,-12(fp)
  803ec4:	10800017 	ldw	r2,0(r2)
  803ec8:	e0bffd15 	stw	r2,-12(fp)
  /*
   * Check each list entry in turn, until a match is found, or we reach the
   * end of the list (i.e. next winds up pointing back to the list head).
   */ 
 
  while (next != (alt_dev*) &alt_fs_list)
  803ecc:	e0fffd17 	ldw	r3,-12(fp)
  803ed0:	00802034 	movhi	r2,128
  803ed4:	10929704 	addi	r2,r2,19036
  803ed8:	18bfcb1e 	bne	r3,r2,803e08 <__alt_data_end+0xff803e08>
    next = (alt_dev*) next->llist.next;
  }
  
  /* No match found */
  
  return NULL;     
  803edc:	0005883a 	mov	r2,zero
}
  803ee0:	e037883a 	mov	sp,fp
  803ee4:	dfc00117 	ldw	ra,4(sp)
  803ee8:	df000017 	ldw	fp,0(sp)
  803eec:	dec00204 	addi	sp,sp,8
  803ef0:	f800283a 	ret

00803ef4 <alt_get_fd>:
 * the offset of the file descriptor within the file descriptor array). A
 * negative value indicates failure.
 */

int alt_get_fd (alt_dev* dev)
{
  803ef4:	defffa04 	addi	sp,sp,-24
  803ef8:	dfc00515 	stw	ra,20(sp)
  803efc:	df000415 	stw	fp,16(sp)
  803f00:	dc000315 	stw	r16,12(sp)
  803f04:	df000404 	addi	fp,sp,16
  803f08:	e13ffe15 	stw	r4,-8(fp)
  alt_32 i;
  int rc = -EMFILE;
  803f0c:	00bffa04 	movi	r2,-24
  803f10:	e0bffd15 	stw	r2,-12(fp)
   * indicates the highest file descriptor ever allocated. This is used to
   * improve efficency when searching the file descriptor list, and 
   * therefore reduce contention on the alt_fd_list_lock semaphore. 
   */

  for (i = 0; i < ALT_MAX_FD; i++)
  803f14:	e03ffc15 	stw	zero,-16(fp)
  803f18:	00002106 	br	803fa0 <alt_get_fd+0xac>
  {
    if (!alt_fd_list[i].dev)
  803f1c:	04002034 	movhi	r16,128
  803f20:	84123004 	addi	r16,r16,18624
  803f24:	e0bffc17 	ldw	r2,-16(fp)
  803f28:	01400304 	movi	r5,12
  803f2c:	1009883a 	mov	r4,r2
  803f30:	08019280 	call	801928 <__mulsi3>
  803f34:	8085883a 	add	r2,r16,r2
  803f38:	10800017 	ldw	r2,0(r2)
  803f3c:	1000151e 	bne	r2,zero,803f94 <alt_get_fd+0xa0>
    {
      alt_fd_list[i].dev = dev;
  803f40:	04002034 	movhi	r16,128
  803f44:	84123004 	addi	r16,r16,18624
  803f48:	e0bffc17 	ldw	r2,-16(fp)
  803f4c:	01400304 	movi	r5,12
  803f50:	1009883a 	mov	r4,r2
  803f54:	08019280 	call	801928 <__mulsi3>
  803f58:	8085883a 	add	r2,r16,r2
  803f5c:	e0fffe17 	ldw	r3,-8(fp)
  803f60:	10c00015 	stw	r3,0(r2)
      if (i > alt_max_fd)
  803f64:	00802034 	movhi	r2,128
  803f68:	10929b04 	addi	r2,r2,19052
  803f6c:	10c00017 	ldw	r3,0(r2)
  803f70:	e0bffc17 	ldw	r2,-16(fp)
  803f74:	1880040e 	bge	r3,r2,803f88 <alt_get_fd+0x94>
      {
        alt_max_fd = i;
  803f78:	00802034 	movhi	r2,128
  803f7c:	10929b04 	addi	r2,r2,19052
  803f80:	e0fffc17 	ldw	r3,-16(fp)
  803f84:	10c00015 	stw	r3,0(r2)
      }
      rc = i;
  803f88:	e0bffc17 	ldw	r2,-16(fp)
  803f8c:	e0bffd15 	stw	r2,-12(fp)
      goto alt_get_fd_exit;
  803f90:	00000606 	br	803fac <alt_get_fd+0xb8>
   * indicates the highest file descriptor ever allocated. This is used to
   * improve efficency when searching the file descriptor list, and 
   * therefore reduce contention on the alt_fd_list_lock semaphore. 
   */

  for (i = 0; i < ALT_MAX_FD; i++)
  803f94:	e0bffc17 	ldw	r2,-16(fp)
  803f98:	10800044 	addi	r2,r2,1
  803f9c:	e0bffc15 	stw	r2,-16(fp)
  803fa0:	e0bffc17 	ldw	r2,-16(fp)
  803fa4:	10800810 	cmplti	r2,r2,32
  803fa8:	103fdc1e 	bne	r2,zero,803f1c <__alt_data_end+0xff803f1c>
   * file descriptor pool.
   */

  ALT_SEM_POST(alt_fd_list_lock);

  return rc;
  803fac:	e0bffd17 	ldw	r2,-12(fp)
}
  803fb0:	e6ffff04 	addi	sp,fp,-4
  803fb4:	dfc00217 	ldw	ra,8(sp)
  803fb8:	df000117 	ldw	fp,4(sp)
  803fbc:	dc000017 	ldw	r16,0(sp)
  803fc0:	dec00304 	addi	sp,sp,12
  803fc4:	f800283a 	ret

00803fc8 <alt_exception_cause_generated_bad_addr>:
 * Return: 1: BADADDR (bad_addr argument to handler) is valid
 *         0: BADADDR is not valid
 */
int 
alt_exception_cause_generated_bad_addr(alt_exception_cause cause)
{
  803fc8:	defffe04 	addi	sp,sp,-8
  803fcc:	df000115 	stw	fp,4(sp)
  803fd0:	df000104 	addi	fp,sp,4
  803fd4:	e13fff15 	stw	r4,-4(fp)
  switch (cause) {
  803fd8:	e0bfff17 	ldw	r2,-4(fp)
  803fdc:	10bffe84 	addi	r2,r2,-6
  803fe0:	10c00428 	cmpgeui	r3,r2,16
  803fe4:	18001a1e 	bne	r3,zero,804050 <alt_exception_cause_generated_bad_addr+0x88>
  803fe8:	100690ba 	slli	r3,r2,2
  803fec:	00802034 	movhi	r2,128
  803ff0:	10900004 	addi	r2,r2,16384
  803ff4:	1885883a 	add	r2,r3,r2
  803ff8:	10800017 	ldw	r2,0(r2)
  803ffc:	1000683a 	jmp	r2
  804000:	00804040 	call	80404 <__reset-0x77fbfc>
  804004:	00804040 	call	80404 <__reset-0x77fbfc>
  804008:	00804050 	cmplti	r2,zero,257
  80400c:	00804050 	cmplti	r2,zero,257
  804010:	00804050 	cmplti	r2,zero,257
  804014:	00804040 	call	80404 <__reset-0x77fbfc>
  804018:	00804048 	cmpgei	r2,zero,257
  80401c:	00804050 	cmplti	r2,zero,257
  804020:	00804040 	call	80404 <__reset-0x77fbfc>
  804024:	00804040 	call	80404 <__reset-0x77fbfc>
  804028:	00804050 	cmplti	r2,zero,257
  80402c:	00804040 	call	80404 <__reset-0x77fbfc>
  804030:	00804048 	cmpgei	r2,zero,257
  804034:	00804050 	cmplti	r2,zero,257
  804038:	00804050 	cmplti	r2,zero,257
  80403c:	00804040 	call	80404 <__reset-0x77fbfc>
  case NIOS2_EXCEPTION_MISALIGNED_TARGET_PC:
  case NIOS2_EXCEPTION_TLB_READ_PERM_VIOLATION:
  case NIOS2_EXCEPTION_TLB_WRITE_PERM_VIOLATION:
  case NIOS2_EXCEPTION_MPU_DATA_REGION_VIOLATION:
  case NIOS2_EXCEPTION_ECC_DATA_ERR:
    return 1;
  804040:	00800044 	movi	r2,1
  804044:	00000306 	br	804054 <alt_exception_cause_generated_bad_addr+0x8c>

  case NIOS2_EXCEPTION_TLB_MISS:
  case NIOS2_EXCEPTION_ECC_TLB_ERR:
    return 0;
  804048:	0005883a 	mov	r2,zero
  80404c:	00000106 	br	804054 <alt_exception_cause_generated_bad_addr+0x8c>

  default:
    return 0;
  804050:	0005883a 	mov	r2,zero
  }
}
  804054:	e037883a 	mov	sp,fp
  804058:	df000017 	ldw	fp,0(sp)
  80405c:	dec00104 	addi	sp,sp,4
  804060:	f800283a 	ret

00804064 <exit>:
  804064:	defffe04 	addi	sp,sp,-8
  804068:	000b883a 	mov	r5,zero
  80406c:	dc000015 	stw	r16,0(sp)
  804070:	dfc00115 	stw	ra,4(sp)
  804074:	2021883a 	mov	r16,r4
  804078:	08040b40 	call	8040b4 <__call_exitprocs>
  80407c:	8009883a 	mov	r4,r16
  804080:	08042440 	call	804244 <_exit>

00804084 <memcmp>:
  804084:	218d883a 	add	r6,r4,r6
  804088:	21800826 	beq	r4,r6,8040ac <memcmp+0x28>
  80408c:	20800003 	ldbu	r2,0(r4)
  804090:	28c00003 	ldbu	r3,0(r5)
  804094:	10c00226 	beq	r2,r3,8040a0 <memcmp+0x1c>
  804098:	10c5c83a 	sub	r2,r2,r3
  80409c:	f800283a 	ret
  8040a0:	21000044 	addi	r4,r4,1
  8040a4:	29400044 	addi	r5,r5,1
  8040a8:	003ff706 	br	804088 <__alt_data_end+0xff804088>
  8040ac:	0005883a 	mov	r2,zero
  8040b0:	f800283a 	ret

008040b4 <__call_exitprocs>:
  8040b4:	defff504 	addi	sp,sp,-44
  8040b8:	dd000515 	stw	r20,20(sp)
  8040bc:	05002034 	movhi	r20,128
  8040c0:	dc800315 	stw	r18,12(sp)
  8040c4:	dfc00a15 	stw	ra,40(sp)
  8040c8:	df000915 	stw	fp,36(sp)
  8040cc:	ddc00815 	stw	r23,32(sp)
  8040d0:	dd800715 	stw	r22,28(sp)
  8040d4:	dd400615 	stw	r21,24(sp)
  8040d8:	dcc00415 	stw	r19,16(sp)
  8040dc:	dc400215 	stw	r17,8(sp)
  8040e0:	dc000115 	stw	r16,4(sp)
  8040e4:	d9000015 	stw	r4,0(sp)
  8040e8:	2825883a 	mov	r18,r5
  8040ec:	a5129204 	addi	r20,r20,19016
  8040f0:	a4400017 	ldw	r17,0(r20)
  8040f4:	8cc00c17 	ldw	r19,48(r17)
  8040f8:	8c400c04 	addi	r17,r17,48
  8040fc:	98004526 	beq	r19,zero,804214 <__call_exitprocs+0x160>
  804100:	9c000117 	ldw	r16,4(r19)
  804104:	00900034 	movhi	r2,16384
  804108:	10bfffc4 	addi	r2,r2,-1
  80410c:	9d402217 	ldw	r21,136(r19)
  804110:	85bfffc4 	addi	r22,r16,-1
  804114:	80a1883a 	add	r16,r16,r2
  804118:	8421883a 	add	r16,r16,r16
  80411c:	8421883a 	add	r16,r16,r16
  804120:	ac2f883a 	add	r23,r21,r16
  804124:	84000204 	addi	r16,r16,8
  804128:	9c21883a 	add	r16,r19,r16
  80412c:	b0002716 	blt	r22,zero,8041cc <__call_exitprocs+0x118>
  804130:	90000726 	beq	r18,zero,804150 <__call_exitprocs+0x9c>
  804134:	a800041e 	bne	r21,zero,804148 <__call_exitprocs+0x94>
  804138:	b5bfffc4 	addi	r22,r22,-1
  80413c:	bdffff04 	addi	r23,r23,-4
  804140:	843fff04 	addi	r16,r16,-4
  804144:	003ff906 	br	80412c <__alt_data_end+0xff80412c>
  804148:	b9002017 	ldw	r4,128(r23)
  80414c:	913ffa1e 	bne	r18,r4,804138 <__alt_data_end+0xff804138>
  804150:	99000117 	ldw	r4,4(r19)
  804154:	82000017 	ldw	r8,0(r16)
  804158:	213fffc4 	addi	r4,r4,-1
  80415c:	b100021e 	bne	r22,r4,804168 <__call_exitprocs+0xb4>
  804160:	9d800115 	stw	r22,4(r19)
  804164:	00000106 	br	80416c <__call_exitprocs+0xb8>
  804168:	80000015 	stw	zero,0(r16)
  80416c:	403ff226 	beq	r8,zero,804138 <__alt_data_end+0xff804138>
  804170:	9f000117 	ldw	fp,4(r19)
  804174:	a8000526 	beq	r21,zero,80418c <__call_exitprocs+0xd8>
  804178:	00800044 	movi	r2,1
  80417c:	1592983a 	sll	r9,r2,r22
  804180:	a9404017 	ldw	r5,256(r21)
  804184:	494a703a 	and	r5,r9,r5
  804188:	2800021e 	bne	r5,zero,804194 <__call_exitprocs+0xe0>
  80418c:	403ee83a 	callr	r8
  804190:	00000906 	br	8041b8 <__call_exitprocs+0x104>
  804194:	a9004117 	ldw	r4,260(r21)
  804198:	4908703a 	and	r4,r9,r4
  80419c:	2000041e 	bne	r4,zero,8041b0 <__call_exitprocs+0xfc>
  8041a0:	b9400017 	ldw	r5,0(r23)
  8041a4:	d9000017 	ldw	r4,0(sp)
  8041a8:	403ee83a 	callr	r8
  8041ac:	00000206 	br	8041b8 <__call_exitprocs+0x104>
  8041b0:	b9000017 	ldw	r4,0(r23)
  8041b4:	403ee83a 	callr	r8
  8041b8:	99000117 	ldw	r4,4(r19)
  8041bc:	e13fcc1e 	bne	fp,r4,8040f0 <__alt_data_end+0xff8040f0>
  8041c0:	89000017 	ldw	r4,0(r17)
  8041c4:	993fdc26 	beq	r19,r4,804138 <__alt_data_end+0xff804138>
  8041c8:	003fc906 	br	8040f0 <__alt_data_end+0xff8040f0>
  8041cc:	00802034 	movhi	r2,128
  8041d0:	10865f04 	addi	r2,r2,6524
  8041d4:	10000f26 	beq	r2,zero,804214 <__call_exitprocs+0x160>
  8041d8:	99400117 	ldw	r5,4(r19)
  8041dc:	99000017 	ldw	r4,0(r19)
  8041e0:	2800091e 	bne	r5,zero,804208 <__call_exitprocs+0x154>
  8041e4:	20000826 	beq	r4,zero,804208 <__call_exitprocs+0x154>
  8041e8:	89000015 	stw	r4,0(r17)
  8041ec:	a8000226 	beq	r21,zero,8041f8 <__call_exitprocs+0x144>
  8041f0:	a809883a 	mov	r4,r21
  8041f4:	080197c0 	call	80197c <free>
  8041f8:	9809883a 	mov	r4,r19
  8041fc:	080197c0 	call	80197c <free>
  804200:	8cc00017 	ldw	r19,0(r17)
  804204:	003fbd06 	br	8040fc <__alt_data_end+0xff8040fc>
  804208:	9823883a 	mov	r17,r19
  80420c:	2027883a 	mov	r19,r4
  804210:	003fba06 	br	8040fc <__alt_data_end+0xff8040fc>
  804214:	dfc00a17 	ldw	ra,40(sp)
  804218:	df000917 	ldw	fp,36(sp)
  80421c:	ddc00817 	ldw	r23,32(sp)
  804220:	dd800717 	ldw	r22,28(sp)
  804224:	dd400617 	ldw	r21,24(sp)
  804228:	dd000517 	ldw	r20,20(sp)
  80422c:	dcc00417 	ldw	r19,16(sp)
  804230:	dc800317 	ldw	r18,12(sp)
  804234:	dc400217 	ldw	r17,8(sp)
  804238:	dc000117 	ldw	r16,4(sp)
  80423c:	dec00b04 	addi	sp,sp,44
  804240:	f800283a 	ret

00804244 <_exit>:
 *
 * ALT_EXIT is mapped onto the _exit() system call in alt_syscall.h
 */

void ALT_EXIT (int exit_code)
{
  804244:	defffd04 	addi	sp,sp,-12
  804248:	df000215 	stw	fp,8(sp)
  80424c:	df000204 	addi	fp,sp,8
  804250:	e13fff15 	stw	r4,-4(fp)
  ALT_LOG_PRINT_BOOT("[alt_exit.c] Entering _exit() function.\r\n");
  ALT_LOG_PRINT_BOOT("[alt_exit.c] Exit code from main was %d.\r\n",exit_code);
  /* Stop all other threads */

  ALT_LOG_PRINT_BOOT("[alt_exit.c] Calling ALT_OS_STOP().\r\n");
  ALT_OS_STOP();
  804254:	0001883a 	nop
  804258:	e0bfff17 	ldw	r2,-4(fp)
  80425c:	e0bffe15 	stw	r2,-8(fp)
/*
 * Routine called on exit.
 */
static ALT_INLINE ALT_ALWAYS_INLINE void alt_sim_halt(int exit_code)
{
  register int r2 asm ("r2") = exit_code;
  804260:	e0bffe17 	ldw	r2,-8(fp)
  __asm__ volatile ("\n0:\n\taddi %0,%0, -1\n\tbgt %0,zero,0b" : : "r" (ALT_CPU_FREQ/100) ); /* Delay for >30ms */

  __asm__ volatile ("break 2" : : "r"(r2), "r"(r3) ALT_GMON_DATA );

#else /* !DEBUG_STUB */
  if (r2) {
  804264:	10000226 	beq	r2,zero,804270 <_exit+0x2c>
    ALT_SIM_FAIL();
  804268:	002af070 	cmpltui	zero,zero,43969
  80426c:	00000106 	br	804274 <_exit+0x30>
  } else {
    ALT_SIM_PASS();
  804270:	002af0b0 	cmpltui	zero,zero,43970
  ALT_SIM_HALT(exit_code);

  /* spin forever, since there's no where to go back to */

  ALT_LOG_PRINT_BOOT("[alt_exit.c] Spinning forever.\r\n");
  while (1);
  804274:	003fff06 	br	804274 <__alt_data_end+0xff804274>
